
Drone Board.elf:     file format elf32-littleriscv
Drone Board.elf
architecture: riscv:rv32, flags 0x00000112:
EXEC_P, HAS_SYMS, D_PAGED
start address 0x00000000

Program Header:
    LOAD off    0x00001000 vaddr 0x00000000 paddr 0x00000000 align 2**12
         filesz 0x0000df9c memsz 0x0000df9c flags r-x
    LOAD off    0x0000f000 vaddr 0x20000000 paddr 0x0000df9c align 2**12
         filesz 0x000000a8 memsz 0x00003408 flags rw-
    LOAD off    0x0000f800 vaddr 0x20004800 paddr 0x20004800 align 2**12
         filesz 0x00000000 memsz 0x00000800 flags rw-

Sections:
Idx Name          Size      VMA       LMA       File off  Algn
  0 .init         00000038  00000000  00000000  00001000  2**1
                  CONTENTS, ALLOC, LOAD, READONLY, CODE
  1 .vector       00000108  00000038  00000038  00001038  2**1
                  CONTENTS, ALLOC, LOAD, READONLY, CODE
  2 .text         0000dd9c  00000200  00000200  00001200  2**8
                  CONTENTS, ALLOC, LOAD, READONLY, CODE
  3 .fini         00000000  0000df9c  0000df9c  0000f0a8  2**0
                  CONTENTS, ALLOC, LOAD, CODE
  4 .dalign       00000000  20000000  20000000  0000f0a8  2**0
                  CONTENTS
  5 .dlalign      00000000  0000df9c  0000df9c  0000f0a8  2**0
                  CONTENTS
  6 .data         000000a8  20000000  0000df9c  0000f000  2**2
                  CONTENTS, ALLOC, LOAD, DATA
  7 .bss          00003360  200000a8  0000e044  0000f0a8  2**2
                  ALLOC
  8 .stack        00000800  20004800  20004800  0000f800  2**0
                  ALLOC
  9 .debug_info   000279e9  00000000  00000000  0000f0a8  2**0
                  CONTENTS, READONLY, DEBUGGING
 10 .debug_abbrev 000057d9  00000000  00000000  00036a91  2**0
                  CONTENTS, READONLY, DEBUGGING
 11 .debug_loc    0000bcb9  00000000  00000000  0003c26a  2**0
                  CONTENTS, READONLY, DEBUGGING
 12 .debug_aranges 000011a0  00000000  00000000  00047f28  2**3
                  CONTENTS, READONLY, DEBUGGING
 13 .debug_ranges 00001308  00000000  00000000  000490c8  2**3
                  CONTENTS, READONLY, DEBUGGING
 14 .debug_line   0001e2f4  00000000  00000000  0004a3d0  2**0
                  CONTENTS, READONLY, DEBUGGING
 15 .debug_str    000067db  00000000  00000000  000686c4  2**0
                  CONTENTS, READONLY, DEBUGGING
 16 .comment      00000033  00000000  00000000  0006ee9f  2**0
                  CONTENTS, READONLY
 17 .debug_frame  00004230  00000000  00000000  0006eed4  2**2
                  CONTENTS, READONLY, DEBUGGING
 18 .stab         00000084  00000000  00000000  00073104  2**2
                  CONTENTS, READONLY, DEBUGGING
 19 .stabstr      00000117  00000000  00000000  00073188  2**0
                  CONTENTS, READONLY, DEBUGGING
SYMBOL TABLE:
00000000 l    d  .init	00000000 .init
00000038 l    d  .vector	00000000 .vector
00000200 l    d  .text	00000000 .text
0000df9c l    d  .fini	00000000 .fini
20000000 l    d  .dalign	00000000 .dalign
0000df9c l    d  .dlalign	00000000 .dlalign
20000000 l    d  .data	00000000 .data
200000a8 l    d  .bss	00000000 .bss
20004800 l    d  .stack	00000000 .stack
00000000 l    d  .debug_info	00000000 .debug_info
00000000 l    d  .debug_abbrev	00000000 .debug_abbrev
00000000 l    d  .debug_loc	00000000 .debug_loc
00000000 l    d  .debug_aranges	00000000 .debug_aranges
00000000 l    d  .debug_ranges	00000000 .debug_ranges
00000000 l    d  .debug_line	00000000 .debug_line
00000000 l    d  .debug_str	00000000 .debug_str
00000000 l    d  .comment	00000000 .comment
00000000 l    d  .debug_frame	00000000 .debug_frame
00000000 l    d  .stab	00000000 .stab
00000000 l    d  .stabstr	00000000 .stabstr
00000000 l    df *ABS*	00000000 ./Code/MCAL/Startup/startup_ch32v20x_D6.o
00000038 l       .vector	00000000 _vector_base
00000000 l    df *ABS*	00000000 ./Code/Service/FreeRTOS/portable/GCC/RISC-V/portASM.o
0000025c l       .text	00000000 processed_source
00000428 l       .text	00000000 chip_specific_stack_frame
00000000 l    df *ABS*	00000000 Service_RTOS_wrapper.c
00000000 l    df *ABS*	00000000 heap_4.c
0000073a l     F .text	0000006a prvHeapInit
2000017c l     O .bss	00003000 ucHeap
000007a4 l     F .text	00000058 prvInsertBlockIntoFreeList
200000a8 l     O .bss	00000004 pxEnd
200000ac l     O .bss	00000004 xBlockAllocatedBit
200000b0 l     O .bss	00000004 xFreeBytesRemaining
200000b4 l     O .bss	00000004 xMinimumEverFreeBytesRemaining
200000b8 l     O .bss	00000004 xNumberOfSuccessfulAllocations
200000bc l     O .bss	00000004 xNumberOfSuccessfulFrees
200000c0 l     O .bss	00000008 xStart
00000000 l    df *ABS*	00000000 port.c
20000080 l     O .data	00000004 uxCriticalNesting
00000000 l    df *ABS*	00000000 list.c
00000000 l    df *ABS*	00000000 queue.c
00000c4a l     F .text	0000001e prvIsQueueFull
00000c68 l     F .text	0000001a prvIsQueueEmpty
00000c82 l     F .text	00000080 prvCopyDataToQueue
00000d02 l     F .text	00000028 prvCopyDataFromQueue
00000d2a l     F .text	0000006e prvUnlockQueue
00000e5a l     F .text	0000001a prvInitialiseNewQueue
00000000 l    df *ABS*	00000000 tasks.c
000012f4 l     F .text	0000002e prvResetNextTaskUnblockTime
00001322 l     F .text	00000016 prvDeleteTCB
00001338 l     F .text	000000cc prvInitialiseNewTask
00001404 l     F .text	00000080 prvInitialiseTaskLists
00001484 l     F .text	000000f0 prvAddNewTaskToReadyList
00001574 l     F .text	0000005a prvCheckTasksWaitingTermination
000015ce l     F .text	00000008 prvIdleTask
000015d6 l     F .text	000000ba prvAddCurrentTaskToDelayedList
200031bc l     O .bss	0000008c pxReadyTasksLists
20003248 l     O .bss	00000014 xDelayedTaskList1
2000325c l     O .bss	00000014 xDelayedTaskList2
20003270 l     O .bss	00000014 xPendingReadyList
20003284 l     O .bss	00000014 xSuspendedTaskList
20003298 l     O .bss	00000014 xTasksWaitingTermination
200000cc l     O .bss	00000004 pxDelayedTaskList
200000d0 l     O .bss	00000004 pxOverflowDelayedTaskList
200000d4 l     O .bss	00000004 uxCurrentNumberOfTasks
200000d8 l     O .bss	00000004 uxDeletedTasksWaitingCleanUp
200000dc l     O .bss	00000004 uxSchedulerSuspended
200000e0 l     O .bss	00000004 uxTaskNumber
200000e4 l     O .bss	00000004 uxTopReadyPriority
200000e8 l     O .bss	00000004 xIdleTaskHandle
200000ec l     O .bss	00000004 xNextTaskUnblockTime
200000f0 l     O .bss	00000004 xNumOfOverflows
200000f4 l     O .bss	00000004 xPendedTicks
200000f8 l     O .bss	00000004 xSchedulerRunning
200000fc l     O .bss	00000004 xTickCount
20000100 l     O .bss	00000004 xYieldPending
00000000 l    df *ABS*	00000000 timers.c
00002424 l     F .text	00000020 prvGetNextExpireTime
00002444 l     F .text	0000004e prvInsertTimerInActiveList
00002492 l     F .text	00000028 prvReloadTimer
000024ba l     F .text	00000040 prvProcessExpiredTimer
000024fa l     F .text	00000052 prvSwitchTimerLists
0000254c l     F .text	00000032 prvSampleTimeNow
0000257e l     F .text	0000006c prvProcessTimerOrBlockTask
000025ea l     F .text	0000010c prvProcessReceivedCommands
000026f6 l     F .text	00000014 prvTimerTask
0000270a l     F .text	0000006c prvCheckForValidListAndQueue
200032ac l     O .bss	00000014 xActiveTimerList1
200032c0 l     O .bss	00000014 xActiveTimerList2
20000104 l     O .bss	00000004 pxCurrentTimerList
20000108 l     O .bss	00000004 pxOverflowTimerList
2000010c l     O .bss	00000004 xLastTime.5718
20000110 l     O .bss	00000004 xTimerQueue
20000114 l     O .bss	00000004 xTimerTaskHandle
00000000 l    df *ABS*	00000000 SensorFusion.c
00000000 l    df *ABS*	00000000 pid.c
00000000 l    df *ABS*	00000000 matrix.c
00000000 l    df *ABS*	00000000 MCAL_wrapper.c
20000125 l     O .bss	00000001 i.4932
00000000 l    df *ABS*	00000000 ch32v20x_gpio.c
00000000 l    df *ABS*	00000000 ch32v20x_i2c.c
00000000 l    df *ABS*	00000000 ch32v20x_misc.c
00000000 l    df *ABS*	00000000 ch32v20x_rcc.c
20000000 l     O .data	00000010 APBAHBPrescTable
2000008c l     O .data	00000004 ADCPrescTable
00000000 l    df *ABS*	00000000 ch32v20x_spi.c
00000000 l    df *ABS*	00000000 ch32v20x_tim.c
00003f6e l     F .text	0000008e TI1_Config
00003ffc l     F .text	00000098 TI2_Config
00000000 l    df *ABS*	00000000 ch32v20x_usart.c
00000000 l    df *ABS*	00000000 debug.c
20000090 l     O .data	00000004 curbrk.4666
00000000 l    df *ABS*	00000000 MCAL_config.c
00000000 l    df *ABS*	00000000 system_ch32v20x.c
00004eea l     F .text	000000b4 SetSysClockTo144_HSE
00004f9e l     F .text	0000000c SetSysClock
00000000 l    df *ABS*	00000000 HAL_wrapper.c
00000000 l    df *ABS*	00000000 MPU6050.c
00000000 l    df *ABS*	00000000 HMC5883.c
00000000 l    df *ABS*	00000000 HC_SR04.c
00000000 l    df *ABS*	00000000 ESC.c
00000000 l    df *ABS*	00000000 HAL_config.c
00000000 l    df *ABS*	00000000 bmp.c
00000000 l    df *ABS*	00000000 ch32v20x_it.c
00000000 l    df *ABS*	00000000 main.c
20000150 l     O .bss	00000002 local_u16CurrentItem.5038
20000152 l     O .bss	00000001 local_u8Dummy.5040
00000000 l    df *ABS*	00000000 s_atan.c
0000d860 l     O .text	00000020 atanhi
0000d880 l     O .text	00000020 atanlo
00000000 l    df *ABS*	00000000 s_cos.c
00000000 l    df *ABS*	00000000 s_fabs.c
00000000 l    df *ABS*	00000000 s_sin.c
00000000 l    df *ABS*	00000000 w_atan2.c
00000000 l    df *ABS*	00000000 w_pow.c
00000000 l    df *ABS*	00000000 w_sqrt.c
00000000 l    df *ABS*	00000000 e_atan2.c
00000000 l    df *ABS*	00000000 e_pow.c
00000000 l    df *ABS*	00000000 e_rem_pio2.c
0000da30 l     O .text	00000080 npio2_hw
0000dab0 l     O .text	00000108 two_over_pi
00000000 l    df *ABS*	00000000 e_sqrt.c
00000000 l    df *ABS*	00000000 k_cos.c
00000000 l    df *ABS*	00000000 k_rem_pio2.c
0000dbf8 l     O .text	00000040 PIo2
0000dc58 l     O .text	00000010 init_jk
00000000 l    df *ABS*	00000000 k_sin.c
00000000 l    df *ABS*	00000000 s_finite.c
00000000 l    df *ABS*	00000000 s_floor.c
00000000 l    df *ABS*	00000000 s_matherr.c
00000000 l    df *ABS*	00000000 s_nan.c
00000000 l    df *ABS*	00000000 s_rint.c
0000dca0 l     O .text	00000010 TWO52
00000000 l    df *ABS*	00000000 s_scalbn.c
00000000 l    df *ABS*	00000000 s_copysign.c
00000000 l    df *ABS*	00000000 libgcc2.c
00000000 l    df *ABS*	00000000 adddf3.c
00000000 l    df *ABS*	00000000 divdf3.c
00000000 l    df *ABS*	00000000 eqdf2.c
00000000 l    df *ABS*	00000000 gedf2.c
00000000 l    df *ABS*	00000000 ledf2.c
00000000 l    df *ABS*	00000000 muldf3.c
00000000 l    df *ABS*	00000000 subdf3.c
00000000 l    df *ABS*	00000000 unorddf2.c
00000000 l    df *ABS*	00000000 fixdfsi.c
00000000 l    df *ABS*	00000000 floatsidf.c
00000000 l    df *ABS*	00000000 floatunsidf.c
00000000 l    df *ABS*	00000000 addsf3.c
00000000 l    df *ABS*	00000000 divsf3.c
00000000 l    df *ABS*	00000000 gesf2.c
00000000 l    df *ABS*	00000000 mulsf3.c
00000000 l    df *ABS*	00000000 subsf3.c
00000000 l    df *ABS*	00000000 fixunssfsi.c
00000000 l    df *ABS*	00000000 floatsisf.c
00000000 l    df *ABS*	00000000 floatdisf.c
00000000 l    df *ABS*	00000000 extendsfdf2.c
00000000 l    df *ABS*	00000000 truncdfsf2.c
00000000 l    df *ABS*	00000000 libgcc2.c
00000000 l    df *ABS*	00000000 errno.c
00000000 l    df *ABS*	00000000 malloc.c
00000000 l    df *ABS*	00000000 memcpy.c
00000000 l    df *ABS*	00000000 nano-mallocr.c
00000000 l    df *ABS*	00000000 nano-mallocr.c
00000000 l    df *ABS*	00000000 printf.c
00000000 l    df *ABS*	00000000 puts.c
00000000 l    df *ABS*	00000000 sbrkr.c
00000000 l    df *ABS*	00000000 wbuf.c
00000000 l    df *ABS*	00000000 wsetup.c
00000000 l    df *ABS*	00000000 fflush.c
00000000 l    df *ABS*	00000000 findfp.c
0000c95e l     F .text	0000006a std
00000000 l    df *ABS*	00000000 fwalk.c
00000000 l    df *ABS*	00000000 makebuf.c
00000000 l    df *ABS*	00000000 mlock.c
00000000 l    df *ABS*	00000000 nano-vfprintf.c
0000cc92 l     F .text	0000002a __sfputc_r
00000000 l    df *ABS*	00000000 nano-vfprintf_i.c
00000000 l    df *ABS*	00000000 stdio.c
00000000 l    df *ABS*	00000000 writer.c
00000000 l    df *ABS*	00000000 closer.c
00000000 l    df *ABS*	00000000 fstatr.c
00000000 l    df *ABS*	00000000 isattyr.c
00000000 l    df *ABS*	00000000 lseekr.c
00000000 l    df *ABS*	00000000 memchr.c
00000000 l    df *ABS*	00000000 readr.c
00000000 l    df *ABS*	00000000 close.c
00000000 l    df *ABS*	00000000 fstat.c
00000000 l    df *ABS*	00000000 isatty.c
00000000 l    df *ABS*	00000000 lseek.c
00000000 l    df *ABS*	00000000 read.c
00000000 l    df *ABS*	00000000 libgcc2.c
00000000 l    df *ABS*	00000000 impure.c
20000020 l     O .data	00000060 impure_data
00000000 l    df *ABS*	00000000 s_lib_ver.c
00000000 l    df *ABS*	00000000 reent.c
0000371c  w      .text	00000000 EXTI2_IRQHandler
0000d4a4 g     F .text	00000030 _isatty_r
0000c4d4 g     F .text	000000da _puts_r
00005158 g     F .text	00000044 HAL_WRAPPER_ReadMagnet
00006726 g     F .text	00000006 fabs
0000d4d4 g     F .text	00000034 _lseek_r
00006ae6 g     F .text	000000ba sqrt
0000a144 g     F .text	0000006a .hidden __eqdf2
00002fce g     F .text	00000098 matrix_subtract
00009088 g     F .text	000003d8 .hidden __divdi3
20003380 g     O .bss	0000001c MCAL_CFG_adxlSPI
00000b7e g     F .text	0000004a vPortExitCritical
0000c494 g     F .text	00000040 printf
20000880 g       .data	00000000 __global_pointer$
000004f6 g     F .text	00000028 .hidden __riscv_save_8
00003460 g     F .text	000000ac TIM1_CC_IRQHandler
00003af4 g     F .text	0000000a I2C_ReceiveData
0000d3d0 g     F .text	00000036 __sseek
0000ca1a g     F .text	0000006c __sinit
00003f52 g     F .text	00000006 SPI_I2S_SendData
0000c5ec g     F .text	000000c0 __swbuf_r
00005cd0 g     F .text	00000002 HardFault_Handler
0000129e g     F .text	00000056 vQueueWaitForMessageRestricted
0000c9d2 g     F .text	00000048 __sfmoreglue
0000cc90 g     F .text	00000002 __malloc_unlock
0000596a g     F .text	00000016 BMP280_GetTemperatureRawData
00003120 g     F .text	00000058 matrix_transpose
00000542 g     F .text	0000000c .hidden __riscv_restore_3
20000140 g     O .bss	00000004 yaw_calibration
0000b3f0 g     F .text	000002b2 .hidden __divsf3
00004436 g     F .text	00000012 TIM_OC1PreloadConfig
00000ae8 g     F .text	0000007c SysTick_Handler
00003baa g     F .text	000001b2 NVIC_Init
0000370e  w      .text	00000000 PVD_IRQHandler
20000154 g     O .bss	00000004 queue_AppCommToDrone_Handle_t
0000052e g     F .text	00000020 .hidden __riscv_restore_10
00003f58 g     F .text	00000006 SPI_I2S_ReceiveData
00005cce g     F .text	00000002 NMI_Handler
0000371e  w      .text	00000000 EXTI3_IRQHandler
000004f6 g     F .text	00000028 .hidden __riscv_save_11
0000a1ae g     F .text	000000ae .hidden __gtdf2
0000c22e g     F .text	00000008 __errno
000006ae g     F .text	0000000e SERVICE_RTOS_BlockFor
00005936 g     F .text	00000034 BMP280_ReadDataRegisters
200000c8 g     O .bss	00000004 pxCurrentTCB
00004726 g     F .text	00000010 USART_GetFlagStatus
0000d472 g     F .text	00000032 _fstat_r
20003404 g     O .bss	00000004 errno
00008c4a g     F .text	00000152 floor
200000a8 g       .bss	00000000 _sbss
00000800 g       *ABS*	00000000 __stack_size
0000584a g     F .text	00000024 BMP280_ReadUnsignedShort
0000478e g     F .text	00000066 USART_Printf_Init
00002f36 g     F .text	00000098 matrix_add
0000b9bc g     F .text	00000388 .hidden __subsf3
2000013c g     O .bss	00000004 roll_calibration
00005214 g     F .text	00000020 HAL_WRAPPER_SendCommMessage
00001dda g     F .text	00000016 vTaskInternalSetTimeOutState
00000542 g     F .text	0000000c .hidden __riscv_restore_2
0000586e g     F .text	00000028 BMP280_ReadSignedShort
0000785c g     F .text	00000466 __ieee754_rem_pio2
20000138 g     O .bss	00000004 pitch_calibration
00000a58 g     F .text	00000090 xPortStartScheduler
00003388 g     F .text	0000003c MCAL_WRAPEPR_TIM4_PWM_OUT
000043ce g     F .text	00000024 TIM_CtrlPWMOutputs
0000c24a g     F .text	000000b6 memcpy
20003304 g     O .bss	0000000c K
00001c06 g     F .text	00000048 vTaskPlaceOnEventList
0000c9c8 g     F .text	0000000a _cleanup_r
0000afac g     F .text	00000072 .hidden __floatsidf
00000a1e  w    F .text	0000003a vPortSetupTimerInterrupt
000052ca g     F .text	000000ae mpu6050_accel_read
0000a25c g     F .text	000000b6 .hidden __ltdf2
00003718  w      .text	00000000 EXTI0_IRQHandler
0000374e  w      .text	00000000 I2C2_EV_IRQHandler
000043aa g     F .text	00000024 TIM_Cmd
0000c5ae g     F .text	0000000c puts
0000615e g     F .text	0000011a Task_AppComm
200033cc g     O .bss	00000018 trimmingParameter
00000978 g     F .text	000000a6 vPortFree
00004474 g     F .text	0000001a TIM_OC4PreloadConfig
20000094 g     O .data	00000004 SystemCoreClock
20005000 g       .stack	00000000 __freertos_irq_stack_top
0000471c g     F .text	0000000a USART_ReceiveData
00002d34 g     F .text	000001aa Altitude_Kalman_2D_init
0000c236 g     F .text	0000000a malloc
000045b6 g     F .text	0000000e TIM_ClearFlag
20000144 g     O .bss	00000006 global_adxl345Config_t
0000d566 g     F .text	00000010 _fstat
00005cd2 g     F .text	000000ba Task_CollectSensorData
20003334 g     O .bss	0000000c Q
00000038 g       .init	00000000 _einit
000045e0 g     F .text	0000000e TIM_ClearITPendingBit
00007e98 g     F .text	000002b8 __kernel_cos
000045b0 g     F .text	00000006 TIM_GetCounter
00005590 g     F .text	000000a8 hmc5883l_init
00003e8c g     F .text	0000001e RCC_APB2PeriphClockCmd
000004ee g     F .text	00000030 .hidden __riscv_save_12
00003730  w      .text	00000000 ADC1_2_IRQHandler
00001fde g     F .text	000000d4 ulTaskGenericNotifyTake
000037fc g     F .text	0000010e GPIO_Init
00003706  w      .text	00000000 Break_Point_Handler
0000052e g     F .text	00000020 .hidden __riscv_restore_11
2000012c g     O .bss	00000004 NVIC_Priority_Group
00003752  w      .text	00000000 SPI1_IRQHandler
000046f2 g     F .text	00000020 USART_Cmd
0000c5ba g     F .text	00000032 _sbrk_r
000045aa g     F .text	00000006 TIM_GetCapture1
00005896 g     F .text	000000a0 BMP280_get_trimming_parameters
00003710  w      .text	00000000 TAMPER_IRQHandler
0000051e g     F .text	0000000c .hidden __riscv_save_1
00000542 g     F .text	0000000c .hidden __riscv_restore_0
00004260 g     F .text	000000be TIM_OC3Init
000050dc g     F .text	00000042 HAL_WRAPPER_ReadAcc
0000d522 g     F .text	00000034 _read_r
00005c68 g     F .text	00000066 BMP280_get_altitude
00000bee g     F .text	00000006 vListInitialiseItem
000059f8 g     F .text	0000020e BMP280_CompensatePressure
00005ece g     F .text	000001f4 Task_Master
00000504 g     F .text	0000001a .hidden __riscv_save_7
0000107a g     F .text	00000164 xQueueReceive
2000317c g     O .bss	00000040 xQueueRegistry
00000bd4 g     F .text	00000006 vPortClearInterruptMask
00008aa2 g     F .text	0000019a __kernel_sin
0000bfa2 g     F .text	000000ac .hidden __extendsfdf2
00003eaa g     F .text	0000001e RCC_APB1PeriphClockCmd
20000160 g     O .bss	00000004 queue_RawSensorData_Handle_t
00009460 g     F .text	00000730 .hidden __adddf3
00003702  w      .text	00000000 Ecall_M_Mode_Handler
20004800 g       .stack	00000000 _heap_end
000005f6 g     F .text	00000024 SERVICE_RTOS_TaskCreate
0000d576 g     F .text	00000010 _isatty
20000098 g     O .data	00000004 __fdlib_version
200000a4 g     O .data	00000004 _global_impure_ptr
00000538 g     F .text	00000016 .hidden __riscv_restore_5
00003f5e g     F .text	00000010 SPI_I2S_GetFlagStatus
00003e6e g     F .text	0000001e RCC_AHBPeriphClockCmd
00003728  w      .text	00000000 DMA1_Channel4_IRQHandler
00003aee g     F .text	00000006 I2C_SendData
0000b01e g     F .text	00000068 .hidden __floatunsidf
0000483a g     F .text	0000002e _sbrk
000007fc g     F .text	0000017c pvPortMalloc
2000334c g     O .bss	0000000c S
00000bda g     F .text	00000014 vListInitialise
2000011c g     O .bss	00000004 global_UART4RecCallback
20000164 g     O .bss	00000004 task_AppComm_Handle_t
00003962 g     F .text	0000011c I2C_Init
00005996 g     F .text	00000062 BMP280_CompensateTemperature
00000538 g     F .text	00000016 .hidden __riscv_restore_6
0000375a  w      .text	00000000 USART3_IRQHandler
00001790 g     F .text	0000000a xTaskGetTickCount
00000ede g     F .text	0000019c xQueueGenericSend
00008150 g     F .text	00000952 __kernel_rem_pio2
00003712  w      .text	00000000 RTC_IRQHandler
20003408 g       .bss	00000000 _ebss
00004744 g     F .text	0000004a USART_GetITStatus
00008dae g     F .text	00000186 rint
0000372e  w      .text	00000000 DMA1_Channel7_IRQHandler
0000411a g     F .text	00000086 TIM_OC1Init
00004462 g     F .text	00000012 TIM_OC3PreloadConfig
00003736  w      .text	00000000 CAN1_RX1_IRQHandler
000022a4 g     F .text	00000180 vTaskGenericNotifyGiveFromISR
0000af44 g     F .text	00000068 .hidden __fixdfsi
00001ef6 g     F .text	000000e8 xTaskPriorityDisinherit
0000be60 g     F .text	00000142 .hidden __floatdisf
20000168 g     O .bss	00000004 task_CollectSensorData_Handle_t
20000124 g     O .bss	00000001 global_u8IsCaptured
20000126 g     O .bss	00000002 tempreg
00006ba0 g     F .text	000001e4 __ieee754_atan2
0000b6a2 g     F .text	00000086 .hidden __gtsf2
00001cc2 g     F .text	00000118 xTaskRemoveFromEventList
0000392e g     F .text	0000001a GPIO_SetBits
00003748  w      .text	00000000 TIM4_IRQHandler
00000676 g     F .text	00000038 SERVICE_RTOS_ReadFromBlockingQueue
0000a25c g     F .text	000000b6 .hidden __ledf2
00004410 g     F .text	00000026 TIM_ARRPreloadConfig
000004f6 g     F .text	00000028 .hidden __riscv_save_9
200033b4 g     O .bss	0000000c global_MPU6050ACC_t
00003aa2 g     F .text	00000026 I2C_GenerateSTART
000027d4 g     F .text	0000004a compute_azimuth
0000df00 g     O .text	00000020 __sf_fake_stderr
000006dc g     F .text	00000030 SERVICE_RTOS_Notify
00000504 g     F .text	0000001a .hidden __riscv_save_4
00002f2e g     F .text	00000008 matrix_create
0000374a  w      .text	00000000 I2C1_EV_IRQHandler
0000569e g     F .text	0000007c hmc5883l_normalize
200000a0 g     O .data	00000004 xISRStackTop
0000575a g     F .text	0000005c HAL_ESC_setSpeed
000045c4 g     F .text	0000001c TIM_GetITStatus
00003762  w      .text	00000000 USBHD_IRQHandler
0000366e g     F .text	0000006a MCAL_WRAPPER_DelayUS
00003d5c g     F .text	00000112 RCC_GetClocksFreq
0000372c  w      .text	00000000 DMA1_Channel6_IRQHandler
0000c1b8 g     F .text	00000076 .hidden __clzsi2
00005258 g     F .text	0000001a HAL_WRAPPER_ReadAltitude
0000ccbc g     F .text	00000044 __sfputs_r
00006694 g     F .text	00000092 cos
00003b14 g     F .text	0000002e I2C_NACKPositionConfig
000033c4 g     F .text	00000026 UART4_IRQHandler
0000d508 g     F .text	0000001a memchr
000045ee g     F .text	00000104 USART_Init
00001df0 g     F .text	000000d0 xTaskCheckForTimeOut
0000c300 g     F .text	000000b0 _free_r
00003746  w      .text	00000000 TIM3_IRQHandler
00003716  w      .text	00000000 RCC_IRQHandler
0000051e g     F .text	0000000c .hidden __riscv_save_3
000035ba g     F .text	0000005e MCAL_WRAPPER_SendDataThroughUART4
00003740  w      .text	00000000 TIM1_TRG_COM_IRQHandler
00005580 g     F .text	00000010 mpu6050_init
00005234 g     F .text	00000012 HAL_WRAPPER_ReadPressure
00003722  w      .text	00000000 DMA1_Channel1_IRQHandler
20000088 g     O .data	00000004 Ts
00000000 g       .init	00000000 _start
2000016c g     O .bss	00000004 task_Master_Handle_t
00001780 g     F .text	00000010 vTaskSuspendAll
20000010 g     O .data	00000010 AHBPrescTable
00003b64 g     F .text	0000003c I2C_GetFlagStatus
0000672c g     F .text	00000094 sin
00003066 g     F .text	000000ba matrix_multiply
0000d586 g     F .text	00000010 _lseek
20000120 g     O .bss	00000004 global_u32TicksNum
00004448 g     F .text	0000001a TIM_OC2PreloadConfig
000067c0 g     F .text	00000002 atan2
0000bd9a g     F .text	000000c6 .hidden __floatsisf
00000c24 g     F .text	00000026 uxListRemove
0000375c  w      .text	00000000 EXTI15_10_IRQHandler
000043f2 g     F .text	0000001e TIM_ITConfig
000006bc g     F .text	00000020 SERVICE_RTOS_WaitForNotification
000041a0 g     F .text	000000c0 TIM_OC2Init
00006d84 g     F .text	00000ad8 __ieee754_pow
000067c2 g     F .text	00000324 pow
00003768  w      .text	00000000 DMA1_Channel8_IRQHandler
200032e0 g     O .bss	0000000c G
00001b3e g     F .text	000000c8 vTaskSwitchContext
0000549e g     F .text	000000e2 mpu6050_gyro_setup
000060c2 g     F .text	0000009c UARTReceivedISR
00003a7e g     F .text	00000024 I2C_Cmd
00001c4e g     F .text	00000074 vTaskPlaceOnEventListRestricted
00003948 g     F .text	0000001a GPIO_ResetBits
0000571a g     F .text	00000040 HAL_HCSR04_GetDistance
000057f2 g     F .text	0000002e BMP280_ReadRegister
0000d442 g     F .text	00000030 _close_r
00005c06 g     F .text	0000002e BMP280_Init
20000000 g       .dalign	00000000 _data_vma
00005272 g     F .text	00000058 mpu6050_accel_setup
0000431e g     F .text	0000008c TIM_OC4Init
20000128 g     O .bss	00000001 MCU_Version
00005638 g     F .text	00000066 hmc5883l_read
0000c6ac g     F .text	0000010e __swsetup_r
0000373a  w      .text	00000000 EXTI9_5_IRQHandler
00009b90 g     F .text	000005b4 .hidden __divdf3
000036d8 g     F .text	00000026 MCAL_WRAPPER_HCSR04Trig
0000ca86 g     F .text	000000a0 __sfp
0000070c g     F .text	00000018 SERVICE_RTOS_CurrentMSTime
0000350c g     F .text	000000ae MCAL_WRAPPER_TIM1GetWidthOfPulse
0000a312 g     F .text	000004b8 .hidden __muldf3
000004f6 g     F .text	00000028 .hidden __riscv_save_10
0000d352 g     F .text	00000030 __sread
00003afe g     F .text	00000016 I2C_Send7bitAddress
000044e2 g     F .text	0000001e TIM_SetIC1Prescaler
0000cc8e g     F .text	00000002 __malloc_lock
00000538 g     F .text	00000016 .hidden __riscv_restore_4
0000052e g     F .text	00000020 .hidden __riscv_restore_8
0000c8f8 g     F .text	00000066 _fflush_r
00000504 g     F .text	0000001a .hidden __riscv_save_6
00003754  w      .text	00000000 SPI2_IRQHandler
0000df20 g     O .text	00000020 __sf_fake_stdin
000020b2 g     F .text	000001f2 xTaskGenericNotify
0000054e g     F .text	000000a8 memset
2000015c g     O .bss	00000004 queue_FusedSensorData_Handle_t
0000052e g     F .text	00000020 .hidden __riscv_restore_9
000031f0 g     F .text	0000007a I2C_start_transmission
00000538 g     F .text	00000016 .hidden __riscv_restore_7
00006278 g     F .text	000000e2 main
20000118 g     O .bss	00000004 global_CurrentPWTask_t
00005246 g     F .text	00000012 HAL_WRAPPER_ReadTemperature
00000bf4 g     F .text	00000030 vListInsert
00003618 g     F .text	00000056 MCAL_WRAPPER_ReceiveDataThroughUART4
0000061a g     F .text	0000000c SERVICE_RTOS_StartSchedular
0000d406 g     F .text	00000006 __sclose
00008d9c g     F .text	00000004 matherr
0000281e g     F .text	0000009a kalman_filter
00002776 g     F .text	0000005e xTimerCreateTimerTask
200032ec g     O .bss	0000000c H
0000c04e g     F .text	0000016a .hidden __truncdfsf2
0000c3b0 g     F .text	000000e4 _malloc_r
0000519c g     F .text	00000064 HAL_WRAPPER_SetESCSpeeds
00005200 g     F .text	00000014 HAL_WRAPPER_GetCommMessage
0000372a  w      .text	00000000 DMA1_Channel5_IRQHandler
000044d6 g     F .text	00000006 TIM_SetCounter
00001ecc g     F .text	0000000a xTaskGetCurrentTaskHandle
00003720  w      .text	00000000 EXTI4_IRQHandler
00000e74 g     F .text	0000006a xQueueGenericCreate
00003734  w      .text	00000000 USB_LP_CAN1_RX0_IRQHandler
20003310 g     O .bss	0000000c L
0000b728 g     F .text	00000294 .hidden __mulsf3
000032cc g     F .text	00000028 I2C_read
00008c3c g     F .text	0000000e finite
00004868 g     F .text	00000682 MCAL_Config_ConfigAllPins
00003f2c g     F .text	00000026 SPI_Cmd
00004736 g     F .text	0000000e USART_ClearFlag
00004faa g     F .text	0000004c SystemInit
00000724 g     F .text	00000016 SERVICE_RTOS_GetCurrentTaskHandle
00009072 g     F .text	00000016 copysign
0000a144 g     F .text	0000006a .hidden __nedf2
0000064a g     F .text	0000002c SERVICE_RTOS_AppendToBlockingQueue
0000c494 g     F .text	00000040 iprintf
0000195c g     F .text	00000184 xTaskResumeAll
20000084 g     O .data	00000004 uxTopUsedPriority
0000635a g     F .text	0000033a atan
00003732  w      .text	00000000 USB_HP_CAN1_TX_IRQHandler
0000de00 g     O .text	00000100 .hidden __clz_tab
00000bc8 g     F .text	0000000c xPortSetInterruptMask
000016e8 g     F .text	00000098 vTaskStartScheduler
00005378 g     F .text	00000126 mpu6050_gyro_read
00000000 g       .init	00000000 _sinit
200033e4 g     O .bss	00000010 global_AppCommMsg_t
20003340 g     O .bss	0000000c R
000028b8 g     F .text	000001be kalman_filter_2d
00003764  w      .text	00000000 USBHDWakeUp_IRQHandler
0000b6a2 g     F .text	00000086 .hidden __gesf2
00004522 g     F .text	00000088 TIM_PWMIConfig
0000d40c g     F .text	00000036 _write_r
00005820 g     F .text	0000002a BMP280_WriteRegister
00000300 g       .text	00000000 xPortStartFirstTask
00003726  w      .text	00000000 DMA1_Channel3_IRQHandler
0000cf9c g     F .text	0000010c _printf_common
2000009c g     O .data	00000004 _impure_ptr
000033ea g     F .text	00000076 TIM1_UP_IRQHandler
0000c7ba g     F .text	0000013e __sflush_r
00008f34 g     F .text	0000013e scalbn
0000511e g     F .text	0000003a HAL_WRAPPER_ReadGyro
00002ede g     F .text	00000050 pid_ctrl
0000370c  w      .text	00000000 WWDG_IRQHandler
00002a76 g     F .text	000002be SensorFuseWithKalman
00003704  w      .text	00000000 Ecall_U_Mode_Handler
00001ec0 g     F .text	0000000c vTaskMissedYield
00003744  w      .text	00000000 TIM2_IRQHandler
20005000 g       .stack	00000000 _eusrstack
000044b2 g     F .text	00000024 TIM_UpdateRequestConfig
0000051e g     F .text	0000000c .hidden __riscv_save_2
2000339c g     O .bss	00000018 global_HMC5883MAGNET_t
00000200 g       .text	00000000 SW_Handler
20000130 g     O .bss	00000006 RxData
000011de g     F .text	0000003c uxQueueMessagesWaiting
0000121a g     F .text	00000084 vQueueAddToRegistry
200032f8 g     O .bss	0000000c I
00008da0 g     F .text	0000000e nan
0000179a g     F .text	000001c2 xTaskIncrementTick
000032f4 g     F .text	00000094 I2C_requestFrom
00007cc2 g     F .text	000001d6 __ieee754_sqrt
0000373c  w      .text	00000000 TIM1_BRK_IRQHandler
0000cb92 g     F .text	0000005a __swhatbuf_r
00004712 g     F .text	0000000a USART_SendData
0000371a  w      .text	00000000 EXTI1_IRQHandler
00005c4c g     F .text	0000001c BMP280_get_pressure
2000331c g     O .bss	0000000c M
00000504 g     F .text	0000001a .hidden __riscv_save_5
00000d98 g     F .text	000000c2 xQueueGenericReset
000047f4 g     F .text	00000046 _write
200000a8 g       .data	00000000 _edata
20000170 g     O .bss	00000004 task_SensorFusion_Handle_t
20003408 g       .bss	00000000 _end
00000626 g     F .text	00000024 SERVICE_RTOS_CreateBlockingQueue
20003358 g     O .bss	0000000c U
00004094 g     F .text	00000086 TIM_TimeBaseInit
0000375e  w      .text	00000000 RTCAlarm_IRQHandler
00001690 g     F .text	00000058 xTaskCreate
0000df9c g       .dlalign	00000000 _data_lma
00003758  w      .text	00000000 USART2_IRQHandler
0000d382 g     F .text	0000004e __swrite
0000cd00 g     F .text	0000029c _vfiprintf_r
0000cb26 g     F .text	0000006c _fwalk_reent
00004ff6 g     F .text	000000e6 SystemCoreClockUpdate
00003750  w      .text	00000000 I2C2_ER_IRQHandler
00001ae0 g     F .text	0000005e vTaskDelay
00003724  w      .text	00000000 DMA1_Channel2_IRQHandler
0000df40 g     O .text	00000020 __sf_fake_stdout
0000052a g     F .text	00000024 .hidden __riscv_restore_12
00001ed6 g     F .text	00000020 xTaskGetSchedulerState
0000d596 g     F .text	00000010 _read
0000af08 g     F .text	0000003c .hidden __unorddf2
200033c0 g     O .bss	0000000c global_MPU6050GYRO_t
0000376a  w      .text	00000000 handle_reset
00003738  w      .text	00000000 CAN1_SCE_IRQHandler
0000bd44 g     F .text	00000056 .hidden __fixunssfsi
00003714  w      .text	00000000 FLASH_IRQHandler
0000051e g     F .text	0000000c .hidden __riscv_save_0
00003756  w      .text	00000000 USART1_IRQHandler
0000cbec g     F .text	000000a2 __smakebuf_r
00000400 g       .text	00000000 pxPortInitialiseStack
0000d0a8 g     F .text	000002aa _printf_i
00004500 g     F .text	00000022 TIM_SetIC2Prescaler
20000158 g     O .bss	00000004 queue_DroneCommToApp_Handle_t
0000a1ae g     F .text	000000ae .hidden __gedf2
20000178 g     O .bss	00000004 __malloc_sbrk_start
00003b42 g     F .text	00000022 I2C_CheckEvent
00003ac8 g     F .text	00000026 I2C_GenerateSTOP
0000374c  w      .text	00000000 I2C1_ER_IRQHandler
00003ec8 g     F .text	00000064 SPI_Init
00003ba0 g     F .text	0000000a NVIC_PriorityGroupConfig
00000b64 g     F .text	0000001a vPortEnterCritical
20003364 g     O .bss	0000001c MCAL_CFG_BMPSPI
20000174 g     O .bss	00000004 __malloc_free_list
00000542 g     F .text	0000000c .hidden __riscv_restore_1
200033f4 g     O .bss	0000000e global_MsgToRec_t
0000a7ca g     F .text	0000073e .hidden __subdf3
0000cd00 g     F .text	0000029c _vfprintf_r
000044dc g     F .text	00000006 TIM_SetCompare1
0000448e g     F .text	00000024 TIM_UpdateDisableConfig
00005c34 g     F .text	00000018 BMP280_get_temperature
0000390a g     F .text	00000024 GPIO_ReadInputDataBit
200032d4 g     O .bss	0000000c F
2000014c g     O .bss	00000004 t_fine
20003328 g     O .bss	0000000c P
00005d8c g     F .text	00000142 Task_SensorFusion
000057b6 g     F .text	0000003c HAL_Config_ConfigAllHW
0000b086 g     F .text	0000036a .hidden __addsf3
00005980 g     F .text	00000016 BMP280_GetPressureRawData
00003178 g     F .text	00000078 MCAL_WRAPEPR_SPI_POLL_TRANSFER
00003760  w      .text	00000000 USBWakeUp_IRQHandler
0000329c g     F .text	00000030 I2C_stop
0000326a g     F .text	00000032 I2C_write
0000d556 g     F .text	00000010 _close
0000c240 g     F .text	0000000a free



Disassembly of section .init:

00000000 <_sinit>:
   0:	76a0306f          	j	376a <handle_reset>
   4:	00000013          	nop
   8:	00000013          	nop
   c:	00000013          	nop
  10:	00000013          	nop
  14:	00000013          	nop
  18:	00000013          	nop
  1c:	00000013          	nop
  20:	00000013          	nop
  24:	00000013          	nop
  28:	00000013          	nop
  2c:	00000013          	nop
  30:	00000013          	nop
  34:	00100073          	ebreak

Disassembly of section .vector:

00000038 <_vector_base>:
	...
  40:	5cce                	lw	s9,240(sp)
  42:	0000                	unimp
  44:	5cd0                	lw	a2,60(s1)
  46:	0000                	unimp
  48:	0000                	unimp
  4a:	0000                	unimp
  4c:	3702                	fld	fa4,32(sp)
	...
  56:	0000                	unimp
  58:	3704                	fld	fs1,40(a4)
  5a:	0000                	unimp
  5c:	3706                	fld	fa4,96(sp)
	...
  66:	0000                	unimp
  68:	0ae8                	addi	a0,sp,348
  6a:	0000                	unimp
  6c:	0000                	unimp
  6e:	0000                	unimp
  70:	0200                	addi	s0,sp,256
  72:	0000                	unimp
  74:	0000                	unimp
  76:	0000                	unimp
  78:	370c                	fld	fa1,40(a4)
  7a:	0000                	unimp
  7c:	370e                	fld	fa4,224(sp)
  7e:	0000                	unimp
  80:	3710                	fld	fa2,40(a4)
  82:	0000                	unimp
  84:	3712                	fld	fa4,288(sp)
  86:	0000                	unimp
  88:	3714                	fld	fa3,40(a4)
  8a:	0000                	unimp
  8c:	3716                	fld	fa4,352(sp)
  8e:	0000                	unimp
  90:	3718                	fld	fa4,40(a4)
  92:	0000                	unimp
  94:	371a                	fld	fa4,416(sp)
  96:	0000                	unimp
  98:	371c                	fld	fa5,40(a4)
  9a:	0000                	unimp
  9c:	371e                	fld	fa4,480(sp)
  9e:	0000                	unimp
  a0:	3720                	fld	fs0,104(a4)
  a2:	0000                	unimp
  a4:	3722                	fld	fa4,40(sp)
  a6:	0000                	unimp
  a8:	3724                	fld	fs1,104(a4)
  aa:	0000                	unimp
  ac:	3726                	fld	fa4,104(sp)
  ae:	0000                	unimp
  b0:	3728                	fld	fa0,104(a4)
  b2:	0000                	unimp
  b4:	372a                	fld	fa4,168(sp)
  b6:	0000                	unimp
  b8:	372c                	fld	fa1,104(a4)
  ba:	0000                	unimp
  bc:	372e                	fld	fa4,232(sp)
  be:	0000                	unimp
  c0:	3730                	fld	fa2,104(a4)
  c2:	0000                	unimp
  c4:	3732                	fld	fa4,296(sp)
  c6:	0000                	unimp
  c8:	3734                	fld	fa3,104(a4)
  ca:	0000                	unimp
  cc:	3736                	fld	fa4,360(sp)
  ce:	0000                	unimp
  d0:	3738                	fld	fa4,104(a4)
  d2:	0000                	unimp
  d4:	373a                	fld	fa4,424(sp)
  d6:	0000                	unimp
  d8:	373c                	fld	fa5,104(a4)
  da:	0000                	unimp
  dc:	33ea                	fld	ft7,184(sp)
  de:	0000                	unimp
  e0:	3740                	fld	fs0,168(a4)
  e2:	0000                	unimp
  e4:	3460                	fld	fs0,232(s0)
  e6:	0000                	unimp
  e8:	3744                	fld	fs1,168(a4)
  ea:	0000                	unimp
  ec:	3746                	fld	fa4,112(sp)
  ee:	0000                	unimp
  f0:	3748                	fld	fa0,168(a4)
  f2:	0000                	unimp
  f4:	374a                	fld	fa4,176(sp)
  f6:	0000                	unimp
  f8:	374c                	fld	fa1,168(a4)
  fa:	0000                	unimp
  fc:	374e                	fld	fa4,240(sp)
  fe:	0000                	unimp
 100:	3750                	fld	fa2,168(a4)
 102:	0000                	unimp
 104:	3752                	fld	fa4,304(sp)
 106:	0000                	unimp
 108:	3754                	fld	fa3,168(a4)
 10a:	0000                	unimp
 10c:	3756                	fld	fa4,368(sp)
 10e:	0000                	unimp
 110:	3758                	fld	fa4,168(a4)
 112:	0000                	unimp
 114:	375a                	fld	fa4,432(sp)
 116:	0000                	unimp
 118:	375c                	fld	fa5,168(a4)
 11a:	0000                	unimp
 11c:	375e                	fld	fa4,496(sp)
 11e:	0000                	unimp
 120:	3760                	fld	fs0,232(a4)
 122:	0000                	unimp
 124:	3762                	fld	fa4,56(sp)
 126:	0000                	unimp
 128:	3764                	fld	fs1,232(a4)
 12a:	0000                	unimp
 12c:	33c4                	fld	fs1,160(a5)
 12e:	0000                	unimp
 130:	3768                	fld	fa0,232(a4)
	...

Disassembly of section .text:

00000200 <SW_Handler>:
     200:	f8810113          	addi	sp,sp,-120
     204:	c206                	sw	ra,4(sp)
     206:	c416                	sw	t0,8(sp)
     208:	c61a                	sw	t1,12(sp)
     20a:	c81e                	sw	t2,16(sp)
     20c:	ca22                	sw	s0,20(sp)
     20e:	cc26                	sw	s1,24(sp)
     210:	ce2a                	sw	a0,28(sp)
     212:	d02e                	sw	a1,32(sp)
     214:	d232                	sw	a2,36(sp)
     216:	d436                	sw	a3,40(sp)
     218:	d63a                	sw	a4,44(sp)
     21a:	d83e                	sw	a5,48(sp)
     21c:	da42                	sw	a6,52(sp)
     21e:	dc46                	sw	a7,56(sp)
     220:	de4a                	sw	s2,60(sp)
     222:	c0ce                	sw	s3,64(sp)
     224:	c2d2                	sw	s4,68(sp)
     226:	c4d6                	sw	s5,72(sp)
     228:	c6da                	sw	s6,76(sp)
     22a:	c8de                	sw	s7,80(sp)
     22c:	cae2                	sw	s8,84(sp)
     22e:	cce6                	sw	s9,88(sp)
     230:	ceea                	sw	s10,92(sp)
     232:	d0ee                	sw	s11,96(sp)
     234:	d2f2                	sw	t3,100(sp)
     236:	d4f6                	sw	t4,104(sp)
     238:	d6fa                	sw	t5,108(sp)
     23a:	d8fe                	sw	t6,112(sp)
     23c:	300022f3          	csrr	t0,mstatus
     240:	da96                	sw	t0,116(sp)
     242:	20000297          	auipc	t0,0x20000
     246:	e862a283          	lw	t0,-378(t0) # 200000c8 <pxCurrentTCB>
     24a:	0022a023          	sw	sp,0(t0)
     24e:	341025f3          	csrr	a1,mepc
     252:	c02e                	sw	a1,0(sp)
     254:	8201a103          	lw	sp,-2016(gp) # 200000a0 <xISRStackTop>
     258:	0e7010ef          	jal	ra,1b3e <vTaskSwitchContext>

0000025c <processed_source>:
     25c:	20000317          	auipc	t1,0x20000
     260:	e6c32303          	lw	t1,-404(t1) # 200000c8 <pxCurrentTCB>
     264:	00032103          	lw	sp,0(t1)
     268:	4282                	lw	t0,0(sp)
     26a:	34129073          	csrw	mepc,t0
     26e:	52d6                	lw	t0,116(sp)
     270:	30029073          	csrw	mstatus,t0
     274:	4092                	lw	ra,4(sp)
     276:	42a2                	lw	t0,8(sp)
     278:	4332                	lw	t1,12(sp)
     27a:	43c2                	lw	t2,16(sp)
     27c:	4452                	lw	s0,20(sp)
     27e:	44e2                	lw	s1,24(sp)
     280:	4572                	lw	a0,28(sp)
     282:	5582                	lw	a1,32(sp)
     284:	5612                	lw	a2,36(sp)
     286:	56a2                	lw	a3,40(sp)
     288:	5732                	lw	a4,44(sp)
     28a:	57c2                	lw	a5,48(sp)
     28c:	5852                	lw	a6,52(sp)
     28e:	58e2                	lw	a7,56(sp)
     290:	5972                	lw	s2,60(sp)
     292:	4986                	lw	s3,64(sp)
     294:	4a16                	lw	s4,68(sp)
     296:	4aa6                	lw	s5,72(sp)
     298:	4b36                	lw	s6,76(sp)
     29a:	4bc6                	lw	s7,80(sp)
     29c:	4c56                	lw	s8,84(sp)
     29e:	4ce6                	lw	s9,88(sp)
     2a0:	4d76                	lw	s10,92(sp)
     2a2:	5d86                	lw	s11,96(sp)
     2a4:	5e16                	lw	t3,100(sp)
     2a6:	5ea6                	lw	t4,104(sp)
     2a8:	5f36                	lw	t5,108(sp)
     2aa:	5fc6                	lw	t6,112(sp)
     2ac:	07810113          	addi	sp,sp,120
     2b0:	30200073          	mret
     2b4:	00000013          	nop
     2b8:	00000013          	nop
     2bc:	00000013          	nop
     2c0:	00000013          	nop
     2c4:	00000013          	nop
     2c8:	00000013          	nop
     2cc:	00000013          	nop
     2d0:	00000013          	nop
     2d4:	00000013          	nop
     2d8:	00000013          	nop
     2dc:	00000013          	nop
     2e0:	00000013          	nop
     2e4:	00000013          	nop
     2e8:	00000013          	nop
     2ec:	00000013          	nop
     2f0:	00000013          	nop
     2f4:	00000013          	nop
     2f8:	00000013          	nop
     2fc:	00000013          	nop

00000300 <xPortStartFirstTask>:
     300:	8201a283          	lw	t0,-2016(gp) # 200000a0 <xISRStackTop>
     304:	e0028293          	addi	t0,t0,-512
     308:	34029073          	csrw	mscratch,t0
     30c:	20000117          	auipc	sp,0x20000
     310:	dbc12103          	lw	sp,-580(sp) # 200000c8 <pxCurrentTCB>
     314:	4102                	lw	sp,0(sp)
     316:	4082                	lw	ra,0(sp)
     318:	4332                	lw	t1,12(sp)
     31a:	43c2                	lw	t2,16(sp)
     31c:	4452                	lw	s0,20(sp)
     31e:	44e2                	lw	s1,24(sp)
     320:	4572                	lw	a0,28(sp)
     322:	5582                	lw	a1,32(sp)
     324:	5612                	lw	a2,36(sp)
     326:	56a2                	lw	a3,40(sp)
     328:	5732                	lw	a4,44(sp)
     32a:	57c2                	lw	a5,48(sp)
     32c:	5852                	lw	a6,52(sp)
     32e:	58e2                	lw	a7,56(sp)
     330:	5972                	lw	s2,60(sp)
     332:	4986                	lw	s3,64(sp)
     334:	4a16                	lw	s4,68(sp)
     336:	4aa6                	lw	s5,72(sp)
     338:	4b36                	lw	s6,76(sp)
     33a:	4bc6                	lw	s7,80(sp)
     33c:	4c56                	lw	s8,84(sp)
     33e:	4ce6                	lw	s9,88(sp)
     340:	4d76                	lw	s10,92(sp)
     342:	5d86                	lw	s11,96(sp)
     344:	5e16                	lw	t3,100(sp)
     346:	5ea6                	lw	t4,104(sp)
     348:	5f36                	lw	t5,108(sp)
     34a:	5fc6                	lw	t6,112(sp)
     34c:	52d6                	lw	t0,116(sp)
     34e:	02a1                	addi	t0,t0,8
     350:	30029073          	csrw	mstatus,t0
     354:	42a2                	lw	t0,8(sp)
     356:	07810113          	addi	sp,sp,120
     35a:	8082                	ret
     35c:	00000013          	nop
     360:	00000013          	nop
     364:	00000013          	nop
     368:	00000013          	nop
     36c:	00000013          	nop
     370:	00000013          	nop
     374:	00000013          	nop
     378:	00000013          	nop
     37c:	00000013          	nop
     380:	00000013          	nop
     384:	00000013          	nop
     388:	00000013          	nop
     38c:	00000013          	nop
     390:	00000013          	nop
     394:	00000013          	nop
     398:	00000013          	nop
     39c:	00000013          	nop
     3a0:	00000013          	nop
     3a4:	00000013          	nop
     3a8:	00000013          	nop
     3ac:	00000013          	nop
     3b0:	00000013          	nop
     3b4:	00000013          	nop
     3b8:	00000013          	nop
     3bc:	00000013          	nop
     3c0:	00000013          	nop
     3c4:	00000013          	nop
     3c8:	00000013          	nop
     3cc:	00000013          	nop
     3d0:	00000013          	nop
     3d4:	00000013          	nop
     3d8:	00000013          	nop
     3dc:	00000013          	nop
     3e0:	00000013          	nop
     3e4:	00000013          	nop
     3e8:	00000013          	nop
     3ec:	00000013          	nop
     3f0:	00000013          	nop
     3f4:	00000013          	nop
     3f8:	00000013          	nop
     3fc:	00000013          	nop

00000400 <pxPortInitialiseStack>:
     400:	300022f3          	csrr	t0,mstatus
     404:	ff72f293          	andi	t0,t0,-9
     408:	18800313          	li	t1,392
     40c:	0312                	slli	t1,t1,0x4
     40e:	0062e2b3          	or	t0,t0,t1
     412:	1571                	addi	a0,a0,-4
     414:	00552023          	sw	t0,0(a0)
     418:	fa850513          	addi	a0,a0,-88
     41c:	c110                	sw	a2,0(a0)
     41e:	1521                	addi	a0,a0,-24
     420:	00052023          	sw	zero,0(a0)
     424:	00000293          	li	t0,0

00000428 <chip_specific_stack_frame>:
     428:	00028763          	beqz	t0,436 <chip_specific_stack_frame+0xe>
     42c:	1571                	addi	a0,a0,-4
     42e:	00052023          	sw	zero,0(a0)
     432:	12fd                	addi	t0,t0,-1
     434:	bfd5                	j	428 <chip_specific_stack_frame>
     436:	1571                	addi	a0,a0,-4
     438:	c10c                	sw	a1,0(a0)
     43a:	8082                	ret
	...

000004ee <__riscv_save_12>:
     4ee:	7139                	addi	sp,sp,-64
     4f0:	4301                	li	t1,0
     4f2:	c66e                	sw	s11,12(sp)
     4f4:	a019                	j	4fa <__riscv_save_10+0x4>

000004f6 <__riscv_save_10>:
     4f6:	7139                	addi	sp,sp,-64
     4f8:	5341                	li	t1,-16
     4fa:	c86a                	sw	s10,16(sp)
     4fc:	ca66                	sw	s9,20(sp)
     4fe:	cc62                	sw	s8,24(sp)
     500:	ce5e                	sw	s7,28(sp)
     502:	a019                	j	508 <__riscv_save_4+0x4>

00000504 <__riscv_save_4>:
     504:	7139                	addi	sp,sp,-64
     506:	5301                	li	t1,-32
     508:	d05a                	sw	s6,32(sp)
     50a:	d256                	sw	s5,36(sp)
     50c:	d452                	sw	s4,40(sp)
     50e:	d64e                	sw	s3,44(sp)
     510:	d84a                	sw	s2,48(sp)
     512:	da26                	sw	s1,52(sp)
     514:	dc22                	sw	s0,56(sp)
     516:	de06                	sw	ra,60(sp)
     518:	40610133          	sub	sp,sp,t1
     51c:	8282                	jr	t0

0000051e <__riscv_save_0>:
     51e:	1141                	addi	sp,sp,-16
     520:	c04a                	sw	s2,0(sp)
     522:	c226                	sw	s1,4(sp)
     524:	c422                	sw	s0,8(sp)
     526:	c606                	sw	ra,12(sp)
     528:	8282                	jr	t0

0000052a <__riscv_restore_12>:
     52a:	4db2                	lw	s11,12(sp)
     52c:	0141                	addi	sp,sp,16

0000052e <__riscv_restore_10>:
     52e:	4d02                	lw	s10,0(sp)
     530:	4c92                	lw	s9,4(sp)
     532:	4c22                	lw	s8,8(sp)
     534:	4bb2                	lw	s7,12(sp)
     536:	0141                	addi	sp,sp,16

00000538 <__riscv_restore_4>:
     538:	4b02                	lw	s6,0(sp)
     53a:	4a92                	lw	s5,4(sp)
     53c:	4a22                	lw	s4,8(sp)
     53e:	49b2                	lw	s3,12(sp)
     540:	0141                	addi	sp,sp,16

00000542 <__riscv_restore_0>:
     542:	4902                	lw	s2,0(sp)
     544:	4492                	lw	s1,4(sp)
     546:	4422                	lw	s0,8(sp)
     548:	40b2                	lw	ra,12(sp)
     54a:	0141                	addi	sp,sp,16
     54c:	8082                	ret

0000054e <memset>:
     54e:	433d                	li	t1,15
     550:	872a                	mv	a4,a0
     552:	02c37363          	bgeu	t1,a2,578 <memset+0x2a>
     556:	00f77793          	andi	a5,a4,15
     55a:	efbd                	bnez	a5,5d8 <memset+0x8a>
     55c:	e5ad                	bnez	a1,5c6 <memset+0x78>
     55e:	ff067693          	andi	a3,a2,-16
     562:	8a3d                	andi	a2,a2,15
     564:	96ba                	add	a3,a3,a4
     566:	c30c                	sw	a1,0(a4)
     568:	c34c                	sw	a1,4(a4)
     56a:	c70c                	sw	a1,8(a4)
     56c:	c74c                	sw	a1,12(a4)
     56e:	0741                	addi	a4,a4,16
     570:	fed76be3          	bltu	a4,a3,566 <memset+0x18>
     574:	e211                	bnez	a2,578 <memset+0x2a>
     576:	8082                	ret
     578:	40c306b3          	sub	a3,t1,a2
     57c:	068a                	slli	a3,a3,0x2
     57e:	00000297          	auipc	t0,0x0
     582:	9696                	add	a3,a3,t0
     584:	00a68067          	jr	10(a3)
     588:	00b70723          	sb	a1,14(a4)
     58c:	00b706a3          	sb	a1,13(a4)
     590:	00b70623          	sb	a1,12(a4)
     594:	00b705a3          	sb	a1,11(a4)
     598:	00b70523          	sb	a1,10(a4)
     59c:	00b704a3          	sb	a1,9(a4)
     5a0:	00b70423          	sb	a1,8(a4)
     5a4:	00b703a3          	sb	a1,7(a4)
     5a8:	00b70323          	sb	a1,6(a4)
     5ac:	00b702a3          	sb	a1,5(a4)
     5b0:	00b70223          	sb	a1,4(a4)
     5b4:	00b701a3          	sb	a1,3(a4)
     5b8:	00b70123          	sb	a1,2(a4)
     5bc:	00b700a3          	sb	a1,1(a4)
     5c0:	00b70023          	sb	a1,0(a4)
     5c4:	8082                	ret
     5c6:	0ff5f593          	andi	a1,a1,255
     5ca:	00859693          	slli	a3,a1,0x8
     5ce:	8dd5                	or	a1,a1,a3
     5d0:	01059693          	slli	a3,a1,0x10
     5d4:	8dd5                	or	a1,a1,a3
     5d6:	b761                	j	55e <memset+0x10>
     5d8:	00279693          	slli	a3,a5,0x2
     5dc:	00000297          	auipc	t0,0x0
     5e0:	9696                	add	a3,a3,t0
     5e2:	8286                	mv	t0,ra
     5e4:	fa8680e7          	jalr	-88(a3)
     5e8:	8096                	mv	ra,t0
     5ea:	17c1                	addi	a5,a5,-16
     5ec:	8f1d                	sub	a4,a4,a5
     5ee:	963e                	add	a2,a2,a5
     5f0:	f8c374e3          	bgeu	t1,a2,578 <memset+0x2a>
     5f4:	b7a5                	j	55c <memset+0xe>

000005f6 <SERVICE_RTOS_TaskCreate>:
     5f6:	cd11                	beqz	a0,612 <SERVICE_RTOS_TaskCreate+0x1c>
     5f8:	cd99                	beqz	a1,616 <SERVICE_RTOS_TaskCreate+0x20>
     5fa:	e219                	bnez	a2,600 <SERVICE_RTOS_TaskCreate+0xa>
     5fc:	4505                	li	a0,1
     5fe:	8082                	ret
     600:	f1fff2ef          	jal	t0,51e <__riscv_save_0>
     604:	87ba                	mv	a5,a4
     606:	8736                	mv	a4,a3
     608:	4681                	li	a3,0
     60a:	086010ef          	jal	ra,1690 <xTaskCreate>
     60e:	4501                	li	a0,0
     610:	bf0d                	j	542 <__riscv_restore_0>
     612:	4505                	li	a0,1
     614:	8082                	ret
     616:	4505                	li	a0,1
     618:	8082                	ret

0000061a <SERVICE_RTOS_StartSchedular>:
     61a:	f05ff2ef          	jal	t0,51e <__riscv_save_0>
     61e:	0ca010ef          	jal	ra,16e8 <vTaskStartScheduler>
     622:	4501                	li	a0,0
     624:	bf39                	j	542 <__riscv_restore_0>

00000626 <SERVICE_RTOS_CreateBlockingQueue>:
     626:	cd01                	beqz	a0,63e <SERVICE_RTOS_CreateBlockingQueue+0x18>
     628:	cd89                	beqz	a1,642 <SERVICE_RTOS_CreateBlockingQueue+0x1c>
     62a:	ce11                	beqz	a2,646 <SERVICE_RTOS_CreateBlockingQueue+0x20>
     62c:	ef3ff2ef          	jal	t0,51e <__riscv_save_0>
     630:	8432                	mv	s0,a2
     632:	4601                	li	a2,0
     634:	041000ef          	jal	ra,e74 <xQueueGenericCreate>
     638:	c008                	sw	a0,0(s0)
     63a:	4501                	li	a0,0
     63c:	b719                	j	542 <__riscv_restore_0>
     63e:	4505                	li	a0,1
     640:	8082                	ret
     642:	4505                	li	a0,1
     644:	8082                	ret
     646:	4505                	li	a0,1
     648:	8082                	ret

0000064a <SERVICE_RTOS_AppendToBlockingQueue>:
     64a:	c195                	beqz	a1,66e <SERVICE_RTOS_AppendToBlockingQueue+0x24>
     64c:	c21d                	beqz	a2,672 <SERVICE_RTOS_AppendToBlockingQueue+0x28>
     64e:	ed1ff2ef          	jal	t0,51e <__riscv_save_0>
     652:	87b2                	mv	a5,a2
     654:	4681                	li	a3,0
     656:	00155613          	srli	a2,a0,0x1
     65a:	853e                	mv	a0,a5
     65c:	083000ef          	jal	ra,ede <xQueueGenericSend>
     660:	4785                	li	a5,1
     662:	00f50463          	beq	a0,a5,66a <SERVICE_RTOS_AppendToBlockingQueue+0x20>
     666:	4509                	li	a0,2
     668:	bde9                	j	542 <__riscv_restore_0>
     66a:	4501                	li	a0,0
     66c:	bff5                	j	668 <SERVICE_RTOS_AppendToBlockingQueue+0x1e>
     66e:	4505                	li	a0,1
     670:	8082                	ret
     672:	4505                	li	a0,1
     674:	8082                	ret

00000676 <SERVICE_RTOS_ReadFromBlockingQueue>:
     676:	c985                	beqz	a1,6a6 <SERVICE_RTOS_ReadFromBlockingQueue+0x30>
     678:	ca0d                	beqz	a2,6aa <SERVICE_RTOS_ReadFromBlockingQueue+0x34>
     67a:	ea5ff2ef          	jal	t0,51e <__riscv_save_0>
     67e:	84b6                	mv	s1,a3
     680:	8432                	mv	s0,a2
     682:	00155613          	srli	a2,a0,0x1
     686:	8522                	mv	a0,s0
     688:	1f3000ef          	jal	ra,107a <xQueueReceive>
     68c:	4785                	li	a5,1
     68e:	00f50463          	beq	a0,a5,696 <SERVICE_RTOS_ReadFromBlockingQueue+0x20>
     692:	450d                	li	a0,3
     694:	b57d                	j	542 <__riscv_restore_0>
     696:	8522                	mv	a0,s0
     698:	347000ef          	jal	ra,11de <uxQueueMessagesWaiting>
     69c:	0505                	addi	a0,a0,1
     69e:	00a48023          	sb	a0,0(s1)
     6a2:	4501                	li	a0,0
     6a4:	bfc5                	j	694 <SERVICE_RTOS_ReadFromBlockingQueue+0x1e>
     6a6:	4505                	li	a0,1
     6a8:	8082                	ret
     6aa:	4505                	li	a0,1
     6ac:	8082                	ret

000006ae <SERVICE_RTOS_BlockFor>:
     6ae:	e71ff2ef          	jal	t0,51e <__riscv_save_0>
     6b2:	8105                	srli	a0,a0,0x1
     6b4:	42c010ef          	jal	ra,1ae0 <vTaskDelay>
     6b8:	4501                	li	a0,0
     6ba:	b561                	j	542 <__riscv_restore_0>

000006bc <SERVICE_RTOS_WaitForNotification>:
     6bc:	e63ff2ef          	jal	t0,51e <__riscv_save_0>
     6c0:	1f400613          	li	a2,500
     6c4:	02c50633          	mul	a2,a0,a2
     6c8:	3e800793          	li	a5,1000
     6cc:	02f65633          	divu	a2,a2,a5
     6d0:	4581                	li	a1,0
     6d2:	4501                	li	a0,0
     6d4:	10b010ef          	jal	ra,1fde <ulTaskGenericNotifyTake>
     6d8:	4501                	li	a0,0
     6da:	b5a5                	j	542 <__riscv_restore_0>

000006dc <SERVICE_RTOS_Notify>:
     6dc:	c515                	beqz	a0,708 <SERVICE_RTOS_Notify+0x2c>
     6de:	e41ff2ef          	jal	t0,51e <__riscv_save_0>
     6e2:	c591                	beqz	a1,6ee <SERVICE_RTOS_Notify+0x12>
     6e4:	4785                	li	a5,1
     6e6:	00f58b63          	beq	a1,a5,6fc <SERVICE_RTOS_Notify+0x20>
     6ea:	4501                	li	a0,0
     6ec:	bd99                	j	542 <__riscv_restore_0>
     6ee:	4701                	li	a4,0
     6f0:	4689                	li	a3,2
     6f2:	4601                	li	a2,0
     6f4:	1bf010ef          	jal	ra,20b2 <xTaskGenericNotify>
     6f8:	4501                	li	a0,0
     6fa:	bfcd                	j	6ec <SERVICE_RTOS_Notify+0x10>
     6fc:	4601                	li	a2,0
     6fe:	4581                	li	a1,0
     700:	3a5010ef          	jal	ra,22a4 <vTaskGenericNotifyGiveFromISR>
     704:	4501                	li	a0,0
     706:	b7dd                	j	6ec <SERVICE_RTOS_Notify+0x10>
     708:	4505                	li	a0,1
     70a:	8082                	ret

0000070c <SERVICE_RTOS_CurrentMSTime>:
     70c:	c911                	beqz	a0,720 <SERVICE_RTOS_CurrentMSTime+0x14>
     70e:	e11ff2ef          	jal	t0,51e <__riscv_save_0>
     712:	842a                	mv	s0,a0
     714:	07c010ef          	jal	ra,1790 <xTaskGetTickCount>
     718:	0506                	slli	a0,a0,0x1
     71a:	c008                	sw	a0,0(s0)
     71c:	4501                	li	a0,0
     71e:	b515                	j	542 <__riscv_restore_0>
     720:	4505                	li	a0,1
     722:	8082                	ret

00000724 <SERVICE_RTOS_GetCurrentTaskHandle>:
     724:	c909                	beqz	a0,736 <SERVICE_RTOS_GetCurrentTaskHandle+0x12>
     726:	df9ff2ef          	jal	t0,51e <__riscv_save_0>
     72a:	842a                	mv	s0,a0
     72c:	7a0010ef          	jal	ra,1ecc <xTaskGetCurrentTaskHandle>
     730:	c008                	sw	a0,0(s0)
     732:	4501                	li	a0,0
     734:	b539                	j	542 <__riscv_restore_0>
     736:	4505                	li	a0,1
     738:	8082                	ret

0000073a <prvHeapInit>:
     73a:	20000737          	lui	a4,0x20000
     73e:	17c70713          	addi	a4,a4,380 # 2000017c <ucHeap>
     742:	00f77793          	andi	a5,a4,15
     746:	cb89                	beqz	a5,758 <prvHeapInit+0x1e>
     748:	00f70693          	addi	a3,a4,15
     74c:	9ac1                	andi	a3,a3,-16
     74e:	678d                	lui	a5,0x3
     750:	8f95                	sub	a5,a5,a3
     752:	97ba                	add	a5,a5,a4
     754:	8736                	mv	a4,a3
     756:	a011                	j	75a <prvHeapInit+0x20>
     758:	678d                	lui	a5,0x3
     75a:	200006b7          	lui	a3,0x20000
     75e:	0c068693          	addi	a3,a3,192 # 200000c0 <xStart>
     762:	c298                	sw	a4,0(a3)
     764:	0006a223          	sw	zero,4(a3)
     768:	97ba                	add	a5,a5,a4
     76a:	17c1                	addi	a5,a5,-16
     76c:	9bc1                	andi	a5,a5,-16
     76e:	200006b7          	lui	a3,0x20000
     772:	0af6a423          	sw	a5,168(a3) # 200000a8 <_edata>
     776:	0007a223          	sw	zero,4(a5) # 3004 <matrix_subtract+0x36>
     77a:	0007a023          	sw	zero,0(a5)
     77e:	40e786b3          	sub	a3,a5,a4
     782:	c354                	sw	a3,4(a4)
     784:	c31c                	sw	a5,0(a4)
     786:	200007b7          	lui	a5,0x20000
     78a:	0ad7aa23          	sw	a3,180(a5) # 200000b4 <xMinimumEverFreeBytesRemaining>
     78e:	200007b7          	lui	a5,0x20000
     792:	0ad7a823          	sw	a3,176(a5) # 200000b0 <xFreeBytesRemaining>
     796:	200007b7          	lui	a5,0x20000
     79a:	80000737          	lui	a4,0x80000
     79e:	0ae7a623          	sw	a4,172(a5) # 200000ac <xBlockAllocatedBit>
     7a2:	8082                	ret

000007a4 <prvInsertBlockIntoFreeList>:
     7a4:	20000737          	lui	a4,0x20000
     7a8:	0c070713          	addi	a4,a4,192 # 200000c0 <xStart>
     7ac:	a011                	j	7b0 <prvInsertBlockIntoFreeList+0xc>
     7ae:	873e                	mv	a4,a5
     7b0:	431c                	lw	a5,0(a4)
     7b2:	fea7eee3          	bltu	a5,a0,7ae <prvInsertBlockIntoFreeList+0xa>
     7b6:	4354                	lw	a3,4(a4)
     7b8:	00d70633          	add	a2,a4,a3
     7bc:	00a60c63          	beq	a2,a0,7d4 <prvInsertBlockIntoFreeList+0x30>
     7c0:	4154                	lw	a3,4(a0)
     7c2:	00d50633          	add	a2,a0,a3
     7c6:	00c78c63          	beq	a5,a2,7de <prvInsertBlockIntoFreeList+0x3a>
     7ca:	c11c                	sw	a5,0(a0)
     7cc:	00e50363          	beq	a0,a4,7d2 <prvInsertBlockIntoFreeList+0x2e>
     7d0:	c308                	sw	a0,0(a4)
     7d2:	8082                	ret
     7d4:	4150                	lw	a2,4(a0)
     7d6:	96b2                	add	a3,a3,a2
     7d8:	c354                	sw	a3,4(a4)
     7da:	853a                	mv	a0,a4
     7dc:	b7d5                	j	7c0 <prvInsertBlockIntoFreeList+0x1c>
     7de:	20000637          	lui	a2,0x20000
     7e2:	0a862603          	lw	a2,168(a2) # 200000a8 <_edata>
     7e6:	00c78963          	beq	a5,a2,7f8 <prvInsertBlockIntoFreeList+0x54>
     7ea:	43dc                	lw	a5,4(a5)
     7ec:	96be                	add	a3,a3,a5
     7ee:	c154                	sw	a3,4(a0)
     7f0:	431c                	lw	a5,0(a4)
     7f2:	439c                	lw	a5,0(a5)
     7f4:	c11c                	sw	a5,0(a0)
     7f6:	bfd9                	j	7cc <prvInsertBlockIntoFreeList+0x28>
     7f8:	c110                	sw	a2,0(a0)
     7fa:	bfc9                	j	7cc <prvInsertBlockIntoFreeList+0x28>

000007fc <pvPortMalloc>:
     7fc:	d23ff2ef          	jal	t0,51e <__riscv_save_0>
     800:	842a                	mv	s0,a0
     802:	77f000ef          	jal	ra,1780 <vTaskSuspendAll>
     806:	200007b7          	lui	a5,0x20000
     80a:	0a87a783          	lw	a5,168(a5) # 200000a8 <_edata>
     80e:	cbb1                	beqz	a5,862 <__stack_size+0x62>
     810:	200007b7          	lui	a5,0x20000
     814:	0ac7a783          	lw	a5,172(a5) # 200000ac <xBlockAllocatedBit>
     818:	8fe1                	and	a5,a5,s0
     81a:	10079b63          	bnez	a5,930 <__stack_size+0x130>
     81e:	fff40793          	addi	a5,s0,-1
     822:	5739                	li	a4,-18
     824:	10f76863          	bltu	a4,a5,934 <__stack_size+0x134>
     828:	01040793          	addi	a5,s0,16
     82c:	00f7f713          	andi	a4,a5,15
     830:	cb11                	beqz	a4,844 <__stack_size+0x44>
     832:	ff07f713          	andi	a4,a5,-16
     836:	0741                	addi	a4,a4,16
     838:	10e7f663          	bgeu	a5,a4,944 <__stack_size+0x144>
     83c:	00f77793          	andi	a5,a4,15
     840:	e39d                	bnez	a5,866 <__stack_size+0x66>
     842:	87ba                	mv	a5,a4
     844:	10078263          	beqz	a5,948 <__stack_size+0x148>
     848:	20000737          	lui	a4,0x20000
     84c:	0b072703          	lw	a4,176(a4) # 200000b0 <xFreeBytesRemaining>
     850:	0ef76e63          	bltu	a4,a5,94c <__stack_size+0x14c>
     854:	20000737          	lui	a4,0x20000
     858:	0c072403          	lw	s0,192(a4) # 200000c0 <xStart>
     85c:	0c070713          	addi	a4,a4,192
     860:	a03d                	j	88e <__stack_size+0x8e>
     862:	3de1                	jal	73a <prvHeapInit>
     864:	b775                	j	810 <__stack_size+0x10>
     866:	6789                	lui	a5,0x2
     868:	80078793          	addi	a5,a5,-2048 # 1800 <xTaskIncrementTick+0x66>
     86c:	30079073          	csrw	mstatus,a5
     870:	0000d637          	lui	a2,0xd
     874:	5a860613          	addi	a2,a2,1448 # d5a8 <_read+0x12>
     878:	09c00593          	li	a1,156
     87c:	0000d537          	lui	a0,0xd
     880:	5dc50513          	addi	a0,a0,1500 # d5dc <_read+0x46>
     884:	4110b0ef          	jal	ra,c494 <iprintf>
     888:	a001                	j	888 <__stack_size+0x88>
     88a:	8722                	mv	a4,s0
     88c:	8436                	mv	s0,a3
     88e:	4054                	lw	a3,4(s0)
     890:	00f6f463          	bgeu	a3,a5,898 <__stack_size+0x98>
     894:	4014                	lw	a3,0(s0)
     896:	faf5                	bnez	a3,88a <__stack_size+0x8a>
     898:	200006b7          	lui	a3,0x20000
     89c:	0a86a683          	lw	a3,168(a3) # 200000a8 <_edata>
     8a0:	0a868863          	beq	a3,s0,950 <__stack_size+0x150>
     8a4:	4304                	lw	s1,0(a4)
     8a6:	04c1                	addi	s1,s1,16
     8a8:	4014                	lw	a3,0(s0)
     8aa:	c314                	sw	a3,0(a4)
     8ac:	4058                	lw	a4,4(s0)
     8ae:	8f1d                	sub	a4,a4,a5
     8b0:	02000693          	li	a3,32
     8b4:	02e6fc63          	bgeu	a3,a4,8ec <__stack_size+0xec>
     8b8:	00f40533          	add	a0,s0,a5
     8bc:	00f57693          	andi	a3,a0,15
     8c0:	c29d                	beqz	a3,8e6 <__stack_size+0xe6>
     8c2:	6789                	lui	a5,0x2
     8c4:	80078793          	addi	a5,a5,-2048 # 1800 <xTaskIncrementTick+0x66>
     8c8:	30079073          	csrw	mstatus,a5
     8cc:	0000d637          	lui	a2,0xd
     8d0:	5a860613          	addi	a2,a2,1448 # d5a8 <_read+0x12>
     8d4:	0cf00593          	li	a1,207
     8d8:	0000d537          	lui	a0,0xd
     8dc:	5dc50513          	addi	a0,a0,1500 # d5dc <_read+0x46>
     8e0:	3b50b0ef          	jal	ra,c494 <iprintf>
     8e4:	a001                	j	8e4 <__stack_size+0xe4>
     8e6:	c158                	sw	a4,4(a0)
     8e8:	c05c                	sw	a5,4(s0)
     8ea:	3d6d                	jal	7a4 <prvInsertBlockIntoFreeList>
     8ec:	4054                	lw	a3,4(s0)
     8ee:	20000737          	lui	a4,0x20000
     8f2:	0b070713          	addi	a4,a4,176 # 200000b0 <xFreeBytesRemaining>
     8f6:	431c                	lw	a5,0(a4)
     8f8:	8f95                	sub	a5,a5,a3
     8fa:	c31c                	sw	a5,0(a4)
     8fc:	20000737          	lui	a4,0x20000
     900:	0b472703          	lw	a4,180(a4) # 200000b4 <xMinimumEverFreeBytesRemaining>
     904:	00e7f663          	bgeu	a5,a4,910 <__stack_size+0x110>
     908:	20000737          	lui	a4,0x20000
     90c:	0af72a23          	sw	a5,180(a4) # 200000b4 <xMinimumEverFreeBytesRemaining>
     910:	200007b7          	lui	a5,0x20000
     914:	0ac7a783          	lw	a5,172(a5) # 200000ac <xBlockAllocatedBit>
     918:	8fd5                	or	a5,a5,a3
     91a:	c05c                	sw	a5,4(s0)
     91c:	00042023          	sw	zero,0(s0)
     920:	200007b7          	lui	a5,0x20000
     924:	0b878793          	addi	a5,a5,184 # 200000b8 <xNumberOfSuccessfulAllocations>
     928:	4398                	lw	a4,0(a5)
     92a:	0705                	addi	a4,a4,1
     92c:	c398                	sw	a4,0(a5)
     92e:	a021                	j	936 <__stack_size+0x136>
     930:	4481                	li	s1,0
     932:	a011                	j	936 <__stack_size+0x136>
     934:	4481                	li	s1,0
     936:	026010ef          	jal	ra,195c <xTaskResumeAll>
     93a:	00f4f793          	andi	a5,s1,15
     93e:	eb99                	bnez	a5,954 <__stack_size+0x154>
     940:	8526                	mv	a0,s1
     942:	b101                	j	542 <__riscv_restore_0>
     944:	4481                	li	s1,0
     946:	bfc5                	j	936 <__stack_size+0x136>
     948:	4481                	li	s1,0
     94a:	b7f5                	j	936 <__stack_size+0x136>
     94c:	4481                	li	s1,0
     94e:	b7e5                	j	936 <__stack_size+0x136>
     950:	4481                	li	s1,0
     952:	b7d5                	j	936 <__stack_size+0x136>
     954:	6789                	lui	a5,0x2
     956:	80078793          	addi	a5,a5,-2048 # 1800 <xTaskIncrementTick+0x66>
     95a:	30079073          	csrw	mstatus,a5
     95e:	0000d637          	lui	a2,0xd
     962:	5a860613          	addi	a2,a2,1448 # d5a8 <_read+0x12>
     966:	11000593          	li	a1,272
     96a:	0000d537          	lui	a0,0xd
     96e:	5dc50513          	addi	a0,a0,1500 # d5dc <_read+0x46>
     972:	3230b0ef          	jal	ra,c494 <iprintf>
     976:	a001                	j	976 <__stack_size+0x176>

00000978 <vPortFree>:
     978:	c155                	beqz	a0,a1c <vPortFree+0xa4>
     97a:	ba5ff2ef          	jal	t0,51e <__riscv_save_0>
     97e:	842a                	mv	s0,a0
     980:	ff050493          	addi	s1,a0,-16
     984:	ff452783          	lw	a5,-12(a0)
     988:	20000737          	lui	a4,0x20000
     98c:	0ac72703          	lw	a4,172(a4) # 200000ac <xBlockAllocatedBit>
     990:	00e7f6b3          	and	a3,a5,a4
     994:	c695                	beqz	a3,9c0 <vPortFree+0x48>
     996:	ff052683          	lw	a3,-16(a0)
     99a:	c6a9                	beqz	a3,9e4 <vPortFree+0x6c>
     99c:	6789                	lui	a5,0x2
     99e:	80078793          	addi	a5,a5,-2048 # 1800 <xTaskIncrementTick+0x66>
     9a2:	30079073          	csrw	mstatus,a5
     9a6:	0000d637          	lui	a2,0xd
     9aa:	5a860613          	addi	a2,a2,1448 # d5a8 <_read+0x12>
     9ae:	12500593          	li	a1,293
     9b2:	0000d537          	lui	a0,0xd
     9b6:	5dc50513          	addi	a0,a0,1500 # d5dc <_read+0x46>
     9ba:	2db0b0ef          	jal	ra,c494 <iprintf>
     9be:	a001                	j	9be <vPortFree+0x46>
     9c0:	6789                	lui	a5,0x2
     9c2:	80078793          	addi	a5,a5,-2048 # 1800 <xTaskIncrementTick+0x66>
     9c6:	30079073          	csrw	mstatus,a5
     9ca:	0000d637          	lui	a2,0xd
     9ce:	5a860613          	addi	a2,a2,1448 # d5a8 <_read+0x12>
     9d2:	12400593          	li	a1,292
     9d6:	0000d537          	lui	a0,0xd
     9da:	5dc50513          	addi	a0,a0,1500 # d5dc <_read+0x46>
     9de:	2b70b0ef          	jal	ra,c494 <iprintf>
     9e2:	a001                	j	9e2 <vPortFree+0x6a>
     9e4:	fff74713          	not	a4,a4
     9e8:	8ff9                	and	a5,a5,a4
     9ea:	fef52a23          	sw	a5,-12(a0)
     9ee:	593000ef          	jal	ra,1780 <vTaskSuspendAll>
     9f2:	ff442683          	lw	a3,-12(s0)
     9f6:	200007b7          	lui	a5,0x20000
     9fa:	0b078793          	addi	a5,a5,176 # 200000b0 <xFreeBytesRemaining>
     9fe:	4398                	lw	a4,0(a5)
     a00:	9736                	add	a4,a4,a3
     a02:	c398                	sw	a4,0(a5)
     a04:	8526                	mv	a0,s1
     a06:	3b79                	jal	7a4 <prvInsertBlockIntoFreeList>
     a08:	200007b7          	lui	a5,0x20000
     a0c:	0bc78793          	addi	a5,a5,188 # 200000bc <xNumberOfSuccessfulFrees>
     a10:	4398                	lw	a4,0(a5)
     a12:	0705                	addi	a4,a4,1
     a14:	c398                	sw	a4,0(a5)
     a16:	747000ef          	jal	ra,195c <xTaskResumeAll>
     a1a:	b625                	j	542 <__riscv_restore_0>
     a1c:	8082                	ret

00000a1e <vPortSetupTimerInterrupt>:
     a1e:	e000e7b7          	lui	a5,0xe000e
     a22:	5741                	li	a4,-16
     a24:	40e78723          	sb	a4,1038(a5) # e000e40e <__freertos_irq_stack_top+0xc000940e>
     a28:	40e78623          	sb	a4,1036(a5)
     a2c:	e000f7b7          	lui	a5,0xe000f
     a30:	0007a023          	sw	zero,0(a5) # e000f000 <__freertos_irq_stack_top+0xc000a000>
     a34:	0007a223          	sw	zero,4(a5)
     a38:	4681                	li	a3,0
     a3a:	4701                	li	a4,0
     a3c:	c794                	sw	a3,8(a5)
     a3e:	c7d8                	sw	a4,12(a5)
     a40:	8141a583          	lw	a1,-2028(gp) # 20000094 <SystemCoreClock>
     a44:	1f400713          	li	a4,500
     a48:	02e5d633          	divu	a2,a1,a4
     a4c:	4681                	li	a3,0
     a4e:	cb90                	sw	a2,16(a5)
     a50:	cbd4                	sw	a3,20(a5)
     a52:	473d                	li	a4,15
     a54:	c398                	sw	a4,0(a5)
     a56:	8082                	ret

00000a58 <xPortStartScheduler>:
     a58:	ac7ff2ef          	jal	t0,51e <__riscv_save_0>
     a5c:	1141                	addi	sp,sp,-16
     a5e:	c602                	sw	zero,12(sp)
     a60:	305027f3          	csrr	a5,mtvec
     a64:	c63e                	sw	a5,12(sp)
     a66:	47b2                	lw	a5,12(sp)
     a68:	8b8d                	andi	a5,a5,3
     a6a:	470d                	li	a4,3
     a6c:	02e79a63          	bne	a5,a4,aa0 <xPortStartScheduler+0x48>
     a70:	200057b7          	lui	a5,0x20005
     a74:	00078793          	mv	a5,a5
     a78:	8bbd                	andi	a5,a5,15
     a7a:	c7a9                	beqz	a5,ac4 <xPortStartScheduler+0x6c>
     a7c:	6789                	lui	a5,0x2
     a7e:	80078793          	addi	a5,a5,-2048 # 1800 <xTaskIncrementTick+0x66>
     a82:	30079073          	csrw	mstatus,a5
     a86:	0000d637          	lui	a2,0xd
     a8a:	60060613          	addi	a2,a2,1536 # d600 <_read+0x6a>
     a8e:	0bb00593          	li	a1,187
     a92:	0000d537          	lui	a0,0xd
     a96:	5dc50513          	addi	a0,a0,1500 # d5dc <_read+0x46>
     a9a:	1fb0b0ef          	jal	ra,c494 <iprintf>
     a9e:	a001                	j	a9e <xPortStartScheduler+0x46>
     aa0:	6789                	lui	a5,0x2
     aa2:	80078793          	addi	a5,a5,-2048 # 1800 <xTaskIncrementTick+0x66>
     aa6:	30079073          	csrw	mstatus,a5
     aaa:	0000d637          	lui	a2,0xd
     aae:	60060613          	addi	a2,a2,1536 # d600 <_read+0x6a>
     ab2:	0b600593          	li	a1,182
     ab6:	0000d537          	lui	a0,0xd
     aba:	5dc50513          	addi	a0,a0,1500 # d5dc <_read+0x46>
     abe:	1d70b0ef          	jal	ra,c494 <iprintf>
     ac2:	a001                	j	ac2 <xPortStartScheduler+0x6a>
     ac4:	3fa9                	jal	a1e <vPortSetupTimerInterrupt>
     ac6:	e000e7b7          	lui	a5,0xe000e
     aca:	6711                	lui	a4,0x4
     acc:	10e7a023          	sw	a4,256(a5) # e000e100 <__freertos_irq_stack_top+0xc0009100>
     ad0:	6705                	lui	a4,0x1
     ad2:	10e7a023          	sw	a4,256(a5)
     ad6:	200007b7          	lui	a5,0x20000
     ada:	0807a023          	sw	zero,128(a5) # 20000080 <uxCriticalNesting>
     ade:	823ff0ef          	jal	ra,300 <xPortStartFirstTask>
     ae2:	4501                	li	a0,0
     ae4:	0141                	addi	sp,sp,16
     ae6:	bcb1                	j	542 <__riscv_restore_0>

00000ae8 <SysTick_Handler>:
     ae8:	7139                	addi	sp,sp,-64
     aea:	de06                	sw	ra,60(sp)
     aec:	dc16                	sw	t0,56(sp)
     aee:	da1a                	sw	t1,52(sp)
     af0:	d81e                	sw	t2,48(sp)
     af2:	d62a                	sw	a0,44(sp)
     af4:	d42e                	sw	a1,40(sp)
     af6:	d232                	sw	a2,36(sp)
     af8:	d036                	sw	a3,32(sp)
     afa:	ce3a                	sw	a4,28(sp)
     afc:	cc3e                	sw	a5,24(sp)
     afe:	ca42                	sw	a6,20(sp)
     b00:	c846                	sw	a7,16(sp)
     b02:	c672                	sw	t3,12(sp)
     b04:	c476                	sw	t4,8(sp)
     b06:	c27a                	sw	t5,4(sp)
     b08:	c07e                	sw	t6,0(sp)
     b0a:	34011173          	csrrw	sp,mscratch,sp
     b0e:	6789                	lui	a5,0x2
     b10:	80078793          	addi	a5,a5,-2048 # 1800 <xTaskIncrementTick+0x66>
     b14:	30079073          	csrw	mstatus,a5
     b18:	e000f7b7          	lui	a5,0xe000f
     b1c:	0007a223          	sw	zero,4(a5) # e000f004 <__freertos_irq_stack_top+0xc000a004>
     b20:	47b000ef          	jal	ra,179a <xTaskIncrementTick>
     b24:	c511                	beqz	a0,b30 <SysTick_Handler+0x48>
     b26:	e000e7b7          	lui	a5,0xe000e
     b2a:	6711                	lui	a4,0x4
     b2c:	20e7a023          	sw	a4,512(a5) # e000e200 <__freertos_irq_stack_top+0xc0009200>
     b30:	6789                	lui	a5,0x2
     b32:	88878793          	addi	a5,a5,-1912 # 1888 <xTaskIncrementTick+0xee>
     b36:	30079073          	csrw	mstatus,a5
     b3a:	34011173          	csrrw	sp,mscratch,sp
     b3e:	50f2                	lw	ra,60(sp)
     b40:	52e2                	lw	t0,56(sp)
     b42:	5352                	lw	t1,52(sp)
     b44:	53c2                	lw	t2,48(sp)
     b46:	5532                	lw	a0,44(sp)
     b48:	55a2                	lw	a1,40(sp)
     b4a:	5612                	lw	a2,36(sp)
     b4c:	5682                	lw	a3,32(sp)
     b4e:	4772                	lw	a4,28(sp)
     b50:	47e2                	lw	a5,24(sp)
     b52:	4852                	lw	a6,20(sp)
     b54:	48c2                	lw	a7,16(sp)
     b56:	4e32                	lw	t3,12(sp)
     b58:	4ea2                	lw	t4,8(sp)
     b5a:	4f12                	lw	t5,4(sp)
     b5c:	4f82                	lw	t6,0(sp)
     b5e:	6121                	addi	sp,sp,64
     b60:	30200073          	mret

00000b64 <vPortEnterCritical>:
     b64:	6789                	lui	a5,0x2
     b66:	80078793          	addi	a5,a5,-2048 # 1800 <xTaskIncrementTick+0x66>
     b6a:	30079073          	csrw	mstatus,a5
     b6e:	200007b7          	lui	a5,0x20000
     b72:	08078793          	addi	a5,a5,128 # 20000080 <uxCriticalNesting>
     b76:	4398                	lw	a4,0(a5)
     b78:	0705                	addi	a4,a4,1
     b7a:	c398                	sw	a4,0(a5)
     b7c:	8082                	ret

00000b7e <vPortExitCritical>:
     b7e:	200007b7          	lui	a5,0x20000
     b82:	0807a783          	lw	a5,128(a5) # 20000080 <uxCriticalNesting>
     b86:	cf89                	beqz	a5,ba0 <vPortExitCritical+0x22>
     b88:	17fd                	addi	a5,a5,-1
     b8a:	20000737          	lui	a4,0x20000
     b8e:	08f72023          	sw	a5,128(a4) # 20000080 <uxCriticalNesting>
     b92:	e791                	bnez	a5,b9e <vPortExitCritical+0x20>
     b94:	6789                	lui	a5,0x2
     b96:	88878793          	addi	a5,a5,-1912 # 1888 <xTaskIncrementTick+0xee>
     b9a:	30079073          	csrw	mstatus,a5
     b9e:	8082                	ret
     ba0:	97fff2ef          	jal	t0,51e <__riscv_save_0>
     ba4:	6789                	lui	a5,0x2
     ba6:	80078793          	addi	a5,a5,-2048 # 1800 <xTaskIncrementTick+0x66>
     baa:	30079073          	csrw	mstatus,a5
     bae:	0000d637          	lui	a2,0xd
     bb2:	60060613          	addi	a2,a2,1536 # d600 <_read+0x6a>
     bb6:	10300593          	li	a1,259
     bba:	0000d537          	lui	a0,0xd
     bbe:	5dc50513          	addi	a0,a0,1500 # d5dc <_read+0x46>
     bc2:	0d30b0ef          	jal	ra,c494 <iprintf>
     bc6:	a001                	j	bc6 <vPortExitCritical+0x48>

00000bc8 <xPortSetInterruptMask>:
     bc8:	6509                	lui	a0,0x2
     bca:	80050513          	addi	a0,a0,-2048 # 1800 <xTaskIncrementTick+0x66>
     bce:	30051573          	csrrw	a0,mstatus,a0
     bd2:	8082                	ret

00000bd4 <vPortClearInterruptMask>:
     bd4:	30051073          	csrw	mstatus,a0
     bd8:	8082                	ret

00000bda <vListInitialise>:
     bda:	00850793          	addi	a5,a0,8
     bde:	c15c                	sw	a5,4(a0)
     be0:	577d                	li	a4,-1
     be2:	c518                	sw	a4,8(a0)
     be4:	c55c                	sw	a5,12(a0)
     be6:	c91c                	sw	a5,16(a0)
     be8:	00052023          	sw	zero,0(a0)
     bec:	8082                	ret

00000bee <vListInitialiseItem>:
     bee:	00052823          	sw	zero,16(a0)
     bf2:	8082                	ret

00000bf4 <vListInsert>:
     bf4:	4190                	lw	a2,0(a1)
     bf6:	57fd                	li	a5,-1
     bf8:	00f60563          	beq	a2,a5,c02 <vListInsert+0xe>
     bfc:	00850713          	addi	a4,a0,8
     c00:	a021                	j	c08 <vListInsert+0x14>
     c02:	4918                	lw	a4,16(a0)
     c04:	a031                	j	c10 <vListInsert+0x1c>
     c06:	873e                	mv	a4,a5
     c08:	435c                	lw	a5,4(a4)
     c0a:	4394                	lw	a3,0(a5)
     c0c:	fed67de3          	bgeu	a2,a3,c06 <vListInsert+0x12>
     c10:	435c                	lw	a5,4(a4)
     c12:	c1dc                	sw	a5,4(a1)
     c14:	c78c                	sw	a1,8(a5)
     c16:	c598                	sw	a4,8(a1)
     c18:	c34c                	sw	a1,4(a4)
     c1a:	c988                	sw	a0,16(a1)
     c1c:	411c                	lw	a5,0(a0)
     c1e:	0785                	addi	a5,a5,1
     c20:	c11c                	sw	a5,0(a0)
     c22:	8082                	ret

00000c24 <uxListRemove>:
     c24:	491c                	lw	a5,16(a0)
     c26:	4154                	lw	a3,4(a0)
     c28:	4518                	lw	a4,8(a0)
     c2a:	c698                	sw	a4,8(a3)
     c2c:	4154                	lw	a3,4(a0)
     c2e:	c354                	sw	a3,4(a4)
     c30:	43d8                	lw	a4,4(a5)
     c32:	00a70963          	beq	a4,a0,c44 <uxListRemove+0x20>
     c36:	00052823          	sw	zero,16(a0)
     c3a:	4398                	lw	a4,0(a5)
     c3c:	177d                	addi	a4,a4,-1
     c3e:	c398                	sw	a4,0(a5)
     c40:	4388                	lw	a0,0(a5)
     c42:	8082                	ret
     c44:	4518                	lw	a4,8(a0)
     c46:	c3d8                	sw	a4,4(a5)
     c48:	b7fd                	j	c36 <uxListRemove+0x12>

00000c4a <prvIsQueueFull>:
     c4a:	8d5ff2ef          	jal	t0,51e <__riscv_save_0>
     c4e:	842a                	mv	s0,a0
     c50:	3f11                	jal	b64 <vPortEnterCritical>
     c52:	5c18                	lw	a4,56(s0)
     c54:	5c5c                	lw	a5,60(s0)
     c56:	00f70763          	beq	a4,a5,c64 <prvIsQueueFull+0x1a>
     c5a:	4401                	li	s0,0
     c5c:	370d                	jal	b7e <vPortExitCritical>
     c5e:	8522                	mv	a0,s0
     c60:	8e3ff06f          	j	542 <__riscv_restore_0>
     c64:	4405                	li	s0,1
     c66:	bfdd                	j	c5c <prvIsQueueFull+0x12>

00000c68 <prvIsQueueEmpty>:
     c68:	8b7ff2ef          	jal	t0,51e <__riscv_save_0>
     c6c:	842a                	mv	s0,a0
     c6e:	3ddd                	jal	b64 <vPortEnterCritical>
     c70:	5c1c                	lw	a5,56(s0)
     c72:	e791                	bnez	a5,c7e <prvIsQueueEmpty+0x16>
     c74:	4405                	li	s0,1
     c76:	3721                	jal	b7e <vPortExitCritical>
     c78:	8522                	mv	a0,s0
     c7a:	8c9ff06f          	j	542 <__riscv_restore_0>
     c7e:	4401                	li	s0,0
     c80:	bfdd                	j	c76 <prvIsQueueEmpty+0xe>

00000c82 <prvCopyDataToQueue>:
     c82:	89dff2ef          	jal	t0,51e <__riscv_save_0>
     c86:	842a                	mv	s0,a0
     c88:	8932                	mv	s2,a2
     c8a:	5d04                	lw	s1,56(a0)
     c8c:	4130                	lw	a2,64(a0)
     c8e:	ee11                	bnez	a2,caa <prvCopyDataToQueue+0x28>
     c90:	411c                	lw	a5,0(a0)
     c92:	c791                	beqz	a5,c9e <prvCopyDataToQueue+0x1c>
     c94:	4501                	li	a0,0
     c96:	0485                	addi	s1,s1,1
     c98:	dc04                	sw	s1,56(s0)
     c9a:	8a9ff06f          	j	542 <__riscv_restore_0>
     c9e:	4508                	lw	a0,8(a0)
     ca0:	256010ef          	jal	ra,1ef6 <xTaskPriorityDisinherit>
     ca4:	00042423          	sw	zero,8(s0)
     ca8:	b7fd                	j	c96 <prvCopyDataToQueue+0x14>
     caa:	02091063          	bnez	s2,cca <prvCopyDataToQueue+0x48>
     cae:	4148                	lw	a0,4(a0)
     cb0:	59a0b0ef          	jal	ra,c24a <memcpy>
     cb4:	4038                	lw	a4,64(s0)
     cb6:	405c                	lw	a5,4(s0)
     cb8:	97ba                	add	a5,a5,a4
     cba:	c05c                	sw	a5,4(s0)
     cbc:	4418                	lw	a4,8(s0)
     cbe:	02e7ee63          	bltu	a5,a4,cfa <prvCopyDataToQueue+0x78>
     cc2:	401c                	lw	a5,0(s0)
     cc4:	c05c                	sw	a5,4(s0)
     cc6:	4501                	li	a0,0
     cc8:	b7f9                	j	c96 <prvCopyDataToQueue+0x14>
     cca:	4548                	lw	a0,12(a0)
     ccc:	57e0b0ef          	jal	ra,c24a <memcpy>
     cd0:	4038                	lw	a4,64(s0)
     cd2:	40e00733          	neg	a4,a4
     cd6:	445c                	lw	a5,12(s0)
     cd8:	97ba                	add	a5,a5,a4
     cda:	c45c                	sw	a5,12(s0)
     cdc:	4014                	lw	a3,0(s0)
     cde:	00d7f563          	bgeu	a5,a3,ce8 <prvCopyDataToQueue+0x66>
     ce2:	441c                	lw	a5,8(s0)
     ce4:	973e                	add	a4,a4,a5
     ce6:	c458                	sw	a4,12(s0)
     ce8:	4789                	li	a5,2
     cea:	00f90463          	beq	s2,a5,cf2 <prvCopyDataToQueue+0x70>
     cee:	4501                	li	a0,0
     cf0:	b75d                	j	c96 <prvCopyDataToQueue+0x14>
     cf2:	c491                	beqz	s1,cfe <prvCopyDataToQueue+0x7c>
     cf4:	14fd                	addi	s1,s1,-1
     cf6:	4501                	li	a0,0
     cf8:	bf79                	j	c96 <prvCopyDataToQueue+0x14>
     cfa:	4501                	li	a0,0
     cfc:	bf69                	j	c96 <prvCopyDataToQueue+0x14>
     cfe:	4501                	li	a0,0
     d00:	bf59                	j	c96 <prvCopyDataToQueue+0x14>

00000d02 <prvCopyDataFromQueue>:
     d02:	4130                	lw	a2,64(a0)
     d04:	c215                	beqz	a2,d28 <prvCopyDataFromQueue+0x26>
     d06:	819ff2ef          	jal	t0,51e <__riscv_save_0>
     d0a:	455c                	lw	a5,12(a0)
     d0c:	97b2                	add	a5,a5,a2
     d0e:	c55c                	sw	a5,12(a0)
     d10:	4518                	lw	a4,8(a0)
     d12:	00e7e463          	bltu	a5,a4,d1a <prvCopyDataFromQueue+0x18>
     d16:	411c                	lw	a5,0(a0)
     d18:	c55c                	sw	a5,12(a0)
     d1a:	872e                	mv	a4,a1
     d1c:	454c                	lw	a1,12(a0)
     d1e:	853a                	mv	a0,a4
     d20:	52a0b0ef          	jal	ra,c24a <memcpy>
     d24:	81fff06f          	j	542 <__riscv_restore_0>
     d28:	8082                	ret

00000d2a <prvUnlockQueue>:
     d2a:	ff4ff2ef          	jal	t0,51e <__riscv_save_0>
     d2e:	84aa                	mv	s1,a0
     d30:	3d15                	jal	b64 <vPortEnterCritical>
     d32:	0454c403          	lbu	s0,69(s1)
     d36:	0462                	slli	s0,s0,0x18
     d38:	8461                	srai	s0,s0,0x18
     d3a:	a031                	j	d46 <prvUnlockQueue+0x1c>
     d3c:	184010ef          	jal	ra,1ec0 <vTaskMissedYield>
     d40:	147d                	addi	s0,s0,-1
     d42:	0462                	slli	s0,s0,0x18
     d44:	8461                	srai	s0,s0,0x18
     d46:	00805a63          	blez	s0,d5a <prvUnlockQueue+0x30>
     d4a:	50dc                	lw	a5,36(s1)
     d4c:	c799                	beqz	a5,d5a <prvUnlockQueue+0x30>
     d4e:	02448513          	addi	a0,s1,36
     d52:	771000ef          	jal	ra,1cc2 <xTaskRemoveFromEventList>
     d56:	d56d                	beqz	a0,d40 <prvUnlockQueue+0x16>
     d58:	b7d5                	j	d3c <prvUnlockQueue+0x12>
     d5a:	57fd                	li	a5,-1
     d5c:	04f482a3          	sb	a5,69(s1)
     d60:	3d39                	jal	b7e <vPortExitCritical>
     d62:	3509                	jal	b64 <vPortEnterCritical>
     d64:	0444c403          	lbu	s0,68(s1)
     d68:	0462                	slli	s0,s0,0x18
     d6a:	8461                	srai	s0,s0,0x18
     d6c:	a031                	j	d78 <prvUnlockQueue+0x4e>
     d6e:	152010ef          	jal	ra,1ec0 <vTaskMissedYield>
     d72:	147d                	addi	s0,s0,-1
     d74:	0462                	slli	s0,s0,0x18
     d76:	8461                	srai	s0,s0,0x18
     d78:	00805a63          	blez	s0,d8c <prvUnlockQueue+0x62>
     d7c:	489c                	lw	a5,16(s1)
     d7e:	c799                	beqz	a5,d8c <prvUnlockQueue+0x62>
     d80:	01048513          	addi	a0,s1,16
     d84:	73f000ef          	jal	ra,1cc2 <xTaskRemoveFromEventList>
     d88:	d56d                	beqz	a0,d72 <prvUnlockQueue+0x48>
     d8a:	b7d5                	j	d6e <prvUnlockQueue+0x44>
     d8c:	57fd                	li	a5,-1
     d8e:	04f48223          	sb	a5,68(s1)
     d92:	33f5                	jal	b7e <vPortExitCritical>
     d94:	faeff06f          	j	542 <__riscv_restore_0>

00000d98 <xQueueGenericReset>:
     d98:	f86ff2ef          	jal	t0,51e <__riscv_save_0>
     d9c:	cd0d                	beqz	a0,dd6 <xQueueGenericReset+0x3e>
     d9e:	842a                	mv	s0,a0
     da0:	84ae                	mv	s1,a1
     da2:	5d54                	lw	a3,60(a0)
     da4:	c699                	beqz	a3,db2 <xQueueGenericReset+0x1a>
     da6:	413c                	lw	a5,64(a0)
     da8:	4701                	li	a4,0
     daa:	02d7b7b3          	mulhu	a5,a5,a3
     dae:	e7b1                	bnez	a5,dfa <xQueueGenericReset+0x62>
     db0:	c739                	beqz	a4,dfe <xQueueGenericReset+0x66>
     db2:	6789                	lui	a5,0x2
     db4:	80078793          	addi	a5,a5,-2048 # 1800 <xTaskIncrementTick+0x66>
     db8:	30079073          	csrw	mstatus,a5
     dbc:	0000d637          	lui	a2,0xd
     dc0:	63460613          	addi	a2,a2,1588 # d634 <_read+0x9e>
     dc4:	14500593          	li	a1,325
     dc8:	0000d537          	lui	a0,0xd
     dcc:	5dc50513          	addi	a0,a0,1500 # d5dc <_read+0x46>
     dd0:	6c40b0ef          	jal	ra,c494 <iprintf>
     dd4:	a001                	j	dd4 <xQueueGenericReset+0x3c>
     dd6:	6789                	lui	a5,0x2
     dd8:	80078793          	addi	a5,a5,-2048 # 1800 <xTaskIncrementTick+0x66>
     ddc:	30079073          	csrw	mstatus,a5
     de0:	0000d637          	lui	a2,0xd
     de4:	63460613          	addi	a2,a2,1588 # d634 <_read+0x9e>
     de8:	11000593          	li	a1,272
     dec:	0000d537          	lui	a0,0xd
     df0:	5dc50513          	addi	a0,a0,1500 # d5dc <_read+0x46>
     df4:	6a00b0ef          	jal	ra,c494 <iprintf>
     df8:	a001                	j	df8 <xQueueGenericReset+0x60>
     dfa:	4705                	li	a4,1
     dfc:	bf55                	j	db0 <xQueueGenericReset+0x18>
     dfe:	339d                	jal	b64 <vPortEnterCritical>
     e00:	401c                	lw	a5,0(s0)
     e02:	5c54                	lw	a3,60(s0)
     e04:	4038                	lw	a4,64(s0)
     e06:	02e68633          	mul	a2,a3,a4
     e0a:	963e                	add	a2,a2,a5
     e0c:	c410                	sw	a2,8(s0)
     e0e:	02042c23          	sw	zero,56(s0)
     e12:	c05c                	sw	a5,4(s0)
     e14:	16fd                	addi	a3,a3,-1
     e16:	02d70733          	mul	a4,a4,a3
     e1a:	97ba                	add	a5,a5,a4
     e1c:	c45c                	sw	a5,12(s0)
     e1e:	57fd                	li	a5,-1
     e20:	04f40223          	sb	a5,68(s0)
     e24:	04f402a3          	sb	a5,69(s0)
     e28:	e095                	bnez	s1,e4c <xQueueGenericReset+0xb4>
     e2a:	481c                	lw	a5,16(s0)
     e2c:	e789                	bnez	a5,e36 <xQueueGenericReset+0x9e>
     e2e:	3b81                	jal	b7e <vPortExitCritical>
     e30:	4505                	li	a0,1
     e32:	f10ff06f          	j	542 <__riscv_restore_0>
     e36:	01040513          	addi	a0,s0,16
     e3a:	689000ef          	jal	ra,1cc2 <xTaskRemoveFromEventList>
     e3e:	d965                	beqz	a0,e2e <xQueueGenericReset+0x96>
     e40:	e000e7b7          	lui	a5,0xe000e
     e44:	6711                	lui	a4,0x4
     e46:	20e7a023          	sw	a4,512(a5) # e000e200 <__freertos_irq_stack_top+0xc0009200>
     e4a:	b7d5                	j	e2e <xQueueGenericReset+0x96>
     e4c:	01040513          	addi	a0,s0,16
     e50:	3369                	jal	bda <vListInitialise>
     e52:	02440513          	addi	a0,s0,36
     e56:	3351                	jal	bda <vListInitialise>
     e58:	bfd9                	j	e2e <xQueueGenericReset+0x96>

00000e5a <prvInitialiseNewQueue>:
     e5a:	ec4ff2ef          	jal	t0,51e <__riscv_save_0>
     e5e:	e989                	bnez	a1,e70 <prvInitialiseNewQueue+0x16>
     e60:	c318                	sw	a4,0(a4)
     e62:	df48                	sw	a0,60(a4)
     e64:	c32c                	sw	a1,64(a4)
     e66:	4585                	li	a1,1
     e68:	853a                	mv	a0,a4
     e6a:	373d                	jal	d98 <xQueueGenericReset>
     e6c:	ed6ff06f          	j	542 <__riscv_restore_0>
     e70:	c310                	sw	a2,0(a4)
     e72:	bfc5                	j	e62 <prvInitialiseNewQueue+0x8>

00000e74 <xQueueGenericCreate>:
     e74:	e90ff2ef          	jal	t0,504 <__riscv_save_4>
     e78:	cd19                	beqz	a0,e96 <xQueueGenericCreate+0x22>
     e7a:	84aa                	mv	s1,a0
     e7c:	892e                	mv	s2,a1
     e7e:	89b2                	mv	s3,a2
     e80:	4781                	li	a5,0
     e82:	02a5b733          	mulhu	a4,a1,a0
     e86:	eb15                	bnez	a4,eba <xQueueGenericCreate+0x46>
     e88:	e799                	bnez	a5,e96 <xQueueGenericCreate+0x22>
     e8a:	03248533          	mul	a0,s1,s2
     e8e:	fb700793          	li	a5,-73
     e92:	02a7f663          	bgeu	a5,a0,ebe <xQueueGenericCreate+0x4a>
     e96:	6789                	lui	a5,0x2
     e98:	80078793          	addi	a5,a5,-2048 # 1800 <xTaskIncrementTick+0x66>
     e9c:	30079073          	csrw	mstatus,a5
     ea0:	0000d637          	lui	a2,0xd
     ea4:	63460613          	addi	a2,a2,1588 # d634 <_read+0x9e>
     ea8:	1c600593          	li	a1,454
     eac:	0000d537          	lui	a0,0xd
     eb0:	5dc50513          	addi	a0,a0,1500 # d5dc <_read+0x46>
     eb4:	5e00b0ef          	jal	ra,c494 <iprintf>
     eb8:	a001                	j	eb8 <xQueueGenericCreate+0x44>
     eba:	4785                	li	a5,1
     ebc:	b7f1                	j	e88 <xQueueGenericCreate+0x14>
     ebe:	04850513          	addi	a0,a0,72
     ec2:	93bff0ef          	jal	ra,7fc <pvPortMalloc>
     ec6:	842a                	mv	s0,a0
     ec8:	c901                	beqz	a0,ed8 <xQueueGenericCreate+0x64>
     eca:	872a                	mv	a4,a0
     ecc:	86ce                	mv	a3,s3
     ece:	04850613          	addi	a2,a0,72
     ed2:	85ca                	mv	a1,s2
     ed4:	8526                	mv	a0,s1
     ed6:	3751                	jal	e5a <prvInitialiseNewQueue>
     ed8:	8522                	mv	a0,s0
     eda:	e5eff06f          	j	538 <__riscv_restore_4>

00000ede <xQueueGenericSend>:
     ede:	e26ff2ef          	jal	t0,504 <__riscv_save_4>
     ee2:	1101                	addi	sp,sp,-32
     ee4:	c632                	sw	a2,12(sp)
     ee6:	c11d                	beqz	a0,f0c <xQueueGenericSend+0x2e>
     ee8:	842a                	mv	s0,a0
     eea:	89ae                	mv	s3,a1
     eec:	84b6                	mv	s1,a3
     eee:	c1a9                	beqz	a1,f30 <xQueueGenericSend+0x52>
     ef0:	4789                	li	a5,2
     ef2:	00f49663          	bne	s1,a5,efe <xQueueGenericSend+0x20>
     ef6:	5c58                	lw	a4,60(s0)
     ef8:	4785                	li	a5,1
     efa:	04f71f63          	bne	a4,a5,f58 <xQueueGenericSend+0x7a>
     efe:	7d9000ef          	jal	ra,1ed6 <xTaskGetSchedulerState>
     f02:	ed59                	bnez	a0,fa0 <xQueueGenericSend+0xc2>
     f04:	47b2                	lw	a5,12(sp)
     f06:	ebbd                	bnez	a5,f7c <xQueueGenericSend+0x9e>
     f08:	4901                	li	s2,0
     f0a:	a8dd                	j	1000 <xQueueGenericSend+0x122>
     f0c:	6789                	lui	a5,0x2
     f0e:	80078793          	addi	a5,a5,-2048 # 1800 <xTaskIncrementTick+0x66>
     f12:	30079073          	csrw	mstatus,a5
     f16:	0000d637          	lui	a2,0xd
     f1a:	63460613          	addi	a2,a2,1588 # d634 <_read+0x9e>
     f1e:	32e00593          	li	a1,814
     f22:	0000d537          	lui	a0,0xd
     f26:	5dc50513          	addi	a0,a0,1500 # d5dc <_read+0x46>
     f2a:	56a0b0ef          	jal	ra,c494 <iprintf>
     f2e:	a001                	j	f2e <xQueueGenericSend+0x50>
     f30:	413c                	lw	a5,64(a0)
     f32:	dfdd                	beqz	a5,ef0 <xQueueGenericSend+0x12>
     f34:	6789                	lui	a5,0x2
     f36:	80078793          	addi	a5,a5,-2048 # 1800 <xTaskIncrementTick+0x66>
     f3a:	30079073          	csrw	mstatus,a5
     f3e:	0000d637          	lui	a2,0xd
     f42:	63460613          	addi	a2,a2,1588 # d634 <_read+0x9e>
     f46:	32f00593          	li	a1,815
     f4a:	0000d537          	lui	a0,0xd
     f4e:	5dc50513          	addi	a0,a0,1500 # d5dc <_read+0x46>
     f52:	5420b0ef          	jal	ra,c494 <iprintf>
     f56:	a001                	j	f56 <xQueueGenericSend+0x78>
     f58:	6789                	lui	a5,0x2
     f5a:	80078793          	addi	a5,a5,-2048 # 1800 <xTaskIncrementTick+0x66>
     f5e:	30079073          	csrw	mstatus,a5
     f62:	0000d637          	lui	a2,0xd
     f66:	63460613          	addi	a2,a2,1588 # d634 <_read+0x9e>
     f6a:	33000593          	li	a1,816
     f6e:	0000d537          	lui	a0,0xd
     f72:	5dc50513          	addi	a0,a0,1500 # d5dc <_read+0x46>
     f76:	51e0b0ef          	jal	ra,c494 <iprintf>
     f7a:	a001                	j	f7a <xQueueGenericSend+0x9c>
     f7c:	6789                	lui	a5,0x2
     f7e:	80078793          	addi	a5,a5,-2048 # 1800 <xTaskIncrementTick+0x66>
     f82:	30079073          	csrw	mstatus,a5
     f86:	0000d637          	lui	a2,0xd
     f8a:	63460613          	addi	a2,a2,1588 # d634 <_read+0x9e>
     f8e:	33300593          	li	a1,819
     f92:	0000d537          	lui	a0,0xd
     f96:	5dc50513          	addi	a0,a0,1500 # d5dc <_read+0x46>
     f9a:	4fa0b0ef          	jal	ra,c494 <iprintf>
     f9e:	a001                	j	f9e <xQueueGenericSend+0xc0>
     fa0:	4901                	li	s2,0
     fa2:	a8b9                	j	1000 <xQueueGenericSend+0x122>
     fa4:	8626                	mv	a2,s1
     fa6:	85ce                	mv	a1,s3
     fa8:	8522                	mv	a0,s0
     faa:	39e1                	jal	c82 <prvCopyDataToQueue>
     fac:	505c                	lw	a5,36(s0)
     fae:	ef81                	bnez	a5,fc6 <xQueueGenericSend+0xe8>
     fb0:	c511                	beqz	a0,fbc <xQueueGenericSend+0xde>
     fb2:	e000e7b7          	lui	a5,0xe000e
     fb6:	6711                	lui	a4,0x4
     fb8:	20e7a023          	sw	a4,512(a5) # e000e200 <__freertos_irq_stack_top+0xc0009200>
     fbc:	36c9                	jal	b7e <vPortExitCritical>
     fbe:	4505                	li	a0,1
     fc0:	6105                	addi	sp,sp,32
     fc2:	d76ff06f          	j	538 <__riscv_restore_4>
     fc6:	02440513          	addi	a0,s0,36
     fca:	4f9000ef          	jal	ra,1cc2 <xTaskRemoveFromEventList>
     fce:	d57d                	beqz	a0,fbc <xQueueGenericSend+0xde>
     fd0:	e000e7b7          	lui	a5,0xe000e
     fd4:	6711                	lui	a4,0x4
     fd6:	20e7a023          	sw	a4,512(a5) # e000e200 <__freertos_irq_stack_top+0xc0009200>
     fda:	b7cd                	j	fbc <xQueueGenericSend+0xde>
     fdc:	364d                	jal	b7e <vPortExitCritical>
     fde:	4501                	li	a0,0
     fe0:	b7c5                	j	fc0 <xQueueGenericSend+0xe2>
     fe2:	0828                	addi	a0,sp,24
     fe4:	5f7000ef          	jal	ra,1dda <vTaskInternalSetTimeOutState>
     fe8:	4905                	li	s2,1
     fea:	a03d                	j	1018 <xQueueGenericSend+0x13a>
     fec:	04040223          	sb	zero,68(s0)
     ff0:	a83d                	j	102e <xQueueGenericSend+0x150>
     ff2:	040402a3          	sb	zero,69(s0)
     ff6:	a099                	j	103c <xQueueGenericSend+0x15e>
     ff8:	8522                	mv	a0,s0
     ffa:	3b05                	jal	d2a <prvUnlockQueue>
     ffc:	161000ef          	jal	ra,195c <xTaskResumeAll>
    1000:	3695                	jal	b64 <vPortEnterCritical>
    1002:	5c18                	lw	a4,56(s0)
    1004:	5c5c                	lw	a5,60(s0)
    1006:	f8f76fe3          	bltu	a4,a5,fa4 <xQueueGenericSend+0xc6>
    100a:	4789                	li	a5,2
    100c:	f8f48ce3          	beq	s1,a5,fa4 <xQueueGenericSend+0xc6>
    1010:	47b2                	lw	a5,12(sp)
    1012:	d7e9                	beqz	a5,fdc <xQueueGenericSend+0xfe>
    1014:	fc0907e3          	beqz	s2,fe2 <xQueueGenericSend+0x104>
    1018:	369d                	jal	b7e <vPortExitCritical>
    101a:	766000ef          	jal	ra,1780 <vTaskSuspendAll>
    101e:	3699                	jal	b64 <vPortEnterCritical>
    1020:	04444783          	lbu	a5,68(s0)
    1024:	07e2                	slli	a5,a5,0x18
    1026:	87e1                	srai	a5,a5,0x18
    1028:	577d                	li	a4,-1
    102a:	fce781e3          	beq	a5,a4,fec <xQueueGenericSend+0x10e>
    102e:	04544783          	lbu	a5,69(s0)
    1032:	07e2                	slli	a5,a5,0x18
    1034:	87e1                	srai	a5,a5,0x18
    1036:	577d                	li	a4,-1
    1038:	fae78de3          	beq	a5,a4,ff2 <xQueueGenericSend+0x114>
    103c:	3689                	jal	b7e <vPortExitCritical>
    103e:	006c                	addi	a1,sp,12
    1040:	0828                	addi	a0,sp,24
    1042:	5af000ef          	jal	ra,1df0 <xTaskCheckForTimeOut>
    1046:	e505                	bnez	a0,106e <xQueueGenericSend+0x190>
    1048:	8522                	mv	a0,s0
    104a:	3101                	jal	c4a <prvIsQueueFull>
    104c:	d555                	beqz	a0,ff8 <xQueueGenericSend+0x11a>
    104e:	45b2                	lw	a1,12(sp)
    1050:	01040513          	addi	a0,s0,16
    1054:	3b3000ef          	jal	ra,1c06 <vTaskPlaceOnEventList>
    1058:	8522                	mv	a0,s0
    105a:	39c1                	jal	d2a <prvUnlockQueue>
    105c:	101000ef          	jal	ra,195c <xTaskResumeAll>
    1060:	f145                	bnez	a0,1000 <xQueueGenericSend+0x122>
    1062:	e000e7b7          	lui	a5,0xe000e
    1066:	6711                	lui	a4,0x4
    1068:	20e7a023          	sw	a4,512(a5) # e000e200 <__freertos_irq_stack_top+0xc0009200>
    106c:	bf51                	j	1000 <xQueueGenericSend+0x122>
    106e:	8522                	mv	a0,s0
    1070:	396d                	jal	d2a <prvUnlockQueue>
    1072:	0eb000ef          	jal	ra,195c <xTaskResumeAll>
    1076:	4501                	li	a0,0
    1078:	b7a1                	j	fc0 <xQueueGenericSend+0xe2>

0000107a <xQueueReceive>:
    107a:	c8aff2ef          	jal	t0,504 <__riscv_save_4>
    107e:	1101                	addi	sp,sp,-32
    1080:	c632                	sw	a2,12(sp)
    1082:	c919                	beqz	a0,1098 <xQueueReceive+0x1e>
    1084:	842a                	mv	s0,a0
    1086:	89ae                	mv	s3,a1
    1088:	c995                	beqz	a1,10bc <xQueueReceive+0x42>
    108a:	64d000ef          	jal	ra,1ed6 <xTaskGetSchedulerState>
    108e:	ed2d                	bnez	a0,1108 <xQueueReceive+0x8e>
    1090:	47b2                	lw	a5,12(sp)
    1092:	eba9                	bnez	a5,10e4 <xQueueReceive+0x6a>
    1094:	4901                	li	s2,0
    1096:	a8e9                	j	1170 <xQueueReceive+0xf6>
    1098:	6789                	lui	a5,0x2
    109a:	80078793          	addi	a5,a5,-2048 # 1800 <xTaskIncrementTick+0x66>
    109e:	30079073          	csrw	mstatus,a5
    10a2:	0000d637          	lui	a2,0xd
    10a6:	63460613          	addi	a2,a2,1588 # d634 <_read+0x9e>
    10aa:	55100593          	li	a1,1361
    10ae:	0000d537          	lui	a0,0xd
    10b2:	5dc50513          	addi	a0,a0,1500 # d5dc <_read+0x46>
    10b6:	3de0b0ef          	jal	ra,c494 <iprintf>
    10ba:	a001                	j	10ba <xQueueReceive+0x40>
    10bc:	413c                	lw	a5,64(a0)
    10be:	d7f1                	beqz	a5,108a <xQueueReceive+0x10>
    10c0:	6789                	lui	a5,0x2
    10c2:	80078793          	addi	a5,a5,-2048 # 1800 <xTaskIncrementTick+0x66>
    10c6:	30079073          	csrw	mstatus,a5
    10ca:	0000d637          	lui	a2,0xd
    10ce:	63460613          	addi	a2,a2,1588 # d634 <_read+0x9e>
    10d2:	55500593          	li	a1,1365
    10d6:	0000d537          	lui	a0,0xd
    10da:	5dc50513          	addi	a0,a0,1500 # d5dc <_read+0x46>
    10de:	3b60b0ef          	jal	ra,c494 <iprintf>
    10e2:	a001                	j	10e2 <xQueueReceive+0x68>
    10e4:	6789                	lui	a5,0x2
    10e6:	80078793          	addi	a5,a5,-2048 # 1800 <xTaskIncrementTick+0x66>
    10ea:	30079073          	csrw	mstatus,a5
    10ee:	0000d637          	lui	a2,0xd
    10f2:	63460613          	addi	a2,a2,1588 # d634 <_read+0x9e>
    10f6:	55a00593          	li	a1,1370
    10fa:	0000d537          	lui	a0,0xd
    10fe:	5dc50513          	addi	a0,a0,1500 # d5dc <_read+0x46>
    1102:	3920b0ef          	jal	ra,c494 <iprintf>
    1106:	a001                	j	1106 <xQueueReceive+0x8c>
    1108:	4901                	li	s2,0
    110a:	a09d                	j	1170 <xQueueReceive+0xf6>
    110c:	85ce                	mv	a1,s3
    110e:	8522                	mv	a0,s0
    1110:	3ecd                	jal	d02 <prvCopyDataFromQueue>
    1112:	14fd                	addi	s1,s1,-1
    1114:	dc04                	sw	s1,56(s0)
    1116:	481c                	lw	a5,16(s0)
    1118:	e791                	bnez	a5,1124 <xQueueReceive+0xaa>
    111a:	3495                	jal	b7e <vPortExitCritical>
    111c:	4505                	li	a0,1
    111e:	6105                	addi	sp,sp,32
    1120:	c18ff06f          	j	538 <__riscv_restore_4>
    1124:	01040513          	addi	a0,s0,16
    1128:	39b000ef          	jal	ra,1cc2 <xTaskRemoveFromEventList>
    112c:	d57d                	beqz	a0,111a <xQueueReceive+0xa0>
    112e:	e000e7b7          	lui	a5,0xe000e
    1132:	6711                	lui	a4,0x4
    1134:	20e7a023          	sw	a4,512(a5) # e000e200 <__freertos_irq_stack_top+0xc0009200>
    1138:	b7cd                	j	111a <xQueueReceive+0xa0>
    113a:	a45ff0ef          	jal	ra,b7e <vPortExitCritical>
    113e:	4501                	li	a0,0
    1140:	bff9                	j	111e <xQueueReceive+0xa4>
    1142:	0828                	addi	a0,sp,24
    1144:	497000ef          	jal	ra,1dda <vTaskInternalSetTimeOutState>
    1148:	4905                	li	s2,1
    114a:	a81d                	j	1180 <xQueueReceive+0x106>
    114c:	04040223          	sb	zero,68(s0)
    1150:	a0a1                	j	1198 <xQueueReceive+0x11e>
    1152:	040402a3          	sb	zero,69(s0)
    1156:	a881                	j	11a6 <xQueueReceive+0x12c>
    1158:	8522                	mv	a0,s0
    115a:	3ec1                	jal	d2a <prvUnlockQueue>
    115c:	001000ef          	jal	ra,195c <xTaskResumeAll>
    1160:	a801                	j	1170 <xQueueReceive+0xf6>
    1162:	8522                	mv	a0,s0
    1164:	36d9                	jal	d2a <prvUnlockQueue>
    1166:	7f6000ef          	jal	ra,195c <xTaskResumeAll>
    116a:	8522                	mv	a0,s0
    116c:	3cf5                	jal	c68 <prvIsQueueEmpty>
    116e:	e535                	bnez	a0,11da <xQueueReceive+0x160>
    1170:	9f5ff0ef          	jal	ra,b64 <vPortEnterCritical>
    1174:	5c04                	lw	s1,56(s0)
    1176:	f8d9                	bnez	s1,110c <xQueueReceive+0x92>
    1178:	47b2                	lw	a5,12(sp)
    117a:	d3e1                	beqz	a5,113a <xQueueReceive+0xc0>
    117c:	fc0903e3          	beqz	s2,1142 <xQueueReceive+0xc8>
    1180:	9ffff0ef          	jal	ra,b7e <vPortExitCritical>
    1184:	2bf5                	jal	1780 <vTaskSuspendAll>
    1186:	9dfff0ef          	jal	ra,b64 <vPortEnterCritical>
    118a:	04444783          	lbu	a5,68(s0)
    118e:	07e2                	slli	a5,a5,0x18
    1190:	87e1                	srai	a5,a5,0x18
    1192:	577d                	li	a4,-1
    1194:	fae78ce3          	beq	a5,a4,114c <xQueueReceive+0xd2>
    1198:	04544783          	lbu	a5,69(s0)
    119c:	07e2                	slli	a5,a5,0x18
    119e:	87e1                	srai	a5,a5,0x18
    11a0:	577d                	li	a4,-1
    11a2:	fae788e3          	beq	a5,a4,1152 <xQueueReceive+0xd8>
    11a6:	9d9ff0ef          	jal	ra,b7e <vPortExitCritical>
    11aa:	006c                	addi	a1,sp,12
    11ac:	0828                	addi	a0,sp,24
    11ae:	443000ef          	jal	ra,1df0 <xTaskCheckForTimeOut>
    11b2:	f945                	bnez	a0,1162 <xQueueReceive+0xe8>
    11b4:	8522                	mv	a0,s0
    11b6:	3c4d                	jal	c68 <prvIsQueueEmpty>
    11b8:	d145                	beqz	a0,1158 <xQueueReceive+0xde>
    11ba:	45b2                	lw	a1,12(sp)
    11bc:	02440513          	addi	a0,s0,36
    11c0:	247000ef          	jal	ra,1c06 <vTaskPlaceOnEventList>
    11c4:	8522                	mv	a0,s0
    11c6:	3695                	jal	d2a <prvUnlockQueue>
    11c8:	794000ef          	jal	ra,195c <xTaskResumeAll>
    11cc:	f155                	bnez	a0,1170 <xQueueReceive+0xf6>
    11ce:	e000e7b7          	lui	a5,0xe000e
    11d2:	6711                	lui	a4,0x4
    11d4:	20e7a023          	sw	a4,512(a5) # e000e200 <__freertos_irq_stack_top+0xc0009200>
    11d8:	bf61                	j	1170 <xQueueReceive+0xf6>
    11da:	4501                	li	a0,0
    11dc:	b789                	j	111e <xQueueReceive+0xa4>

000011de <uxQueueMessagesWaiting>:
    11de:	b40ff2ef          	jal	t0,51e <__riscv_save_0>
    11e2:	c911                	beqz	a0,11f6 <uxQueueMessagesWaiting+0x18>
    11e4:	842a                	mv	s0,a0
    11e6:	97fff0ef          	jal	ra,b64 <vPortEnterCritical>
    11ea:	5c00                	lw	s0,56(s0)
    11ec:	993ff0ef          	jal	ra,b7e <vPortExitCritical>
    11f0:	8522                	mv	a0,s0
    11f2:	b50ff06f          	j	542 <__riscv_restore_0>
    11f6:	6789                	lui	a5,0x2
    11f8:	80078793          	addi	a5,a5,-2048 # 1800 <xTaskIncrementTick+0x66>
    11fc:	30079073          	csrw	mstatus,a5
    1200:	0000d637          	lui	a2,0xd
    1204:	63460613          	addi	a2,a2,1588 # d634 <_read+0x9e>
    1208:	7e300593          	li	a1,2019
    120c:	0000d537          	lui	a0,0xd
    1210:	5dc50513          	addi	a0,a0,1500 # d5dc <_read+0x46>
    1214:	2800b0ef          	jal	ra,c494 <iprintf>
    1218:	a001                	j	1218 <uxQueueMessagesWaiting+0x3a>

0000121a <vQueueAddToRegistry>:
    121a:	c509                	beqz	a0,1224 <vQueueAddToRegistry+0xa>
    121c:	c98d                	beqz	a1,124e <vQueueAddToRegistry+0x34>
    121e:	4781                	li	a5,0
    1220:	4701                	li	a4,0
    1222:	a089                	j	1264 <vQueueAddToRegistry+0x4a>
    1224:	afaff2ef          	jal	t0,51e <__riscv_save_0>
    1228:	6789                	lui	a5,0x2
    122a:	80078793          	addi	a5,a5,-2048 # 1800 <xTaskIncrementTick+0x66>
    122e:	30079073          	csrw	mstatus,a5
    1232:	0000d637          	lui	a2,0xd
    1236:	63460613          	addi	a2,a2,1588 # d634 <_read+0x9e>
    123a:	6585                	lui	a1,0x1
    123c:	ac858593          	addi	a1,a1,-1336 # ac8 <xPortStartScheduler+0x70>
    1240:	0000d537          	lui	a0,0xd
    1244:	5dc50513          	addi	a0,a0,1500 # d5dc <_read+0x46>
    1248:	24c0b0ef          	jal	ra,c494 <iprintf>
    124c:	a001                	j	124c <vQueueAddToRegistry+0x32>
    124e:	8082                	ret
    1250:	200037b7          	lui	a5,0x20003
    1254:	17c78793          	addi	a5,a5,380 # 2000317c <xQueueRegistry>
    1258:	97b2                	add	a5,a5,a2
    125a:	c399                	beqz	a5,1260 <vQueueAddToRegistry+0x46>
    125c:	c38c                	sw	a1,0(a5)
    125e:	c3c8                	sw	a0,4(a5)
    1260:	8082                	ret
    1262:	0705                	addi	a4,a4,1
    1264:	469d                	li	a3,7
    1266:	fee6eae3          	bltu	a3,a4,125a <vQueueAddToRegistry+0x40>
    126a:	00371613          	slli	a2,a4,0x3
    126e:	200036b7          	lui	a3,0x20003
    1272:	17c68693          	addi	a3,a3,380 # 2000317c <xQueueRegistry>
    1276:	96b2                	add	a3,a3,a2
    1278:	42d4                	lw	a3,4(a3)
    127a:	fca68be3          	beq	a3,a0,1250 <vQueueAddToRegistry+0x36>
    127e:	f3f5                	bnez	a5,1262 <vQueueAddToRegistry+0x48>
    1280:	00371613          	slli	a2,a4,0x3
    1284:	200036b7          	lui	a3,0x20003
    1288:	17c68693          	addi	a3,a3,380 # 2000317c <xQueueRegistry>
    128c:	96b2                	add	a3,a3,a2
    128e:	4294                	lw	a3,0(a3)
    1290:	fae9                	bnez	a3,1262 <vQueueAddToRegistry+0x48>
    1292:	200037b7          	lui	a5,0x20003
    1296:	17c78793          	addi	a5,a5,380 # 2000317c <xQueueRegistry>
    129a:	97b2                	add	a5,a5,a2
    129c:	b7d9                	j	1262 <vQueueAddToRegistry+0x48>

0000129e <vQueueWaitForMessageRestricted>:
    129e:	a80ff2ef          	jal	t0,51e <__riscv_save_0>
    12a2:	842a                	mv	s0,a0
    12a4:	84ae                	mv	s1,a1
    12a6:	8932                	mv	s2,a2
    12a8:	8bdff0ef          	jal	ra,b64 <vPortEnterCritical>
    12ac:	04444783          	lbu	a5,68(s0)
    12b0:	07e2                	slli	a5,a5,0x18
    12b2:	87e1                	srai	a5,a5,0x18
    12b4:	577d                	li	a4,-1
    12b6:	02e78263          	beq	a5,a4,12da <vQueueWaitForMessageRestricted+0x3c>
    12ba:	04544783          	lbu	a5,69(s0)
    12be:	07e2                	slli	a5,a5,0x18
    12c0:	87e1                	srai	a5,a5,0x18
    12c2:	577d                	li	a4,-1
    12c4:	00e78e63          	beq	a5,a4,12e0 <vQueueWaitForMessageRestricted+0x42>
    12c8:	8b7ff0ef          	jal	ra,b7e <vPortExitCritical>
    12cc:	5c1c                	lw	a5,56(s0)
    12ce:	cf81                	beqz	a5,12e6 <vQueueWaitForMessageRestricted+0x48>
    12d0:	8522                	mv	a0,s0
    12d2:	a59ff0ef          	jal	ra,d2a <prvUnlockQueue>
    12d6:	a6cff06f          	j	542 <__riscv_restore_0>
    12da:	04040223          	sb	zero,68(s0)
    12de:	bff1                	j	12ba <vQueueWaitForMessageRestricted+0x1c>
    12e0:	040402a3          	sb	zero,69(s0)
    12e4:	b7d5                	j	12c8 <vQueueWaitForMessageRestricted+0x2a>
    12e6:	864a                	mv	a2,s2
    12e8:	85a6                	mv	a1,s1
    12ea:	02440513          	addi	a0,s0,36
    12ee:	161000ef          	jal	ra,1c4e <vTaskPlaceOnEventListRestricted>
    12f2:	bff9                	j	12d0 <vQueueWaitForMessageRestricted+0x32>

000012f4 <prvResetNextTaskUnblockTime>:
    12f4:	200007b7          	lui	a5,0x20000
    12f8:	0cc7a783          	lw	a5,204(a5) # 200000cc <pxDelayedTaskList>
    12fc:	439c                	lw	a5,0(a5)
    12fe:	e799                	bnez	a5,130c <prvResetNextTaskUnblockTime+0x18>
    1300:	200007b7          	lui	a5,0x20000
    1304:	577d                	li	a4,-1
    1306:	0ee7a623          	sw	a4,236(a5) # 200000ec <xNextTaskUnblockTime>
    130a:	8082                	ret
    130c:	200007b7          	lui	a5,0x20000
    1310:	0cc7a783          	lw	a5,204(a5) # 200000cc <pxDelayedTaskList>
    1314:	47dc                	lw	a5,12(a5)
    1316:	4398                	lw	a4,0(a5)
    1318:	200007b7          	lui	a5,0x20000
    131c:	0ee7a623          	sw	a4,236(a5) # 200000ec <xNextTaskUnblockTime>
    1320:	8082                	ret

00001322 <prvDeleteTCB>:
    1322:	9fcff2ef          	jal	t0,51e <__riscv_save_0>
    1326:	842a                	mv	s0,a0
    1328:	5908                	lw	a0,48(a0)
    132a:	e4eff0ef          	jal	ra,978 <vPortFree>
    132e:	8522                	mv	a0,s0
    1330:	e48ff0ef          	jal	ra,978 <vPortFree>
    1334:	a0eff06f          	j	542 <__riscv_restore_0>

00001338 <prvInitialiseNewTask>:
    1338:	9ccff2ef          	jal	t0,504 <__riscv_save_4>
    133c:	8a2a                	mv	s4,a0
    133e:	8ab6                	mv	s5,a3
    1340:	893a                	mv	s2,a4
    1342:	84be                	mv	s1,a5
    1344:	8442                	mv	s0,a6
    1346:	03082703          	lw	a4,48(a6)
    134a:	400007b7          	lui	a5,0x40000
    134e:	17fd                	addi	a5,a5,-1
    1350:	97b2                	add	a5,a5,a2
    1352:	078a                	slli	a5,a5,0x2
    1354:	97ba                	add	a5,a5,a4
    1356:	ff07f993          	andi	s3,a5,-16
    135a:	c5b9                	beqz	a1,13a8 <prvInitialiseNewTask+0x70>
    135c:	4781                	li	a5,0
    135e:	477d                	li	a4,31
    1360:	00f76d63          	bltu	a4,a5,137a <prvInitialiseNewTask+0x42>
    1364:	00f58733          	add	a4,a1,a5
    1368:	00070703          	lb	a4,0(a4) # 4000 <TI2_Config+0x4>
    136c:	00f406b3          	add	a3,s0,a5
    1370:	02e68a23          	sb	a4,52(a3)
    1374:	c319                	beqz	a4,137a <prvInitialiseNewTask+0x42>
    1376:	0785                	addi	a5,a5,1
    1378:	b7dd                	j	135e <prvInitialiseNewTask+0x26>
    137a:	040409a3          	sb	zero,83(s0)
    137e:	4799                	li	a5,6
    1380:	0327f763          	bgeu	a5,s2,13ae <prvInitialiseNewTask+0x76>
    1384:	6789                	lui	a5,0x2
    1386:	80078793          	addi	a5,a5,-2048 # 1800 <xTaskIncrementTick+0x66>
    138a:	30079073          	csrw	mstatus,a5
    138e:	0000d637          	lui	a2,0xd
    1392:	66c60613          	addi	a2,a2,1644 # d66c <_read+0xd6>
    1396:	39700593          	li	a1,919
    139a:	0000d537          	lui	a0,0xd
    139e:	5dc50513          	addi	a0,a0,1500 # d5dc <_read+0x46>
    13a2:	0f20b0ef          	jal	ra,c494 <iprintf>
    13a6:	a001                	j	13a6 <prvInitialiseNewTask+0x6e>
    13a8:	02080a23          	sb	zero,52(a6)
    13ac:	bfc9                	j	137e <prvInitialiseNewTask+0x46>
    13ae:	03242623          	sw	s2,44(s0)
    13b2:	05242a23          	sw	s2,84(s0)
    13b6:	04042c23          	sw	zero,88(s0)
    13ba:	00440513          	addi	a0,s0,4
    13be:	831ff0ef          	jal	ra,bee <vListInitialiseItem>
    13c2:	01840513          	addi	a0,s0,24
    13c6:	829ff0ef          	jal	ra,bee <vListInitialiseItem>
    13ca:	c800                	sw	s0,16(s0)
    13cc:	479d                	li	a5,7
    13ce:	41278933          	sub	s2,a5,s2
    13d2:	01242c23          	sw	s2,24(s0)
    13d6:	d040                	sw	s0,36(s0)
    13d8:	04040e23          	sb	zero,92(s0)
    13dc:	04040ea3          	sb	zero,93(s0)
    13e0:	04040f23          	sb	zero,94(s0)
    13e4:	04040fa3          	sb	zero,95(s0)
    13e8:	06040023          	sb	zero,96(s0)
    13ec:	060400a3          	sb	zero,97(s0)
    13f0:	8656                	mv	a2,s5
    13f2:	85d2                	mv	a1,s4
    13f4:	854e                	mv	a0,s3
    13f6:	80aff0ef          	jal	ra,400 <pxPortInitialiseStack>
    13fa:	c008                	sw	a0,0(s0)
    13fc:	c091                	beqz	s1,1400 <prvInitialiseNewTask+0xc8>
    13fe:	c080                	sw	s0,0(s1)
    1400:	938ff06f          	j	538 <__riscv_restore_4>

00001404 <prvInitialiseTaskLists>:
    1404:	91aff2ef          	jal	t0,51e <__riscv_save_0>
    1408:	4401                	li	s0,0
    140a:	4799                	li	a5,6
    140c:	0287e063          	bltu	a5,s0,142c <prvInitialiseTaskLists+0x28>
    1410:	00241793          	slli	a5,s0,0x2
    1414:	97a2                	add	a5,a5,s0
    1416:	00279513          	slli	a0,a5,0x2
    141a:	200037b7          	lui	a5,0x20003
    141e:	1bc78793          	addi	a5,a5,444 # 200031bc <pxReadyTasksLists>
    1422:	953e                	add	a0,a0,a5
    1424:	fb6ff0ef          	jal	ra,bda <vListInitialise>
    1428:	0405                	addi	s0,s0,1
    142a:	b7c5                	j	140a <prvInitialiseTaskLists+0x6>
    142c:	20003537          	lui	a0,0x20003
    1430:	24850493          	addi	s1,a0,584 # 20003248 <xDelayedTaskList1>
    1434:	24850513          	addi	a0,a0,584
    1438:	fa2ff0ef          	jal	ra,bda <vListInitialise>
    143c:	20003537          	lui	a0,0x20003
    1440:	25c50413          	addi	s0,a0,604 # 2000325c <xDelayedTaskList2>
    1444:	25c50513          	addi	a0,a0,604
    1448:	f92ff0ef          	jal	ra,bda <vListInitialise>
    144c:	20003537          	lui	a0,0x20003
    1450:	27050513          	addi	a0,a0,624 # 20003270 <xPendingReadyList>
    1454:	f86ff0ef          	jal	ra,bda <vListInitialise>
    1458:	20003537          	lui	a0,0x20003
    145c:	29850513          	addi	a0,a0,664 # 20003298 <xTasksWaitingTermination>
    1460:	f7aff0ef          	jal	ra,bda <vListInitialise>
    1464:	20003537          	lui	a0,0x20003
    1468:	28450513          	addi	a0,a0,644 # 20003284 <xSuspendedTaskList>
    146c:	f6eff0ef          	jal	ra,bda <vListInitialise>
    1470:	200007b7          	lui	a5,0x20000
    1474:	0c97a623          	sw	s1,204(a5) # 200000cc <pxDelayedTaskList>
    1478:	200007b7          	lui	a5,0x20000
    147c:	0c87a823          	sw	s0,208(a5) # 200000d0 <pxOverflowDelayedTaskList>
    1480:	8c2ff06f          	j	542 <__riscv_restore_0>

00001484 <prvAddNewTaskToReadyList>:
    1484:	89aff2ef          	jal	t0,51e <__riscv_save_0>
    1488:	842a                	mv	s0,a0
    148a:	edaff0ef          	jal	ra,b64 <vPortEnterCritical>
    148e:	200007b7          	lui	a5,0x20000
    1492:	0d478793          	addi	a5,a5,212 # 200000d4 <uxCurrentNumberOfTasks>
    1496:	4398                	lw	a4,0(a5)
    1498:	0705                	addi	a4,a4,1
    149a:	c398                	sw	a4,0(a5)
    149c:	200007b7          	lui	a5,0x20000
    14a0:	0c87a783          	lw	a5,200(a5) # 200000c8 <pxCurrentTCB>
    14a4:	c39d                	beqz	a5,14ca <prvAddNewTaskToReadyList+0x46>
    14a6:	200007b7          	lui	a5,0x20000
    14aa:	0f87a783          	lw	a5,248(a5) # 200000f8 <xSchedulerRunning>
    14ae:	eb8d                	bnez	a5,14e0 <prvAddNewTaskToReadyList+0x5c>
    14b0:	200007b7          	lui	a5,0x20000
    14b4:	0c87a783          	lw	a5,200(a5) # 200000c8 <pxCurrentTCB>
    14b8:	57d8                	lw	a4,44(a5)
    14ba:	545c                	lw	a5,44(s0)
    14bc:	02e7e263          	bltu	a5,a4,14e0 <prvAddNewTaskToReadyList+0x5c>
    14c0:	200007b7          	lui	a5,0x20000
    14c4:	0c87a423          	sw	s0,200(a5) # 200000c8 <pxCurrentTCB>
    14c8:	a821                	j	14e0 <prvAddNewTaskToReadyList+0x5c>
    14ca:	200007b7          	lui	a5,0x20000
    14ce:	0c87a423          	sw	s0,200(a5) # 200000c8 <pxCurrentTCB>
    14d2:	200007b7          	lui	a5,0x20000
    14d6:	0d47a703          	lw	a4,212(a5) # 200000d4 <uxCurrentNumberOfTasks>
    14da:	4785                	li	a5,1
    14dc:	08f70a63          	beq	a4,a5,1570 <prvAddNewTaskToReadyList+0xec>
    14e0:	200007b7          	lui	a5,0x20000
    14e4:	0e078793          	addi	a5,a5,224 # 200000e0 <uxTaskNumber>
    14e8:	4398                	lw	a4,0(a5)
    14ea:	0705                	addi	a4,a4,1
    14ec:	c398                	sw	a4,0(a5)
    14ee:	5458                	lw	a4,44(s0)
    14f0:	200007b7          	lui	a5,0x20000
    14f4:	0e47a783          	lw	a5,228(a5) # 200000e4 <uxTopReadyPriority>
    14f8:	00e7f663          	bgeu	a5,a4,1504 <prvAddNewTaskToReadyList+0x80>
    14fc:	200007b7          	lui	a5,0x20000
    1500:	0ee7a223          	sw	a4,228(a5) # 200000e4 <uxTopReadyPriority>
    1504:	200037b7          	lui	a5,0x20003
    1508:	1bc78793          	addi	a5,a5,444 # 200031bc <pxReadyTasksLists>
    150c:	00271693          	slli	a3,a4,0x2
    1510:	96ba                	add	a3,a3,a4
    1512:	00269713          	slli	a4,a3,0x2
    1516:	973e                	add	a4,a4,a5
    1518:	4358                	lw	a4,4(a4)
    151a:	c418                	sw	a4,8(s0)
    151c:	4710                	lw	a2,8(a4)
    151e:	c450                	sw	a2,12(s0)
    1520:	00440693          	addi	a3,s0,4
    1524:	c254                	sw	a3,4(a2)
    1526:	c714                	sw	a3,8(a4)
    1528:	5450                	lw	a2,44(s0)
    152a:	00261713          	slli	a4,a2,0x2
    152e:	00c705b3          	add	a1,a4,a2
    1532:	00259693          	slli	a3,a1,0x2
    1536:	85b6                	mv	a1,a3
    1538:	96be                	add	a3,a3,a5
    153a:	c854                	sw	a3,20(s0)
    153c:	4294                	lw	a3,0(a3)
    153e:	0685                	addi	a3,a3,1
    1540:	97ae                	add	a5,a5,a1
    1542:	c394                	sw	a3,0(a5)
    1544:	e3aff0ef          	jal	ra,b7e <vPortExitCritical>
    1548:	200007b7          	lui	a5,0x20000
    154c:	0f87a783          	lw	a5,248(a5) # 200000f8 <xSchedulerRunning>
    1550:	cf91                	beqz	a5,156c <prvAddNewTaskToReadyList+0xe8>
    1552:	200007b7          	lui	a5,0x20000
    1556:	0c87a783          	lw	a5,200(a5) # 200000c8 <pxCurrentTCB>
    155a:	57d8                	lw	a4,44(a5)
    155c:	545c                	lw	a5,44(s0)
    155e:	00f77763          	bgeu	a4,a5,156c <prvAddNewTaskToReadyList+0xe8>
    1562:	e000e7b7          	lui	a5,0xe000e
    1566:	6711                	lui	a4,0x4
    1568:	20e7a023          	sw	a4,512(a5) # e000e200 <__freertos_irq_stack_top+0xc0009200>
    156c:	fd7fe06f          	j	542 <__riscv_restore_0>
    1570:	3d51                	jal	1404 <prvInitialiseTaskLists>
    1572:	b7bd                	j	14e0 <prvAddNewTaskToReadyList+0x5c>

00001574 <prvCheckTasksWaitingTermination>:
    1574:	200007b7          	lui	a5,0x20000
    1578:	0d87a783          	lw	a5,216(a5) # 200000d8 <uxDeletedTasksWaitingCleanUp>
    157c:	cba1                	beqz	a5,15cc <prvCheckTasksWaitingTermination+0x58>
    157e:	fa1fe2ef          	jal	t0,51e <__riscv_save_0>
    1582:	de2ff0ef          	jal	ra,b64 <vPortEnterCritical>
    1586:	200037b7          	lui	a5,0x20003
    158a:	29878793          	addi	a5,a5,664 # 20003298 <xTasksWaitingTermination>
    158e:	47dc                	lw	a5,12(a5)
    1590:	47c0                	lw	s0,12(a5)
    1592:	00440513          	addi	a0,s0,4
    1596:	e8eff0ef          	jal	ra,c24 <uxListRemove>
    159a:	200007b7          	lui	a5,0x20000
    159e:	0d478793          	addi	a5,a5,212 # 200000d4 <uxCurrentNumberOfTasks>
    15a2:	4398                	lw	a4,0(a5)
    15a4:	177d                	addi	a4,a4,-1
    15a6:	c398                	sw	a4,0(a5)
    15a8:	200007b7          	lui	a5,0x20000
    15ac:	0d878793          	addi	a5,a5,216 # 200000d8 <uxDeletedTasksWaitingCleanUp>
    15b0:	4398                	lw	a4,0(a5)
    15b2:	177d                	addi	a4,a4,-1
    15b4:	c398                	sw	a4,0(a5)
    15b6:	dc8ff0ef          	jal	ra,b7e <vPortExitCritical>
    15ba:	8522                	mv	a0,s0
    15bc:	339d                	jal	1322 <prvDeleteTCB>
    15be:	200007b7          	lui	a5,0x20000
    15c2:	0d87a783          	lw	a5,216(a5) # 200000d8 <uxDeletedTasksWaitingCleanUp>
    15c6:	ffd5                	bnez	a5,1582 <prvCheckTasksWaitingTermination+0xe>
    15c8:	f7bfe06f          	j	542 <__riscv_restore_0>
    15cc:	8082                	ret

000015ce <prvIdleTask>:
    15ce:	f51fe2ef          	jal	t0,51e <__riscv_save_0>
    15d2:	374d                	jal	1574 <prvCheckTasksWaitingTermination>
    15d4:	bffd                	j	15d2 <prvIdleTask+0x4>

000015d6 <prvAddCurrentTaskToDelayedList>:
    15d6:	f49fe2ef          	jal	t0,51e <__riscv_save_0>
    15da:	842a                	mv	s0,a0
    15dc:	892e                	mv	s2,a1
    15de:	200007b7          	lui	a5,0x20000
    15e2:	0fc7a483          	lw	s1,252(a5) # 200000fc <xTickCount>
    15e6:	200007b7          	lui	a5,0x20000
    15ea:	0c878793          	addi	a5,a5,200 # 200000c8 <pxCurrentTCB>
    15ee:	4398                	lw	a4,0(a5)
    15f0:	060700a3          	sb	zero,97(a4) # 4061 <TI2_Config+0x65>
    15f4:	4388                	lw	a0,0(a5)
    15f6:	0511                	addi	a0,a0,4
    15f8:	e2cff0ef          	jal	ra,c24 <uxListRemove>
    15fc:	57fd                	li	a5,-1
    15fe:	02f40763          	beq	s0,a5,162c <prvAddCurrentTaskToDelayedList+0x56>
    1602:	9426                	add	s0,s0,s1
    1604:	200007b7          	lui	a5,0x20000
    1608:	0c87a783          	lw	a5,200(a5) # 200000c8 <pxCurrentTCB>
    160c:	c3c0                	sw	s0,4(a5)
    160e:	04947b63          	bgeu	s0,s1,1664 <prvAddCurrentTaskToDelayedList+0x8e>
    1612:	200007b7          	lui	a5,0x20000
    1616:	0d07a503          	lw	a0,208(a5) # 200000d0 <pxOverflowDelayedTaskList>
    161a:	200007b7          	lui	a5,0x20000
    161e:	0c87a583          	lw	a1,200(a5) # 200000c8 <pxCurrentTCB>
    1622:	0591                	addi	a1,a1,4
    1624:	dd0ff0ef          	jal	ra,bf4 <vListInsert>
    1628:	f1bfe06f          	j	542 <__riscv_restore_0>
    162c:	fc090be3          	beqz	s2,1602 <prvAddCurrentTaskToDelayedList+0x2c>
    1630:	20003737          	lui	a4,0x20003
    1634:	28470713          	addi	a4,a4,644 # 20003284 <xSuspendedTaskList>
    1638:	4354                	lw	a3,4(a4)
    163a:	200007b7          	lui	a5,0x20000
    163e:	0c878793          	addi	a5,a5,200 # 200000c8 <pxCurrentTCB>
    1642:	4390                	lw	a2,0(a5)
    1644:	c614                	sw	a3,8(a2)
    1646:	4390                	lw	a2,0(a5)
    1648:	468c                	lw	a1,8(a3)
    164a:	c64c                	sw	a1,12(a2)
    164c:	4390                	lw	a2,0(a5)
    164e:	0611                	addi	a2,a2,4
    1650:	c1d0                	sw	a2,4(a1)
    1652:	4390                	lw	a2,0(a5)
    1654:	0611                	addi	a2,a2,4
    1656:	c690                	sw	a2,8(a3)
    1658:	439c                	lw	a5,0(a5)
    165a:	cbd8                	sw	a4,20(a5)
    165c:	431c                	lw	a5,0(a4)
    165e:	0785                	addi	a5,a5,1
    1660:	c31c                	sw	a5,0(a4)
    1662:	b7d9                	j	1628 <prvAddCurrentTaskToDelayedList+0x52>
    1664:	200007b7          	lui	a5,0x20000
    1668:	0cc7a503          	lw	a0,204(a5) # 200000cc <pxDelayedTaskList>
    166c:	200007b7          	lui	a5,0x20000
    1670:	0c87a583          	lw	a1,200(a5) # 200000c8 <pxCurrentTCB>
    1674:	0591                	addi	a1,a1,4
    1676:	d7eff0ef          	jal	ra,bf4 <vListInsert>
    167a:	200007b7          	lui	a5,0x20000
    167e:	0ec7a783          	lw	a5,236(a5) # 200000ec <xNextTaskUnblockTime>
    1682:	faf473e3          	bgeu	s0,a5,1628 <prvAddCurrentTaskToDelayedList+0x52>
    1686:	200007b7          	lui	a5,0x20000
    168a:	0e87a623          	sw	s0,236(a5) # 200000ec <xNextTaskUnblockTime>
    168e:	bf69                	j	1628 <prvAddCurrentTaskToDelayedList+0x52>

00001690 <xTaskCreate>:
    1690:	e67fe2ef          	jal	t0,4f6 <__riscv_save_10>
    1694:	89aa                	mv	s3,a0
    1696:	8a2e                	mv	s4,a1
    1698:	8932                	mv	s2,a2
    169a:	8ab6                	mv	s5,a3
    169c:	8b3a                	mv	s6,a4
    169e:	8bbe                	mv	s7,a5
    16a0:	00261513          	slli	a0,a2,0x2
    16a4:	958ff0ef          	jal	ra,7fc <pvPortMalloc>
    16a8:	c91d                	beqz	a0,16de <xTaskCreate+0x4e>
    16aa:	84aa                	mv	s1,a0
    16ac:	06400513          	li	a0,100
    16b0:	94cff0ef          	jal	ra,7fc <pvPortMalloc>
    16b4:	842a                	mv	s0,a0
    16b6:	c105                	beqz	a0,16d6 <xTaskCreate+0x46>
    16b8:	d904                	sw	s1,48(a0)
    16ba:	c40d                	beqz	s0,16e4 <xTaskCreate+0x54>
    16bc:	4881                	li	a7,0
    16be:	8822                	mv	a6,s0
    16c0:	87de                	mv	a5,s7
    16c2:	875a                	mv	a4,s6
    16c4:	86d6                	mv	a3,s5
    16c6:	864a                	mv	a2,s2
    16c8:	85d2                	mv	a1,s4
    16ca:	854e                	mv	a0,s3
    16cc:	31b5                	jal	1338 <prvInitialiseNewTask>
    16ce:	8522                	mv	a0,s0
    16d0:	3b55                	jal	1484 <prvAddNewTaskToReadyList>
    16d2:	4505                	li	a0,1
    16d4:	a031                	j	16e0 <xTaskCreate+0x50>
    16d6:	8526                	mv	a0,s1
    16d8:	aa0ff0ef          	jal	ra,978 <vPortFree>
    16dc:	bff9                	j	16ba <xTaskCreate+0x2a>
    16de:	557d                	li	a0,-1
    16e0:	e4ffe06f          	j	52e <__riscv_restore_10>
    16e4:	557d                	li	a0,-1
    16e6:	bfed                	j	16e0 <xTaskCreate+0x50>

000016e8 <vTaskStartScheduler>:
    16e8:	e37fe2ef          	jal	t0,51e <__riscv_save_0>
    16ec:	200007b7          	lui	a5,0x20000
    16f0:	0e878793          	addi	a5,a5,232 # 200000e8 <xIdleTaskHandle>
    16f4:	4701                	li	a4,0
    16f6:	4681                	li	a3,0
    16f8:	10000613          	li	a2,256
    16fc:	0000d5b7          	lui	a1,0xd
    1700:	69058593          	addi	a1,a1,1680 # d690 <_read+0xfa>
    1704:	00001537          	lui	a0,0x1
    1708:	5ce50513          	addi	a0,a0,1486 # 15ce <prvIdleTask>
    170c:	3751                	jal	1690 <xTaskCreate>
    170e:	4785                	li	a5,1
    1710:	00f50c63          	beq	a0,a5,1728 <vTaskStartScheduler+0x40>
    1714:	4785                	li	a5,1
    1716:	00f50c63          	beq	a0,a5,172e <vTaskStartScheduler+0x46>
    171a:	57fd                	li	a5,-1
    171c:	02f50f63          	beq	a0,a5,175a <vTaskStartScheduler+0x72>
    1720:	8041a783          	lw	a5,-2044(gp) # 20000084 <uxTopUsedPriority>
    1724:	e1ffe06f          	j	542 <__riscv_restore_0>
    1728:	04e010ef          	jal	ra,2776 <xTimerCreateTimerTask>
    172c:	b7e5                	j	1714 <vTaskStartScheduler+0x2c>
    172e:	6789                	lui	a5,0x2
    1730:	80078793          	addi	a5,a5,-2048 # 1800 <xTaskIncrementTick+0x66>
    1734:	30079073          	csrw	mstatus,a5
    1738:	200007b7          	lui	a5,0x20000
    173c:	577d                	li	a4,-1
    173e:	0ee7a623          	sw	a4,236(a5) # 200000ec <xNextTaskUnblockTime>
    1742:	200007b7          	lui	a5,0x20000
    1746:	4705                	li	a4,1
    1748:	0ee7ac23          	sw	a4,248(a5) # 200000f8 <xSchedulerRunning>
    174c:	200007b7          	lui	a5,0x20000
    1750:	0e07ae23          	sw	zero,252(a5) # 200000fc <xTickCount>
    1754:	b04ff0ef          	jal	ra,a58 <xPortStartScheduler>
    1758:	b7e1                	j	1720 <vTaskStartScheduler+0x38>
    175a:	6789                	lui	a5,0x2
    175c:	80078793          	addi	a5,a5,-2048 # 1800 <xTaskIncrementTick+0x66>
    1760:	30079073          	csrw	mstatus,a5
    1764:	0000d637          	lui	a2,0xd
    1768:	66c60613          	addi	a2,a2,1644 # d66c <_read+0xd6>
    176c:	6585                	lui	a1,0x1
    176e:	84058593          	addi	a1,a1,-1984 # 840 <__stack_size+0x40>
    1772:	0000d537          	lui	a0,0xd
    1776:	5dc50513          	addi	a0,a0,1500 # d5dc <_read+0x46>
    177a:	51b0a0ef          	jal	ra,c494 <iprintf>
    177e:	a001                	j	177e <vTaskStartScheduler+0x96>

00001780 <vTaskSuspendAll>:
    1780:	200007b7          	lui	a5,0x20000
    1784:	0dc78793          	addi	a5,a5,220 # 200000dc <uxSchedulerSuspended>
    1788:	4398                	lw	a4,0(a5)
    178a:	0705                	addi	a4,a4,1
    178c:	c398                	sw	a4,0(a5)
    178e:	8082                	ret

00001790 <xTaskGetTickCount>:
    1790:	200007b7          	lui	a5,0x20000
    1794:	0fc7a503          	lw	a0,252(a5) # 200000fc <xTickCount>
    1798:	8082                	ret

0000179a <xTaskIncrementTick>:
    179a:	200007b7          	lui	a5,0x20000
    179e:	0dc7a783          	lw	a5,220(a5) # 200000dc <uxSchedulerSuspended>
    17a2:	1a079263          	bnez	a5,1946 <xTaskIncrementTick+0x1ac>
    17a6:	d79fe2ef          	jal	t0,51e <__riscv_save_0>
    17aa:	200007b7          	lui	a5,0x20000
    17ae:	0fc78793          	addi	a5,a5,252 # 200000fc <xTickCount>
    17b2:	4380                	lw	s0,0(a5)
    17b4:	0405                	addi	s0,s0,1
    17b6:	c380                	sw	s0,0(a5)
    17b8:	ec39                	bnez	s0,1816 <xTaskIncrementTick+0x7c>
    17ba:	200007b7          	lui	a5,0x20000
    17be:	0cc7a783          	lw	a5,204(a5) # 200000cc <pxDelayedTaskList>
    17c2:	439c                	lw	a5,0(a5)
    17c4:	c785                	beqz	a5,17ec <xTaskIncrementTick+0x52>
    17c6:	6789                	lui	a5,0x2
    17c8:	80078793          	addi	a5,a5,-2048 # 1800 <xTaskIncrementTick+0x66>
    17cc:	30079073          	csrw	mstatus,a5
    17d0:	0000d637          	lui	a2,0xd
    17d4:	66c60613          	addi	a2,a2,1644 # d66c <_read+0xd6>
    17d8:	6585                	lui	a1,0x1
    17da:	ac758593          	addi	a1,a1,-1337 # ac7 <xPortStartScheduler+0x6f>
    17de:	0000d537          	lui	a0,0xd
    17e2:	5dc50513          	addi	a0,a0,1500 # d5dc <_read+0x46>
    17e6:	4af0a0ef          	jal	ra,c494 <iprintf>
    17ea:	a001                	j	17ea <xTaskIncrementTick+0x50>
    17ec:	20000737          	lui	a4,0x20000
    17f0:	0cc70713          	addi	a4,a4,204 # 200000cc <pxDelayedTaskList>
    17f4:	4314                	lw	a3,0(a4)
    17f6:	200007b7          	lui	a5,0x20000
    17fa:	0d078793          	addi	a5,a5,208 # 200000d0 <pxOverflowDelayedTaskList>
    17fe:	4390                	lw	a2,0(a5)
    1800:	c310                	sw	a2,0(a4)
    1802:	c394                	sw	a3,0(a5)
    1804:	200007b7          	lui	a5,0x20000
    1808:	0f078793          	addi	a5,a5,240 # 200000f0 <xNumOfOverflows>
    180c:	4398                	lw	a4,0(a5)
    180e:	0705                	addi	a4,a4,1
    1810:	c398                	sw	a4,0(a5)
    1812:	ae3ff0ef          	jal	ra,12f4 <prvResetNextTaskUnblockTime>
    1816:	200007b7          	lui	a5,0x20000
    181a:	0ec7a783          	lw	a5,236(a5) # 200000ec <xNextTaskUnblockTime>
    181e:	02f47f63          	bgeu	s0,a5,185c <xTaskIncrementTick+0xc2>
    1822:	4501                	li	a0,0
    1824:	200007b7          	lui	a5,0x20000
    1828:	0c87a783          	lw	a5,200(a5) # 200000c8 <pxCurrentTCB>
    182c:	57d8                	lw	a4,44(a5)
    182e:	00271793          	slli	a5,a4,0x2
    1832:	97ba                	add	a5,a5,a4
    1834:	00279713          	slli	a4,a5,0x2
    1838:	200037b7          	lui	a5,0x20003
    183c:	1bc78793          	addi	a5,a5,444 # 200031bc <pxReadyTasksLists>
    1840:	97ba                	add	a5,a5,a4
    1842:	4398                	lw	a4,0(a5)
    1844:	4785                	li	a5,1
    1846:	00e7f363          	bgeu	a5,a4,184c <xTaskIncrementTick+0xb2>
    184a:	4505                	li	a0,1
    184c:	200007b7          	lui	a5,0x20000
    1850:	1007a783          	lw	a5,256(a5) # 20000100 <xYieldPending>
    1854:	10079263          	bnez	a5,1958 <xTaskIncrementTick+0x1be>
    1858:	cebfe06f          	j	542 <__riscv_restore_0>
    185c:	4501                	li	a0,0
    185e:	a071                	j	18ea <xTaskIncrementTick+0x150>
    1860:	200007b7          	lui	a5,0x20000
    1864:	577d                	li	a4,-1
    1866:	0ee7a623          	sw	a4,236(a5) # 200000ec <xNextTaskUnblockTime>
    186a:	bf6d                	j	1824 <xTaskIncrementTick+0x8a>
    186c:	200007b7          	lui	a5,0x20000
    1870:	0ee7a623          	sw	a4,236(a5) # 200000ec <xNextTaskUnblockTime>
    1874:	bf45                	j	1824 <xTaskIncrementTick+0x8a>
    1876:	47d4                	lw	a3,12(a5)
    1878:	c354                	sw	a3,4(a4)
    187a:	a055                	j	191e <xTaskIncrementTick+0x184>
    187c:	0207a423          	sw	zero,40(a5)
    1880:	4314                	lw	a3,0(a4)
    1882:	16fd                	addi	a3,a3,-1
    1884:	c314                	sw	a3,0(a4)
    1886:	57d4                	lw	a3,44(a5)
    1888:	20000737          	lui	a4,0x20000
    188c:	0e472703          	lw	a4,228(a4) # 200000e4 <uxTopReadyPriority>
    1890:	00d77663          	bgeu	a4,a3,189c <xTaskIncrementTick+0x102>
    1894:	20000737          	lui	a4,0x20000
    1898:	0ed72223          	sw	a3,228(a4) # 200000e4 <uxTopReadyPriority>
    189c:	20003737          	lui	a4,0x20003
    18a0:	1bc70713          	addi	a4,a4,444 # 200031bc <pxReadyTasksLists>
    18a4:	00269613          	slli	a2,a3,0x2
    18a8:	9636                	add	a2,a2,a3
    18aa:	00261693          	slli	a3,a2,0x2
    18ae:	96ba                	add	a3,a3,a4
    18b0:	42d4                	lw	a3,4(a3)
    18b2:	c794                	sw	a3,8(a5)
    18b4:	4690                	lw	a2,8(a3)
    18b6:	c7d0                	sw	a2,12(a5)
    18b8:	c24c                	sw	a1,4(a2)
    18ba:	c68c                	sw	a1,8(a3)
    18bc:	57cc                	lw	a1,44(a5)
    18be:	00259693          	slli	a3,a1,0x2
    18c2:	00b68833          	add	a6,a3,a1
    18c6:	00281613          	slli	a2,a6,0x2
    18ca:	8832                	mv	a6,a2
    18cc:	963a                	add	a2,a2,a4
    18ce:	cbd0                	sw	a2,20(a5)
    18d0:	4210                	lw	a2,0(a2)
    18d2:	0605                	addi	a2,a2,1
    18d4:	9742                	add	a4,a4,a6
    18d6:	c310                	sw	a2,0(a4)
    18d8:	57d8                	lw	a4,44(a5)
    18da:	200007b7          	lui	a5,0x20000
    18de:	0c87a783          	lw	a5,200(a5) # 200000c8 <pxCurrentTCB>
    18e2:	57dc                	lw	a5,44(a5)
    18e4:	00f76363          	bltu	a4,a5,18ea <xTaskIncrementTick+0x150>
    18e8:	4505                	li	a0,1
    18ea:	200007b7          	lui	a5,0x20000
    18ee:	0cc7a783          	lw	a5,204(a5) # 200000cc <pxDelayedTaskList>
    18f2:	439c                	lw	a5,0(a5)
    18f4:	d7b5                	beqz	a5,1860 <xTaskIncrementTick+0xc6>
    18f6:	200007b7          	lui	a5,0x20000
    18fa:	0cc7a783          	lw	a5,204(a5) # 200000cc <pxDelayedTaskList>
    18fe:	47dc                	lw	a5,12(a5)
    1900:	47dc                	lw	a5,12(a5)
    1902:	43d8                	lw	a4,4(a5)
    1904:	f6e464e3          	bltu	s0,a4,186c <xTaskIncrementTick+0xd2>
    1908:	4bd8                	lw	a4,20(a5)
    190a:	4790                	lw	a2,8(a5)
    190c:	47d4                	lw	a3,12(a5)
    190e:	c614                	sw	a3,8(a2)
    1910:	4790                	lw	a2,8(a5)
    1912:	c2d0                	sw	a2,4(a3)
    1914:	4354                	lw	a3,4(a4)
    1916:	00478593          	addi	a1,a5,4
    191a:	f4b68ee3          	beq	a3,a1,1876 <xTaskIncrementTick+0xdc>
    191e:	0007aa23          	sw	zero,20(a5)
    1922:	4314                	lw	a3,0(a4)
    1924:	16fd                	addi	a3,a3,-1
    1926:	c314                	sw	a3,0(a4)
    1928:	5798                	lw	a4,40(a5)
    192a:	df31                	beqz	a4,1886 <xTaskIncrementTick+0xec>
    192c:	4fd0                	lw	a2,28(a5)
    192e:	5394                	lw	a3,32(a5)
    1930:	c614                	sw	a3,8(a2)
    1932:	4fd0                	lw	a2,28(a5)
    1934:	c2d0                	sw	a2,4(a3)
    1936:	4350                	lw	a2,4(a4)
    1938:	01878693          	addi	a3,a5,24
    193c:	f4d610e3          	bne	a2,a3,187c <xTaskIncrementTick+0xe2>
    1940:	5394                	lw	a3,32(a5)
    1942:	c354                	sw	a3,4(a4)
    1944:	bf25                	j	187c <xTaskIncrementTick+0xe2>
    1946:	200007b7          	lui	a5,0x20000
    194a:	0f478793          	addi	a5,a5,244 # 200000f4 <xPendedTicks>
    194e:	4398                	lw	a4,0(a5)
    1950:	0705                	addi	a4,a4,1
    1952:	c398                	sw	a4,0(a5)
    1954:	4501                	li	a0,0
    1956:	8082                	ret
    1958:	4505                	li	a0,1
    195a:	bdfd                	j	1858 <xTaskIncrementTick+0xbe>

0000195c <xTaskResumeAll>:
    195c:	bc3fe2ef          	jal	t0,51e <__riscv_save_0>
    1960:	200007b7          	lui	a5,0x20000
    1964:	0dc7a783          	lw	a5,220(a5) # 200000dc <uxSchedulerSuspended>
    1968:	e785                	bnez	a5,1990 <xTaskResumeAll+0x34>
    196a:	6789                	lui	a5,0x2
    196c:	80078793          	addi	a5,a5,-2048 # 1800 <xTaskIncrementTick+0x66>
    1970:	30079073          	csrw	mstatus,a5
    1974:	0000d637          	lui	a2,0xd
    1978:	66c60613          	addi	a2,a2,1644 # d66c <_read+0xd6>
    197c:	6585                	lui	a1,0x1
    197e:	8b358593          	addi	a1,a1,-1869 # 8b3 <__stack_size+0xb3>
    1982:	0000d537          	lui	a0,0xd
    1986:	5dc50513          	addi	a0,a0,1500 # d5dc <_read+0x46>
    198a:	30b0a0ef          	jal	ra,c494 <iprintf>
    198e:	a001                	j	198e <xTaskResumeAll+0x32>
    1990:	9d4ff0ef          	jal	ra,b64 <vPortEnterCritical>
    1994:	200007b7          	lui	a5,0x20000
    1998:	0dc78793          	addi	a5,a5,220 # 200000dc <uxSchedulerSuspended>
    199c:	4398                	lw	a4,0(a5)
    199e:	177d                	addi	a4,a4,-1
    19a0:	c398                	sw	a4,0(a5)
    19a2:	439c                	lw	a5,0(a5)
    19a4:	12079663          	bnez	a5,1ad0 <xTaskResumeAll+0x174>
    19a8:	200007b7          	lui	a5,0x20000
    19ac:	0d47a783          	lw	a5,212(a5) # 200000d4 <uxCurrentNumberOfTasks>
    19b0:	eb89                	bnez	a5,19c2 <xTaskResumeAll+0x66>
    19b2:	4401                	li	s0,0
    19b4:	aa39                	j	1ad2 <xTaskResumeAll+0x176>
    19b6:	5394                	lw	a3,32(a5)
    19b8:	c354                	sw	a3,4(a4)
    19ba:	a825                	j	19f2 <xTaskResumeAll+0x96>
    19bc:	47d4                	lw	a3,12(a5)
    19be:	c354                	sw	a3,4(a4)
    19c0:	a889                	j	1a12 <xTaskResumeAll+0xb6>
    19c2:	4781                	li	a5,0
    19c4:	20003737          	lui	a4,0x20003
    19c8:	27072703          	lw	a4,624(a4) # 20003270 <xPendingReadyList>
    19cc:	cf5d                	beqz	a4,1a8a <xTaskResumeAll+0x12e>
    19ce:	200037b7          	lui	a5,0x20003
    19d2:	27078793          	addi	a5,a5,624 # 20003270 <xPendingReadyList>
    19d6:	47dc                	lw	a5,12(a5)
    19d8:	47dc                	lw	a5,12(a5)
    19da:	5798                	lw	a4,40(a5)
    19dc:	4fd4                	lw	a3,28(a5)
    19de:	5390                	lw	a2,32(a5)
    19e0:	c690                	sw	a2,8(a3)
    19e2:	5394                	lw	a3,32(a5)
    19e4:	4fd0                	lw	a2,28(a5)
    19e6:	c2d0                	sw	a2,4(a3)
    19e8:	4350                	lw	a2,4(a4)
    19ea:	01878693          	addi	a3,a5,24
    19ee:	fcd604e3          	beq	a2,a3,19b6 <xTaskResumeAll+0x5a>
    19f2:	0207a423          	sw	zero,40(a5)
    19f6:	4314                	lw	a3,0(a4)
    19f8:	16fd                	addi	a3,a3,-1
    19fa:	c314                	sw	a3,0(a4)
    19fc:	4bd8                	lw	a4,20(a5)
    19fe:	4790                	lw	a2,8(a5)
    1a00:	47d4                	lw	a3,12(a5)
    1a02:	c614                	sw	a3,8(a2)
    1a04:	4790                	lw	a2,8(a5)
    1a06:	c2d0                	sw	a2,4(a3)
    1a08:	4354                	lw	a3,4(a4)
    1a0a:	00478593          	addi	a1,a5,4
    1a0e:	fab687e3          	beq	a3,a1,19bc <xTaskResumeAll+0x60>
    1a12:	0007aa23          	sw	zero,20(a5)
    1a16:	4314                	lw	a3,0(a4)
    1a18:	16fd                	addi	a3,a3,-1
    1a1a:	c314                	sw	a3,0(a4)
    1a1c:	57d4                	lw	a3,44(a5)
    1a1e:	20000737          	lui	a4,0x20000
    1a22:	0e472703          	lw	a4,228(a4) # 200000e4 <uxTopReadyPriority>
    1a26:	00d77663          	bgeu	a4,a3,1a32 <xTaskResumeAll+0xd6>
    1a2a:	20000737          	lui	a4,0x20000
    1a2e:	0ed72223          	sw	a3,228(a4) # 200000e4 <uxTopReadyPriority>
    1a32:	20003737          	lui	a4,0x20003
    1a36:	1bc70713          	addi	a4,a4,444 # 200031bc <pxReadyTasksLists>
    1a3a:	00269613          	slli	a2,a3,0x2
    1a3e:	9636                	add	a2,a2,a3
    1a40:	00261693          	slli	a3,a2,0x2
    1a44:	96ba                	add	a3,a3,a4
    1a46:	42d4                	lw	a3,4(a3)
    1a48:	c794                	sw	a3,8(a5)
    1a4a:	4690                	lw	a2,8(a3)
    1a4c:	c7d0                	sw	a2,12(a5)
    1a4e:	c24c                	sw	a1,4(a2)
    1a50:	c68c                	sw	a1,8(a3)
    1a52:	57cc                	lw	a1,44(a5)
    1a54:	00259693          	slli	a3,a1,0x2
    1a58:	00b68533          	add	a0,a3,a1
    1a5c:	00251613          	slli	a2,a0,0x2
    1a60:	8532                	mv	a0,a2
    1a62:	963a                	add	a2,a2,a4
    1a64:	cbd0                	sw	a2,20(a5)
    1a66:	4210                	lw	a2,0(a2)
    1a68:	0605                	addi	a2,a2,1
    1a6a:	972a                	add	a4,a4,a0
    1a6c:	c310                	sw	a2,0(a4)
    1a6e:	57d4                	lw	a3,44(a5)
    1a70:	20000737          	lui	a4,0x20000
    1a74:	0c872703          	lw	a4,200(a4) # 200000c8 <pxCurrentTCB>
    1a78:	5758                	lw	a4,44(a4)
    1a7a:	f4e6e5e3          	bltu	a3,a4,19c4 <xTaskResumeAll+0x68>
    1a7e:	20000737          	lui	a4,0x20000
    1a82:	4685                	li	a3,1
    1a84:	10d72023          	sw	a3,256(a4) # 20000100 <xYieldPending>
    1a88:	bf35                	j	19c4 <xTaskResumeAll+0x68>
    1a8a:	c399                	beqz	a5,1a90 <xTaskResumeAll+0x134>
    1a8c:	869ff0ef          	jal	ra,12f4 <prvResetNextTaskUnblockTime>
    1a90:	200007b7          	lui	a5,0x20000
    1a94:	0f47a403          	lw	s0,244(a5) # 200000f4 <xPendedTicks>
    1a98:	ec19                	bnez	s0,1ab6 <xTaskResumeAll+0x15a>
    1a9a:	200007b7          	lui	a5,0x20000
    1a9e:	1007a783          	lw	a5,256(a5) # 20000100 <xYieldPending>
    1aa2:	cf8d                	beqz	a5,1adc <xTaskResumeAll+0x180>
    1aa4:	e000e7b7          	lui	a5,0xe000e
    1aa8:	6711                	lui	a4,0x4
    1aaa:	20e7a023          	sw	a4,512(a5) # e000e200 <__freertos_irq_stack_top+0xc0009200>
    1aae:	4405                	li	s0,1
    1ab0:	a00d                	j	1ad2 <xTaskResumeAll+0x176>
    1ab2:	147d                	addi	s0,s0,-1
    1ab4:	c809                	beqz	s0,1ac6 <xTaskResumeAll+0x16a>
    1ab6:	31d5                	jal	179a <xTaskIncrementTick>
    1ab8:	dd6d                	beqz	a0,1ab2 <xTaskResumeAll+0x156>
    1aba:	200007b7          	lui	a5,0x20000
    1abe:	4705                	li	a4,1
    1ac0:	10e7a023          	sw	a4,256(a5) # 20000100 <xYieldPending>
    1ac4:	b7fd                	j	1ab2 <xTaskResumeAll+0x156>
    1ac6:	200007b7          	lui	a5,0x20000
    1aca:	0e07aa23          	sw	zero,244(a5) # 200000f4 <xPendedTicks>
    1ace:	b7f1                	j	1a9a <xTaskResumeAll+0x13e>
    1ad0:	4401                	li	s0,0
    1ad2:	8acff0ef          	jal	ra,b7e <vPortExitCritical>
    1ad6:	8522                	mv	a0,s0
    1ad8:	a6bfe06f          	j	542 <__riscv_restore_0>
    1adc:	4401                	li	s0,0
    1ade:	bfd5                	j	1ad2 <xTaskResumeAll+0x176>

00001ae0 <vTaskDelay>:
    1ae0:	c929                	beqz	a0,1b32 <vTaskDelay+0x52>
    1ae2:	a3dfe2ef          	jal	t0,51e <__riscv_save_0>
    1ae6:	842a                	mv	s0,a0
    1ae8:	200007b7          	lui	a5,0x20000
    1aec:	0dc7a783          	lw	a5,220(a5) # 200000dc <uxSchedulerSuspended>
    1af0:	c39d                	beqz	a5,1b16 <vTaskDelay+0x36>
    1af2:	6789                	lui	a5,0x2
    1af4:	80078793          	addi	a5,a5,-2048 # 1800 <xTaskIncrementTick+0x66>
    1af8:	30079073          	csrw	mstatus,a5
    1afc:	0000d637          	lui	a2,0xd
    1b00:	66c60613          	addi	a2,a2,1644 # d66c <_read+0xd6>
    1b04:	54900593          	li	a1,1353
    1b08:	0000d537          	lui	a0,0xd
    1b0c:	5dc50513          	addi	a0,a0,1500 # d5dc <_read+0x46>
    1b10:	1850a0ef          	jal	ra,c494 <iprintf>
    1b14:	a001                	j	1b14 <vTaskDelay+0x34>
    1b16:	31ad                	jal	1780 <vTaskSuspendAll>
    1b18:	4581                	li	a1,0
    1b1a:	8522                	mv	a0,s0
    1b1c:	abbff0ef          	jal	ra,15d6 <prvAddCurrentTaskToDelayedList>
    1b20:	3d35                	jal	195c <xTaskResumeAll>
    1b22:	e511                	bnez	a0,1b2e <vTaskDelay+0x4e>
    1b24:	e000e7b7          	lui	a5,0xe000e
    1b28:	6711                	lui	a4,0x4
    1b2a:	20e7a023          	sw	a4,512(a5) # e000e200 <__freertos_irq_stack_top+0xc0009200>
    1b2e:	a15fe06f          	j	542 <__riscv_restore_0>
    1b32:	e000e7b7          	lui	a5,0xe000e
    1b36:	6711                	lui	a4,0x4
    1b38:	20e7a023          	sw	a4,512(a5) # e000e200 <__freertos_irq_stack_top+0xc0009200>
    1b3c:	8082                	ret

00001b3e <vTaskSwitchContext>:
    1b3e:	200007b7          	lui	a5,0x20000
    1b42:	0dc7a783          	lw	a5,220(a5) # 200000dc <uxSchedulerSuspended>
    1b46:	c799                	beqz	a5,1b54 <vTaskSwitchContext+0x16>
    1b48:	200007b7          	lui	a5,0x20000
    1b4c:	4705                	li	a4,1
    1b4e:	10e7a023          	sw	a4,256(a5) # 20000100 <xYieldPending>
    1b52:	8082                	ret
    1b54:	200007b7          	lui	a5,0x20000
    1b58:	1007a023          	sw	zero,256(a5) # 20000100 <xYieldPending>
    1b5c:	200007b7          	lui	a5,0x20000
    1b60:	0e47a783          	lw	a5,228(a5) # 200000e4 <uxTopReadyPriority>
    1b64:	00279713          	slli	a4,a5,0x2
    1b68:	973e                	add	a4,a4,a5
    1b6a:	00271693          	slli	a3,a4,0x2
    1b6e:	20003737          	lui	a4,0x20003
    1b72:	1bc70713          	addi	a4,a4,444 # 200031bc <pxReadyTasksLists>
    1b76:	9736                	add	a4,a4,a3
    1b78:	4318                	lw	a4,0(a4)
    1b7a:	eb0d                	bnez	a4,1bac <vTaskSwitchContext+0x6e>
    1b7c:	c399                	beqz	a5,1b82 <vTaskSwitchContext+0x44>
    1b7e:	17fd                	addi	a5,a5,-1
    1b80:	b7d5                	j	1b64 <vTaskSwitchContext+0x26>
    1b82:	99dfe2ef          	jal	t0,51e <__riscv_save_0>
    1b86:	6789                	lui	a5,0x2
    1b88:	80078793          	addi	a5,a5,-2048 # 1800 <xTaskIncrementTick+0x66>
    1b8c:	30079073          	csrw	mstatus,a5
    1b90:	0000d637          	lui	a2,0xd
    1b94:	66c60613          	addi	a2,a2,1644 # d66c <_read+0xd6>
    1b98:	6585                	lui	a1,0x1
    1b9a:	c0258593          	addi	a1,a1,-1022 # c02 <vListInsert+0xe>
    1b9e:	0000d537          	lui	a0,0xd
    1ba2:	5dc50513          	addi	a0,a0,1500 # d5dc <_read+0x46>
    1ba6:	0ef0a0ef          	jal	ra,c494 <iprintf>
    1baa:	a001                	j	1baa <vTaskSwitchContext+0x6c>
    1bac:	20003737          	lui	a4,0x20003
    1bb0:	1bc70713          	addi	a4,a4,444 # 200031bc <pxReadyTasksLists>
    1bb4:	9736                	add	a4,a4,a3
    1bb6:	4354                	lw	a3,4(a4)
    1bb8:	42d4                	lw	a3,4(a3)
    1bba:	c354                	sw	a3,4(a4)
    1bbc:	0721                	addi	a4,a4,8
    1bbe:	02e68763          	beq	a3,a4,1bec <vTaskSwitchContext+0xae>
    1bc2:	00279713          	slli	a4,a5,0x2
    1bc6:	973e                	add	a4,a4,a5
    1bc8:	00271693          	slli	a3,a4,0x2
    1bcc:	20003737          	lui	a4,0x20003
    1bd0:	1bc70713          	addi	a4,a4,444 # 200031bc <pxReadyTasksLists>
    1bd4:	9736                	add	a4,a4,a3
    1bd6:	4358                	lw	a4,4(a4)
    1bd8:	4754                	lw	a3,12(a4)
    1bda:	20000737          	lui	a4,0x20000
    1bde:	0cd72423          	sw	a3,200(a4) # 200000c8 <pxCurrentTCB>
    1be2:	20000737          	lui	a4,0x20000
    1be6:	0ef72223          	sw	a5,228(a4) # 200000e4 <uxTopReadyPriority>
    1bea:	8082                	ret
    1bec:	42d0                	lw	a2,4(a3)
    1bee:	00279713          	slli	a4,a5,0x2
    1bf2:	973e                	add	a4,a4,a5
    1bf4:	00271693          	slli	a3,a4,0x2
    1bf8:	20003737          	lui	a4,0x20003
    1bfc:	1bc70713          	addi	a4,a4,444 # 200031bc <pxReadyTasksLists>
    1c00:	9736                	add	a4,a4,a3
    1c02:	c350                	sw	a2,4(a4)
    1c04:	bf7d                	j	1bc2 <vTaskSwitchContext+0x84>

00001c06 <vTaskPlaceOnEventList>:
    1c06:	919fe2ef          	jal	t0,51e <__riscv_save_0>
    1c0a:	cd19                	beqz	a0,1c28 <vTaskPlaceOnEventList+0x22>
    1c0c:	842e                	mv	s0,a1
    1c0e:	200007b7          	lui	a5,0x20000
    1c12:	0c87a583          	lw	a1,200(a5) # 200000c8 <pxCurrentTCB>
    1c16:	05e1                	addi	a1,a1,24
    1c18:	fddfe0ef          	jal	ra,bf4 <vListInsert>
    1c1c:	4585                	li	a1,1
    1c1e:	8522                	mv	a0,s0
    1c20:	9b7ff0ef          	jal	ra,15d6 <prvAddCurrentTaskToDelayedList>
    1c24:	91ffe06f          	j	542 <__riscv_restore_0>
    1c28:	6789                	lui	a5,0x2
    1c2a:	80078793          	addi	a5,a5,-2048 # 1800 <xTaskIncrementTick+0x66>
    1c2e:	30079073          	csrw	mstatus,a5
    1c32:	0000d637          	lui	a2,0xd
    1c36:	66c60613          	addi	a2,a2,1644 # d66c <_read+0xd6>
    1c3a:	6585                	lui	a1,0x1
    1c3c:	c1c58593          	addi	a1,a1,-996 # c1c <vListInsert+0x28>
    1c40:	0000d537          	lui	a0,0xd
    1c44:	5dc50513          	addi	a0,a0,1500 # d5dc <_read+0x46>
    1c48:	04d0a0ef          	jal	ra,c494 <iprintf>
    1c4c:	a001                	j	1c4c <vTaskPlaceOnEventList+0x46>

00001c4e <vTaskPlaceOnEventListRestricted>:
    1c4e:	8d1fe2ef          	jal	t0,51e <__riscv_save_0>
    1c52:	872a                	mv	a4,a0
    1c54:	c521                	beqz	a0,1c9c <vTaskPlaceOnEventListRestricted+0x4e>
    1c56:	852e                	mv	a0,a1
    1c58:	4354                	lw	a3,4(a4)
    1c5a:	200007b7          	lui	a5,0x20000
    1c5e:	0c878793          	addi	a5,a5,200 # 200000c8 <pxCurrentTCB>
    1c62:	438c                	lw	a1,0(a5)
    1c64:	cdd4                	sw	a3,28(a1)
    1c66:	0007a803          	lw	a6,0(a5)
    1c6a:	468c                	lw	a1,8(a3)
    1c6c:	02b82023          	sw	a1,32(a6)
    1c70:	0007a803          	lw	a6,0(a5)
    1c74:	0861                	addi	a6,a6,24
    1c76:	0105a223          	sw	a6,4(a1)
    1c7a:	0007a803          	lw	a6,0(a5)
    1c7e:	0861                	addi	a6,a6,24
    1c80:	0106a423          	sw	a6,8(a3)
    1c84:	439c                	lw	a5,0(a5)
    1c86:	d798                	sw	a4,40(a5)
    1c88:	431c                	lw	a5,0(a4)
    1c8a:	0785                	addi	a5,a5,1
    1c8c:	c31c                	sw	a5,0(a4)
    1c8e:	c211                	beqz	a2,1c92 <vTaskPlaceOnEventListRestricted+0x44>
    1c90:	557d                	li	a0,-1
    1c92:	85b2                	mv	a1,a2
    1c94:	943ff0ef          	jal	ra,15d6 <prvAddCurrentTaskToDelayedList>
    1c98:	8abfe06f          	j	542 <__riscv_restore_0>
    1c9c:	6789                	lui	a5,0x2
    1c9e:	80078793          	addi	a5,a5,-2048 # 1800 <xTaskIncrementTick+0x66>
    1ca2:	30079073          	csrw	mstatus,a5
    1ca6:	0000d637          	lui	a2,0xd
    1caa:	66c60613          	addi	a2,a2,1644 # d66c <_read+0xd6>
    1cae:	6585                	lui	a1,0x1
    1cb0:	c5258593          	addi	a1,a1,-942 # c52 <prvIsQueueFull+0x8>
    1cb4:	0000d537          	lui	a0,0xd
    1cb8:	5dc50513          	addi	a0,a0,1500 # d5dc <_read+0x46>
    1cbc:	7d80a0ef          	jal	ra,c494 <iprintf>
    1cc0:	a001                	j	1cc0 <vTaskPlaceOnEventListRestricted+0x72>

00001cc2 <xTaskRemoveFromEventList>:
    1cc2:	455c                	lw	a5,12(a0)
    1cc4:	47dc                	lw	a5,12(a5)
    1cc6:	cfd5                	beqz	a5,1d82 <xTaskRemoveFromEventList+0xc0>
    1cc8:	5798                	lw	a4,40(a5)
    1cca:	4fd0                	lw	a2,28(a5)
    1ccc:	5394                	lw	a3,32(a5)
    1cce:	c614                	sw	a3,8(a2)
    1cd0:	4fd0                	lw	a2,28(a5)
    1cd2:	c2d0                	sw	a2,4(a3)
    1cd4:	4354                	lw	a3,4(a4)
    1cd6:	01878613          	addi	a2,a5,24
    1cda:	0cc68963          	beq	a3,a2,1dac <xTaskRemoveFromEventList+0xea>
    1cde:	0207a423          	sw	zero,40(a5)
    1ce2:	4314                	lw	a3,0(a4)
    1ce4:	16fd                	addi	a3,a3,-1
    1ce6:	c314                	sw	a3,0(a4)
    1ce8:	20000737          	lui	a4,0x20000
    1cec:	0dc72703          	lw	a4,220(a4) # 200000dc <uxSchedulerSuspended>
    1cf0:	e761                	bnez	a4,1db8 <xTaskRemoveFromEventList+0xf6>
    1cf2:	4bd8                	lw	a4,20(a5)
    1cf4:	4790                	lw	a2,8(a5)
    1cf6:	47d4                	lw	a3,12(a5)
    1cf8:	c614                	sw	a3,8(a2)
    1cfa:	4790                	lw	a2,8(a5)
    1cfc:	c2d0                	sw	a2,4(a3)
    1cfe:	4354                	lw	a3,4(a4)
    1d00:	00478593          	addi	a1,a5,4
    1d04:	0ab68763          	beq	a3,a1,1db2 <xTaskRemoveFromEventList+0xf0>
    1d08:	0007aa23          	sw	zero,20(a5)
    1d0c:	4314                	lw	a3,0(a4)
    1d0e:	16fd                	addi	a3,a3,-1
    1d10:	c314                	sw	a3,0(a4)
    1d12:	57d4                	lw	a3,44(a5)
    1d14:	20000737          	lui	a4,0x20000
    1d18:	0e472703          	lw	a4,228(a4) # 200000e4 <uxTopReadyPriority>
    1d1c:	00d77663          	bgeu	a4,a3,1d28 <xTaskRemoveFromEventList+0x66>
    1d20:	20000737          	lui	a4,0x20000
    1d24:	0ed72223          	sw	a3,228(a4) # 200000e4 <uxTopReadyPriority>
    1d28:	20003737          	lui	a4,0x20003
    1d2c:	1bc70713          	addi	a4,a4,444 # 200031bc <pxReadyTasksLists>
    1d30:	00269613          	slli	a2,a3,0x2
    1d34:	9636                	add	a2,a2,a3
    1d36:	00261693          	slli	a3,a2,0x2
    1d3a:	96ba                	add	a3,a3,a4
    1d3c:	42d4                	lw	a3,4(a3)
    1d3e:	c794                	sw	a3,8(a5)
    1d40:	4690                	lw	a2,8(a3)
    1d42:	c7d0                	sw	a2,12(a5)
    1d44:	c24c                	sw	a1,4(a2)
    1d46:	c68c                	sw	a1,8(a3)
    1d48:	57cc                	lw	a1,44(a5)
    1d4a:	00259693          	slli	a3,a1,0x2
    1d4e:	00b68533          	add	a0,a3,a1
    1d52:	00251613          	slli	a2,a0,0x2
    1d56:	8532                	mv	a0,a2
    1d58:	963a                	add	a2,a2,a4
    1d5a:	cbd0                	sw	a2,20(a5)
    1d5c:	4210                	lw	a2,0(a2)
    1d5e:	0605                	addi	a2,a2,1
    1d60:	972a                	add	a4,a4,a0
    1d62:	c310                	sw	a2,0(a4)
    1d64:	57d8                	lw	a4,44(a5)
    1d66:	200007b7          	lui	a5,0x20000
    1d6a:	0c87a783          	lw	a5,200(a5) # 200000c8 <pxCurrentTCB>
    1d6e:	57dc                	lw	a5,44(a5)
    1d70:	06e7f363          	bgeu	a5,a4,1dd6 <xTaskRemoveFromEventList+0x114>
    1d74:	200007b7          	lui	a5,0x20000
    1d78:	4705                	li	a4,1
    1d7a:	10e7a023          	sw	a4,256(a5) # 20000100 <xYieldPending>
    1d7e:	4505                	li	a0,1
    1d80:	8082                	ret
    1d82:	f9cfe2ef          	jal	t0,51e <__riscv_save_0>
    1d86:	6789                	lui	a5,0x2
    1d88:	80078793          	addi	a5,a5,-2048 # 1800 <xTaskIncrementTick+0x66>
    1d8c:	30079073          	csrw	mstatus,a5
    1d90:	0000d637          	lui	a2,0xd
    1d94:	66c60613          	addi	a2,a2,1644 # d66c <_read+0xd6>
    1d98:	6585                	lui	a1,0x1
    1d9a:	c8258593          	addi	a1,a1,-894 # c82 <prvCopyDataToQueue>
    1d9e:	0000d537          	lui	a0,0xd
    1da2:	5dc50513          	addi	a0,a0,1500 # d5dc <_read+0x46>
    1da6:	6ee0a0ef          	jal	ra,c494 <iprintf>
    1daa:	a001                	j	1daa <xTaskRemoveFromEventList+0xe8>
    1dac:	5394                	lw	a3,32(a5)
    1dae:	c354                	sw	a3,4(a4)
    1db0:	b73d                	j	1cde <xTaskRemoveFromEventList+0x1c>
    1db2:	47d4                	lw	a3,12(a5)
    1db4:	c354                	sw	a3,4(a4)
    1db6:	bf89                	j	1d08 <xTaskRemoveFromEventList+0x46>
    1db8:	20003737          	lui	a4,0x20003
    1dbc:	27070713          	addi	a4,a4,624 # 20003270 <xPendingReadyList>
    1dc0:	4354                	lw	a3,4(a4)
    1dc2:	cfd4                	sw	a3,28(a5)
    1dc4:	468c                	lw	a1,8(a3)
    1dc6:	d38c                	sw	a1,32(a5)
    1dc8:	c1d0                	sw	a2,4(a1)
    1dca:	c690                	sw	a2,8(a3)
    1dcc:	d798                	sw	a4,40(a5)
    1dce:	4314                	lw	a3,0(a4)
    1dd0:	0685                	addi	a3,a3,1
    1dd2:	c314                	sw	a3,0(a4)
    1dd4:	bf41                	j	1d64 <xTaskRemoveFromEventList+0xa2>
    1dd6:	4501                	li	a0,0
    1dd8:	8082                	ret

00001dda <vTaskInternalSetTimeOutState>:
    1dda:	200007b7          	lui	a5,0x20000
    1dde:	0f07a783          	lw	a5,240(a5) # 200000f0 <xNumOfOverflows>
    1de2:	c11c                	sw	a5,0(a0)
    1de4:	200007b7          	lui	a5,0x20000
    1de8:	0fc7a783          	lw	a5,252(a5) # 200000fc <xTickCount>
    1dec:	c15c                	sw	a5,4(a0)
    1dee:	8082                	ret

00001df0 <xTaskCheckForTimeOut>:
    1df0:	f2efe2ef          	jal	t0,51e <__riscv_save_0>
    1df4:	c121                	beqz	a0,1e34 <xTaskCheckForTimeOut+0x44>
    1df6:	84aa                	mv	s1,a0
    1df8:	842e                	mv	s0,a1
    1dfa:	c1a5                	beqz	a1,1e5a <xTaskCheckForTimeOut+0x6a>
    1dfc:	d69fe0ef          	jal	ra,b64 <vPortEnterCritical>
    1e00:	200007b7          	lui	a5,0x20000
    1e04:	0fc7a683          	lw	a3,252(a5) # 200000fc <xTickCount>
    1e08:	40dc                	lw	a5,4(s1)
    1e0a:	40f68633          	sub	a2,a3,a5
    1e0e:	20000737          	lui	a4,0x20000
    1e12:	0c872703          	lw	a4,200(a4) # 200000c8 <pxCurrentTCB>
    1e16:	06174703          	lbu	a4,97(a4)
    1e1a:	c33d                	beqz	a4,1e80 <xTaskCheckForTimeOut+0x90>
    1e1c:	200007b7          	lui	a5,0x20000
    1e20:	0c87a783          	lw	a5,200(a5) # 200000c8 <pxCurrentTCB>
    1e24:	060780a3          	sb	zero,97(a5)
    1e28:	4405                	li	s0,1
    1e2a:	d55fe0ef          	jal	ra,b7e <vPortExitCritical>
    1e2e:	8522                	mv	a0,s0
    1e30:	f12fe06f          	j	542 <__riscv_restore_0>
    1e34:	6789                	lui	a5,0x2
    1e36:	80078793          	addi	a5,a5,-2048 # 1800 <xTaskIncrementTick+0x66>
    1e3a:	30079073          	csrw	mstatus,a5
    1e3e:	0000d637          	lui	a2,0xd
    1e42:	66c60613          	addi	a2,a2,1644 # d66c <_read+0xd6>
    1e46:	6585                	lui	a1,0x1
    1e48:	cfd58593          	addi	a1,a1,-771 # cfd <prvCopyDataToQueue+0x7b>
    1e4c:	0000d537          	lui	a0,0xd
    1e50:	5dc50513          	addi	a0,a0,1500 # d5dc <_read+0x46>
    1e54:	6400a0ef          	jal	ra,c494 <iprintf>
    1e58:	a001                	j	1e58 <xTaskCheckForTimeOut+0x68>
    1e5a:	6789                	lui	a5,0x2
    1e5c:	80078793          	addi	a5,a5,-2048 # 1800 <xTaskIncrementTick+0x66>
    1e60:	30079073          	csrw	mstatus,a5
    1e64:	0000d637          	lui	a2,0xd
    1e68:	66c60613          	addi	a2,a2,1644 # d66c <_read+0xd6>
    1e6c:	6585                	lui	a1,0x1
    1e6e:	cfe58593          	addi	a1,a1,-770 # cfe <prvCopyDataToQueue+0x7c>
    1e72:	0000d537          	lui	a0,0xd
    1e76:	5dc50513          	addi	a0,a0,1500 # d5dc <_read+0x46>
    1e7a:	61a0a0ef          	jal	ra,c494 <iprintf>
    1e7e:	a001                	j	1e7e <xTaskCheckForTimeOut+0x8e>
    1e80:	4018                	lw	a4,0(s0)
    1e82:	55fd                	li	a1,-1
    1e84:	02b70c63          	beq	a4,a1,1ebc <xTaskCheckForTimeOut+0xcc>
    1e88:	4088                	lw	a0,0(s1)
    1e8a:	200005b7          	lui	a1,0x20000
    1e8e:	0f05a583          	lw	a1,240(a1) # 200000f0 <xNumOfOverflows>
    1e92:	00b50863          	beq	a0,a1,1ea2 <xTaskCheckForTimeOut+0xb2>
    1e96:	00f6e663          	bltu	a3,a5,1ea2 <xTaskCheckForTimeOut+0xb2>
    1e9a:	00042023          	sw	zero,0(s0)
    1e9e:	4405                	li	s0,1
    1ea0:	b769                	j	1e2a <xTaskCheckForTimeOut+0x3a>
    1ea2:	00e66663          	bltu	a2,a4,1eae <xTaskCheckForTimeOut+0xbe>
    1ea6:	00042023          	sw	zero,0(s0)
    1eaa:	4405                	li	s0,1
    1eac:	bfbd                	j	1e2a <xTaskCheckForTimeOut+0x3a>
    1eae:	8f95                	sub	a5,a5,a3
    1eb0:	97ba                	add	a5,a5,a4
    1eb2:	c01c                	sw	a5,0(s0)
    1eb4:	8526                	mv	a0,s1
    1eb6:	3715                	jal	1dda <vTaskInternalSetTimeOutState>
    1eb8:	4401                	li	s0,0
    1eba:	bf85                	j	1e2a <xTaskCheckForTimeOut+0x3a>
    1ebc:	4401                	li	s0,0
    1ebe:	b7b5                	j	1e2a <xTaskCheckForTimeOut+0x3a>

00001ec0 <vTaskMissedYield>:
    1ec0:	200007b7          	lui	a5,0x20000
    1ec4:	4705                	li	a4,1
    1ec6:	10e7a023          	sw	a4,256(a5) # 20000100 <xYieldPending>
    1eca:	8082                	ret

00001ecc <xTaskGetCurrentTaskHandle>:
    1ecc:	200007b7          	lui	a5,0x20000
    1ed0:	0c87a503          	lw	a0,200(a5) # 200000c8 <pxCurrentTCB>
    1ed4:	8082                	ret

00001ed6 <xTaskGetSchedulerState>:
    1ed6:	200007b7          	lui	a5,0x20000
    1eda:	0f87a783          	lw	a5,248(a5) # 200000f8 <xSchedulerRunning>
    1ede:	cb91                	beqz	a5,1ef2 <xTaskGetSchedulerState+0x1c>
    1ee0:	200007b7          	lui	a5,0x20000
    1ee4:	0dc7a783          	lw	a5,220(a5) # 200000dc <uxSchedulerSuspended>
    1ee8:	c399                	beqz	a5,1eee <xTaskGetSchedulerState+0x18>
    1eea:	4501                	li	a0,0
    1eec:	8082                	ret
    1eee:	4509                	li	a0,2
    1ef0:	8082                	ret
    1ef2:	4505                	li	a0,1
    1ef4:	8082                	ret

00001ef6 <xTaskPriorityDisinherit>:
    1ef6:	c165                	beqz	a0,1fd6 <xTaskPriorityDisinherit+0xe0>
    1ef8:	e26fe2ef          	jal	t0,51e <__riscv_save_0>
    1efc:	842a                	mv	s0,a0
    1efe:	200007b7          	lui	a5,0x20000
    1f02:	0c87a783          	lw	a5,200(a5) # 200000c8 <pxCurrentTCB>
    1f06:	02a78563          	beq	a5,a0,1f30 <xTaskPriorityDisinherit+0x3a>
    1f0a:	6789                	lui	a5,0x2
    1f0c:	80078793          	addi	a5,a5,-2048 # 1800 <xTaskIncrementTick+0x66>
    1f10:	30079073          	csrw	mstatus,a5
    1f14:	0000d637          	lui	a2,0xd
    1f18:	66c60613          	addi	a2,a2,1644 # d66c <_read+0xd6>
    1f1c:	6585                	lui	a1,0x1
    1f1e:	04f58593          	addi	a1,a1,79 # 104f <xQueueGenericSend+0x171>
    1f22:	0000d537          	lui	a0,0xd
    1f26:	5dc50513          	addi	a0,a0,1500 # d5dc <_read+0x46>
    1f2a:	56a0a0ef          	jal	ra,c494 <iprintf>
    1f2e:	a001                	j	1f2e <xTaskPriorityDisinherit+0x38>
    1f30:	4d3c                	lw	a5,88(a0)
    1f32:	cb99                	beqz	a5,1f48 <xTaskPriorityDisinherit+0x52>
    1f34:	17fd                	addi	a5,a5,-1
    1f36:	cd3c                	sw	a5,88(a0)
    1f38:	5554                	lw	a3,44(a0)
    1f3a:	4978                	lw	a4,84(a0)
    1f3c:	08e68f63          	beq	a3,a4,1fda <xTaskPriorityDisinherit+0xe4>
    1f40:	c79d                	beqz	a5,1f6e <xTaskPriorityDisinherit+0x78>
    1f42:	4501                	li	a0,0
    1f44:	dfefe06f          	j	542 <__riscv_restore_0>
    1f48:	6789                	lui	a5,0x2
    1f4a:	80078793          	addi	a5,a5,-2048 # 1800 <xTaskIncrementTick+0x66>
    1f4e:	30079073          	csrw	mstatus,a5
    1f52:	0000d637          	lui	a2,0xd
    1f56:	66c60613          	addi	a2,a2,1644 # d66c <_read+0xd6>
    1f5a:	6585                	lui	a1,0x1
    1f5c:	05058593          	addi	a1,a1,80 # 1050 <xQueueGenericSend+0x172>
    1f60:	0000d537          	lui	a0,0xd
    1f64:	5dc50513          	addi	a0,a0,1500 # d5dc <_read+0x46>
    1f68:	52c0a0ef          	jal	ra,c494 <iprintf>
    1f6c:	a001                	j	1f6c <xTaskPriorityDisinherit+0x76>
    1f6e:	00450493          	addi	s1,a0,4
    1f72:	8526                	mv	a0,s1
    1f74:	cb1fe0ef          	jal	ra,c24 <uxListRemove>
    1f78:	4878                	lw	a4,84(s0)
    1f7a:	d458                	sw	a4,44(s0)
    1f7c:	479d                	li	a5,7
    1f7e:	8f99                	sub	a5,a5,a4
    1f80:	cc1c                	sw	a5,24(s0)
    1f82:	200007b7          	lui	a5,0x20000
    1f86:	0e47a783          	lw	a5,228(a5) # 200000e4 <uxTopReadyPriority>
    1f8a:	00e7f663          	bgeu	a5,a4,1f96 <xTaskPriorityDisinherit+0xa0>
    1f8e:	200007b7          	lui	a5,0x20000
    1f92:	0ee7a223          	sw	a4,228(a5) # 200000e4 <uxTopReadyPriority>
    1f96:	200037b7          	lui	a5,0x20003
    1f9a:	1bc78793          	addi	a5,a5,444 # 200031bc <pxReadyTasksLists>
    1f9e:	00271693          	slli	a3,a4,0x2
    1fa2:	96ba                	add	a3,a3,a4
    1fa4:	00269713          	slli	a4,a3,0x2
    1fa8:	973e                	add	a4,a4,a5
    1faa:	4358                	lw	a4,4(a4)
    1fac:	c418                	sw	a4,8(s0)
    1fae:	4714                	lw	a3,8(a4)
    1fb0:	c454                	sw	a3,12(s0)
    1fb2:	c2c4                	sw	s1,4(a3)
    1fb4:	c704                	sw	s1,8(a4)
    1fb6:	5450                	lw	a2,44(s0)
    1fb8:	00261713          	slli	a4,a2,0x2
    1fbc:	00c705b3          	add	a1,a4,a2
    1fc0:	00259693          	slli	a3,a1,0x2
    1fc4:	85b6                	mv	a1,a3
    1fc6:	96be                	add	a3,a3,a5
    1fc8:	c854                	sw	a3,20(s0)
    1fca:	4294                	lw	a3,0(a3)
    1fcc:	0685                	addi	a3,a3,1
    1fce:	97ae                	add	a5,a5,a1
    1fd0:	c394                	sw	a3,0(a5)
    1fd2:	4505                	li	a0,1
    1fd4:	bf85                	j	1f44 <xTaskPriorityDisinherit+0x4e>
    1fd6:	4501                	li	a0,0
    1fd8:	8082                	ret
    1fda:	4501                	li	a0,0
    1fdc:	b7a5                	j	1f44 <xTaskPriorityDisinherit+0x4e>

00001fde <ulTaskGenericNotifyTake>:
    1fde:	d40fe2ef          	jal	t0,51e <__riscv_save_0>
    1fe2:	c505                	beqz	a0,200a <ulTaskGenericNotifyTake+0x2c>
    1fe4:	6789                	lui	a5,0x2
    1fe6:	80078793          	addi	a5,a5,-2048 # 1800 <xTaskIncrementTick+0x66>
    1fea:	30079073          	csrw	mstatus,a5
    1fee:	0000d637          	lui	a2,0xd
    1ff2:	66c60613          	addi	a2,a2,1644 # d66c <_read+0xd6>
    1ff6:	6585                	lui	a1,0x1
    1ff8:	26658593          	addi	a1,a1,614 # 1266 <vQueueAddToRegistry+0x4c>
    1ffc:	0000d537          	lui	a0,0xd
    2000:	5dc50513          	addi	a0,a0,1500 # d5dc <_read+0x46>
    2004:	4900a0ef          	jal	ra,c494 <iprintf>
    2008:	a001                	j	2008 <ulTaskGenericNotifyTake+0x2a>
    200a:	842a                	mv	s0,a0
    200c:	892e                	mv	s2,a1
    200e:	84b2                	mv	s1,a2
    2010:	b55fe0ef          	jal	ra,b64 <vPortEnterCritical>
    2014:	200007b7          	lui	a5,0x20000
    2018:	0c87a783          	lw	a5,200(a5) # 200000c8 <pxCurrentTCB>
    201c:	01440713          	addi	a4,s0,20
    2020:	070a                	slli	a4,a4,0x2
    2022:	97ba                	add	a5,a5,a4
    2024:	47dc                	lw	a5,12(a5)
    2026:	eb91                	bnez	a5,203a <ulTaskGenericNotifyTake+0x5c>
    2028:	200007b7          	lui	a5,0x20000
    202c:	0c87a783          	lw	a5,200(a5) # 200000c8 <pxCurrentTCB>
    2030:	97a2                	add	a5,a5,s0
    2032:	4705                	li	a4,1
    2034:	06e78023          	sb	a4,96(a5)
    2038:	e4b9                	bnez	s1,2086 <ulTaskGenericNotifyTake+0xa8>
    203a:	b45fe0ef          	jal	ra,b7e <vPortExitCritical>
    203e:	b27fe0ef          	jal	ra,b64 <vPortEnterCritical>
    2042:	200007b7          	lui	a5,0x20000
    2046:	0c87a783          	lw	a5,200(a5) # 200000c8 <pxCurrentTCB>
    204a:	01440713          	addi	a4,s0,20
    204e:	070a                	slli	a4,a4,0x2
    2050:	97ba                	add	a5,a5,a4
    2052:	47c4                	lw	s1,12(a5)
    2054:	cc89                	beqz	s1,206e <ulTaskGenericNotifyTake+0x90>
    2056:	04090263          	beqz	s2,209a <ulTaskGenericNotifyTake+0xbc>
    205a:	200007b7          	lui	a5,0x20000
    205e:	0c87a783          	lw	a5,200(a5) # 200000c8 <pxCurrentTCB>
    2062:	01440713          	addi	a4,s0,20
    2066:	070a                	slli	a4,a4,0x2
    2068:	97ba                	add	a5,a5,a4
    206a:	0007a623          	sw	zero,12(a5)
    206e:	200007b7          	lui	a5,0x20000
    2072:	0c87a783          	lw	a5,200(a5) # 200000c8 <pxCurrentTCB>
    2076:	943e                	add	s0,s0,a5
    2078:	06040023          	sb	zero,96(s0)
    207c:	b03fe0ef          	jal	ra,b7e <vPortExitCritical>
    2080:	8526                	mv	a0,s1
    2082:	cc0fe06f          	j	542 <__riscv_restore_0>
    2086:	4585                	li	a1,1
    2088:	8526                	mv	a0,s1
    208a:	d4cff0ef          	jal	ra,15d6 <prvAddCurrentTaskToDelayedList>
    208e:	e000e7b7          	lui	a5,0xe000e
    2092:	6711                	lui	a4,0x4
    2094:	20e7a023          	sw	a4,512(a5) # e000e200 <__freertos_irq_stack_top+0xc0009200>
    2098:	b74d                	j	203a <ulTaskGenericNotifyTake+0x5c>
    209a:	200007b7          	lui	a5,0x20000
    209e:	0c87a783          	lw	a5,200(a5) # 200000c8 <pxCurrentTCB>
    20a2:	fff48713          	addi	a4,s1,-1
    20a6:	01440693          	addi	a3,s0,20
    20aa:	068a                	slli	a3,a3,0x2
    20ac:	97b6                	add	a5,a5,a3
    20ae:	c7d8                	sw	a4,12(a5)
    20b0:	bf7d                	j	206e <ulTaskGenericNotifyTake+0x90>

000020b2 <xTaskGenericNotify>:
    20b2:	c52fe2ef          	jal	t0,504 <__riscv_save_4>
    20b6:	e5b1                	bnez	a1,2102 <xTaskGenericNotify+0x50>
    20b8:	84aa                	mv	s1,a0
    20ba:	842e                	mv	s0,a1
    20bc:	89b2                	mv	s3,a2
    20be:	8936                	mv	s2,a3
    20c0:	8a3a                	mv	s4,a4
    20c2:	c13d                	beqz	a0,2128 <xTaskGenericNotify+0x76>
    20c4:	aa1fe0ef          	jal	ra,b64 <vPortEnterCritical>
    20c8:	000a0963          	beqz	s4,20da <xTaskGenericNotify+0x28>
    20cc:	01440793          	addi	a5,s0,20
    20d0:	078a                	slli	a5,a5,0x2
    20d2:	97a6                	add	a5,a5,s1
    20d4:	47dc                	lw	a5,12(a5)
    20d6:	00fa2023          	sw	a5,0(s4)
    20da:	008487b3          	add	a5,s1,s0
    20de:	0607c703          	lbu	a4,96(a5)
    20e2:	0ff77713          	andi	a4,a4,255
    20e6:	4689                	li	a3,2
    20e8:	06d78023          	sb	a3,96(a5)
    20ec:	4791                	li	a5,4
    20ee:	0b27e763          	bltu	a5,s2,219c <xTaskGenericNotify+0xea>
    20f2:	00291793          	slli	a5,s2,0x2
    20f6:	66b5                	lui	a3,0xd
    20f8:	65868693          	addi	a3,a3,1624 # d658 <_read+0xc2>
    20fc:	97b6                	add	a5,a5,a3
    20fe:	439c                	lw	a5,0(a5)
    2100:	8782                	jr	a5
    2102:	6789                	lui	a5,0x2
    2104:	80078793          	addi	a5,a5,-2048 # 1800 <xTaskIncrementTick+0x66>
    2108:	30079073          	csrw	mstatus,a5
    210c:	0000d637          	lui	a2,0xd
    2110:	66c60613          	addi	a2,a2,1644 # d66c <_read+0xd6>
    2114:	6585                	lui	a1,0x1
    2116:	30858593          	addi	a1,a1,776 # 1308 <prvResetNextTaskUnblockTime+0x14>
    211a:	0000d537          	lui	a0,0xd
    211e:	5dc50513          	addi	a0,a0,1500 # d5dc <_read+0x46>
    2122:	3720a0ef          	jal	ra,c494 <iprintf>
    2126:	a001                	j	2126 <xTaskGenericNotify+0x74>
    2128:	6789                	lui	a5,0x2
    212a:	80078793          	addi	a5,a5,-2048 # 1800 <xTaskIncrementTick+0x66>
    212e:	30079073          	csrw	mstatus,a5
    2132:	0000d637          	lui	a2,0xd
    2136:	66c60613          	addi	a2,a2,1644 # d66c <_read+0xd6>
    213a:	6585                	lui	a1,0x1
    213c:	30958593          	addi	a1,a1,777 # 1309 <prvResetNextTaskUnblockTime+0x15>
    2140:	0000d537          	lui	a0,0xd
    2144:	5dc50513          	addi	a0,a0,1500 # d5dc <_read+0x46>
    2148:	34c0a0ef          	jal	ra,c494 <iprintf>
    214c:	a001                	j	214c <xTaskGenericNotify+0x9a>
    214e:	01440793          	addi	a5,s0,20
    2152:	078a                	slli	a5,a5,0x2
    2154:	97a6                	add	a5,a5,s1
    2156:	47d4                	lw	a3,12(a5)
    2158:	0136e9b3          	or	s3,a3,s3
    215c:	0137a623          	sw	s3,12(a5)
    2160:	4405                	li	s0,1
    2162:	a885                	j	21d2 <xTaskGenericNotify+0x120>
    2164:	01440793          	addi	a5,s0,20
    2168:	078a                	slli	a5,a5,0x2
    216a:	97a6                	add	a5,a5,s1
    216c:	47d4                	lw	a3,12(a5)
    216e:	0685                	addi	a3,a3,1
    2170:	c7d4                	sw	a3,12(a5)
    2172:	4405                	li	s0,1
    2174:	a8b9                	j	21d2 <xTaskGenericNotify+0x120>
    2176:	01440793          	addi	a5,s0,20
    217a:	078a                	slli	a5,a5,0x2
    217c:	97a6                	add	a5,a5,s1
    217e:	0137a623          	sw	s3,12(a5)
    2182:	4405                	li	s0,1
    2184:	a0b9                	j	21d2 <xTaskGenericNotify+0x120>
    2186:	4789                	li	a5,2
    2188:	0ef70763          	beq	a4,a5,2276 <xTaskGenericNotify+0x1c4>
    218c:	01440793          	addi	a5,s0,20
    2190:	078a                	slli	a5,a5,0x2
    2192:	97a6                	add	a5,a5,s1
    2194:	0137a623          	sw	s3,12(a5)
    2198:	4405                	li	s0,1
    219a:	a825                	j	21d2 <xTaskGenericNotify+0x120>
    219c:	200007b7          	lui	a5,0x20000
    21a0:	0fc7a783          	lw	a5,252(a5) # 200000fc <xTickCount>
    21a4:	e399                	bnez	a5,21aa <xTaskGenericNotify+0xf8>
    21a6:	4405                	li	s0,1
    21a8:	a02d                	j	21d2 <xTaskGenericNotify+0x120>
    21aa:	6789                	lui	a5,0x2
    21ac:	80078793          	addi	a5,a5,-2048 # 1800 <xTaskIncrementTick+0x66>
    21b0:	30079073          	csrw	mstatus,a5
    21b4:	0000d637          	lui	a2,0xd
    21b8:	66c60613          	addi	a2,a2,1644 # d66c <_read+0xd6>
    21bc:	6585                	lui	a1,0x1
    21be:	33e58593          	addi	a1,a1,830 # 133e <prvInitialiseNewTask+0x6>
    21c2:	0000d537          	lui	a0,0xd
    21c6:	5dc50513          	addi	a0,a0,1500 # d5dc <_read+0x46>
    21ca:	2ca0a0ef          	jal	ra,c494 <iprintf>
    21ce:	a001                	j	21ce <xTaskGenericNotify+0x11c>
    21d0:	4405                	li	s0,1
    21d2:	4785                	li	a5,1
    21d4:	0cf71363          	bne	a4,a5,229a <xTaskGenericNotify+0x1e8>
    21d8:	48dc                	lw	a5,20(s1)
    21da:	4498                	lw	a4,8(s1)
    21dc:	44d4                	lw	a3,12(s1)
    21de:	c714                	sw	a3,8(a4)
    21e0:	44d8                	lw	a4,12(s1)
    21e2:	4494                	lw	a3,8(s1)
    21e4:	c354                	sw	a3,4(a4)
    21e6:	43d8                	lw	a4,4(a5)
    21e8:	00448613          	addi	a2,s1,4
    21ec:	08c70763          	beq	a4,a2,227a <xTaskGenericNotify+0x1c8>
    21f0:	0004aa23          	sw	zero,20(s1)
    21f4:	4398                	lw	a4,0(a5)
    21f6:	177d                	addi	a4,a4,-1
    21f8:	c398                	sw	a4,0(a5)
    21fa:	54d8                	lw	a4,44(s1)
    21fc:	200007b7          	lui	a5,0x20000
    2200:	0e47a783          	lw	a5,228(a5) # 200000e4 <uxTopReadyPriority>
    2204:	00e7f663          	bgeu	a5,a4,2210 <xTaskGenericNotify+0x15e>
    2208:	200007b7          	lui	a5,0x20000
    220c:	0ee7a223          	sw	a4,228(a5) # 200000e4 <uxTopReadyPriority>
    2210:	200037b7          	lui	a5,0x20003
    2214:	1bc78793          	addi	a5,a5,444 # 200031bc <pxReadyTasksLists>
    2218:	00271693          	slli	a3,a4,0x2
    221c:	96ba                	add	a3,a3,a4
    221e:	00269713          	slli	a4,a3,0x2
    2222:	973e                	add	a4,a4,a5
    2224:	4358                	lw	a4,4(a4)
    2226:	c498                	sw	a4,8(s1)
    2228:	4714                	lw	a3,8(a4)
    222a:	c4d4                	sw	a3,12(s1)
    222c:	c2d0                	sw	a2,4(a3)
    222e:	c710                	sw	a2,8(a4)
    2230:	54d0                	lw	a2,44(s1)
    2232:	00261713          	slli	a4,a2,0x2
    2236:	00c705b3          	add	a1,a4,a2
    223a:	00259693          	slli	a3,a1,0x2
    223e:	85b6                	mv	a1,a3
    2240:	96be                	add	a3,a3,a5
    2242:	c8d4                	sw	a3,20(s1)
    2244:	4294                	lw	a3,0(a3)
    2246:	0685                	addi	a3,a3,1
    2248:	97ae                	add	a5,a5,a1
    224a:	c394                	sw	a3,0(a5)
    224c:	549c                	lw	a5,40(s1)
    224e:	cb8d                	beqz	a5,2280 <xTaskGenericNotify+0x1ce>
    2250:	6789                	lui	a5,0x2
    2252:	80078793          	addi	a5,a5,-2048 # 1800 <xTaskIncrementTick+0x66>
    2256:	30079073          	csrw	mstatus,a5
    225a:	0000d637          	lui	a2,0xd
    225e:	66c60613          	addi	a2,a2,1644 # d66c <_read+0xd6>
    2262:	6585                	lui	a1,0x1
    2264:	34d58593          	addi	a1,a1,845 # 134d <prvInitialiseNewTask+0x15>
    2268:	0000d537          	lui	a0,0xd
    226c:	5dc50513          	addi	a0,a0,1500 # d5dc <_read+0x46>
    2270:	2240a0ef          	jal	ra,c494 <iprintf>
    2274:	a001                	j	2274 <xTaskGenericNotify+0x1c2>
    2276:	4401                	li	s0,0
    2278:	bfa9                	j	21d2 <xTaskGenericNotify+0x120>
    227a:	44d8                	lw	a4,12(s1)
    227c:	c3d8                	sw	a4,4(a5)
    227e:	bf8d                	j	21f0 <xTaskGenericNotify+0x13e>
    2280:	54d8                	lw	a4,44(s1)
    2282:	200007b7          	lui	a5,0x20000
    2286:	0c87a783          	lw	a5,200(a5) # 200000c8 <pxCurrentTCB>
    228a:	57dc                	lw	a5,44(a5)
    228c:	00e7f763          	bgeu	a5,a4,229a <xTaskGenericNotify+0x1e8>
    2290:	e000e7b7          	lui	a5,0xe000e
    2294:	6711                	lui	a4,0x4
    2296:	20e7a023          	sw	a4,512(a5) # e000e200 <__freertos_irq_stack_top+0xc0009200>
    229a:	8e5fe0ef          	jal	ra,b7e <vPortExitCritical>
    229e:	8522                	mv	a0,s0
    22a0:	a98fe06f          	j	538 <__riscv_restore_4>

000022a4 <vTaskGenericNotifyGiveFromISR>:
    22a4:	a7afe2ef          	jal	t0,51e <__riscv_save_0>
    22a8:	c905                	beqz	a0,22d8 <vTaskGenericNotifyGiveFromISR+0x34>
    22aa:	842a                	mv	s0,a0
    22ac:	84ae                	mv	s1,a1
    22ae:	8932                	mv	s2,a2
    22b0:	c5b9                	beqz	a1,22fe <vTaskGenericNotifyGiveFromISR+0x5a>
    22b2:	6789                	lui	a5,0x2
    22b4:	80078793          	addi	a5,a5,-2048 # 1800 <xTaskIncrementTick+0x66>
    22b8:	30079073          	csrw	mstatus,a5
    22bc:	0000d637          	lui	a2,0xd
    22c0:	66c60613          	addi	a2,a2,1644 # d66c <_read+0xd6>
    22c4:	6585                	lui	a1,0x1
    22c6:	40d58593          	addi	a1,a1,1037 # 140d <prvInitialiseTaskLists+0x9>
    22ca:	0000d537          	lui	a0,0xd
    22ce:	5dc50513          	addi	a0,a0,1500 # d5dc <_read+0x46>
    22d2:	1c20a0ef          	jal	ra,c494 <iprintf>
    22d6:	a001                	j	22d6 <vTaskGenericNotifyGiveFromISR+0x32>
    22d8:	6789                	lui	a5,0x2
    22da:	80078793          	addi	a5,a5,-2048 # 1800 <xTaskIncrementTick+0x66>
    22de:	30079073          	csrw	mstatus,a5
    22e2:	0000d637          	lui	a2,0xd
    22e6:	66c60613          	addi	a2,a2,1644 # d66c <_read+0xd6>
    22ea:	6585                	lui	a1,0x1
    22ec:	40c58593          	addi	a1,a1,1036 # 140c <prvInitialiseTaskLists+0x8>
    22f0:	0000d537          	lui	a0,0xd
    22f4:	5dc50513          	addi	a0,a0,1500 # d5dc <_read+0x46>
    22f8:	19c0a0ef          	jal	ra,c494 <iprintf>
    22fc:	a001                	j	22fc <vTaskGenericNotifyGiveFromISR+0x58>
    22fe:	8cbfe0ef          	jal	ra,bc8 <xPortSetInterruptMask>
    2302:	009407b3          	add	a5,s0,s1
    2306:	0607c703          	lbu	a4,96(a5)
    230a:	0ff77713          	andi	a4,a4,255
    230e:	4689                	li	a3,2
    2310:	06d78023          	sb	a3,96(a5)
    2314:	01448793          	addi	a5,s1,20
    2318:	078a                	slli	a5,a5,0x2
    231a:	97a2                	add	a5,a5,s0
    231c:	47d4                	lw	a3,12(a5)
    231e:	0685                	addi	a3,a3,1
    2320:	c7d4                	sw	a3,12(a5)
    2322:	4785                	li	a5,1
    2324:	0cf71863          	bne	a4,a5,23f4 <vTaskGenericNotifyGiveFromISR+0x150>
    2328:	541c                	lw	a5,40(s0)
    232a:	c785                	beqz	a5,2352 <vTaskGenericNotifyGiveFromISR+0xae>
    232c:	6789                	lui	a5,0x2
    232e:	80078793          	addi	a5,a5,-2048 # 1800 <xTaskIncrementTick+0x66>
    2332:	30079073          	csrw	mstatus,a5
    2336:	0000d637          	lui	a2,0xd
    233a:	66c60613          	addi	a2,a2,1644 # d66c <_read+0xd6>
    233e:	6585                	lui	a1,0x1
    2340:	43358593          	addi	a1,a1,1075 # 1433 <prvInitialiseTaskLists+0x2f>
    2344:	0000d537          	lui	a0,0xd
    2348:	5dc50513          	addi	a0,a0,1500 # d5dc <_read+0x46>
    234c:	1480a0ef          	jal	ra,c494 <iprintf>
    2350:	a001                	j	2350 <vTaskGenericNotifyGiveFromISR+0xac>
    2352:	200007b7          	lui	a5,0x20000
    2356:	0dc7a783          	lw	a5,220(a5) # 200000dc <uxSchedulerSuspended>
    235a:	e7c5                	bnez	a5,2402 <vTaskGenericNotifyGiveFromISR+0x15e>
    235c:	485c                	lw	a5,20(s0)
    235e:	4418                	lw	a4,8(s0)
    2360:	4454                	lw	a3,12(s0)
    2362:	c714                	sw	a3,8(a4)
    2364:	4458                	lw	a4,12(s0)
    2366:	4414                	lw	a3,8(s0)
    2368:	c354                	sw	a3,4(a4)
    236a:	43d8                	lw	a4,4(a5)
    236c:	00440613          	addi	a2,s0,4
    2370:	08c70663          	beq	a4,a2,23fc <vTaskGenericNotifyGiveFromISR+0x158>
    2374:	00042a23          	sw	zero,20(s0)
    2378:	4398                	lw	a4,0(a5)
    237a:	177d                	addi	a4,a4,-1
    237c:	c398                	sw	a4,0(a5)
    237e:	5458                	lw	a4,44(s0)
    2380:	200007b7          	lui	a5,0x20000
    2384:	0e47a783          	lw	a5,228(a5) # 200000e4 <uxTopReadyPriority>
    2388:	00e7f663          	bgeu	a5,a4,2394 <vTaskGenericNotifyGiveFromISR+0xf0>
    238c:	200007b7          	lui	a5,0x20000
    2390:	0ee7a223          	sw	a4,228(a5) # 200000e4 <uxTopReadyPriority>
    2394:	200037b7          	lui	a5,0x20003
    2398:	1bc78793          	addi	a5,a5,444 # 200031bc <pxReadyTasksLists>
    239c:	00271693          	slli	a3,a4,0x2
    23a0:	96ba                	add	a3,a3,a4
    23a2:	00269713          	slli	a4,a3,0x2
    23a6:	973e                	add	a4,a4,a5
    23a8:	4358                	lw	a4,4(a4)
    23aa:	c418                	sw	a4,8(s0)
    23ac:	4714                	lw	a3,8(a4)
    23ae:	c454                	sw	a3,12(s0)
    23b0:	c2d0                	sw	a2,4(a3)
    23b2:	c710                	sw	a2,8(a4)
    23b4:	5450                	lw	a2,44(s0)
    23b6:	00261713          	slli	a4,a2,0x2
    23ba:	00c705b3          	add	a1,a4,a2
    23be:	00259693          	slli	a3,a1,0x2
    23c2:	85b6                	mv	a1,a3
    23c4:	96be                	add	a3,a3,a5
    23c6:	c854                	sw	a3,20(s0)
    23c8:	4294                	lw	a3,0(a3)
    23ca:	0685                	addi	a3,a3,1
    23cc:	97ae                	add	a5,a5,a1
    23ce:	c394                	sw	a3,0(a5)
    23d0:	5458                	lw	a4,44(s0)
    23d2:	200007b7          	lui	a5,0x20000
    23d6:	0c87a783          	lw	a5,200(a5) # 200000c8 <pxCurrentTCB>
    23da:	57dc                	lw	a5,44(a5)
    23dc:	00e7fc63          	bgeu	a5,a4,23f4 <vTaskGenericNotifyGiveFromISR+0x150>
    23e0:	00090563          	beqz	s2,23ea <vTaskGenericNotifyGiveFromISR+0x146>
    23e4:	4785                	li	a5,1
    23e6:	00f92023          	sw	a5,0(s2)
    23ea:	200007b7          	lui	a5,0x20000
    23ee:	4705                	li	a4,1
    23f0:	10e7a023          	sw	a4,256(a5) # 20000100 <xYieldPending>
    23f4:	fe0fe0ef          	jal	ra,bd4 <vPortClearInterruptMask>
    23f8:	94afe06f          	j	542 <__riscv_restore_0>
    23fc:	4458                	lw	a4,12(s0)
    23fe:	c3d8                	sw	a4,4(a5)
    2400:	bf95                	j	2374 <vTaskGenericNotifyGiveFromISR+0xd0>
    2402:	200037b7          	lui	a5,0x20003
    2406:	27078793          	addi	a5,a5,624 # 20003270 <xPendingReadyList>
    240a:	43d8                	lw	a4,4(a5)
    240c:	cc58                	sw	a4,28(s0)
    240e:	4710                	lw	a2,8(a4)
    2410:	d010                	sw	a2,32(s0)
    2412:	01840693          	addi	a3,s0,24
    2416:	c254                	sw	a3,4(a2)
    2418:	c714                	sw	a3,8(a4)
    241a:	d41c                	sw	a5,40(s0)
    241c:	4398                	lw	a4,0(a5)
    241e:	0705                	addi	a4,a4,1
    2420:	c398                	sw	a4,0(a5)
    2422:	b77d                	j	23d0 <vTaskGenericNotifyGiveFromISR+0x12c>

00002424 <prvGetNextExpireTime>:
    2424:	200007b7          	lui	a5,0x20000
    2428:	1047a703          	lw	a4,260(a5) # 20000104 <pxCurrentTimerList>
    242c:	431c                	lw	a5,0(a4)
    242e:	e799                	bnez	a5,243c <prvGetNextExpireTime+0x18>
    2430:	4785                	li	a5,1
    2432:	c11c                	sw	a5,0(a0)
    2434:	e791                	bnez	a5,2440 <prvGetNextExpireTime+0x1c>
    2436:	475c                	lw	a5,12(a4)
    2438:	4388                	lw	a0,0(a5)
    243a:	8082                	ret
    243c:	4781                	li	a5,0
    243e:	bfd5                	j	2432 <prvGetNextExpireTime+0xe>
    2440:	4501                	li	a0,0
    2442:	8082                	ret

00002444 <prvInsertTimerInActiveList>:
    2444:	8dafe2ef          	jal	t0,51e <__riscv_save_0>
    2448:	c14c                	sw	a1,4(a0)
    244a:	c908                	sw	a0,16(a0)
    244c:	02b66363          	bltu	a2,a1,2472 <prvInsertTimerInActiveList+0x2e>
    2450:	8e15                	sub	a2,a2,a3
    2452:	4d1c                	lw	a5,24(a0)
    2454:	00f66563          	bltu	a2,a5,245e <prvInsertTimerInActiveList+0x1a>
    2458:	4505                	li	a0,1
    245a:	8e8fe06f          	j	542 <__riscv_restore_0>
    245e:	00450593          	addi	a1,a0,4
    2462:	200007b7          	lui	a5,0x20000
    2466:	1087a503          	lw	a0,264(a5) # 20000108 <pxOverflowTimerList>
    246a:	f8afe0ef          	jal	ra,bf4 <vListInsert>
    246e:	4501                	li	a0,0
    2470:	b7ed                	j	245a <prvInsertTimerInActiveList+0x16>
    2472:	00d67463          	bgeu	a2,a3,247a <prvInsertTimerInActiveList+0x36>
    2476:	00d5fc63          	bgeu	a1,a3,248e <prvInsertTimerInActiveList+0x4a>
    247a:	00450593          	addi	a1,a0,4
    247e:	200007b7          	lui	a5,0x20000
    2482:	1047a503          	lw	a0,260(a5) # 20000104 <pxCurrentTimerList>
    2486:	f6efe0ef          	jal	ra,bf4 <vListInsert>
    248a:	4501                	li	a0,0
    248c:	b7f9                	j	245a <prvInsertTimerInActiveList+0x16>
    248e:	4505                	li	a0,1
    2490:	b7e9                	j	245a <prvInsertTimerInActiveList+0x16>

00002492 <prvReloadTimer>:
    2492:	88cfe2ef          	jal	t0,51e <__riscv_save_0>
    2496:	842a                	mv	s0,a0
    2498:	84ae                	mv	s1,a1
    249a:	8932                	mv	s2,a2
    249c:	4c0c                	lw	a1,24(s0)
    249e:	86a6                	mv	a3,s1
    24a0:	864a                	mv	a2,s2
    24a2:	95a6                	add	a1,a1,s1
    24a4:	8522                	mv	a0,s0
    24a6:	3f79                	jal	2444 <prvInsertTimerInActiveList>
    24a8:	c519                	beqz	a0,24b6 <prvReloadTimer+0x24>
    24aa:	4c1c                	lw	a5,24(s0)
    24ac:	94be                	add	s1,s1,a5
    24ae:	501c                	lw	a5,32(s0)
    24b0:	8522                	mv	a0,s0
    24b2:	9782                	jalr	a5
    24b4:	b7e5                	j	249c <prvReloadTimer+0xa>
    24b6:	88cfe06f          	j	542 <__riscv_restore_0>

000024ba <prvProcessExpiredTimer>:
    24ba:	864fe2ef          	jal	t0,51e <__riscv_save_0>
    24be:	84aa                	mv	s1,a0
    24c0:	892e                	mv	s2,a1
    24c2:	200007b7          	lui	a5,0x20000
    24c6:	1047a783          	lw	a5,260(a5) # 20000104 <pxCurrentTimerList>
    24ca:	47dc                	lw	a5,12(a5)
    24cc:	47c0                	lw	s0,12(a5)
    24ce:	00440513          	addi	a0,s0,4
    24d2:	f52fe0ef          	jal	ra,c24 <uxListRemove>
    24d6:	02444783          	lbu	a5,36(s0)
    24da:	0047f713          	andi	a4,a5,4
    24de:	eb09                	bnez	a4,24f0 <prvProcessExpiredTimer+0x36>
    24e0:	9bf9                	andi	a5,a5,-2
    24e2:	02f40223          	sb	a5,36(s0)
    24e6:	501c                	lw	a5,32(s0)
    24e8:	8522                	mv	a0,s0
    24ea:	9782                	jalr	a5
    24ec:	856fe06f          	j	542 <__riscv_restore_0>
    24f0:	864a                	mv	a2,s2
    24f2:	85a6                	mv	a1,s1
    24f4:	8522                	mv	a0,s0
    24f6:	3f71                	jal	2492 <prvReloadTimer>
    24f8:	b7fd                	j	24e6 <prvProcessExpiredTimer+0x2c>

000024fa <prvSwitchTimerLists>:
    24fa:	200007b7          	lui	a5,0x20000
    24fe:	1047a783          	lw	a5,260(a5) # 20000104 <pxCurrentTimerList>
    2502:	4398                	lw	a4,0(a5)
    2504:	cb0d                	beqz	a4,2536 <prvSwitchTimerLists+0x3c>
    2506:	818fe2ef          	jal	t0,51e <__riscv_save_0>
    250a:	47dc                	lw	a5,12(a5)
    250c:	55fd                	li	a1,-1
    250e:	4388                	lw	a0,0(a5)
    2510:	376d                	jal	24ba <prvProcessExpiredTimer>
    2512:	200007b7          	lui	a5,0x20000
    2516:	1047a783          	lw	a5,260(a5) # 20000104 <pxCurrentTimerList>
    251a:	4398                	lw	a4,0(a5)
    251c:	f77d                	bnez	a4,250a <prvSwitchTimerLists+0x10>
    251e:	20000737          	lui	a4,0x20000
    2522:	10870713          	addi	a4,a4,264 # 20000108 <pxOverflowTimerList>
    2526:	4310                	lw	a2,0(a4)
    2528:	200006b7          	lui	a3,0x20000
    252c:	10c6a223          	sw	a2,260(a3) # 20000104 <pxCurrentTimerList>
    2530:	c31c                	sw	a5,0(a4)
    2532:	810fe06f          	j	542 <__riscv_restore_0>
    2536:	20000737          	lui	a4,0x20000
    253a:	10870713          	addi	a4,a4,264 # 20000108 <pxOverflowTimerList>
    253e:	4310                	lw	a2,0(a4)
    2540:	200006b7          	lui	a3,0x20000
    2544:	10c6a223          	sw	a2,260(a3) # 20000104 <pxCurrentTimerList>
    2548:	c31c                	sw	a5,0(a4)
    254a:	8082                	ret

0000254c <prvSampleTimeNow>:
    254c:	fd3fd2ef          	jal	t0,51e <__riscv_save_0>
    2550:	84aa                	mv	s1,a0
    2552:	a3eff0ef          	jal	ra,1790 <xTaskGetTickCount>
    2556:	842a                	mv	s0,a0
    2558:	200007b7          	lui	a5,0x20000
    255c:	10c7a783          	lw	a5,268(a5) # 2000010c <xLastTime.5718>
    2560:	00f56b63          	bltu	a0,a5,2576 <prvSampleTimeNow+0x2a>
    2564:	0004a023          	sw	zero,0(s1)
    2568:	200007b7          	lui	a5,0x20000
    256c:	1087a623          	sw	s0,268(a5) # 2000010c <xLastTime.5718>
    2570:	8522                	mv	a0,s0
    2572:	fd1fd06f          	j	542 <__riscv_restore_0>
    2576:	3751                	jal	24fa <prvSwitchTimerLists>
    2578:	4785                	li	a5,1
    257a:	c09c                	sw	a5,0(s1)
    257c:	b7f5                	j	2568 <prvSampleTimeNow+0x1c>

0000257e <prvProcessTimerOrBlockTask>:
    257e:	fa1fd2ef          	jal	t0,51e <__riscv_save_0>
    2582:	1141                	addi	sp,sp,-16
    2584:	892a                	mv	s2,a0
    2586:	842e                	mv	s0,a1
    2588:	9f8ff0ef          	jal	ra,1780 <vTaskSuspendAll>
    258c:	0068                	addi	a0,sp,12
    258e:	3f7d                	jal	254c <prvSampleTimeNow>
    2590:	47b2                	lw	a5,12(sp)
    2592:	e7b9                	bnez	a5,25e0 <prvProcessTimerOrBlockTask+0x62>
    2594:	84aa                	mv	s1,a0
    2596:	e019                	bnez	s0,259c <prvProcessTimerOrBlockTask+0x1e>
    2598:	03257c63          	bgeu	a0,s2,25d0 <prvProcessTimerOrBlockTask+0x52>
    259c:	c801                	beqz	s0,25ac <prvProcessTimerOrBlockTask+0x2e>
    259e:	200007b7          	lui	a5,0x20000
    25a2:	1087a783          	lw	a5,264(a5) # 20000108 <pxOverflowTimerList>
    25a6:	439c                	lw	a5,0(a5)
    25a8:	eb95                	bnez	a5,25dc <prvProcessTimerOrBlockTask+0x5e>
    25aa:	4405                	li	s0,1
    25ac:	8622                	mv	a2,s0
    25ae:	409905b3          	sub	a1,s2,s1
    25b2:	200007b7          	lui	a5,0x20000
    25b6:	1107a503          	lw	a0,272(a5) # 20000110 <xTimerQueue>
    25ba:	ce5fe0ef          	jal	ra,129e <vQueueWaitForMessageRestricted>
    25be:	b9eff0ef          	jal	ra,195c <xTaskResumeAll>
    25c2:	e10d                	bnez	a0,25e4 <prvProcessTimerOrBlockTask+0x66>
    25c4:	e000e7b7          	lui	a5,0xe000e
    25c8:	6711                	lui	a4,0x4
    25ca:	20e7a023          	sw	a4,512(a5) # e000e200 <__freertos_irq_stack_top+0xc0009200>
    25ce:	a819                	j	25e4 <prvProcessTimerOrBlockTask+0x66>
    25d0:	b8cff0ef          	jal	ra,195c <xTaskResumeAll>
    25d4:	85a6                	mv	a1,s1
    25d6:	854a                	mv	a0,s2
    25d8:	35cd                	jal	24ba <prvProcessExpiredTimer>
    25da:	a029                	j	25e4 <prvProcessTimerOrBlockTask+0x66>
    25dc:	4401                	li	s0,0
    25de:	b7f9                	j	25ac <prvProcessTimerOrBlockTask+0x2e>
    25e0:	b7cff0ef          	jal	ra,195c <xTaskResumeAll>
    25e4:	0141                	addi	sp,sp,16
    25e6:	f5dfd06f          	j	542 <__riscv_restore_0>

000025ea <prvProcessReceivedCommands>:
    25ea:	f35fd2ef          	jal	t0,51e <__riscv_save_0>
    25ee:	1101                	addi	sp,sp,-32
    25f0:	a021                	j	25f8 <prvProcessReceivedCommands+0xe>
    25f2:	47c2                	lw	a5,16(sp)
    25f4:	0207d463          	bgez	a5,261c <prvProcessReceivedCommands+0x32>
    25f8:	4601                	li	a2,0
    25fa:	080c                	addi	a1,sp,16
    25fc:	200007b7          	lui	a5,0x20000
    2600:	1107a503          	lw	a0,272(a5) # 20000110 <xTimerQueue>
    2604:	a77fe0ef          	jal	ra,107a <xQueueReceive>
    2608:	0e050463          	beqz	a0,26f0 <prvProcessReceivedCommands+0x106>
    260c:	47c2                	lw	a5,16(sp)
    260e:	fe07d2e3          	bgez	a5,25f2 <prvProcessReceivedCommands+0x8>
    2612:	45f2                	lw	a1,28(sp)
    2614:	4562                	lw	a0,24(sp)
    2616:	47d2                	lw	a5,20(sp)
    2618:	9782                	jalr	a5
    261a:	bfe1                	j	25f2 <prvProcessReceivedCommands+0x8>
    261c:	4462                	lw	s0,24(sp)
    261e:	485c                	lw	a5,20(s0)
    2620:	c789                	beqz	a5,262a <prvProcessReceivedCommands+0x40>
    2622:	00440513          	addi	a0,s0,4
    2626:	dfefe0ef          	jal	ra,c24 <uxListRemove>
    262a:	0068                	addi	a0,sp,12
    262c:	3705                	jal	254c <prvSampleTimeNow>
    262e:	84aa                	mv	s1,a0
    2630:	47c2                	lw	a5,16(sp)
    2632:	4725                	li	a4,9
    2634:	fcf762e3          	bltu	a4,a5,25f8 <prvProcessReceivedCommands+0xe>
    2638:	078a                	slli	a5,a5,0x2
    263a:	6735                	lui	a4,0xd
    263c:	69870713          	addi	a4,a4,1688 # d698 <_read+0x102>
    2640:	97ba                	add	a5,a5,a4
    2642:	439c                	lw	a5,0(a5)
    2644:	8782                	jr	a5
    2646:	02444783          	lbu	a5,36(s0)
    264a:	0017e793          	ori	a5,a5,1
    264e:	02f40223          	sb	a5,36(s0)
    2652:	47d2                	lw	a5,20(sp)
    2654:	4c0c                	lw	a1,24(s0)
    2656:	86be                	mv	a3,a5
    2658:	862a                	mv	a2,a0
    265a:	95be                	add	a1,a1,a5
    265c:	8522                	mv	a0,s0
    265e:	33dd                	jal	2444 <prvInsertTimerInActiveList>
    2660:	dd41                	beqz	a0,25f8 <prvProcessReceivedCommands+0xe>
    2662:	02444783          	lbu	a5,36(s0)
    2666:	0047f713          	andi	a4,a5,4
    266a:	eb01                	bnez	a4,267a <prvProcessReceivedCommands+0x90>
    266c:	9bf9                	andi	a5,a5,-2
    266e:	02f40223          	sb	a5,36(s0)
    2672:	501c                	lw	a5,32(s0)
    2674:	8522                	mv	a0,s0
    2676:	9782                	jalr	a5
    2678:	b741                	j	25f8 <prvProcessReceivedCommands+0xe>
    267a:	4c1c                	lw	a5,24(s0)
    267c:	8626                	mv	a2,s1
    267e:	45d2                	lw	a1,20(sp)
    2680:	95be                	add	a1,a1,a5
    2682:	8522                	mv	a0,s0
    2684:	3539                	jal	2492 <prvReloadTimer>
    2686:	b7f5                	j	2672 <prvProcessReceivedCommands+0x88>
    2688:	02444783          	lbu	a5,36(s0)
    268c:	9bf9                	andi	a5,a5,-2
    268e:	02f40223          	sb	a5,36(s0)
    2692:	b79d                	j	25f8 <prvProcessReceivedCommands+0xe>
    2694:	02444783          	lbu	a5,36(s0)
    2698:	0017e793          	ori	a5,a5,1
    269c:	02f40223          	sb	a5,36(s0)
    26a0:	45d2                	lw	a1,20(sp)
    26a2:	cc0c                	sw	a1,24(s0)
    26a4:	c599                	beqz	a1,26b2 <prvProcessReceivedCommands+0xc8>
    26a6:	86aa                	mv	a3,a0
    26a8:	862a                	mv	a2,a0
    26aa:	95aa                	add	a1,a1,a0
    26ac:	8522                	mv	a0,s0
    26ae:	3b59                	jal	2444 <prvInsertTimerInActiveList>
    26b0:	b7a1                	j	25f8 <prvProcessReceivedCommands+0xe>
    26b2:	6789                	lui	a5,0x2
    26b4:	80078793          	addi	a5,a5,-2048 # 1800 <xTaskIncrementTick+0x66>
    26b8:	30079073          	csrw	mstatus,a5
    26bc:	0000d637          	lui	a2,0xd
    26c0:	6c860613          	addi	a2,a2,1736 # d6c8 <_read+0x132>
    26c4:	35900593          	li	a1,857
    26c8:	0000d537          	lui	a0,0xd
    26cc:	5dc50513          	addi	a0,a0,1500 # d5dc <_read+0x46>
    26d0:	5c5090ef          	jal	ra,c494 <iprintf>
    26d4:	a001                	j	26d4 <prvProcessReceivedCommands+0xea>
    26d6:	02444783          	lbu	a5,36(s0)
    26da:	0027f713          	andi	a4,a5,2
    26de:	c709                	beqz	a4,26e8 <prvProcessReceivedCommands+0xfe>
    26e0:	9bf9                	andi	a5,a5,-2
    26e2:	02f40223          	sb	a5,36(s0)
    26e6:	bf09                	j	25f8 <prvProcessReceivedCommands+0xe>
    26e8:	8522                	mv	a0,s0
    26ea:	a8efe0ef          	jal	ra,978 <vPortFree>
    26ee:	b729                	j	25f8 <prvProcessReceivedCommands+0xe>
    26f0:	6105                	addi	sp,sp,32
    26f2:	e51fd06f          	j	542 <__riscv_restore_0>

000026f6 <prvTimerTask>:
    26f6:	e29fd2ef          	jal	t0,51e <__riscv_save_0>
    26fa:	1141                	addi	sp,sp,-16
    26fc:	0068                	addi	a0,sp,12
    26fe:	d27ff0ef          	jal	ra,2424 <prvGetNextExpireTime>
    2702:	45b2                	lw	a1,12(sp)
    2704:	3dad                	jal	257e <prvProcessTimerOrBlockTask>
    2706:	35d5                	jal	25ea <prvProcessReceivedCommands>
    2708:	bfd5                	j	26fc <prvTimerTask+0x6>

0000270a <prvCheckForValidListAndQueue>:
    270a:	e15fd2ef          	jal	t0,51e <__riscv_save_0>
    270e:	c56fe0ef          	jal	ra,b64 <vPortEnterCritical>
    2712:	200007b7          	lui	a5,0x20000
    2716:	1107a783          	lw	a5,272(a5) # 20000110 <xTimerQueue>
    271a:	c789                	beqz	a5,2724 <prvCheckForValidListAndQueue+0x1a>
    271c:	c62fe0ef          	jal	ra,b7e <vPortExitCritical>
    2720:	e23fd06f          	j	542 <__riscv_restore_0>
    2724:	20003537          	lui	a0,0x20003
    2728:	2ac50493          	addi	s1,a0,684 # 200032ac <xActiveTimerList1>
    272c:	2ac50513          	addi	a0,a0,684
    2730:	caafe0ef          	jal	ra,bda <vListInitialise>
    2734:	20003537          	lui	a0,0x20003
    2738:	2c050413          	addi	s0,a0,704 # 200032c0 <xActiveTimerList2>
    273c:	2c050513          	addi	a0,a0,704
    2740:	c9afe0ef          	jal	ra,bda <vListInitialise>
    2744:	200007b7          	lui	a5,0x20000
    2748:	1097a223          	sw	s1,260(a5) # 20000104 <pxCurrentTimerList>
    274c:	200007b7          	lui	a5,0x20000
    2750:	1087a423          	sw	s0,264(a5) # 20000108 <pxOverflowTimerList>
    2754:	4601                	li	a2,0
    2756:	45c1                	li	a1,16
    2758:	4511                	li	a0,4
    275a:	f1afe0ef          	jal	ra,e74 <xQueueGenericCreate>
    275e:	200007b7          	lui	a5,0x20000
    2762:	10a7a823          	sw	a0,272(a5) # 20000110 <xTimerQueue>
    2766:	d95d                	beqz	a0,271c <prvCheckForValidListAndQueue+0x12>
    2768:	0000d5b7          	lui	a1,0xd
    276c:	6c058593          	addi	a1,a1,1728 # d6c0 <_read+0x12a>
    2770:	aabfe0ef          	jal	ra,121a <vQueueAddToRegistry>
    2774:	b765                	j	271c <prvCheckForValidListAndQueue+0x12>

00002776 <xTimerCreateTimerTask>:
    2776:	da9fd2ef          	jal	t0,51e <__riscv_save_0>
    277a:	3f41                	jal	270a <prvCheckForValidListAndQueue>
    277c:	200007b7          	lui	a5,0x20000
    2780:	1107a783          	lw	a5,272(a5) # 20000110 <xTimerQueue>
    2784:	c785                	beqz	a5,27ac <xTimerCreateTimerTask+0x36>
    2786:	200007b7          	lui	a5,0x20000
    278a:	11478793          	addi	a5,a5,276 # 20000114 <xTimerTaskHandle>
    278e:	4719                	li	a4,6
    2790:	4681                	li	a3,0
    2792:	10000613          	li	a2,256
    2796:	0000d5b7          	lui	a1,0xd
    279a:	6ec58593          	addi	a1,a1,1772 # d6ec <_read+0x156>
    279e:	00002537          	lui	a0,0x2
    27a2:	6f650513          	addi	a0,a0,1782 # 26f6 <prvTimerTask>
    27a6:	eebfe0ef          	jal	ra,1690 <xTaskCreate>
    27aa:	e11d                	bnez	a0,27d0 <xTimerCreateTimerTask+0x5a>
    27ac:	6789                	lui	a5,0x2
    27ae:	80078793          	addi	a5,a5,-2048 # 1800 <xTaskIncrementTick+0x66>
    27b2:	30079073          	csrw	mstatus,a5
    27b6:	0000d637          	lui	a2,0xd
    27ba:	6c860613          	addi	a2,a2,1736 # d6c8 <_read+0x132>
    27be:	11900593          	li	a1,281
    27c2:	0000d537          	lui	a0,0xd
    27c6:	5dc50513          	addi	a0,a0,1500 # d5dc <_read+0x46>
    27ca:	4cb090ef          	jal	ra,c494 <iprintf>
    27ce:	a001                	j	27ce <xTimerCreateTimerTask+0x58>
    27d0:	d73fd06f          	j	542 <__riscv_restore_0>

000027d4 <compute_azimuth>:
    27d4:	d4bfd2ef          	jal	t0,51e <__riscv_save_0>
    27d8:	892a                	mv	s2,a0
    27da:	852e                	mv	a0,a1
    27dc:	7c6090ef          	jal	ra,bfa2 <__extendsfdf2>
    27e0:	842a                	mv	s0,a0
    27e2:	84ae                	mv	s1,a1
    27e4:	854a                	mv	a0,s2
    27e6:	7bc090ef          	jal	ra,bfa2 <__extendsfdf2>
    27ea:	8622                	mv	a2,s0
    27ec:	86a6                	mv	a3,s1
    27ee:	7d3030ef          	jal	ra,67c0 <atan2>
    27f2:	05d090ef          	jal	ra,c04e <__truncdfsf2>
    27f6:	0000d7b7          	lui	a5,0xd
    27fa:	7107a583          	lw	a1,1808(a5) # d710 <_read+0x17a>
    27fe:	089080ef          	jal	ra,b086 <__addsf3>
    2802:	7a0090ef          	jal	ra,bfa2 <__extendsfdf2>
    2806:	0000d7b7          	lui	a5,0xd
    280a:	7187a603          	lw	a2,1816(a5) # d718 <_read+0x182>
    280e:	71c7a683          	lw	a3,1820(a5)
    2812:	301070ef          	jal	ra,a312 <__muldf3>
    2816:	039090ef          	jal	ra,c04e <__truncdfsf2>
    281a:	d29fd06f          	j	542 <__riscv_restore_0>

0000281e <kalman_filter>:
    281e:	ce7fd2ef          	jal	t0,504 <__riscv_save_4>
    2822:	84aa                	mv	s1,a0
    2824:	842e                	mv	s0,a1
    2826:	8ab6                	mv	s5,a3
    2828:	893a                	mv	s2,a4
    282a:	8a3e                	mv	s4,a5
    282c:	89c2                	mv	s3,a6
    282e:	00052b03          	lw	s6,0(a0)
    2832:	85b2                	mv	a1,a2
    2834:	853a                	mv	a0,a4
    2836:	6f3080ef          	jal	ra,b728 <__mulsf3>
    283a:	85aa                	mv	a1,a0
    283c:	855a                	mv	a0,s6
    283e:	049080ef          	jal	ra,b086 <__addsf3>
    2842:	c088                	sw	a0,0(s1)
    2844:	00042b03          	lw	s6,0(s0)
    2848:	85ca                	mv	a1,s2
    284a:	854a                	mv	a0,s2
    284c:	6dd080ef          	jal	ra,b728 <__mulsf3>
    2850:	85d2                	mv	a1,s4
    2852:	6d7080ef          	jal	ra,b728 <__mulsf3>
    2856:	85d2                	mv	a1,s4
    2858:	6d1080ef          	jal	ra,b728 <__mulsf3>
    285c:	85aa                	mv	a1,a0
    285e:	855a                	mv	a0,s6
    2860:	027080ef          	jal	ra,b086 <__addsf3>
    2864:	892a                	mv	s2,a0
    2866:	c008                	sw	a0,0(s0)
    2868:	85ce                	mv	a1,s3
    286a:	854e                	mv	a0,s3
    286c:	6bd080ef          	jal	ra,b728 <__mulsf3>
    2870:	85aa                	mv	a1,a0
    2872:	854a                	mv	a0,s2
    2874:	013080ef          	jal	ra,b086 <__addsf3>
    2878:	85aa                	mv	a1,a0
    287a:	854a                	mv	a0,s2
    287c:	375080ef          	jal	ra,b3f0 <__divsf3>
    2880:	892a                	mv	s2,a0
    2882:	0004a983          	lw	s3,0(s1)
    2886:	85ce                	mv	a1,s3
    2888:	8556                	mv	a0,s5
    288a:	132090ef          	jal	ra,b9bc <__subsf3>
    288e:	85ca                	mv	a1,s2
    2890:	699080ef          	jal	ra,b728 <__mulsf3>
    2894:	85aa                	mv	a1,a0
    2896:	854e                	mv	a0,s3
    2898:	7ee080ef          	jal	ra,b086 <__addsf3>
    289c:	c088                	sw	a0,0(s1)
    289e:	85ca                	mv	a1,s2
    28a0:	0000d7b7          	lui	a5,0xd
    28a4:	7207a503          	lw	a0,1824(a5) # d720 <_read+0x18a>
    28a8:	114090ef          	jal	ra,b9bc <__subsf3>
    28ac:	400c                	lw	a1,0(s0)
    28ae:	67b080ef          	jal	ra,b728 <__mulsf3>
    28b2:	c008                	sw	a0,0(s0)
    28b4:	c85fd06f          	j	538 <__riscv_restore_4>

000028b8 <kalman_filter_2d>:
    28b8:	c3ffd2ef          	jal	t0,4f6 <__riscv_save_10>
    28bc:	7179                	addi	sp,sp,-48
    28be:	8c2a                	mv	s8,a0
    28c0:	200034b7          	lui	s1,0x20003
    28c4:	34c48b93          	addi	s7,s1,844 # 2000334c <S>
    28c8:	20003937          	lui	s2,0x20003
    28cc:	1050                	addi	a2,sp,36
    28ce:	34c48593          	addi	a1,s1,844
    28d2:	2d490513          	addi	a0,s2,724 # 200032d4 <F>
    28d6:	790000ef          	jal	ra,3066 <matrix_multiply>
    28da:	0830                	addi	a2,sp,24
    28dc:	200035b7          	lui	a1,0x20003
    28e0:	35858593          	addi	a1,a1,856 # 20003358 <U>
    28e4:	20003537          	lui	a0,0x20003
    28e8:	2e050513          	addi	a0,a0,736 # 200032e0 <G>
    28ec:	77a000ef          	jal	ra,3066 <matrix_multiply>
    28f0:	34c48613          	addi	a2,s1,844
    28f4:	082c                	addi	a1,sp,24
    28f6:	1048                	addi	a0,sp,36
    28f8:	63e000ef          	jal	ra,2f36 <matrix_add>
    28fc:	5512                	lw	a0,36(sp)
    28fe:	143090ef          	jal	ra,c240 <free>
    2902:	4562                	lw	a0,24(sp)
    2904:	13d090ef          	jal	ra,c240 <free>
    2908:	20003437          	lui	s0,0x20003
    290c:	32840b13          	addi	s6,s0,808 # 20003328 <P>
    2910:	1050                	addi	a2,sp,36
    2912:	32840593          	addi	a1,s0,808
    2916:	2d490513          	addi	a0,s2,724
    291a:	74c000ef          	jal	ra,3066 <matrix_multiply>
    291e:	006c                	addi	a1,sp,12
    2920:	2d490513          	addi	a0,s2,724
    2924:	7fc000ef          	jal	ra,3120 <matrix_transpose>
    2928:	0830                	addi	a2,sp,24
    292a:	006c                	addi	a1,sp,12
    292c:	1048                	addi	a0,sp,36
    292e:	738000ef          	jal	ra,3066 <matrix_multiply>
    2932:	32840613          	addi	a2,s0,808
    2936:	200035b7          	lui	a1,0x20003
    293a:	33458593          	addi	a1,a1,820 # 20003334 <Q>
    293e:	0828                	addi	a0,sp,24
    2940:	5f6000ef          	jal	ra,2f36 <matrix_add>
    2944:	5512                	lw	a0,36(sp)
    2946:	0fb090ef          	jal	ra,c240 <free>
    294a:	4562                	lw	a0,24(sp)
    294c:	0f5090ef          	jal	ra,c240 <free>
    2950:	20003a37          	lui	s4,0x20003
    2954:	858a                	mv	a1,sp
    2956:	2eca0513          	addi	a0,s4,748 # 200032ec <H>
    295a:	7c6000ef          	jal	ra,3120 <matrix_transpose>
    295e:	1050                	addi	a2,sp,36
    2960:	32840593          	addi	a1,s0,808
    2964:	2eca0513          	addi	a0,s4,748
    2968:	6fe000ef          	jal	ra,3066 <matrix_multiply>
    296c:	0830                	addi	a2,sp,24
    296e:	858a                	mv	a1,sp
    2970:	1048                	addi	a0,sp,36
    2972:	6f4000ef          	jal	ra,3066 <matrix_multiply>
    2976:	20003ab7          	lui	s5,0x20003
    297a:	310a8993          	addi	s3,s5,784 # 20003310 <L>
    297e:	310a8613          	addi	a2,s5,784
    2982:	200035b7          	lui	a1,0x20003
    2986:	34058593          	addi	a1,a1,832 # 20003340 <R>
    298a:	0828                	addi	a0,sp,24
    298c:	5aa000ef          	jal	ra,2f36 <matrix_add>
    2990:	5512                	lw	a0,36(sp)
    2992:	0af090ef          	jal	ra,c240 <free>
    2996:	4562                	lw	a0,24(sp)
    2998:	0a9090ef          	jal	ra,c240 <free>
    299c:	0009a983          	lw	s3,0(s3)
    29a0:	0009a583          	lw	a1,0(s3)
    29a4:	0000d7b7          	lui	a5,0xd
    29a8:	7207a503          	lw	a0,1824(a5) # d720 <_read+0x18a>
    29ac:	245080ef          	jal	ra,b3f0 <__divsf3>
    29b0:	00a9a023          	sw	a0,0(s3)
    29b4:	1050                	addi	a2,sp,36
    29b6:	858a                	mv	a1,sp
    29b8:	32840513          	addi	a0,s0,808
    29bc:	6aa000ef          	jal	ra,3066 <matrix_multiply>
    29c0:	200039b7          	lui	s3,0x20003
    29c4:	30498613          	addi	a2,s3,772 # 20003304 <K>
    29c8:	310a8593          	addi	a1,s5,784
    29cc:	1048                	addi	a0,sp,36
    29ce:	698000ef          	jal	ra,3066 <matrix_multiply>
    29d2:	5512                	lw	a0,36(sp)
    29d4:	06d090ef          	jal	ra,c240 <free>
    29d8:	20003ab7          	lui	s5,0x20003
    29dc:	31caa783          	lw	a5,796(s5) # 2000331c <M>
    29e0:	0187a023          	sw	s8,0(a5)
    29e4:	1050                	addi	a2,sp,36
    29e6:	34c48593          	addi	a1,s1,844
    29ea:	2eca0513          	addi	a0,s4,748
    29ee:	678000ef          	jal	ra,3066 <matrix_multiply>
    29f2:	0830                	addi	a2,sp,24
    29f4:	104c                	addi	a1,sp,36
    29f6:	31ca8513          	addi	a0,s5,796
    29fa:	5d4000ef          	jal	ra,2fce <matrix_subtract>
    29fe:	5512                	lw	a0,36(sp)
    2a00:	041090ef          	jal	ra,c240 <free>
    2a04:	1050                	addi	a2,sp,36
    2a06:	082c                	addi	a1,sp,24
    2a08:	30498513          	addi	a0,s3,772
    2a0c:	65a000ef          	jal	ra,3066 <matrix_multiply>
    2a10:	4562                	lw	a0,24(sp)
    2a12:	02f090ef          	jal	ra,c240 <free>
    2a16:	0830                	addi	a2,sp,24
    2a18:	104c                	addi	a1,sp,36
    2a1a:	34c48513          	addi	a0,s1,844
    2a1e:	2b21                	jal	2f36 <matrix_add>
    2a20:	000ba503          	lw	a0,0(s7)
    2a24:	01d090ef          	jal	ra,c240 <free>
    2a28:	5512                	lw	a0,36(sp)
    2a2a:	017090ef          	jal	ra,c240 <free>
    2a2e:	47e2                	lw	a5,24(sp)
    2a30:	00fba023          	sw	a5,0(s7)
    2a34:	1050                	addi	a2,sp,36
    2a36:	2d490593          	addi	a1,s2,724
    2a3a:	30498513          	addi	a0,s3,772
    2a3e:	628000ef          	jal	ra,3066 <matrix_multiply>
    2a42:	0830                	addi	a2,sp,24
    2a44:	104c                	addi	a1,sp,36
    2a46:	20003537          	lui	a0,0x20003
    2a4a:	2f850513          	addi	a0,a0,760 # 200032f8 <I>
    2a4e:	2341                	jal	2fce <matrix_subtract>
    2a50:	5512                	lw	a0,36(sp)
    2a52:	7ee090ef          	jal	ra,c240 <free>
    2a56:	1050                	addi	a2,sp,36
    2a58:	32840593          	addi	a1,s0,808
    2a5c:	0828                	addi	a0,sp,24
    2a5e:	608000ef          	jal	ra,3066 <matrix_multiply>
    2a62:	000b2503          	lw	a0,0(s6)
    2a66:	7da090ef          	jal	ra,c240 <free>
    2a6a:	5792                	lw	a5,36(sp)
    2a6c:	00fb2023          	sw	a5,0(s6)
    2a70:	6145                	addi	sp,sp,48
    2a72:	abdfd06f          	j	52e <__riscv_restore_10>

00002a76 <SensorFuseWithKalman>:
    2a76:	a79fd2ef          	jal	t0,4ee <__riscv_save_12>
    2a7a:	1101                	addi	sp,sp,-32
    2a7c:	842a                	mv	s0,a0
    2a7e:	84ae                	mv	s1,a1
    2a80:	4148                	lw	a0,4(a0)
    2a82:	520090ef          	jal	ra,bfa2 <__extendsfdf2>
    2a86:	892a                	mv	s2,a0
    2a88:	89ae                	mv	s3,a1
    2a8a:	400c                	lw	a1,0(s0)
    2a8c:	852e                	mv	a0,a1
    2a8e:	49b080ef          	jal	ra,b728 <__mulsf3>
    2a92:	8a2a                	mv	s4,a0
    2a94:	440c                	lw	a1,8(s0)
    2a96:	852e                	mv	a0,a1
    2a98:	491080ef          	jal	ra,b728 <__mulsf3>
    2a9c:	85aa                	mv	a1,a0
    2a9e:	8552                	mv	a0,s4
    2aa0:	5e6080ef          	jal	ra,b086 <__addsf3>
    2aa4:	4fe090ef          	jal	ra,bfa2 <__extendsfdf2>
    2aa8:	03e040ef          	jal	ra,6ae6 <sqrt>
    2aac:	862a                	mv	a2,a0
    2aae:	86ae                	mv	a3,a1
    2ab0:	854a                	mv	a0,s2
    2ab2:	85ce                	mv	a1,s3
    2ab4:	0dc070ef          	jal	ra,9b90 <__divdf3>
    2ab8:	0a3030ef          	jal	ra,635a <atan>
    2abc:	592090ef          	jal	ra,c04e <__truncdfsf2>
    2ac0:	892a                	mv	s2,a0
    2ac2:	4008                	lw	a0,0(s0)
    2ac4:	4de090ef          	jal	ra,bfa2 <__extendsfdf2>
    2ac8:	8a2a                	mv	s4,a0
    2aca:	8aae                	mv	s5,a1
    2acc:	404c                	lw	a1,4(s0)
    2ace:	852e                	mv	a0,a1
    2ad0:	459080ef          	jal	ra,b728 <__mulsf3>
    2ad4:	89aa                	mv	s3,a0
    2ad6:	440c                	lw	a1,8(s0)
    2ad8:	852e                	mv	a0,a1
    2ada:	44f080ef          	jal	ra,b728 <__mulsf3>
    2ade:	85aa                	mv	a1,a0
    2ae0:	854e                	mv	a0,s3
    2ae2:	5a4080ef          	jal	ra,b086 <__addsf3>
    2ae6:	4bc090ef          	jal	ra,bfa2 <__extendsfdf2>
    2aea:	7fd030ef          	jal	ra,6ae6 <sqrt>
    2aee:	862a                	mv	a2,a0
    2af0:	86ae                	mv	a3,a1
    2af2:	8552                	mv	a0,s4
    2af4:	85d6                	mv	a1,s5
    2af6:	09a070ef          	jal	ra,9b90 <__divdf3>
    2afa:	061030ef          	jal	ra,635a <atan>
    2afe:	550090ef          	jal	ra,c04e <__truncdfsf2>
    2b02:	80000d37          	lui	s10,0x80000
    2b06:	00ad49b3          	xor	s3,s10,a0
    2b0a:	854a                	mv	a0,s2
    2b0c:	496090ef          	jal	ra,bfa2 <__extendsfdf2>
    2b10:	0000d937          	lui	s2,0xd
    2b14:	71892603          	lw	a2,1816(s2) # d718 <_read+0x182>
    2b18:	71c92683          	lw	a3,1820(s2)
    2b1c:	7f6070ef          	jal	ra,a312 <__muldf3>
    2b20:	52e090ef          	jal	ra,c04e <__truncdfsf2>
    2b24:	8a2a                	mv	s4,a0
    2b26:	854e                	mv	a0,s3
    2b28:	47a090ef          	jal	ra,bfa2 <__extendsfdf2>
    2b2c:	71892603          	lw	a2,1816(s2)
    2b30:	71c92683          	lw	a3,1820(s2)
    2b34:	7de070ef          	jal	ra,a312 <__muldf3>
    2b38:	516090ef          	jal	ra,c04e <__truncdfsf2>
    2b3c:	89aa                	mv	s3,a0
    2b3e:	0000d7b7          	lui	a5,0xd
    2b42:	7007a903          	lw	s2,1792(a5) # d700 <_read+0x16a>
    2b46:	0000d7b7          	lui	a5,0xd
    2b4a:	7047ac83          	lw	s9,1796(a5) # d704 <_read+0x16e>
    2b4e:	80818c13          	addi	s8,gp,-2040 # 20000088 <Ts>
    2b52:	884a                	mv	a6,s2
    2b54:	87e6                	mv	a5,s9
    2b56:	000c2703          	lw	a4,0(s8)
    2b5a:	86d2                	mv	a3,s4
    2b5c:	4450                	lw	a2,12(s0)
    2b5e:	01448593          	addi	a1,s1,20
    2b62:	00848513          	addi	a0,s1,8
    2b66:	cb9ff0ef          	jal	ra,281e <kalman_filter>
    2b6a:	884a                	mv	a6,s2
    2b6c:	87e6                	mv	a5,s9
    2b6e:	000c2703          	lw	a4,0(s8)
    2b72:	86ce                	mv	a3,s3
    2b74:	4810                	lw	a2,16(s0)
    2b76:	01c48593          	addi	a1,s1,28
    2b7a:	01048513          	addi	a0,s1,16
    2b7e:	ca1ff0ef          	jal	ra,281e <kalman_filter>
    2b82:	4488                	lw	a0,8(s1)
    2b84:	41e090ef          	jal	ra,bfa2 <__extendsfdf2>
    2b88:	0000d937          	lui	s2,0xd
    2b8c:	70892603          	lw	a2,1800(s2) # d708 <_read+0x172>
    2b90:	70c92683          	lw	a3,1804(s2)
    2b94:	77e070ef          	jal	ra,a312 <__muldf3>
    2b98:	4b6090ef          	jal	ra,c04e <__truncdfsf2>
    2b9c:	89aa                	mv	s3,a0
    2b9e:	4888                	lw	a0,16(s1)
    2ba0:	402090ef          	jal	ra,bfa2 <__extendsfdf2>
    2ba4:	70892603          	lw	a2,1800(s2)
    2ba8:	70c92683          	lw	a3,1804(s2)
    2bac:	766070ef          	jal	ra,a312 <__muldf3>
    2bb0:	49e090ef          	jal	ra,c04e <__truncdfsf2>
    2bb4:	8a2a                	mv	s4,a0
    2bb6:	01842903          	lw	s2,24(s0)
    2bba:	01c42a83          	lw	s5,28(s0)
    2bbe:	02042b03          	lw	s6,32(s0)
    2bc2:	854e                	mv	a0,s3
    2bc4:	3de090ef          	jal	ra,bfa2 <__extendsfdf2>
    2bc8:	c42a                	sw	a0,8(sp)
    2bca:	c62e                	sw	a1,12(sp)
    2bcc:	2c9030ef          	jal	ra,6694 <cos>
    2bd0:	c02a                	sw	a0,0(sp)
    2bd2:	c22e                	sw	a1,4(sp)
    2bd4:	854a                	mv	a0,s2
    2bd6:	3cc090ef          	jal	ra,bfa2 <__extendsfdf2>
    2bda:	4602                	lw	a2,0(sp)
    2bdc:	4692                	lw	a3,4(sp)
    2bde:	734070ef          	jal	ra,a312 <__muldf3>
    2be2:	892a                	mv	s2,a0
    2be4:	89ae                	mv	s3,a1
    2be6:	855a                	mv	a0,s6
    2be8:	3ba090ef          	jal	ra,bfa2 <__extendsfdf2>
    2bec:	8b2a                	mv	s6,a0
    2bee:	8bae                	mv	s7,a1
    2bf0:	4522                	lw	a0,8(sp)
    2bf2:	45b2                	lw	a1,12(sp)
    2bf4:	339030ef          	jal	ra,672c <sin>
    2bf8:	c42a                	sw	a0,8(sp)
    2bfa:	c62e                	sw	a1,12(sp)
    2bfc:	862a                	mv	a2,a0
    2bfe:	86ae                	mv	a3,a1
    2c00:	855a                	mv	a0,s6
    2c02:	85de                	mv	a1,s7
    2c04:	70e070ef          	jal	ra,a312 <__muldf3>
    2c08:	862a                	mv	a2,a0
    2c0a:	86ae                	mv	a3,a1
    2c0c:	854a                	mv	a0,s2
    2c0e:	85ce                	mv	a1,s3
    2c10:	051060ef          	jal	ra,9460 <__adddf3>
    2c14:	43a090ef          	jal	ra,c04e <__truncdfsf2>
    2c18:	8daa                	mv	s11,a0
    2c1a:	8552                	mv	a0,s4
    2c1c:	386090ef          	jal	ra,bfa2 <__extendsfdf2>
    2c20:	c82a                	sw	a0,16(sp)
    2c22:	ca2e                	sw	a1,20(sp)
    2c24:	271030ef          	jal	ra,6694 <cos>
    2c28:	892a                	mv	s2,a0
    2c2a:	89ae                	mv	s3,a1
    2c2c:	8556                	mv	a0,s5
    2c2e:	374090ef          	jal	ra,bfa2 <__extendsfdf2>
    2c32:	864a                	mv	a2,s2
    2c34:	86ce                	mv	a3,s3
    2c36:	6dc070ef          	jal	ra,a312 <__muldf3>
    2c3a:	cc2a                	sw	a0,24(sp)
    2c3c:	ce2e                	sw	a1,28(sp)
    2c3e:	4542                	lw	a0,16(sp)
    2c40:	45d2                	lw	a1,20(sp)
    2c42:	2eb030ef          	jal	ra,672c <sin>
    2c46:	8a2a                	mv	s4,a0
    2c48:	8aae                	mv	s5,a1
    2c4a:	862a                	mv	a2,a0
    2c4c:	86ae                	mv	a3,a1
    2c4e:	855a                	mv	a0,s6
    2c50:	85de                	mv	a1,s7
    2c52:	6c0070ef          	jal	ra,a312 <__muldf3>
    2c56:	862a                	mv	a2,a0
    2c58:	86ae                	mv	a3,a1
    2c5a:	4562                	lw	a0,24(sp)
    2c5c:	45f2                	lw	a1,28(sp)
    2c5e:	003060ef          	jal	ra,9460 <__adddf3>
    2c62:	3ec090ef          	jal	ra,c04e <__truncdfsf2>
    2c66:	85aa                	mv	a1,a0
    2c68:	856e                	mv	a0,s11
    2c6a:	b6bff0ef          	jal	ra,27d4 <compute_azimuth>
    2c6e:	0000d7b7          	lui	a5,0xd
    2c72:	7207a803          	lw	a6,1824(a5) # d720 <_read+0x18a>
    2c76:	87e6                	mv	a5,s9
    2c78:	000c2703          	lw	a4,0(s8)
    2c7c:	86aa                	mv	a3,a0
    2c7e:	4850                	lw	a2,20(s0)
    2c80:	01848593          	addi	a1,s1,24
    2c84:	00c48513          	addi	a0,s1,12
    2c88:	b97ff0ef          	jal	ra,281e <kalman_filter>
    2c8c:	4008                	lw	a0,0(s0)
    2c8e:	00ad4533          	xor	a0,s10,a0
    2c92:	310090ef          	jal	ra,bfa2 <__extendsfdf2>
    2c96:	862a                	mv	a2,a0
    2c98:	86ae                	mv	a3,a1
    2c9a:	8552                	mv	a0,s4
    2c9c:	85d6                	mv	a1,s5
    2c9e:	674070ef          	jal	ra,a312 <__muldf3>
    2ca2:	8a2a                	mv	s4,a0
    2ca4:	8aae                	mv	s5,a1
    2ca6:	4048                	lw	a0,4(s0)
    2ca8:	2fa090ef          	jal	ra,bfa2 <__extendsfdf2>
    2cac:	862a                	mv	a2,a0
    2cae:	86ae                	mv	a3,a1
    2cb0:	4522                	lw	a0,8(sp)
    2cb2:	45b2                	lw	a1,12(sp)
    2cb4:	65e070ef          	jal	ra,a312 <__muldf3>
    2cb8:	862a                	mv	a2,a0
    2cba:	86ae                	mv	a3,a1
    2cbc:	854a                	mv	a0,s2
    2cbe:	85ce                	mv	a1,s3
    2cc0:	652070ef          	jal	ra,a312 <__muldf3>
    2cc4:	862a                	mv	a2,a0
    2cc6:	86ae                	mv	a3,a1
    2cc8:	8552                	mv	a0,s4
    2cca:	85d6                	mv	a1,s5
    2ccc:	794060ef          	jal	ra,9460 <__adddf3>
    2cd0:	8a2a                	mv	s4,a0
    2cd2:	8aae                	mv	s5,a1
    2cd4:	4408                	lw	a0,8(s0)
    2cd6:	2cc090ef          	jal	ra,bfa2 <__extendsfdf2>
    2cda:	862a                	mv	a2,a0
    2cdc:	86ae                	mv	a3,a1
    2cde:	4502                	lw	a0,0(sp)
    2ce0:	4592                	lw	a1,4(sp)
    2ce2:	630070ef          	jal	ra,a312 <__muldf3>
    2ce6:	862a                	mv	a2,a0
    2ce8:	86ae                	mv	a3,a1
    2cea:	854a                	mv	a0,s2
    2cec:	85ce                	mv	a1,s3
    2cee:	624070ef          	jal	ra,a312 <__muldf3>
    2cf2:	862a                	mv	a2,a0
    2cf4:	86ae                	mv	a3,a1
    2cf6:	8552                	mv	a0,s4
    2cf8:	85d6                	mv	a1,s5
    2cfa:	766060ef          	jal	ra,9460 <__adddf3>
    2cfe:	350090ef          	jal	ra,c04e <__truncdfsf2>
    2d02:	000c2583          	lw	a1,0(s8)
    2d06:	223080ef          	jal	ra,b728 <__mulsf3>
    2d0a:	85aa                	mv	a1,a0
    2d0c:	40c8                	lw	a0,4(s1)
    2d0e:	378080ef          	jal	ra,b086 <__addsf3>
    2d12:	c0c8                	sw	a0,4(s1)
    2d14:	5448                	lw	a0,44(s0)
    2d16:	ba3ff0ef          	jal	ra,28b8 <kalman_filter_2d>
    2d1a:	200037b7          	lui	a5,0x20003
    2d1e:	34c78793          	addi	a5,a5,844 # 2000334c <S>
    2d22:	4398                	lw	a4,0(a5)
    2d24:	4318                	lw	a4,0(a4)
    2d26:	c098                	sw	a4,0(s1)
    2d28:	439c                	lw	a5,0(a5)
    2d2a:	43dc                	lw	a5,4(a5)
    2d2c:	c0dc                	sw	a5,4(s1)
    2d2e:	6105                	addi	sp,sp,32
    2d30:	ffafd06f          	j	52a <__riscv_restore_12>

00002d34 <Altitude_Kalman_2D_init>:
    2d34:	fd0fd2ef          	jal	t0,504 <__riscv_save_4>
    2d38:	1141                	addi	sp,sp,-16
    2d3a:	4521                	li	a0,8
    2d3c:	4fa090ef          	jal	ra,c236 <malloc>
    2d40:	86aa                	mv	a3,a0
    2d42:	00000413          	li	s0,0
    2d46:	c100                	sw	s0,0(a0)
    2d48:	c140                	sw	s0,4(a0)
    2d4a:	4605                	li	a2,1
    2d4c:	4589                	li	a1,2
    2d4e:	20003537          	lui	a0,0x20003
    2d52:	34c50513          	addi	a0,a0,844 # 2000334c <S>
    2d56:	2ae1                	jal	2f2e <matrix_create>
    2d58:	4541                	li	a0,16
    2d5a:	4dc090ef          	jal	ra,c236 <malloc>
    2d5e:	86aa                	mv	a3,a0
    2d60:	c100                	sw	s0,0(a0)
    2d62:	c140                	sw	s0,4(a0)
    2d64:	89a2                	mv	s3,s0
    2d66:	c500                	sw	s0,8(a0)
    2d68:	c6c0                	sw	s0,12(a3)
    2d6a:	4609                	li	a2,2
    2d6c:	4589                	li	a1,2
    2d6e:	20003537          	lui	a0,0x20003
    2d72:	32850513          	addi	a0,a0,808 # 20003328 <P>
    2d76:	2a65                	jal	2f2e <matrix_create>
    2d78:	4541                	li	a0,16
    2d7a:	4bc090ef          	jal	ra,c236 <malloc>
    2d7e:	86aa                	mv	a3,a0
    2d80:	0000d7b7          	lui	a5,0xd
    2d84:	7207a403          	lw	s0,1824(a5) # d720 <_read+0x18a>
    2d88:	c100                	sw	s0,0(a0)
    2d8a:	80818493          	addi	s1,gp,-2040 # 20000088 <Ts>
    2d8e:	409c                	lw	a5,0(s1)
    2d90:	c15c                	sw	a5,4(a0)
    2d92:	01352423          	sw	s3,8(a0)
    2d96:	c540                	sw	s0,12(a0)
    2d98:	4609                	li	a2,2
    2d9a:	4589                	li	a1,2
    2d9c:	20003537          	lui	a0,0x20003
    2da0:	2d450513          	addi	a0,a0,724 # 200032d4 <F>
    2da4:	2269                	jal	2f2e <matrix_create>
    2da6:	4521                	li	a0,8
    2da8:	48e090ef          	jal	ra,c236 <malloc>
    2dac:	892a                	mv	s2,a0
    2dae:	4088                	lw	a0,0(s1)
    2db0:	1f2090ef          	jal	ra,bfa2 <__extendsfdf2>
    2db4:	8a2a                	mv	s4,a0
    2db6:	8aae                	mv	s5,a1
    2db8:	0000d7b7          	lui	a5,0xd
    2dbc:	6f87a603          	lw	a2,1784(a5) # d6f8 <_read+0x162>
    2dc0:	6fc7a683          	lw	a3,1788(a5)
    2dc4:	54e070ef          	jal	ra,a312 <__muldf3>
    2dc8:	862a                	mv	a2,a0
    2dca:	86ae                	mv	a3,a1
    2dcc:	8552                	mv	a0,s4
    2dce:	85d6                	mv	a1,s5
    2dd0:	542070ef          	jal	ra,a312 <__muldf3>
    2dd4:	27a090ef          	jal	ra,c04e <__truncdfsf2>
    2dd8:	00a92023          	sw	a0,0(s2)
    2ddc:	409c                	lw	a5,0(s1)
    2dde:	00f92223          	sw	a5,4(s2)
    2de2:	200034b7          	lui	s1,0x20003
    2de6:	86ca                	mv	a3,s2
    2de8:	4605                	li	a2,1
    2dea:	4589                	li	a1,2
    2dec:	2e048513          	addi	a0,s1,736 # 200032e0 <G>
    2df0:	2a3d                	jal	2f2e <matrix_create>
    2df2:	4511                	li	a0,4
    2df4:	442090ef          	jal	ra,c236 <malloc>
    2df8:	86aa                	mv	a3,a0
    2dfa:	894e                	mv	s2,s3
    2dfc:	0136a023          	sw	s3,0(a3)
    2e00:	4605                	li	a2,1
    2e02:	4585                	li	a1,1
    2e04:	20003537          	lui	a0,0x20003
    2e08:	35850513          	addi	a0,a0,856 # 20003358 <U>
    2e0c:	220d                	jal	2f2e <matrix_create>
    2e0e:	4521                	li	a0,8
    2e10:	426090ef          	jal	ra,c236 <malloc>
    2e14:	86aa                	mv	a3,a0
    2e16:	c100                	sw	s0,0(a0)
    2e18:	0136a223          	sw	s3,4(a3)
    2e1c:	4609                	li	a2,2
    2e1e:	4585                	li	a1,1
    2e20:	20003537          	lui	a0,0x20003
    2e24:	2ec50513          	addi	a0,a0,748 # 200032ec <H>
    2e28:	2219                	jal	2f2e <matrix_create>
    2e2a:	004c                	addi	a1,sp,4
    2e2c:	2e048513          	addi	a0,s1,736
    2e30:	2cc5                	jal	3120 <matrix_transpose>
    2e32:	20003637          	lui	a2,0x20003
    2e36:	33460613          	addi	a2,a2,820 # 20003334 <Q>
    2e3a:	004c                	addi	a1,sp,4
    2e3c:	2e048513          	addi	a0,s1,736
    2e40:	241d                	jal	3066 <matrix_multiply>
    2e42:	4511                	li	a0,4
    2e44:	3f2090ef          	jal	ra,c236 <malloc>
    2e48:	86aa                	mv	a3,a0
    2e4a:	0000d7b7          	lui	a5,0xd
    2e4e:	6f47a783          	lw	a5,1780(a5) # d6f4 <_read+0x15e>
    2e52:	c11c                	sw	a5,0(a0)
    2e54:	4605                	li	a2,1
    2e56:	4585                	li	a1,1
    2e58:	20003537          	lui	a0,0x20003
    2e5c:	34050513          	addi	a0,a0,832 # 20003340 <R>
    2e60:	20f9                	jal	2f2e <matrix_create>
    2e62:	4511                	li	a0,4
    2e64:	3d2090ef          	jal	ra,c236 <malloc>
    2e68:	86aa                	mv	a3,a0
    2e6a:	0136a023          	sw	s3,0(a3)
    2e6e:	4605                	li	a2,1
    2e70:	4585                	li	a1,1
    2e72:	20003537          	lui	a0,0x20003
    2e76:	31050513          	addi	a0,a0,784 # 20003310 <L>
    2e7a:	2855                	jal	2f2e <matrix_create>
    2e7c:	4521                	li	a0,8
    2e7e:	3b8090ef          	jal	ra,c236 <malloc>
    2e82:	86aa                	mv	a3,a0
    2e84:	84ce                	mv	s1,s3
    2e86:	0136a023          	sw	s3,0(a3)
    2e8a:	0136a223          	sw	s3,4(a3)
    2e8e:	4605                	li	a2,1
    2e90:	4589                	li	a1,2
    2e92:	20003537          	lui	a0,0x20003
    2e96:	30450513          	addi	a0,a0,772 # 20003304 <K>
    2e9a:	2851                	jal	2f2e <matrix_create>
    2e9c:	4511                	li	a0,4
    2e9e:	398090ef          	jal	ra,c236 <malloc>
    2ea2:	86aa                	mv	a3,a0
    2ea4:	0136a023          	sw	s3,0(a3)
    2ea8:	4605                	li	a2,1
    2eaa:	4585                	li	a1,1
    2eac:	20003537          	lui	a0,0x20003
    2eb0:	31c50513          	addi	a0,a0,796 # 2000331c <M>
    2eb4:	28ad                	jal	2f2e <matrix_create>
    2eb6:	4541                	li	a0,16
    2eb8:	37e090ef          	jal	ra,c236 <malloc>
    2ebc:	86aa                	mv	a3,a0
    2ebe:	c100                	sw	s0,0(a0)
    2ec0:	0136a223          	sw	s3,4(a3)
    2ec4:	0136a423          	sw	s3,8(a3)
    2ec8:	c540                	sw	s0,12(a0)
    2eca:	4609                	li	a2,2
    2ecc:	4589                	li	a1,2
    2ece:	20003537          	lui	a0,0x20003
    2ed2:	2f850513          	addi	a0,a0,760 # 200032f8 <I>
    2ed6:	28a1                	jal	2f2e <matrix_create>
    2ed8:	0141                	addi	sp,sp,16
    2eda:	e5efd06f          	j	538 <__riscv_restore_4>

00002ede <pid_ctrl>:
    2ede:	e26fd2ef          	jal	t0,504 <__riscv_save_4>
    2ee2:	842a                	mv	s0,a0
    2ee4:	4544                	lw	s1,12(a0)
    2ee6:	85a6                	mv	a1,s1
    2ee8:	4148                	lw	a0,4(a0)
    2eea:	03f080ef          	jal	ra,b728 <__mulsf3>
    2eee:	484c                	lw	a1,20(s0)
    2ef0:	196080ef          	jal	ra,b086 <__addsf3>
    2ef4:	892a                	mv	s2,a0
    2ef6:	c848                	sw	a0,20(s0)
    2ef8:	400c                	lw	a1,0(s0)
    2efa:	8526                	mv	a0,s1
    2efc:	02d080ef          	jal	ra,b728 <__mulsf3>
    2f00:	85aa                	mv	a1,a0
    2f02:	854a                	mv	a0,s2
    2f04:	182080ef          	jal	ra,b086 <__addsf3>
    2f08:	892a                	mv	s2,a0
    2f0a:	00842983          	lw	s3,8(s0)
    2f0e:	480c                	lw	a1,16(s0)
    2f10:	8526                	mv	a0,s1
    2f12:	2ab080ef          	jal	ra,b9bc <__subsf3>
    2f16:	85aa                	mv	a1,a0
    2f18:	854e                	mv	a0,s3
    2f1a:	00f080ef          	jal	ra,b728 <__mulsf3>
    2f1e:	85aa                	mv	a1,a0
    2f20:	854a                	mv	a0,s2
    2f22:	164080ef          	jal	ra,b086 <__addsf3>
    2f26:	cc08                	sw	a0,24(s0)
    2f28:	c804                	sw	s1,16(s0)
    2f2a:	e0efd06f          	j	538 <__riscv_restore_4>

00002f2e <matrix_create>:
    2f2e:	c14c                	sw	a1,4(a0)
    2f30:	c510                	sw	a2,8(a0)
    2f32:	c114                	sw	a3,0(a0)
    2f34:	8082                	ret

00002f36 <matrix_add>:
    2f36:	415c                	lw	a5,4(a0)
    2f38:	41d8                	lw	a4,4(a1)
    2f3a:	08e79863          	bne	a5,a4,2fca <matrix_add+0x94>
    2f3e:	4514                	lw	a3,8(a0)
    2f40:	4598                	lw	a4,8(a1)
    2f42:	00e68463          	beq	a3,a4,2f4a <matrix_add+0x14>
    2f46:	4501                	li	a0,0
    2f48:	8082                	ret
    2f4a:	dbafd2ef          	jal	t0,504 <__riscv_save_4>
    2f4e:	8a32                	mv	s4,a2
    2f50:	89ae                	mv	s3,a1
    2f52:	892a                	mv	s2,a0
    2f54:	c25c                	sw	a5,4(a2)
    2f56:	4518                	lw	a4,8(a0)
    2f58:	c618                	sw	a4,8(a2)
    2f5a:	02e787b3          	mul	a5,a5,a4
    2f5e:	00279513          	slli	a0,a5,0x2
    2f62:	2d4090ef          	jal	ra,c236 <malloc>
    2f66:	00aa2023          	sw	a0,0(s4)
    2f6a:	4481                	li	s1,0
    2f6c:	a011                	j	2f70 <matrix_add+0x3a>
    2f6e:	0485                	addi	s1,s1,1
    2f70:	00492783          	lw	a5,4(s2)
    2f74:	04f4d863          	bge	s1,a5,2fc4 <matrix_add+0x8e>
    2f78:	4401                	li	s0,0
    2f7a:	00892783          	lw	a5,8(s2)
    2f7e:	fef458e3          	bge	s0,a5,2f6e <matrix_add+0x38>
    2f82:	00092703          	lw	a4,0(s2)
    2f86:	029787b3          	mul	a5,a5,s1
    2f8a:	97a2                	add	a5,a5,s0
    2f8c:	078a                	slli	a5,a5,0x2
    2f8e:	97ba                	add	a5,a5,a4
    2f90:	0009a683          	lw	a3,0(s3)
    2f94:	0089a703          	lw	a4,8(s3)
    2f98:	02970733          	mul	a4,a4,s1
    2f9c:	9722                	add	a4,a4,s0
    2f9e:	070a                	slli	a4,a4,0x2
    2fa0:	96ba                	add	a3,a3,a4
    2fa2:	000a2a83          	lw	s5,0(s4)
    2fa6:	008a2703          	lw	a4,8(s4)
    2faa:	02970733          	mul	a4,a4,s1
    2fae:	9722                	add	a4,a4,s0
    2fb0:	070a                	slli	a4,a4,0x2
    2fb2:	9aba                	add	s5,s5,a4
    2fb4:	428c                	lw	a1,0(a3)
    2fb6:	4388                	lw	a0,0(a5)
    2fb8:	0ce080ef          	jal	ra,b086 <__addsf3>
    2fbc:	00aaa023          	sw	a0,0(s5)
    2fc0:	0405                	addi	s0,s0,1
    2fc2:	bf65                	j	2f7a <matrix_add+0x44>
    2fc4:	4505                	li	a0,1
    2fc6:	d72fd06f          	j	538 <__riscv_restore_4>
    2fca:	4501                	li	a0,0
    2fcc:	8082                	ret

00002fce <matrix_subtract>:
    2fce:	415c                	lw	a5,4(a0)
    2fd0:	41d8                	lw	a4,4(a1)
    2fd2:	08e79863          	bne	a5,a4,3062 <matrix_subtract+0x94>
    2fd6:	4514                	lw	a3,8(a0)
    2fd8:	4598                	lw	a4,8(a1)
    2fda:	00e68463          	beq	a3,a4,2fe2 <matrix_subtract+0x14>
    2fde:	4501                	li	a0,0
    2fe0:	8082                	ret
    2fe2:	d22fd2ef          	jal	t0,504 <__riscv_save_4>
    2fe6:	8a32                	mv	s4,a2
    2fe8:	89ae                	mv	s3,a1
    2fea:	892a                	mv	s2,a0
    2fec:	c25c                	sw	a5,4(a2)
    2fee:	4518                	lw	a4,8(a0)
    2ff0:	c618                	sw	a4,8(a2)
    2ff2:	02e787b3          	mul	a5,a5,a4
    2ff6:	00279513          	slli	a0,a5,0x2
    2ffa:	23c090ef          	jal	ra,c236 <malloc>
    2ffe:	00aa2023          	sw	a0,0(s4)
    3002:	4481                	li	s1,0
    3004:	a011                	j	3008 <matrix_subtract+0x3a>
    3006:	0485                	addi	s1,s1,1
    3008:	00492783          	lw	a5,4(s2)
    300c:	04f4d863          	bge	s1,a5,305c <matrix_subtract+0x8e>
    3010:	4401                	li	s0,0
    3012:	00892783          	lw	a5,8(s2)
    3016:	fef458e3          	bge	s0,a5,3006 <matrix_subtract+0x38>
    301a:	00092703          	lw	a4,0(s2)
    301e:	029787b3          	mul	a5,a5,s1
    3022:	97a2                	add	a5,a5,s0
    3024:	078a                	slli	a5,a5,0x2
    3026:	97ba                	add	a5,a5,a4
    3028:	0009a683          	lw	a3,0(s3)
    302c:	0089a703          	lw	a4,8(s3)
    3030:	02970733          	mul	a4,a4,s1
    3034:	9722                	add	a4,a4,s0
    3036:	070a                	slli	a4,a4,0x2
    3038:	96ba                	add	a3,a3,a4
    303a:	000a2a83          	lw	s5,0(s4)
    303e:	008a2703          	lw	a4,8(s4)
    3042:	02970733          	mul	a4,a4,s1
    3046:	9722                	add	a4,a4,s0
    3048:	070a                	slli	a4,a4,0x2
    304a:	9aba                	add	s5,s5,a4
    304c:	428c                	lw	a1,0(a3)
    304e:	4388                	lw	a0,0(a5)
    3050:	16d080ef          	jal	ra,b9bc <__subsf3>
    3054:	00aaa023          	sw	a0,0(s5)
    3058:	0405                	addi	s0,s0,1
    305a:	bf65                	j	3012 <matrix_subtract+0x44>
    305c:	4505                	li	a0,1
    305e:	cdafd06f          	j	538 <__riscv_restore_4>
    3062:	4501                	li	a0,0
    3064:	8082                	ret

00003066 <matrix_multiply>:
    3066:	4518                	lw	a4,8(a0)
    3068:	41dc                	lw	a5,4(a1)
    306a:	00f70463          	beq	a4,a5,3072 <matrix_multiply+0xc>
    306e:	4501                	li	a0,0
    3070:	8082                	ret
    3072:	c92fd2ef          	jal	t0,504 <__riscv_save_4>
    3076:	89b2                	mv	s3,a2
    3078:	8b2e                	mv	s6,a1
    307a:	8aaa                	mv	s5,a0
    307c:	415c                	lw	a5,4(a0)
    307e:	c25c                	sw	a5,4(a2)
    3080:	4598                	lw	a4,8(a1)
    3082:	c618                	sw	a4,8(a2)
    3084:	02e787b3          	mul	a5,a5,a4
    3088:	00279513          	slli	a0,a5,0x2
    308c:	1aa090ef          	jal	ra,c236 <malloc>
    3090:	00a9a023          	sw	a0,0(s3)
    3094:	4a01                	li	s4,0
    3096:	a8a5                	j	310e <matrix_multiply+0xa8>
    3098:	0905                	addi	s2,s2,1
    309a:	008b2783          	lw	a5,8(s6)
    309e:	06f95763          	bge	s2,a5,310c <matrix_multiply+0xa6>
    30a2:	0009a703          	lw	a4,0(s3)
    30a6:	0089a783          	lw	a5,8(s3)
    30aa:	034787b3          	mul	a5,a5,s4
    30ae:	97ca                	add	a5,a5,s2
    30b0:	078a                	slli	a5,a5,0x2
    30b2:	97ba                	add	a5,a5,a4
    30b4:	00000713          	li	a4,0
    30b8:	c398                	sw	a4,0(a5)
    30ba:	4401                	li	s0,0
    30bc:	008aa783          	lw	a5,8(s5)
    30c0:	fcf45ce3          	bge	s0,a5,3098 <matrix_multiply+0x32>
    30c4:	0009a483          	lw	s1,0(s3)
    30c8:	0089a703          	lw	a4,8(s3)
    30cc:	03470733          	mul	a4,a4,s4
    30d0:	974a                	add	a4,a4,s2
    30d2:	070a                	slli	a4,a4,0x2
    30d4:	94ba                	add	s1,s1,a4
    30d6:	000aa703          	lw	a4,0(s5)
    30da:	034787b3          	mul	a5,a5,s4
    30de:	97a2                	add	a5,a5,s0
    30e0:	078a                	slli	a5,a5,0x2
    30e2:	97ba                	add	a5,a5,a4
    30e4:	000b2683          	lw	a3,0(s6)
    30e8:	008b2703          	lw	a4,8(s6)
    30ec:	02870733          	mul	a4,a4,s0
    30f0:	974a                	add	a4,a4,s2
    30f2:	070a                	slli	a4,a4,0x2
    30f4:	9736                	add	a4,a4,a3
    30f6:	430c                	lw	a1,0(a4)
    30f8:	4388                	lw	a0,0(a5)
    30fa:	62e080ef          	jal	ra,b728 <__mulsf3>
    30fe:	85aa                	mv	a1,a0
    3100:	4088                	lw	a0,0(s1)
    3102:	785070ef          	jal	ra,b086 <__addsf3>
    3106:	c088                	sw	a0,0(s1)
    3108:	0405                	addi	s0,s0,1
    310a:	bf4d                	j	30bc <matrix_multiply+0x56>
    310c:	0a05                	addi	s4,s4,1
    310e:	004aa783          	lw	a5,4(s5)
    3112:	00fa5463          	bge	s4,a5,311a <matrix_multiply+0xb4>
    3116:	4901                	li	s2,0
    3118:	b749                	j	309a <matrix_multiply+0x34>
    311a:	4505                	li	a0,1
    311c:	c1cfd06f          	j	538 <__riscv_restore_4>

00003120 <matrix_transpose>:
    3120:	bfefd2ef          	jal	t0,51e <__riscv_save_0>
    3124:	842a                	mv	s0,a0
    3126:	84ae                	mv	s1,a1
    3128:	451c                	lw	a5,8(a0)
    312a:	c1dc                	sw	a5,4(a1)
    312c:	4158                	lw	a4,4(a0)
    312e:	c598                	sw	a4,8(a1)
    3130:	02e787b3          	mul	a5,a5,a4
    3134:	00279513          	slli	a0,a5,0x2
    3138:	0fe090ef          	jal	ra,c236 <malloc>
    313c:	c088                	sw	a0,0(s1)
    313e:	4501                	li	a0,0
    3140:	a011                	j	3144 <matrix_transpose+0x24>
    3142:	0505                	addi	a0,a0,1
    3144:	405c                	lw	a5,4(s0)
    3146:	02f55763          	bge	a0,a5,3174 <matrix_transpose+0x54>
    314a:	4681                	li	a3,0
    314c:	441c                	lw	a5,8(s0)
    314e:	fef6dae3          	bge	a3,a5,3142 <matrix_transpose+0x22>
    3152:	400c                	lw	a1,0(s0)
    3154:	02a787b3          	mul	a5,a5,a0
    3158:	97b6                	add	a5,a5,a3
    315a:	4090                	lw	a2,0(s1)
    315c:	4498                	lw	a4,8(s1)
    315e:	02d70733          	mul	a4,a4,a3
    3162:	972a                	add	a4,a4,a0
    3164:	070a                	slli	a4,a4,0x2
    3166:	9732                	add	a4,a4,a2
    3168:	078a                	slli	a5,a5,0x2
    316a:	97ae                	add	a5,a5,a1
    316c:	439c                	lw	a5,0(a5)
    316e:	c31c                	sw	a5,0(a4)
    3170:	0685                	addi	a3,a3,1
    3172:	bfe9                	j	314c <matrix_transpose+0x2c>
    3174:	bcefd06f          	j	542 <__riscv_restore_0>

00003178 <MCAL_WRAPEPR_SPI_POLL_TRANSFER>:
    3178:	c925                	beqz	a0,31e8 <MCAL_WRAPEPR_SPI_POLL_TRANSFER+0x70>
    317a:	b8afd2ef          	jal	t0,504 <__riscv_save_4>
    317e:	842a                	mv	s0,a0
    3180:	892e                	mv	s2,a1
    3182:	84b2                	mv	s1,a2
    3184:	89b6                	mv	s3,a3
    3186:	c1bd                	beqz	a1,31ec <MCAL_WRAPEPR_SPI_POLL_TRANSFER+0x74>
    3188:	00855583          	lhu	a1,8(a0)
    318c:	4148                	lw	a0,4(a0)
    318e:	7ba000ef          	jal	ra,3948 <GPIO_ResetBits>
    3192:	a811                	j	31a6 <MCAL_WRAPEPR_SPI_POLL_TRANSFER+0x2e>
    3194:	4008                	lw	a0,0(s0)
    3196:	5c3000ef          	jal	ra,3f58 <SPI_I2S_ReceiveData>
    319a:	00a98023          	sb	a0,0(s3)
    319e:	0985                	addi	s3,s3,1
    31a0:	14fd                	addi	s1,s1,-1
    31a2:	04c2                	slli	s1,s1,0x10
    31a4:	80c1                	srli	s1,s1,0x10
    31a6:	c88d                	beqz	s1,31d8 <MCAL_WRAPEPR_SPI_POLL_TRANSFER+0x60>
    31a8:	00094583          	lbu	a1,0(s2)
    31ac:	4008                	lw	a0,0(s0)
    31ae:	5a5000ef          	jal	ra,3f52 <SPI_I2S_SendData>
    31b2:	4589                	li	a1,2
    31b4:	4008                	lw	a0,0(s0)
    31b6:	5a9000ef          	jal	ra,3f5e <SPI_I2S_GetFlagStatus>
    31ba:	4785                	li	a5,1
    31bc:	fef51be3          	bne	a0,a5,31b2 <MCAL_WRAPEPR_SPI_POLL_TRANSFER+0x3a>
    31c0:	08000593          	li	a1,128
    31c4:	4008                	lw	a0,0(s0)
    31c6:	599000ef          	jal	ra,3f5e <SPI_I2S_GetFlagStatus>
    31ca:	4785                	li	a5,1
    31cc:	fef50ae3          	beq	a0,a5,31c0 <MCAL_WRAPEPR_SPI_POLL_TRANSFER+0x48>
    31d0:	0905                	addi	s2,s2,1
    31d2:	fc0991e3          	bnez	s3,3194 <MCAL_WRAPEPR_SPI_POLL_TRANSFER+0x1c>
    31d6:	b7e9                	j	31a0 <MCAL_WRAPEPR_SPI_POLL_TRANSFER+0x28>
    31d8:	00845583          	lhu	a1,8(s0)
    31dc:	4048                	lw	a0,4(s0)
    31de:	750000ef          	jal	ra,392e <GPIO_SetBits>
    31e2:	4501                	li	a0,0
    31e4:	b54fd06f          	j	538 <__riscv_restore_4>
    31e8:	4505                	li	a0,1
    31ea:	8082                	ret
    31ec:	4505                	li	a0,1
    31ee:	bfdd                	j	31e4 <MCAL_WRAPEPR_SPI_POLL_TRANSFER+0x6c>

000031f0 <I2C_start_transmission>:
    31f0:	b2efd2ef          	jal	t0,51e <__riscv_save_0>
    31f4:	84aa                	mv	s1,a0
    31f6:	e5ad                	bnez	a1,3260 <I2C_start_transmission+0x70>
    31f8:	00070437          	lui	s0,0x70
    31fc:	08240413          	addi	s0,s0,130 # 70082 <_data_lma+0x620e6>
    3200:	4901                	li	s2,0
    3202:	000205b7          	lui	a1,0x20
    3206:	40006537          	lui	a0,0x40006
    320a:	80050513          	addi	a0,a0,-2048 # 40005800 <__freertos_irq_stack_top+0x20000800>
    320e:	157000ef          	jal	ra,3b64 <I2C_GetFlagStatus>
    3212:	f965                	bnez	a0,3202 <I2C_start_transmission+0x12>
    3214:	4585                	li	a1,1
    3216:	40006537          	lui	a0,0x40006
    321a:	80050513          	addi	a0,a0,-2048 # 40005800 <__freertos_irq_stack_top+0x20000800>
    321e:	085000ef          	jal	ra,3aa2 <I2C_GenerateSTART>
    3222:	000305b7          	lui	a1,0x30
    3226:	0585                	addi	a1,a1,1
    3228:	40006537          	lui	a0,0x40006
    322c:	80050513          	addi	a0,a0,-2048 # 40005800 <__freertos_irq_stack_top+0x20000800>
    3230:	113000ef          	jal	ra,3b42 <I2C_CheckEvent>
    3234:	d57d                	beqz	a0,3222 <I2C_start_transmission+0x32>
    3236:	00149593          	slli	a1,s1,0x1
    323a:	864a                	mv	a2,s2
    323c:	0fe5f593          	andi	a1,a1,254
    3240:	40006537          	lui	a0,0x40006
    3244:	80050513          	addi	a0,a0,-2048 # 40005800 <__freertos_irq_stack_top+0x20000800>
    3248:	0b7000ef          	jal	ra,3afe <I2C_Send7bitAddress>
    324c:	85a2                	mv	a1,s0
    324e:	40006537          	lui	a0,0x40006
    3252:	80050513          	addi	a0,a0,-2048 # 40005800 <__freertos_irq_stack_top+0x20000800>
    3256:	0ed000ef          	jal	ra,3b42 <I2C_CheckEvent>
    325a:	d96d                	beqz	a0,324c <I2C_start_transmission+0x5c>
    325c:	ae6fd06f          	j	542 <__riscv_restore_0>
    3260:	00030437          	lui	s0,0x30
    3264:	0409                	addi	s0,s0,2
    3266:	4905                	li	s2,1
    3268:	bf69                	j	3202 <I2C_start_transmission+0x12>

0000326a <I2C_write>:
    326a:	ab4fd2ef          	jal	t0,51e <__riscv_save_0>
    326e:	842a                	mv	s0,a0
    3270:	100005b7          	lui	a1,0x10000
    3274:	08058593          	addi	a1,a1,128 # 10000080 <_data_lma+0xfff20e4>
    3278:	40006537          	lui	a0,0x40006
    327c:	80050513          	addi	a0,a0,-2048 # 40005800 <__freertos_irq_stack_top+0x20000800>
    3280:	0e5000ef          	jal	ra,3b64 <I2C_GetFlagStatus>
    3284:	4785                	li	a5,1
    3286:	fef515e3          	bne	a0,a5,3270 <I2C_write+0x6>
    328a:	85a2                	mv	a1,s0
    328c:	40006537          	lui	a0,0x40006
    3290:	80050513          	addi	a0,a0,-2048 # 40005800 <__freertos_irq_stack_top+0x20000800>
    3294:	05b000ef          	jal	ra,3aee <I2C_SendData>
    3298:	aaafd06f          	j	542 <__riscv_restore_0>

0000329c <I2C_stop>:
    329c:	a82fd2ef          	jal	t0,51e <__riscv_save_0>
    32a0:	100005b7          	lui	a1,0x10000
    32a4:	08058593          	addi	a1,a1,128 # 10000080 <_data_lma+0xfff20e4>
    32a8:	40006537          	lui	a0,0x40006
    32ac:	80050513          	addi	a0,a0,-2048 # 40005800 <__freertos_irq_stack_top+0x20000800>
    32b0:	0b5000ef          	jal	ra,3b64 <I2C_GetFlagStatus>
    32b4:	4785                	li	a5,1
    32b6:	fef515e3          	bne	a0,a5,32a0 <I2C_stop+0x4>
    32ba:	4585                	li	a1,1
    32bc:	40006537          	lui	a0,0x40006
    32c0:	80050513          	addi	a0,a0,-2048 # 40005800 <__freertos_irq_stack_top+0x20000800>
    32c4:	005000ef          	jal	ra,3ac8 <I2C_GenerateSTOP>
    32c8:	a7afd06f          	j	542 <__riscv_restore_0>

000032cc <I2C_read>:
    32cc:	200006b7          	lui	a3,0x20000
    32d0:	12568693          	addi	a3,a3,293 # 20000125 <i.4932>
    32d4:	0006c783          	lbu	a5,0(a3)
    32d8:	20000737          	lui	a4,0x20000
    32dc:	13070713          	addi	a4,a4,304 # 20000130 <RxData>
    32e0:	973e                	add	a4,a4,a5
    32e2:	0785                	addi	a5,a5,1
    32e4:	4619                	li	a2,6
    32e6:	02c7e7b3          	rem	a5,a5,a2
    32ea:	00f68023          	sb	a5,0(a3)
    32ee:	00074503          	lbu	a0,0(a4)
    32f2:	8082                	ret

000032f4 <I2C_requestFrom>:
    32f4:	a2afd2ef          	jal	t0,51e <__riscv_save_0>
    32f8:	84ae                	mv	s1,a1
    32fa:	4585                	li	a1,1
    32fc:	ef5ff0ef          	jal	ra,31f0 <I2C_start_transmission>
    3300:	4401                	li	s0,0
    3302:	a025                	j	332a <I2C_requestFrom+0x36>
    3304:	40006537          	lui	a0,0x40006
    3308:	80050513          	addi	a0,a0,-2048 # 40005800 <__freertos_irq_stack_top+0x20000800>
    330c:	7e8000ef          	jal	ra,3af4 <I2C_ReceiveData>
    3310:	200007b7          	lui	a5,0x20000
    3314:	13078793          	addi	a5,a5,304 # 20000130 <RxData>
    3318:	97a2                	add	a5,a5,s0
    331a:	00a78023          	sb	a0,0(a5)
    331e:	0405                	addi	s0,s0,1
    3320:	0ff47413          	andi	s0,s0,255
    3324:	4795                	li	a5,5
    3326:	02f40063          	beq	s0,a5,3346 <I2C_requestFrom+0x52>
    332a:	02947863          	bgeu	s0,s1,335a <I2C_requestFrom+0x66>
    332e:	100005b7          	lui	a1,0x10000
    3332:	04058593          	addi	a1,a1,64 # 10000040 <_data_lma+0xfff20a4>
    3336:	40006537          	lui	a0,0x40006
    333a:	80050513          	addi	a0,a0,-2048 # 40005800 <__freertos_irq_stack_top+0x20000800>
    333e:	027000ef          	jal	ra,3b64 <I2C_GetFlagStatus>
    3342:	d16d                	beqz	a0,3324 <I2C_requestFrom+0x30>
    3344:	b7c1                	j	3304 <I2C_requestFrom+0x10>
    3346:	6585                	lui	a1,0x1
    3348:	80058593          	addi	a1,a1,-2048 # 800 <__stack_size>
    334c:	40006537          	lui	a0,0x40006
    3350:	80050513          	addi	a0,a0,-2048 # 40005800 <__freertos_irq_stack_top+0x20000800>
    3354:	7c0000ef          	jal	ra,3b14 <I2C_NACKPositionConfig>
    3358:	bfc9                	j	332a <I2C_requestFrom+0x36>
    335a:	100005b7          	lui	a1,0x10000
    335e:	04058593          	addi	a1,a1,64 # 10000040 <_data_lma+0xfff20a4>
    3362:	40006537          	lui	a0,0x40006
    3366:	80050513          	addi	a0,a0,-2048 # 40005800 <__freertos_irq_stack_top+0x20000800>
    336a:	7fa000ef          	jal	ra,3b64 <I2C_GetFlagStatus>
    336e:	4785                	li	a5,1
    3370:	fef515e3          	bne	a0,a5,335a <I2C_requestFrom+0x66>
    3374:	4585                	li	a1,1
    3376:	40006537          	lui	a0,0x40006
    337a:	80050513          	addi	a0,a0,-2048 # 40005800 <__freertos_irq_stack_top+0x20000800>
    337e:	74a000ef          	jal	ra,3ac8 <I2C_GenerateSTOP>
    3382:	8522                	mv	a0,s0
    3384:	9befd06f          	j	542 <__riscv_restore_0>

00003388 <MCAL_WRAPEPR_TIM4_PWM_OUT>:
    3388:	478d                	li	a5,3
    338a:	02a7e963          	bltu	a5,a0,33bc <MCAL_WRAPEPR_TIM4_PWM_OUT+0x34>
    338e:	06400793          	li	a5,100
    3392:	02b7e763          	bltu	a5,a1,33c0 <MCAL_WRAPEPR_TIM4_PWM_OUT+0x38>
    3396:	00259793          	slli	a5,a1,0x2
    339a:	95be                	add	a1,a1,a5
    339c:	1f458593          	addi	a1,a1,500
    33a0:	c119                	beqz	a0,33a6 <MCAL_WRAPEPR_TIM4_PWM_OUT+0x1e>
    33a2:	4501                	li	a0,0
    33a4:	8082                	ret
    33a6:	978fd2ef          	jal	t0,51e <__riscv_save_0>
    33aa:	40001537          	lui	a0,0x40001
    33ae:	80050513          	addi	a0,a0,-2048 # 40000800 <__freertos_irq_stack_top+0x1fffb800>
    33b2:	12a010ef          	jal	ra,44dc <TIM_SetCompare1>
    33b6:	4501                	li	a0,0
    33b8:	98afd06f          	j	542 <__riscv_restore_0>
    33bc:	4505                	li	a0,1
    33be:	8082                	ret
    33c0:	4505                	li	a0,1
    33c2:	8082                	ret

000033c4 <UART4_IRQHandler>:
    33c4:	95afd2ef          	jal	t0,51e <__riscv_save_0>
    33c8:	52500593          	li	a1,1317
    33cc:	40005537          	lui	a0,0x40005
    33d0:	c0050513          	addi	a0,a0,-1024 # 40004c00 <__freertos_irq_stack_top+0x1ffffc00>
    33d4:	370010ef          	jal	ra,4744 <USART_GetITStatus>
    33d8:	c519                	beqz	a0,33e6 <UART4_IRQHandler+0x22>
    33da:	200007b7          	lui	a5,0x20000
    33de:	11c7a783          	lw	a5,284(a5) # 2000011c <global_UART4RecCallback>
    33e2:	c391                	beqz	a5,33e6 <UART4_IRQHandler+0x22>
    33e4:	9782                	jalr	a5
    33e6:	95cfd06f          	j	542 <__riscv_restore_0>

000033ea <TIM1_UP_IRQHandler>:
    33ea:	934fd2ef          	jal	t0,51e <__riscv_save_0>
    33ee:	34011173          	csrrw	sp,mscratch,sp
    33f2:	6789                	lui	a5,0x2
    33f4:	80078793          	addi	a5,a5,-2048 # 1800 <xTaskIncrementTick+0x66>
    33f8:	30079073          	csrw	mstatus,a5
    33fc:	4585                	li	a1,1
    33fe:	40013537          	lui	a0,0x40013
    3402:	c0050513          	addi	a0,a0,-1024 # 40012c00 <__freertos_irq_stack_top+0x2000dc00>
    3406:	1be010ef          	jal	ra,45c4 <TIM_GetITStatus>
    340a:	c115                	beqz	a0,342e <TIM1_UP_IRQHandler+0x44>
    340c:	200007b7          	lui	a5,0x20000
    3410:	1207a783          	lw	a5,288(a5) # 20000120 <global_u32TicksNum>
    3414:	ef8d                	bnez	a5,344e <TIM1_UP_IRQHandler+0x64>
    3416:	200007b7          	lui	a5,0x20000
    341a:	1267d703          	lhu	a4,294(a5) # 20000126 <tempreg>
    341e:	6789                	lui	a5,0x2
    3420:	71078793          	addi	a5,a5,1808 # 2710 <prvCheckForValidListAndQueue+0x6>
    3424:	8f99                	sub	a5,a5,a4
    3426:	20000737          	lui	a4,0x20000
    342a:	12f72023          	sw	a5,288(a4) # 20000120 <global_u32TicksNum>
    342e:	4585                	li	a1,1
    3430:	40013537          	lui	a0,0x40013
    3434:	c0050513          	addi	a0,a0,-1024 # 40012c00 <__freertos_irq_stack_top+0x2000dc00>
    3438:	1a8010ef          	jal	ra,45e0 <TIM_ClearITPendingBit>
    343c:	6789                	lui	a5,0x2
    343e:	88878793          	addi	a5,a5,-1912 # 1888 <xTaskIncrementTick+0xee>
    3442:	30079073          	csrw	mstatus,a5
    3446:	34011173          	csrrw	sp,mscratch,sp
    344a:	8f8fd06f          	j	542 <__riscv_restore_0>
    344e:	200007b7          	lui	a5,0x20000
    3452:	1207a783          	lw	a5,288(a5) # 20000120 <global_u32TicksNum>
    3456:	6709                	lui	a4,0x2
    3458:	71070713          	addi	a4,a4,1808 # 2710 <prvCheckForValidListAndQueue+0x6>
    345c:	97ba                	add	a5,a5,a4
    345e:	b7e1                	j	3426 <TIM1_UP_IRQHandler+0x3c>

00003460 <TIM1_CC_IRQHandler>:
    3460:	8befd2ef          	jal	t0,51e <__riscv_save_0>
    3464:	34011173          	csrrw	sp,mscratch,sp
    3468:	6789                	lui	a5,0x2
    346a:	80078793          	addi	a5,a5,-2048 # 1800 <xTaskIncrementTick+0x66>
    346e:	30079073          	csrw	mstatus,a5
    3472:	4589                	li	a1,2
    3474:	40013537          	lui	a0,0x40013
    3478:	c0050513          	addi	a0,a0,-1024 # 40012c00 <__freertos_irq_stack_top+0x2000dc00>
    347c:	148010ef          	jal	ra,45c4 <TIM_GetITStatus>
    3480:	e10d                	bnez	a0,34a2 <TIM1_CC_IRQHandler+0x42>
    3482:	4589                	li	a1,2
    3484:	40013537          	lui	a0,0x40013
    3488:	c0050513          	addi	a0,a0,-1024 # 40012c00 <__freertos_irq_stack_top+0x2000dc00>
    348c:	154010ef          	jal	ra,45e0 <TIM_ClearITPendingBit>
    3490:	6789                	lui	a5,0x2
    3492:	88878793          	addi	a5,a5,-1912 # 1888 <xTaskIncrementTick+0xee>
    3496:	30079073          	csrw	mstatus,a5
    349a:	34011173          	csrrw	sp,mscratch,sp
    349e:	8a4fd06f          	j	542 <__riscv_restore_0>
    34a2:	40013537          	lui	a0,0x40013
    34a6:	c0050513          	addi	a0,a0,-1024 # 40012c00 <__freertos_irq_stack_top+0x2000dc00>
    34aa:	100010ef          	jal	ra,45aa <TIM_GetCapture1>
    34ae:	200007b7          	lui	a5,0x20000
    34b2:	12a79323          	sh	a0,294(a5) # 20000126 <tempreg>
    34b6:	10000593          	li	a1,256
    34ba:	40011537          	lui	a0,0x40011
    34be:	80050513          	addi	a0,a0,-2048 # 40010800 <__freertos_irq_stack_top+0x2000b800>
    34c2:	21a1                	jal	390a <GPIO_ReadInputDataBit>
    34c4:	4785                	li	a5,1
    34c6:	00f51b63          	bne	a0,a5,34dc <TIM1_CC_IRQHandler+0x7c>
    34ca:	200007b7          	lui	a5,0x20000
    34ce:	1207a023          	sw	zero,288(a5) # 20000120 <global_u32TicksNum>
    34d2:	200007b7          	lui	a5,0x20000
    34d6:	12078223          	sb	zero,292(a5) # 20000124 <global_u8IsCaptured>
    34da:	b765                	j	3482 <TIM1_CC_IRQHandler+0x22>
    34dc:	200007b7          	lui	a5,0x20000
    34e0:	1267d683          	lhu	a3,294(a5) # 20000126 <tempreg>
    34e4:	200007b7          	lui	a5,0x20000
    34e8:	12078793          	addi	a5,a5,288 # 20000120 <global_u32TicksNum>
    34ec:	4398                	lw	a4,0(a5)
    34ee:	9736                	add	a4,a4,a3
    34f0:	c398                	sw	a4,0(a5)
    34f2:	200007b7          	lui	a5,0x20000
    34f6:	4705                	li	a4,1
    34f8:	12e78223          	sb	a4,292(a5) # 20000124 <global_u8IsCaptured>
    34fc:	4585                	li	a1,1
    34fe:	200007b7          	lui	a5,0x20000
    3502:	1187a503          	lw	a0,280(a5) # 20000118 <global_CurrentPWTask_t>
    3506:	9d6fd0ef          	jal	ra,6dc <SERVICE_RTOS_Notify>
    350a:	bfa5                	j	3482 <TIM1_CC_IRQHandler+0x22>

0000350c <MCAL_WRAPPER_TIM1GetWidthOfPulse>:
    350c:	c54d                	beqz	a0,35b6 <MCAL_WRAPPER_TIM1GetWidthOfPulse+0xaa>
    350e:	810fd2ef          	jal	t0,51e <__riscv_save_0>
    3512:	84aa                	mv	s1,a0
    3514:	20000537          	lui	a0,0x20000
    3518:	11850513          	addi	a0,a0,280 # 20000118 <global_CurrentPWTask_t>
    351c:	a08fd0ef          	jal	ra,724 <SERVICE_RTOS_GetCurrentTaskHandle>
    3520:	458d                	li	a1,3
    3522:	40013437          	lui	s0,0x40013
    3526:	c0040513          	addi	a0,s0,-1024 # 40012c00 <__freertos_irq_stack_top+0x2000dc00>
    352a:	08c010ef          	jal	ra,45b6 <TIM_ClearFlag>
    352e:	4605                	li	a2,1
    3530:	458d                	li	a1,3
    3532:	c0040513          	addi	a0,s0,-1024
    3536:	6bd000ef          	jal	ra,43f2 <TIM_ITConfig>
    353a:	4581                	li	a1,0
    353c:	c0040513          	addi	a0,s0,-1024
    3540:	797000ef          	jal	ra,44d6 <TIM_SetCounter>
    3544:	4585                	li	a1,1
    3546:	c0040513          	addi	a0,s0,-1024
    354a:	661000ef          	jal	ra,43aa <TIM_Cmd>
    354e:	3e800513          	li	a0,1000
    3552:	96afd0ef          	jal	ra,6bc <SERVICE_RTOS_WaitForNotification>
    3556:	4601                	li	a2,0
    3558:	458d                	li	a1,3
    355a:	c0040513          	addi	a0,s0,-1024
    355e:	695000ef          	jal	ra,43f2 <TIM_ITConfig>
    3562:	458d                	li	a1,3
    3564:	c0040513          	addi	a0,s0,-1024
    3568:	04e010ef          	jal	ra,45b6 <TIM_ClearFlag>
    356c:	4581                	li	a1,0
    356e:	c0040513          	addi	a0,s0,-1024
    3572:	639000ef          	jal	ra,43aa <TIM_Cmd>
    3576:	4581                	li	a1,0
    3578:	c0040513          	addi	a0,s0,-1024
    357c:	75b000ef          	jal	ra,44d6 <TIM_SetCounter>
    3580:	200007b7          	lui	a5,0x20000
    3584:	1247c783          	lbu	a5,292(a5) # 20000124 <global_u8IsCaptured>
    3588:	0ff7f793          	andi	a5,a5,255
    358c:	4705                	li	a4,1
    358e:	00e78d63          	beq	a5,a4,35a8 <MCAL_WRAPPER_TIM1GetWidthOfPulse+0x9c>
    3592:	4515                	li	a0,5
    3594:	200007b7          	lui	a5,0x20000
    3598:	12078223          	sb	zero,292(a5) # 20000124 <global_u8IsCaptured>
    359c:	200007b7          	lui	a5,0x20000
    35a0:	1207a023          	sw	zero,288(a5) # 20000120 <global_u32TicksNum>
    35a4:	f9ffc06f          	j	542 <__riscv_restore_0>
    35a8:	200007b7          	lui	a5,0x20000
    35ac:	1207a783          	lw	a5,288(a5) # 20000120 <global_u32TicksNum>
    35b0:	c09c                	sw	a5,0(s1)
    35b2:	4501                	li	a0,0
    35b4:	b7c5                	j	3594 <MCAL_WRAPPER_TIM1GetWidthOfPulse+0x88>
    35b6:	4505                	li	a0,1
    35b8:	8082                	ret

000035ba <MCAL_WRAPPER_SendDataThroughUART4>:
    35ba:	f65fc2ef          	jal	t0,51e <__riscv_save_0>
    35be:	84aa                	mv	s1,a0
    35c0:	842e                	mv	s0,a1
    35c2:	ed19                	bnez	a0,35e0 <MCAL_WRAPPER_SendDataThroughUART4+0x26>
    35c4:	4505                	li	a0,1
    35c6:	a0a9                	j	3610 <MCAL_WRAPPER_SendDataThroughUART4+0x56>
    35c8:	0004c583          	lbu	a1,0(s1)
    35cc:	40005537          	lui	a0,0x40005
    35d0:	c0050513          	addi	a0,a0,-1024 # 40004c00 <__freertos_irq_stack_top+0x1ffffc00>
    35d4:	13e010ef          	jal	ra,4712 <USART_SendData>
    35d8:	0485                	addi	s1,s1,1
    35da:	147d                	addi	s0,s0,-1
    35dc:	0442                	slli	s0,s0,0x10
    35de:	8041                	srli	s0,s0,0x10
    35e0:	c41d                	beqz	s0,360e <MCAL_WRAPPER_SendDataThroughUART4+0x54>
    35e2:	08000593          	li	a1,128
    35e6:	40005537          	lui	a0,0x40005
    35ea:	c0050513          	addi	a0,a0,-1024 # 40004c00 <__freertos_irq_stack_top+0x1ffffc00>
    35ee:	138010ef          	jal	ra,4726 <USART_GetFlagStatus>
    35f2:	4785                	li	a5,1
    35f4:	02f51063          	bne	a0,a5,3614 <MCAL_WRAPPER_SendDataThroughUART4+0x5a>
    35f8:	02000593          	li	a1,32
    35fc:	40005537          	lui	a0,0x40005
    3600:	c0050513          	addi	a0,a0,-1024 # 40004c00 <__freertos_irq_stack_top+0x1ffffc00>
    3604:	122010ef          	jal	ra,4726 <USART_GetFlagStatus>
    3608:	d161                	beqz	a0,35c8 <MCAL_WRAPPER_SendDataThroughUART4+0xe>
    360a:	450d                	li	a0,3
    360c:	a011                	j	3610 <MCAL_WRAPPER_SendDataThroughUART4+0x56>
    360e:	4501                	li	a0,0
    3610:	f33fc06f          	j	542 <__riscv_restore_0>
    3614:	450d                	li	a0,3
    3616:	bfed                	j	3610 <MCAL_WRAPPER_SendDataThroughUART4+0x56>

00003618 <MCAL_WRAPPER_ReceiveDataThroughUART4>:
    3618:	f07fc2ef          	jal	t0,51e <__riscv_save_0>
    361c:	84aa                	mv	s1,a0
    361e:	842e                	mv	s0,a1
    3620:	c139                	beqz	a0,3666 <MCAL_WRAPPER_ReceiveDataThroughUART4+0x4e>
    3622:	cc1d                	beqz	s0,3660 <MCAL_WRAPPER_ReceiveDataThroughUART4+0x48>
    3624:	02000593          	li	a1,32
    3628:	40005537          	lui	a0,0x40005
    362c:	c0050513          	addi	a0,a0,-1024 # 40004c00 <__freertos_irq_stack_top+0x1ffffc00>
    3630:	0f6010ef          	jal	ra,4726 <USART_GetFlagStatus>
    3634:	4785                	li	a5,1
    3636:	02f51a63          	bne	a0,a5,366a <MCAL_WRAPPER_ReceiveDataThroughUART4+0x52>
    363a:	40005937          	lui	s2,0x40005
    363e:	c0090513          	addi	a0,s2,-1024 # 40004c00 <__freertos_irq_stack_top+0x1ffffc00>
    3642:	0da010ef          	jal	ra,471c <USART_ReceiveData>
    3646:	00a48023          	sb	a0,0(s1)
    364a:	0485                	addi	s1,s1,1
    364c:	147d                	addi	s0,s0,-1
    364e:	0442                	slli	s0,s0,0x10
    3650:	8041                	srli	s0,s0,0x10
    3652:	52500593          	li	a1,1317
    3656:	c0090513          	addi	a0,s2,-1024
    365a:	0dc010ef          	jal	ra,4736 <USART_ClearFlag>
    365e:	b7d1                	j	3622 <MCAL_WRAPPER_ReceiveDataThroughUART4+0xa>
    3660:	4501                	li	a0,0
    3662:	ee1fc06f          	j	542 <__riscv_restore_0>
    3666:	4505                	li	a0,1
    3668:	bfed                	j	3662 <MCAL_WRAPPER_ReceiveDataThroughUART4+0x4a>
    366a:	4511                	li	a0,4
    366c:	bfdd                	j	3662 <MCAL_WRAPPER_ReceiveDataThroughUART4+0x4a>

0000366e <MCAL_WRAPPER_DelayUS>:
    366e:	eb1fc2ef          	jal	t0,51e <__riscv_save_0>
    3672:	84aa                	mv	s1,a0
    3674:	a091                	j	36b8 <MCAL_WRAPPER_DelayUS+0x4a>
    3676:	77f9                	lui	a5,0xffffe
    3678:	8f078793          	addi	a5,a5,-1808 # ffffd8f0 <__freertos_irq_stack_top+0xdfff88f0>
    367c:	94be                	add	s1,s1,a5
    367e:	6409                	lui	s0,0x2
    3680:	71040413          	addi	s0,s0,1808 # 2710 <prvCheckForValidListAndQueue+0x6>
    3684:	4585                	li	a1,1
    3686:	40000537          	lui	a0,0x40000
    368a:	72d000ef          	jal	ra,45b6 <TIM_ClearFlag>
    368e:	85a2                	mv	a1,s0
    3690:	40000537          	lui	a0,0x40000
    3694:	643000ef          	jal	ra,44d6 <TIM_SetCounter>
    3698:	4585                	li	a1,1
    369a:	40000537          	lui	a0,0x40000
    369e:	50d000ef          	jal	ra,43aa <TIM_Cmd>
    36a2:	40000537          	lui	a0,0x40000
    36a6:	70b000ef          	jal	ra,45b0 <TIM_GetCounter>
    36aa:	fea47ce3          	bgeu	s0,a0,36a2 <MCAL_WRAPPER_DelayUS+0x34>
    36ae:	4581                	li	a1,0
    36b0:	40000537          	lui	a0,0x40000
    36b4:	4f7000ef          	jal	ra,43aa <TIM_Cmd>
    36b8:	cc89                	beqz	s1,36d2 <MCAL_WRAPPER_DelayUS+0x64>
    36ba:	6789                	lui	a5,0x2
    36bc:	70f78793          	addi	a5,a5,1807 # 270f <prvCheckForValidListAndQueue+0x5>
    36c0:	fa97ebe3          	bltu	a5,s1,3676 <MCAL_WRAPPER_DelayUS+0x8>
    36c4:	6409                	lui	s0,0x2
    36c6:	71040413          	addi	s0,s0,1808 # 2710 <prvCheckForValidListAndQueue+0x6>
    36ca:	0284f433          	remu	s0,s1,s0
    36ce:	4481                	li	s1,0
    36d0:	bf55                	j	3684 <MCAL_WRAPPER_DelayUS+0x16>
    36d2:	4501                	li	a0,0
    36d4:	e6ffc06f          	j	542 <__riscv_restore_0>

000036d8 <MCAL_WRAPPER_HCSR04Trig>:
    36d8:	e47fc2ef          	jal	t0,51e <__riscv_save_0>
    36dc:	84aa                	mv	s1,a0
    36de:	65a1                	lui	a1,0x8
    36e0:	40011437          	lui	s0,0x40011
    36e4:	80040513          	addi	a0,s0,-2048 # 40010800 <__freertos_irq_stack_top+0x2000b800>
    36e8:	2499                	jal	392e <GPIO_SetBits>
    36ea:	8526                	mv	a0,s1
    36ec:	f83ff0ef          	jal	ra,366e <MCAL_WRAPPER_DelayUS>
    36f0:	65a1                	lui	a1,0x8
    36f2:	80040513          	addi	a0,s0,-2048
    36f6:	2c89                	jal	3948 <GPIO_ResetBits>
    36f8:	4501                	li	a0,0
    36fa:	e49fc06f          	j	542 <__riscv_restore_0>
    36fe:	a001                	j	36fe <MCAL_WRAPPER_HCSR04Trig+0x26>
    3700:	a001                	j	3700 <MCAL_WRAPPER_HCSR04Trig+0x28>

00003702 <Ecall_M_Mode_Handler>:
    3702:	a001                	j	3702 <Ecall_M_Mode_Handler>

00003704 <Ecall_U_Mode_Handler>:
    3704:	a001                	j	3704 <Ecall_U_Mode_Handler>

00003706 <Break_Point_Handler>:
    3706:	a001                	j	3706 <Break_Point_Handler>
    3708:	a001                	j	3708 <Break_Point_Handler+0x2>
    370a:	a001                	j	370a <Break_Point_Handler+0x4>

0000370c <WWDG_IRQHandler>:
    370c:	a001                	j	370c <WWDG_IRQHandler>

0000370e <PVD_IRQHandler>:
    370e:	a001                	j	370e <PVD_IRQHandler>

00003710 <TAMPER_IRQHandler>:
    3710:	a001                	j	3710 <TAMPER_IRQHandler>

00003712 <RTC_IRQHandler>:
    3712:	a001                	j	3712 <RTC_IRQHandler>

00003714 <FLASH_IRQHandler>:
    3714:	a001                	j	3714 <FLASH_IRQHandler>

00003716 <RCC_IRQHandler>:
    3716:	a001                	j	3716 <RCC_IRQHandler>

00003718 <EXTI0_IRQHandler>:
    3718:	a001                	j	3718 <EXTI0_IRQHandler>

0000371a <EXTI1_IRQHandler>:
    371a:	a001                	j	371a <EXTI1_IRQHandler>

0000371c <EXTI2_IRQHandler>:
    371c:	a001                	j	371c <EXTI2_IRQHandler>

0000371e <EXTI3_IRQHandler>:
    371e:	a001                	j	371e <EXTI3_IRQHandler>

00003720 <EXTI4_IRQHandler>:
    3720:	a001                	j	3720 <EXTI4_IRQHandler>

00003722 <DMA1_Channel1_IRQHandler>:
    3722:	a001                	j	3722 <DMA1_Channel1_IRQHandler>

00003724 <DMA1_Channel2_IRQHandler>:
    3724:	a001                	j	3724 <DMA1_Channel2_IRQHandler>

00003726 <DMA1_Channel3_IRQHandler>:
    3726:	a001                	j	3726 <DMA1_Channel3_IRQHandler>

00003728 <DMA1_Channel4_IRQHandler>:
    3728:	a001                	j	3728 <DMA1_Channel4_IRQHandler>

0000372a <DMA1_Channel5_IRQHandler>:
    372a:	a001                	j	372a <DMA1_Channel5_IRQHandler>

0000372c <DMA1_Channel6_IRQHandler>:
    372c:	a001                	j	372c <DMA1_Channel6_IRQHandler>

0000372e <DMA1_Channel7_IRQHandler>:
    372e:	a001                	j	372e <DMA1_Channel7_IRQHandler>

00003730 <ADC1_2_IRQHandler>:
    3730:	a001                	j	3730 <ADC1_2_IRQHandler>

00003732 <USB_HP_CAN1_TX_IRQHandler>:
    3732:	a001                	j	3732 <USB_HP_CAN1_TX_IRQHandler>

00003734 <USB_LP_CAN1_RX0_IRQHandler>:
    3734:	a001                	j	3734 <USB_LP_CAN1_RX0_IRQHandler>

00003736 <CAN1_RX1_IRQHandler>:
    3736:	a001                	j	3736 <CAN1_RX1_IRQHandler>

00003738 <CAN1_SCE_IRQHandler>:
    3738:	a001                	j	3738 <CAN1_SCE_IRQHandler>

0000373a <EXTI9_5_IRQHandler>:
    373a:	a001                	j	373a <EXTI9_5_IRQHandler>

0000373c <TIM1_BRK_IRQHandler>:
    373c:	a001                	j	373c <TIM1_BRK_IRQHandler>
    373e:	a001                	j	373e <TIM1_BRK_IRQHandler+0x2>

00003740 <TIM1_TRG_COM_IRQHandler>:
    3740:	a001                	j	3740 <TIM1_TRG_COM_IRQHandler>
    3742:	a001                	j	3742 <TIM1_TRG_COM_IRQHandler+0x2>

00003744 <TIM2_IRQHandler>:
    3744:	a001                	j	3744 <TIM2_IRQHandler>

00003746 <TIM3_IRQHandler>:
    3746:	a001                	j	3746 <TIM3_IRQHandler>

00003748 <TIM4_IRQHandler>:
    3748:	a001                	j	3748 <TIM4_IRQHandler>

0000374a <I2C1_EV_IRQHandler>:
    374a:	a001                	j	374a <I2C1_EV_IRQHandler>

0000374c <I2C1_ER_IRQHandler>:
    374c:	a001                	j	374c <I2C1_ER_IRQHandler>

0000374e <I2C2_EV_IRQHandler>:
    374e:	a001                	j	374e <I2C2_EV_IRQHandler>

00003750 <I2C2_ER_IRQHandler>:
    3750:	a001                	j	3750 <I2C2_ER_IRQHandler>

00003752 <SPI1_IRQHandler>:
    3752:	a001                	j	3752 <SPI1_IRQHandler>

00003754 <SPI2_IRQHandler>:
    3754:	a001                	j	3754 <SPI2_IRQHandler>

00003756 <USART1_IRQHandler>:
    3756:	a001                	j	3756 <USART1_IRQHandler>

00003758 <USART2_IRQHandler>:
    3758:	a001                	j	3758 <USART2_IRQHandler>

0000375a <USART3_IRQHandler>:
    375a:	a001                	j	375a <USART3_IRQHandler>

0000375c <EXTI15_10_IRQHandler>:
    375c:	a001                	j	375c <EXTI15_10_IRQHandler>

0000375e <RTCAlarm_IRQHandler>:
    375e:	a001                	j	375e <RTCAlarm_IRQHandler>

00003760 <USBWakeUp_IRQHandler>:
    3760:	a001                	j	3760 <USBWakeUp_IRQHandler>

00003762 <USBHD_IRQHandler>:
    3762:	a001                	j	3762 <USBHD_IRQHandler>

00003764 <USBHDWakeUp_IRQHandler>:
    3764:	a001                	j	3764 <USBHDWakeUp_IRQHandler>
    3766:	a001                	j	3766 <USBHDWakeUp_IRQHandler+0x2>

00003768 <DMA1_Channel8_IRQHandler>:
    3768:	a001                	j	3768 <DMA1_Channel8_IRQHandler>

0000376a <handle_reset>:
    376a:	1fffd197          	auipc	gp,0x1fffd
    376e:	11618193          	addi	gp,gp,278 # 20000880 <__global_pointer$>
    3772:	20002117          	auipc	sp,0x20002
    3776:	88e10113          	addi	sp,sp,-1906 # 20005000 <__freertos_irq_stack_top>
    377a:	0000b517          	auipc	a0,0xb
    377e:	82250513          	addi	a0,a0,-2014 # df9c <_data_lma>
    3782:	1fffd597          	auipc	a1,0x1fffd
    3786:	87e58593          	addi	a1,a1,-1922 # 20000000 <_data_vma>
    378a:	82818613          	addi	a2,gp,-2008 # 200000a8 <_edata>
    378e:	00c5fa63          	bgeu	a1,a2,37a2 <handle_reset+0x38>
    3792:	00052283          	lw	t0,0(a0)
    3796:	0055a023          	sw	t0,0(a1)
    379a:	0511                	addi	a0,a0,4
    379c:	0591                	addi	a1,a1,4
    379e:	fec5eae3          	bltu	a1,a2,3792 <handle_reset+0x28>
    37a2:	1fffd517          	auipc	a0,0x1fffd
    37a6:	90650513          	addi	a0,a0,-1786 # 200000a8 <_edata>
    37aa:	20000597          	auipc	a1,0x20000
    37ae:	c5e58593          	addi	a1,a1,-930 # 20003408 <_ebss>
    37b2:	00b57763          	bgeu	a0,a1,37c0 <handle_reset+0x56>
    37b6:	00052023          	sw	zero,0(a0)
    37ba:	0511                	addi	a0,a0,4
    37bc:	feb56de3          	bltu	a0,a1,37b6 <handle_reset+0x4c>
    37c0:	42fd                	li	t0,31
    37c2:	bc029073          	csrw	0xbc0,t0
    37c6:	4289                	li	t0,2
    37c8:	80429073          	csrw	0x804,t0
    37cc:	000022b7          	lui	t0,0x2
    37d0:	80028293          	addi	t0,t0,-2048 # 1800 <xTaskIncrementTick+0x66>
    37d4:	3002a073          	csrs	mstatus,t0
    37d8:	ffffd297          	auipc	t0,0xffffd
    37dc:	86028293          	addi	t0,t0,-1952 # 38 <_einit>
    37e0:	0032e293          	ori	t0,t0,3
    37e4:	30529073          	csrw	mtvec,t0
    37e8:	7c2010ef          	jal	ra,4faa <SystemInit>
    37ec:	00003297          	auipc	t0,0x3
    37f0:	a8c28293          	addi	t0,t0,-1396 # 6278 <main>
    37f4:	34129073          	csrw	mepc,t0
    37f8:	30200073          	mret

000037fc <GPIO_Init>:
    37fc:	459c                	lw	a5,8(a1)
    37fe:	00f7f893          	andi	a7,a5,15
    3802:	8bc1                	andi	a5,a5,16
    3804:	c781                	beqz	a5,380c <GPIO_Init+0x10>
    3806:	41dc                	lw	a5,4(a1)
    3808:	00f8e8b3          	or	a7,a7,a5
    380c:	400227b7          	lui	a5,0x40022
    3810:	5b9c                	lw	a5,48(a5)
    3812:	0f000737          	lui	a4,0xf000
    3816:	8ff9                	and	a5,a5,a4
    3818:	e791                	bnez	a5,3824 <GPIO_Init+0x28>
    381a:	200007b7          	lui	a5,0x20000
    381e:	4705                	li	a4,1
    3820:	12e78423          	sb	a4,296(a5) # 20000128 <MCU_Version>
    3824:	400117b7          	lui	a5,0x40011
    3828:	00f50963          	beq	a0,a5,383a <GPIO_Init+0x3e>
    382c:	0005c783          	lbu	a5,0(a1)
    3830:	c7bd                	beqz	a5,389e <GPIO_Init+0xa2>
    3832:	00052803          	lw	a6,0(a0)
    3836:	4701                	li	a4,0
    3838:	a831                	j	3854 <GPIO_Init+0x58>
    383a:	200007b7          	lui	a5,0x20000
    383e:	1287c783          	lbu	a5,296(a5) # 20000128 <MCU_Version>
    3842:	d7ed                	beqz	a5,382c <GPIO_Init+0x30>
    3844:	0005d783          	lhu	a5,0(a1)
    3848:	83b5                	srli	a5,a5,0xd
    384a:	00f59023          	sh	a5,0(a1)
    384e:	bff9                	j	382c <GPIO_Init+0x30>
    3850:	c95c                	sw	a5,20(a0)
    3852:	0705                	addi	a4,a4,1
    3854:	479d                	li	a5,7
    3856:	04e7e263          	bltu	a5,a4,389a <GPIO_Init+0x9e>
    385a:	4785                	li	a5,1
    385c:	00e797b3          	sll	a5,a5,a4
    3860:	0005d683          	lhu	a3,0(a1)
    3864:	8efd                	and	a3,a3,a5
    3866:	fed796e3          	bne	a5,a3,3852 <GPIO_Init+0x56>
    386a:	00271613          	slli	a2,a4,0x2
    386e:	46bd                	li	a3,15
    3870:	00c696b3          	sll	a3,a3,a2
    3874:	fff6c693          	not	a3,a3
    3878:	0106f833          	and	a6,a3,a6
    387c:	00c89633          	sll	a2,a7,a2
    3880:	01066833          	or	a6,a2,a6
    3884:	4594                	lw	a3,8(a1)
    3886:	02800613          	li	a2,40
    388a:	fcc683e3          	beq	a3,a2,3850 <GPIO_Init+0x54>
    388e:	04800613          	li	a2,72
    3892:	fcc690e3          	bne	a3,a2,3852 <GPIO_Init+0x56>
    3896:	c91c                	sw	a5,16(a0)
    3898:	bf6d                	j	3852 <GPIO_Init+0x56>
    389a:	01052023          	sw	a6,0(a0)
    389e:	0005d703          	lhu	a4,0(a1)
    38a2:	0ff00793          	li	a5,255
    38a6:	06e7f163          	bgeu	a5,a4,3908 <GPIO_Init+0x10c>
    38aa:	00452803          	lw	a6,4(a0)
    38ae:	4701                	li	a4,0
    38b0:	a021                	j	38b8 <GPIO_Init+0xbc>
    38b2:	c95c                	sw	a5,20(a0)
    38b4:	a089                	j	38f6 <GPIO_Init+0xfa>
    38b6:	0705                	addi	a4,a4,1
    38b8:	479d                	li	a5,7
    38ba:	04e7e563          	bltu	a5,a4,3904 <GPIO_Init+0x108>
    38be:	00870613          	addi	a2,a4,8 # f000008 <_data_lma+0xeff206c>
    38c2:	4785                	li	a5,1
    38c4:	00c797b3          	sll	a5,a5,a2
    38c8:	0005d683          	lhu	a3,0(a1)
    38cc:	8efd                	and	a3,a3,a5
    38ce:	fed794e3          	bne	a5,a3,38b6 <GPIO_Init+0xba>
    38d2:	00271613          	slli	a2,a4,0x2
    38d6:	46bd                	li	a3,15
    38d8:	00c696b3          	sll	a3,a3,a2
    38dc:	fff6c693          	not	a3,a3
    38e0:	0106f833          	and	a6,a3,a6
    38e4:	00c89633          	sll	a2,a7,a2
    38e8:	01066833          	or	a6,a2,a6
    38ec:	4590                	lw	a2,8(a1)
    38ee:	02800693          	li	a3,40
    38f2:	fcd600e3          	beq	a2,a3,38b2 <GPIO_Init+0xb6>
    38f6:	4590                	lw	a2,8(a1)
    38f8:	04800693          	li	a3,72
    38fc:	fad61de3          	bne	a2,a3,38b6 <GPIO_Init+0xba>
    3900:	c91c                	sw	a5,16(a0)
    3902:	bf55                	j	38b6 <GPIO_Init+0xba>
    3904:	01052223          	sw	a6,4(a0)
    3908:	8082                	ret

0000390a <GPIO_ReadInputDataBit>:
    390a:	400117b7          	lui	a5,0x40011
    390e:	00f50763          	beq	a0,a5,391c <GPIO_ReadInputDataBit+0x12>
    3912:	451c                	lw	a5,8(a0)
    3914:	8dfd                	and	a1,a1,a5
    3916:	c991                	beqz	a1,392a <GPIO_ReadInputDataBit+0x20>
    3918:	4505                	li	a0,1
    391a:	8082                	ret
    391c:	200007b7          	lui	a5,0x20000
    3920:	1287c783          	lbu	a5,296(a5) # 20000128 <MCU_Version>
    3924:	d7fd                	beqz	a5,3912 <GPIO_ReadInputDataBit+0x8>
    3926:	81b5                	srli	a1,a1,0xd
    3928:	b7ed                	j	3912 <GPIO_ReadInputDataBit+0x8>
    392a:	4501                	li	a0,0
    392c:	8082                	ret

0000392e <GPIO_SetBits>:
    392e:	400117b7          	lui	a5,0x40011
    3932:	00f50463          	beq	a0,a5,393a <GPIO_SetBits+0xc>
    3936:	c90c                	sw	a1,16(a0)
    3938:	8082                	ret
    393a:	200007b7          	lui	a5,0x20000
    393e:	1287c783          	lbu	a5,296(a5) # 20000128 <MCU_Version>
    3942:	dbf5                	beqz	a5,3936 <GPIO_SetBits+0x8>
    3944:	81b5                	srli	a1,a1,0xd
    3946:	bfc5                	j	3936 <GPIO_SetBits+0x8>

00003948 <GPIO_ResetBits>:
    3948:	400117b7          	lui	a5,0x40011
    394c:	00f50463          	beq	a0,a5,3954 <GPIO_ResetBits+0xc>
    3950:	c94c                	sw	a1,20(a0)
    3952:	8082                	ret
    3954:	200007b7          	lui	a5,0x20000
    3958:	1287c783          	lbu	a5,296(a5) # 20000128 <MCU_Version>
    395c:	dbf5                	beqz	a5,3950 <GPIO_ResetBits+0x8>
    395e:	81b5                	srli	a1,a1,0xd
    3960:	bfc5                	j	3950 <GPIO_ResetBits+0x8>

00003962 <I2C_Init>:
    3962:	bbdfc2ef          	jal	t0,51e <__riscv_save_0>
    3966:	1101                	addi	sp,sp,-32
    3968:	842a                	mv	s0,a0
    396a:	892e                	mv	s2,a1
    396c:	00455483          	lhu	s1,4(a0)
    3970:	04c2                	slli	s1,s1,0x10
    3972:	80c1                	srli	s1,s1,0x10
    3974:	fc04f493          	andi	s1,s1,-64
    3978:	04c2                	slli	s1,s1,0x10
    397a:	80c1                	srli	s1,s1,0x10
    397c:	0068                	addi	a0,sp,12
    397e:	2ef9                	jal	3d5c <RCC_GetClocksFreq>
    3980:	4752                	lw	a4,20(sp)
    3982:	000f47b7          	lui	a5,0xf4
    3986:	24078793          	addi	a5,a5,576 # f4240 <_data_lma+0xe62a4>
    398a:	02f757b3          	divu	a5,a4,a5
    398e:	01079613          	slli	a2,a5,0x10
    3992:	8241                	srli	a2,a2,0x10
    3994:	8cd1                	or	s1,s1,a2
    3996:	00941223          	sh	s1,4(s0)
    399a:	00045683          	lhu	a3,0(s0)
    399e:	06c2                	slli	a3,a3,0x10
    39a0:	82c1                	srli	a3,a3,0x10
    39a2:	9af9                	andi	a3,a3,-2
    39a4:	06c2                	slli	a3,a3,0x10
    39a6:	82c1                	srli	a3,a3,0x10
    39a8:	00d41023          	sh	a3,0(s0)
    39ac:	00092683          	lw	a3,0(s2)
    39b0:	65e1                	lui	a1,0x18
    39b2:	6a058593          	addi	a1,a1,1696 # 186a0 <_data_lma+0xa704>
    39b6:	06d5e063          	bltu	a1,a3,3a16 <I2C_Init+0xb4>
    39ba:	0686                	slli	a3,a3,0x1
    39bc:	02d75733          	divu	a4,a4,a3
    39c0:	0742                	slli	a4,a4,0x10
    39c2:	8341                	srli	a4,a4,0x10
    39c4:	478d                	li	a5,3
    39c6:	00e7e363          	bltu	a5,a4,39cc <I2C_Init+0x6a>
    39ca:	4711                	li	a4,4
    39cc:	0605                	addi	a2,a2,1
    39ce:	0642                	slli	a2,a2,0x10
    39d0:	8241                	srli	a2,a2,0x10
    39d2:	02c41023          	sh	a2,32(s0)
    39d6:	00e41e23          	sh	a4,28(s0)
    39da:	00045783          	lhu	a5,0(s0)
    39de:	0017e793          	ori	a5,a5,1
    39e2:	00f41023          	sh	a5,0(s0)
    39e6:	00045783          	lhu	a5,0(s0)
    39ea:	07c2                	slli	a5,a5,0x10
    39ec:	83c1                	srli	a5,a5,0x10
    39ee:	bf57f793          	andi	a5,a5,-1035
    39f2:	00495703          	lhu	a4,4(s2)
    39f6:	00a95683          	lhu	a3,10(s2)
    39fa:	8f55                	or	a4,a4,a3
    39fc:	8fd9                	or	a5,a5,a4
    39fe:	00f41023          	sh	a5,0(s0)
    3a02:	00c95783          	lhu	a5,12(s2)
    3a06:	00895703          	lhu	a4,8(s2)
    3a0a:	8fd9                	or	a5,a5,a4
    3a0c:	00f41423          	sh	a5,8(s0)
    3a10:	6105                	addi	sp,sp,32
    3a12:	b31fc06f          	j	542 <__riscv_restore_0>
    3a16:	00695583          	lhu	a1,6(s2)
    3a1a:	6631                	lui	a2,0xc
    3a1c:	167d                	addi	a2,a2,-1
    3a1e:	04c58863          	beq	a1,a2,3a6e <I2C_Init+0x10c>
    3a22:	00169593          	slli	a1,a3,0x1
    3a26:	95b6                	add	a1,a1,a3
    3a28:	00359613          	slli	a2,a1,0x3
    3a2c:	96b2                	add	a3,a3,a2
    3a2e:	02d75733          	divu	a4,a4,a3
    3a32:	0742                	slli	a4,a4,0x10
    3a34:	8341                	srli	a4,a4,0x10
    3a36:	6691                	lui	a3,0x4
    3a38:	8f55                	or	a4,a4,a3
    3a3a:	6685                	lui	a3,0x1
    3a3c:	16fd                	addi	a3,a3,-1
    3a3e:	8ef9                	and	a3,a3,a4
    3a40:	e299                	bnez	a3,3a46 <I2C_Init+0xe4>
    3a42:	00176713          	ori	a4,a4,1
    3a46:	76e1                	lui	a3,0xffff8
    3a48:	8f55                	or	a4,a4,a3
    3a4a:	0742                	slli	a4,a4,0x10
    3a4c:	8341                	srli	a4,a4,0x10
    3a4e:	07c2                	slli	a5,a5,0x10
    3a50:	83c1                	srli	a5,a5,0x10
    3a52:	12c00693          	li	a3,300
    3a56:	02d787b3          	mul	a5,a5,a3
    3a5a:	3e800693          	li	a3,1000
    3a5e:	02d7c7b3          	div	a5,a5,a3
    3a62:	0785                	addi	a5,a5,1
    3a64:	07c2                	slli	a5,a5,0x10
    3a66:	83c1                	srli	a5,a5,0x10
    3a68:	02f41023          	sh	a5,32(s0)
    3a6c:	b7ad                	j	39d6 <I2C_Init+0x74>
    3a6e:	00169613          	slli	a2,a3,0x1
    3a72:	96b2                	add	a3,a3,a2
    3a74:	02d75733          	divu	a4,a4,a3
    3a78:	0742                	slli	a4,a4,0x10
    3a7a:	8341                	srli	a4,a4,0x10
    3a7c:	bf7d                	j	3a3a <I2C_Init+0xd8>

00003a7e <I2C_Cmd>:
    3a7e:	c981                	beqz	a1,3a8e <I2C_Cmd+0x10>
    3a80:	00055783          	lhu	a5,0(a0)
    3a84:	0017e793          	ori	a5,a5,1
    3a88:	00f51023          	sh	a5,0(a0)
    3a8c:	8082                	ret
    3a8e:	00055783          	lhu	a5,0(a0)
    3a92:	07c2                	slli	a5,a5,0x10
    3a94:	83c1                	srli	a5,a5,0x10
    3a96:	9bf9                	andi	a5,a5,-2
    3a98:	07c2                	slli	a5,a5,0x10
    3a9a:	83c1                	srli	a5,a5,0x10
    3a9c:	00f51023          	sh	a5,0(a0)
    3aa0:	8082                	ret

00003aa2 <I2C_GenerateSTART>:
    3aa2:	c981                	beqz	a1,3ab2 <I2C_GenerateSTART+0x10>
    3aa4:	00055783          	lhu	a5,0(a0)
    3aa8:	1007e793          	ori	a5,a5,256
    3aac:	00f51023          	sh	a5,0(a0)
    3ab0:	8082                	ret
    3ab2:	00055783          	lhu	a5,0(a0)
    3ab6:	07c2                	slli	a5,a5,0x10
    3ab8:	83c1                	srli	a5,a5,0x10
    3aba:	eff7f793          	andi	a5,a5,-257
    3abe:	07c2                	slli	a5,a5,0x10
    3ac0:	83c1                	srli	a5,a5,0x10
    3ac2:	00f51023          	sh	a5,0(a0)
    3ac6:	8082                	ret

00003ac8 <I2C_GenerateSTOP>:
    3ac8:	c981                	beqz	a1,3ad8 <I2C_GenerateSTOP+0x10>
    3aca:	00055783          	lhu	a5,0(a0)
    3ace:	2007e793          	ori	a5,a5,512
    3ad2:	00f51023          	sh	a5,0(a0)
    3ad6:	8082                	ret
    3ad8:	00055783          	lhu	a5,0(a0)
    3adc:	07c2                	slli	a5,a5,0x10
    3ade:	83c1                	srli	a5,a5,0x10
    3ae0:	dff7f793          	andi	a5,a5,-513
    3ae4:	07c2                	slli	a5,a5,0x10
    3ae6:	83c1                	srli	a5,a5,0x10
    3ae8:	00f51023          	sh	a5,0(a0)
    3aec:	8082                	ret

00003aee <I2C_SendData>:
    3aee:	00b51823          	sh	a1,16(a0)
    3af2:	8082                	ret

00003af4 <I2C_ReceiveData>:
    3af4:	01055503          	lhu	a0,16(a0)
    3af8:	0ff57513          	andi	a0,a0,255
    3afc:	8082                	ret

00003afe <I2C_Send7bitAddress>:
    3afe:	ca01                	beqz	a2,3b0e <I2C_Send7bitAddress+0x10>
    3b00:	0015e593          	ori	a1,a1,1
    3b04:	05c2                	slli	a1,a1,0x10
    3b06:	81c1                	srli	a1,a1,0x10
    3b08:	00b51823          	sh	a1,16(a0)
    3b0c:	8082                	ret
    3b0e:	0fe5f593          	andi	a1,a1,254
    3b12:	bfcd                	j	3b04 <I2C_Send7bitAddress+0x6>

00003b14 <I2C_NACKPositionConfig>:
    3b14:	80058593          	addi	a1,a1,-2048
    3b18:	c991                	beqz	a1,3b2c <I2C_NACKPositionConfig+0x18>
    3b1a:	00055703          	lhu	a4,0(a0)
    3b1e:	77fd                	lui	a5,0xfffff
    3b20:	7ff78793          	addi	a5,a5,2047 # fffff7ff <__freertos_irq_stack_top+0xdfffa7ff>
    3b24:	8ff9                	and	a5,a5,a4
    3b26:	00f51023          	sh	a5,0(a0)
    3b2a:	8082                	ret
    3b2c:	00055703          	lhu	a4,0(a0)
    3b30:	6785                	lui	a5,0x1
    3b32:	80078793          	addi	a5,a5,-2048 # 800 <__stack_size>
    3b36:	8fd9                	or	a5,a5,a4
    3b38:	07c2                	slli	a5,a5,0x10
    3b3a:	83c1                	srli	a5,a5,0x10
    3b3c:	00f51023          	sh	a5,0(a0)
    3b40:	8082                	ret

00003b42 <I2C_CheckEvent>:
    3b42:	01455703          	lhu	a4,20(a0)
    3b46:	01855783          	lhu	a5,24(a0)
    3b4a:	07c2                	slli	a5,a5,0x10
    3b4c:	8fd9                	or	a5,a5,a4
    3b4e:	01000737          	lui	a4,0x1000
    3b52:	177d                	addi	a4,a4,-1
    3b54:	8ff9                	and	a5,a5,a4
    3b56:	8fed                	and	a5,a5,a1
    3b58:	00b78463          	beq	a5,a1,3b60 <I2C_CheckEvent+0x1e>
    3b5c:	4501                	li	a0,0
    3b5e:	8082                	ret
    3b60:	4505                	li	a0,1
    3b62:	8082                	ret

00003b64 <I2C_GetFlagStatus>:
    3b64:	1141                	addi	sp,sp,-16
    3b66:	c602                	sw	zero,12(sp)
    3b68:	c402                	sw	zero,8(sp)
    3b6a:	c42a                	sw	a0,8(sp)
    3b6c:	01c5d793          	srli	a5,a1,0x1c
    3b70:	c63e                	sw	a5,12(sp)
    3b72:	010007b7          	lui	a5,0x1000
    3b76:	17fd                	addi	a5,a5,-1
    3b78:	8dfd                	and	a1,a1,a5
    3b7a:	47b2                	lw	a5,12(sp)
    3b7c:	cb99                	beqz	a5,3b92 <I2C_GetFlagStatus+0x2e>
    3b7e:	47a2                	lw	a5,8(sp)
    3b80:	07d1                	addi	a5,a5,20
    3b82:	c43e                	sw	a5,8(sp)
    3b84:	47a2                	lw	a5,8(sp)
    3b86:	439c                	lw	a5,0(a5)
    3b88:	8dfd                	and	a1,a1,a5
    3b8a:	c989                	beqz	a1,3b9c <I2C_GetFlagStatus+0x38>
    3b8c:	4505                	li	a0,1
    3b8e:	0141                	addi	sp,sp,16
    3b90:	8082                	ret
    3b92:	81c1                	srli	a1,a1,0x10
    3b94:	47a2                	lw	a5,8(sp)
    3b96:	07e1                	addi	a5,a5,24
    3b98:	c43e                	sw	a5,8(sp)
    3b9a:	b7ed                	j	3b84 <I2C_GetFlagStatus+0x20>
    3b9c:	4501                	li	a0,0
    3b9e:	bfc5                	j	3b8e <I2C_GetFlagStatus+0x2a>

00003ba0 <NVIC_PriorityGroupConfig>:
    3ba0:	200007b7          	lui	a5,0x20000
    3ba4:	12a7a623          	sw	a0,300(a5) # 2000012c <NVIC_Priority_Group>
    3ba8:	8082                	ret

00003baa <NVIC_Init>:
    3baa:	200007b7          	lui	a5,0x20000
    3bae:	12c7a783          	lw	a5,300(a5) # 2000012c <NVIC_Priority_Group>
    3bb2:	ef9d                	bnez	a5,3bf0 <NVIC_Init+0x46>
    3bb4:	00054683          	lbu	a3,0(a0)
    3bb8:	00254783          	lbu	a5,2(a0)
    3bbc:	0792                	slli	a5,a5,0x4
    3bbe:	0ff7f793          	andi	a5,a5,255
    3bc2:	e000e737          	lui	a4,0xe000e
    3bc6:	9736                	add	a4,a4,a3
    3bc8:	40f70023          	sb	a5,1024(a4) # e000e400 <__freertos_irq_stack_top+0xc0009400>
    3bcc:	415c                	lw	a5,4(a0)
    3bce:	16078863          	beqz	a5,3d3e <NVIC_Init+0x194>
    3bd2:	00054703          	lbu	a4,0(a0)
    3bd6:	00575793          	srli	a5,a4,0x5
    3bda:	4685                	li	a3,1
    3bdc:	00e696b3          	sll	a3,a3,a4
    3be0:	04078793          	addi	a5,a5,64
    3be4:	078a                	slli	a5,a5,0x2
    3be6:	e000e737          	lui	a4,0xe000e
    3bea:	97ba                	add	a5,a5,a4
    3bec:	c394                	sw	a3,0(a5)
    3bee:	8082                	ret
    3bf0:	200007b7          	lui	a5,0x20000
    3bf4:	12c7a703          	lw	a4,300(a5) # 2000012c <NVIC_Priority_Group>
    3bf8:	4785                	li	a5,1
    3bfa:	04f70463          	beq	a4,a5,3c42 <NVIC_Init+0x98>
    3bfe:	200007b7          	lui	a5,0x20000
    3c02:	12c7a703          	lw	a4,300(a5) # 2000012c <NVIC_Priority_Group>
    3c06:	4789                	li	a5,2
    3c08:	06f70d63          	beq	a4,a5,3c82 <NVIC_Init+0xd8>
    3c0c:	200007b7          	lui	a5,0x20000
    3c10:	12c7a703          	lw	a4,300(a5) # 2000012c <NVIC_Priority_Group>
    3c14:	478d                	li	a5,3
    3c16:	0cf70563          	beq	a4,a5,3ce0 <NVIC_Init+0x136>
    3c1a:	200007b7          	lui	a5,0x20000
    3c1e:	12c7a703          	lw	a4,300(a5) # 2000012c <NVIC_Priority_Group>
    3c22:	4791                	li	a5,4
    3c24:	faf714e3          	bne	a4,a5,3bcc <NVIC_Init+0x22>
    3c28:	00054683          	lbu	a3,0(a0)
    3c2c:	00154783          	lbu	a5,1(a0)
    3c30:	0792                	slli	a5,a5,0x4
    3c32:	0ff7f793          	andi	a5,a5,255
    3c36:	e000e737          	lui	a4,0xe000e
    3c3a:	9736                	add	a4,a4,a3
    3c3c:	40f70023          	sb	a5,1024(a4) # e000e400 <__freertos_irq_stack_top+0xc0009400>
    3c40:	b771                	j	3bcc <NVIC_Init+0x22>
    3c42:	00154703          	lbu	a4,1(a0)
    3c46:	00f70f63          	beq	a4,a5,3c64 <NVIC_Init+0xba>
    3c4a:	00054683          	lbu	a3,0(a0)
    3c4e:	00254783          	lbu	a5,2(a0)
    3c52:	0792                	slli	a5,a5,0x4
    3c54:	0ff7f793          	andi	a5,a5,255
    3c58:	e000e737          	lui	a4,0xe000e
    3c5c:	9736                	add	a4,a4,a3
    3c5e:	40f70023          	sb	a5,1024(a4) # e000e400 <__freertos_irq_stack_top+0xc0009400>
    3c62:	b7ad                	j	3bcc <NVIC_Init+0x22>
    3c64:	00054683          	lbu	a3,0(a0)
    3c68:	00254783          	lbu	a5,2(a0)
    3c6c:	0792                	slli	a5,a5,0x4
    3c6e:	f807e793          	ori	a5,a5,-128
    3c72:	0f07f793          	andi	a5,a5,240
    3c76:	e000e737          	lui	a4,0xe000e
    3c7a:	9736                	add	a4,a4,a3
    3c7c:	40f70023          	sb	a5,1024(a4) # e000e400 <__freertos_irq_stack_top+0xc0009400>
    3c80:	b7b1                	j	3bcc <NVIC_Init+0x22>
    3c82:	00154783          	lbu	a5,1(a0)
    3c86:	4705                	li	a4,1
    3c88:	02f77963          	bgeu	a4,a5,3cba <NVIC_Init+0x110>
    3c8c:	00254703          	lbu	a4,2(a0)
    3c90:	03e78793          	addi	a5,a5,62
    3c94:	078a                	slli	a5,a5,0x2
    3c96:	0ff7f793          	andi	a5,a5,255
    3c9a:	97ba                	add	a5,a5,a4
    3c9c:	0ff7f793          	andi	a5,a5,255
    3ca0:	00054683          	lbu	a3,0(a0)
    3ca4:	0792                	slli	a5,a5,0x4
    3ca6:	f807e793          	ori	a5,a5,-128
    3caa:	0f07f793          	andi	a5,a5,240
    3cae:	e000e737          	lui	a4,0xe000e
    3cb2:	9736                	add	a4,a4,a3
    3cb4:	40f70023          	sb	a5,1024(a4) # e000e400 <__freertos_irq_stack_top+0xc0009400>
    3cb8:	bf11                	j	3bcc <NVIC_Init+0x22>
    3cba:	00254703          	lbu	a4,2(a0)
    3cbe:	078a                	slli	a5,a5,0x2
    3cc0:	0ff7f793          	andi	a5,a5,255
    3cc4:	97ba                	add	a5,a5,a4
    3cc6:	0ff7f793          	andi	a5,a5,255
    3cca:	00054683          	lbu	a3,0(a0)
    3cce:	0792                	slli	a5,a5,0x4
    3cd0:	0ff7f793          	andi	a5,a5,255
    3cd4:	e000e737          	lui	a4,0xe000e
    3cd8:	9736                	add	a4,a4,a3
    3cda:	40f70023          	sb	a5,1024(a4) # e000e400 <__freertos_irq_stack_top+0xc0009400>
    3cde:	b5fd                	j	3bcc <NVIC_Init+0x22>
    3ce0:	00154783          	lbu	a5,1(a0)
    3ce4:	470d                	li	a4,3
    3ce6:	02f76563          	bltu	a4,a5,3d10 <NVIC_Init+0x166>
    3cea:	00254703          	lbu	a4,2(a0)
    3cee:	0786                	slli	a5,a5,0x1
    3cf0:	0ff7f793          	andi	a5,a5,255
    3cf4:	97ba                	add	a5,a5,a4
    3cf6:	0ff7f793          	andi	a5,a5,255
    3cfa:	00054683          	lbu	a3,0(a0)
    3cfe:	0792                	slli	a5,a5,0x4
    3d00:	0ff7f793          	andi	a5,a5,255
    3d04:	e000e737          	lui	a4,0xe000e
    3d08:	9736                	add	a4,a4,a3
    3d0a:	40f70023          	sb	a5,1024(a4) # e000e400 <__freertos_irq_stack_top+0xc0009400>
    3d0e:	bd7d                	j	3bcc <NVIC_Init+0x22>
    3d10:	00254703          	lbu	a4,2(a0)
    3d14:	07c78793          	addi	a5,a5,124
    3d18:	0786                	slli	a5,a5,0x1
    3d1a:	0ff7f793          	andi	a5,a5,255
    3d1e:	97ba                	add	a5,a5,a4
    3d20:	0ff7f793          	andi	a5,a5,255
    3d24:	00054683          	lbu	a3,0(a0)
    3d28:	0792                	slli	a5,a5,0x4
    3d2a:	f807e793          	ori	a5,a5,-128
    3d2e:	0f07f793          	andi	a5,a5,240
    3d32:	e000e737          	lui	a4,0xe000e
    3d36:	9736                	add	a4,a4,a3
    3d38:	40f70023          	sb	a5,1024(a4) # e000e400 <__freertos_irq_stack_top+0xc0009400>
    3d3c:	bd41                	j	3bcc <NVIC_Init+0x22>
    3d3e:	00054703          	lbu	a4,0(a0)
    3d42:	00575793          	srli	a5,a4,0x5
    3d46:	4685                	li	a3,1
    3d48:	00e696b3          	sll	a3,a3,a4
    3d4c:	06078793          	addi	a5,a5,96
    3d50:	078a                	slli	a5,a5,0x2
    3d52:	e000e737          	lui	a4,0xe000e
    3d56:	97ba                	add	a5,a5,a4
    3d58:	c394                	sw	a3,0(a5)
    3d5a:	8082                	ret

00003d5c <RCC_GetClocksFreq>:
    3d5c:	400217b7          	lui	a5,0x40021
    3d60:	43dc                	lw	a5,4(a5)
    3d62:	8bb1                	andi	a5,a5,12
    3d64:	4711                	li	a4,4
    3d66:	08e78263          	beq	a5,a4,3dea <RCC_GetClocksFreq+0x8e>
    3d6a:	4721                	li	a4,8
    3d6c:	08e78563          	beq	a5,a4,3df6 <RCC_GetClocksFreq+0x9a>
    3d70:	c799                	beqz	a5,3d7e <RCC_GetClocksFreq+0x22>
    3d72:	007a17b7          	lui	a5,0x7a1
    3d76:	20078793          	addi	a5,a5,512 # 7a1200 <_data_lma+0x793264>
    3d7a:	c11c                	sw	a5,0(a0)
    3d7c:	a031                	j	3d88 <RCC_GetClocksFreq+0x2c>
    3d7e:	007a17b7          	lui	a5,0x7a1
    3d82:	20078793          	addi	a5,a5,512 # 7a1200 <_data_lma+0x793264>
    3d86:	c11c                	sw	a5,0(a0)
    3d88:	40021637          	lui	a2,0x40021
    3d8c:	425c                	lw	a5,4(a2)
    3d8e:	8391                	srli	a5,a5,0x4
    3d90:	8bbd                	andi	a5,a5,15
    3d92:	20000737          	lui	a4,0x20000
    3d96:	00070713          	mv	a4,a4
    3d9a:	97ba                	add	a5,a5,a4
    3d9c:	0007c683          	lbu	a3,0(a5)
    3da0:	411c                	lw	a5,0(a0)
    3da2:	00d7d7b3          	srl	a5,a5,a3
    3da6:	c15c                	sw	a5,4(a0)
    3da8:	4254                	lw	a3,4(a2)
    3daa:	82a1                	srli	a3,a3,0x8
    3dac:	8a9d                	andi	a3,a3,7
    3dae:	96ba                	add	a3,a3,a4
    3db0:	0006c683          	lbu	a3,0(a3) # ffff8000 <__freertos_irq_stack_top+0xdfff3000>
    3db4:	00d7d6b3          	srl	a3,a5,a3
    3db8:	c514                	sw	a3,8(a0)
    3dba:	4254                	lw	a3,4(a2)
    3dbc:	82ad                	srli	a3,a3,0xb
    3dbe:	8a9d                	andi	a3,a3,7
    3dc0:	9736                	add	a4,a4,a3
    3dc2:	00074703          	lbu	a4,0(a4) # 20000000 <_data_vma>
    3dc6:	00e7d7b3          	srl	a5,a5,a4
    3dca:	c55c                	sw	a5,12(a0)
    3dcc:	4258                	lw	a4,4(a2)
    3dce:	8339                	srli	a4,a4,0xe
    3dd0:	00377693          	andi	a3,a4,3
    3dd4:	80c18713          	addi	a4,gp,-2036 # 2000008c <ADCPrescTable>
    3dd8:	9736                	add	a4,a4,a3
    3dda:	00074703          	lbu	a4,0(a4)
    3dde:	0ff77713          	andi	a4,a4,255
    3de2:	02e7d7b3          	divu	a5,a5,a4
    3de6:	c91c                	sw	a5,16(a0)
    3de8:	8082                	ret
    3dea:	007a17b7          	lui	a5,0x7a1
    3dee:	20078793          	addi	a5,a5,512 # 7a1200 <_data_lma+0x793264>
    3df2:	c11c                	sw	a5,0(a0)
    3df4:	bf51                	j	3d88 <RCC_GetClocksFreq+0x2c>
    3df6:	40021737          	lui	a4,0x40021
    3dfa:	435c                	lw	a5,4(a4)
    3dfc:	4358                	lw	a4,4(a4)
    3dfe:	66c1                	lui	a3,0x10
    3e00:	8f75                	and	a4,a4,a3
    3e02:	83c9                	srli	a5,a5,0x12
    3e04:	8bbd                	andi	a5,a5,15
    3e06:	0789                	addi	a5,a5,2
    3e08:	46c5                	li	a3,17
    3e0a:	02d78163          	beq	a5,a3,3e2c <RCC_GetClocksFreq+0xd0>
    3e0e:	eb0d                	bnez	a4,3e40 <RCC_GetClocksFreq+0xe4>
    3e10:	40024737          	lui	a4,0x40024
    3e14:	80072703          	lw	a4,-2048(a4) # 40023800 <__freertos_irq_stack_top+0x2001e800>
    3e18:	8b41                	andi	a4,a4,16
    3e1a:	cb19                	beqz	a4,3e30 <RCC_GetClocksFreq+0xd4>
    3e1c:	007a1737          	lui	a4,0x7a1
    3e20:	20070713          	addi	a4,a4,512 # 7a1200 <_data_lma+0x793264>
    3e24:	02e787b3          	mul	a5,a5,a4
    3e28:	c11c                	sw	a5,0(a0)
    3e2a:	bfb9                	j	3d88 <RCC_GetClocksFreq+0x2c>
    3e2c:	47c9                	li	a5,18
    3e2e:	b7c5                	j	3e0e <RCC_GetClocksFreq+0xb2>
    3e30:	003d1737          	lui	a4,0x3d1
    3e34:	90070713          	addi	a4,a4,-1792 # 3d0900 <_data_lma+0x3c2964>
    3e38:	02e787b3          	mul	a5,a5,a4
    3e3c:	c11c                	sw	a5,0(a0)
    3e3e:	b7a9                	j	3d88 <RCC_GetClocksFreq+0x2c>
    3e40:	40021737          	lui	a4,0x40021
    3e44:	4358                	lw	a4,4(a4)
    3e46:	00e71693          	slli	a3,a4,0xe
    3e4a:	0006da63          	bgez	a3,3e5e <RCC_GetClocksFreq+0x102>
    3e4e:	003d1737          	lui	a4,0x3d1
    3e52:	90070713          	addi	a4,a4,-1792 # 3d0900 <_data_lma+0x3c2964>
    3e56:	02e787b3          	mul	a5,a5,a4
    3e5a:	c11c                	sw	a5,0(a0)
    3e5c:	b735                	j	3d88 <RCC_GetClocksFreq+0x2c>
    3e5e:	007a1737          	lui	a4,0x7a1
    3e62:	20070713          	addi	a4,a4,512 # 7a1200 <_data_lma+0x793264>
    3e66:	02e787b3          	mul	a5,a5,a4
    3e6a:	c11c                	sw	a5,0(a0)
    3e6c:	bf31                	j	3d88 <RCC_GetClocksFreq+0x2c>

00003e6e <RCC_AHBPeriphClockCmd>:
    3e6e:	c599                	beqz	a1,3e7c <RCC_AHBPeriphClockCmd+0xe>
    3e70:	40021737          	lui	a4,0x40021
    3e74:	4b5c                	lw	a5,20(a4)
    3e76:	8d5d                	or	a0,a0,a5
    3e78:	cb48                	sw	a0,20(a4)
    3e7a:	8082                	ret
    3e7c:	40021737          	lui	a4,0x40021
    3e80:	4b5c                	lw	a5,20(a4)
    3e82:	fff54513          	not	a0,a0
    3e86:	8d7d                	and	a0,a0,a5
    3e88:	cb48                	sw	a0,20(a4)
    3e8a:	8082                	ret

00003e8c <RCC_APB2PeriphClockCmd>:
    3e8c:	c599                	beqz	a1,3e9a <RCC_APB2PeriphClockCmd+0xe>
    3e8e:	40021737          	lui	a4,0x40021
    3e92:	4f1c                	lw	a5,24(a4)
    3e94:	8d5d                	or	a0,a0,a5
    3e96:	cf08                	sw	a0,24(a4)
    3e98:	8082                	ret
    3e9a:	40021737          	lui	a4,0x40021
    3e9e:	4f1c                	lw	a5,24(a4)
    3ea0:	fff54513          	not	a0,a0
    3ea4:	8d7d                	and	a0,a0,a5
    3ea6:	cf08                	sw	a0,24(a4)
    3ea8:	8082                	ret

00003eaa <RCC_APB1PeriphClockCmd>:
    3eaa:	c599                	beqz	a1,3eb8 <RCC_APB1PeriphClockCmd+0xe>
    3eac:	40021737          	lui	a4,0x40021
    3eb0:	4f5c                	lw	a5,28(a4)
    3eb2:	8d5d                	or	a0,a0,a5
    3eb4:	cf48                	sw	a0,28(a4)
    3eb6:	8082                	ret
    3eb8:	40021737          	lui	a4,0x40021
    3ebc:	4f5c                	lw	a5,28(a4)
    3ebe:	fff54513          	not	a0,a0
    3ec2:	8d7d                	and	a0,a0,a5
    3ec4:	cf48                	sw	a0,28(a4)
    3ec6:	8082                	ret

00003ec8 <SPI_Init>:
    3ec8:	00055703          	lhu	a4,0(a0)
    3ecc:	678d                	lui	a5,0x3
    3ece:	04078793          	addi	a5,a5,64 # 3040 <matrix_subtract+0x72>
    3ed2:	8f7d                	and	a4,a4,a5
    3ed4:	0005de03          	lhu	t3,0(a1)
    3ed8:	0025de83          	lhu	t4,2(a1)
    3edc:	0045d303          	lhu	t1,4(a1)
    3ee0:	0065d883          	lhu	a7,6(a1)
    3ee4:	0085d803          	lhu	a6,8(a1)
    3ee8:	00a5d603          	lhu	a2,10(a1)
    3eec:	00c5d683          	lhu	a3,12(a1)
    3ef0:	00e5d783          	lhu	a5,14(a1)
    3ef4:	01de6e33          	or	t3,t3,t4
    3ef8:	01c36333          	or	t1,t1,t3
    3efc:	0068e8b3          	or	a7,a7,t1
    3f00:	01186833          	or	a6,a6,a7
    3f04:	01066633          	or	a2,a2,a6
    3f08:	8ed1                	or	a3,a3,a2
    3f0a:	8fd5                	or	a5,a5,a3
    3f0c:	8fd9                	or	a5,a5,a4
    3f0e:	00f51023          	sh	a5,0(a0)
    3f12:	01c55703          	lhu	a4,28(a0)
    3f16:	77fd                	lui	a5,0xfffff
    3f18:	7ff78793          	addi	a5,a5,2047 # fffff7ff <__freertos_irq_stack_top+0xdfffa7ff>
    3f1c:	8ff9                	and	a5,a5,a4
    3f1e:	00f51e23          	sh	a5,28(a0)
    3f22:	0105d783          	lhu	a5,16(a1)
    3f26:	00f51823          	sh	a5,16(a0)
    3f2a:	8082                	ret

00003f2c <SPI_Cmd>:
    3f2c:	c981                	beqz	a1,3f3c <SPI_Cmd+0x10>
    3f2e:	00055783          	lhu	a5,0(a0)
    3f32:	0407e793          	ori	a5,a5,64
    3f36:	00f51023          	sh	a5,0(a0)
    3f3a:	8082                	ret
    3f3c:	00055783          	lhu	a5,0(a0)
    3f40:	07c2                	slli	a5,a5,0x10
    3f42:	83c1                	srli	a5,a5,0x10
    3f44:	fbf7f793          	andi	a5,a5,-65
    3f48:	07c2                	slli	a5,a5,0x10
    3f4a:	83c1                	srli	a5,a5,0x10
    3f4c:	00f51023          	sh	a5,0(a0)
    3f50:	8082                	ret

00003f52 <SPI_I2S_SendData>:
    3f52:	00b51623          	sh	a1,12(a0)
    3f56:	8082                	ret

00003f58 <SPI_I2S_ReceiveData>:
    3f58:	00c55503          	lhu	a0,12(a0)
    3f5c:	8082                	ret

00003f5e <SPI_I2S_GetFlagStatus>:
    3f5e:	00855783          	lhu	a5,8(a0)
    3f62:	8dfd                	and	a1,a1,a5
    3f64:	c199                	beqz	a1,3f6a <SPI_I2S_GetFlagStatus+0xc>
    3f66:	4505                	li	a0,1
    3f68:	8082                	ret
    3f6a:	4501                	li	a0,0
    3f6c:	8082                	ret

00003f6e <TI1_Config>:
    3f6e:	02055803          	lhu	a6,32(a0)
    3f72:	0842                	slli	a6,a6,0x10
    3f74:	01085813          	srli	a6,a6,0x10
    3f78:	ffe87813          	andi	a6,a6,-2
    3f7c:	0842                	slli	a6,a6,0x10
    3f7e:	01085813          	srli	a6,a6,0x10
    3f82:	03051023          	sh	a6,32(a0)
    3f86:	01855803          	lhu	a6,24(a0)
    3f8a:	0842                	slli	a6,a6,0x10
    3f8c:	01085813          	srli	a6,a6,0x10
    3f90:	02055783          	lhu	a5,32(a0)
    3f94:	07c2                	slli	a5,a5,0x10
    3f96:	83c1                	srli	a5,a5,0x10
    3f98:	f0c87813          	andi	a6,a6,-244
    3f9c:	0692                	slli	a3,a3,0x4
    3f9e:	06c2                	slli	a3,a3,0x10
    3fa0:	82c1                	srli	a3,a3,0x10
    3fa2:	8e55                	or	a2,a2,a3
    3fa4:	00c86833          	or	a6,a6,a2
    3fa8:	400136b7          	lui	a3,0x40013
    3fac:	c0068693          	addi	a3,a3,-1024 # 40012c00 <__freertos_irq_stack_top+0x2000dc00>
    3fb0:	02d50d63          	beq	a0,a3,3fea <TI1_Config+0x7c>
    3fb4:	40000737          	lui	a4,0x40000
    3fb8:	02e50963          	beq	a0,a4,3fea <TI1_Config+0x7c>
    3fbc:	40070713          	addi	a4,a4,1024 # 40000400 <__freertos_irq_stack_top+0x1fffb400>
    3fc0:	02e50563          	beq	a0,a4,3fea <TI1_Config+0x7c>
    3fc4:	40001737          	lui	a4,0x40001
    3fc8:	80070713          	addi	a4,a4,-2048 # 40000800 <__freertos_irq_stack_top+0x1fffb800>
    3fcc:	00e50f63          	beq	a0,a4,3fea <TI1_Config+0x7c>
    3fd0:	40001737          	lui	a4,0x40001
    3fd4:	c0070713          	addi	a4,a4,-1024 # 40000c00 <__freertos_irq_stack_top+0x1fffbc00>
    3fd8:	00e50963          	beq	a0,a4,3fea <TI1_Config+0x7c>
    3fdc:	ff57f713          	andi	a4,a5,-11
    3fe0:	00b767b3          	or	a5,a4,a1
    3fe4:	0017e793          	ori	a5,a5,1
    3fe8:	a029                	j	3ff2 <TI1_Config+0x84>
    3fea:	9bf5                	andi	a5,a5,-3
    3fec:	8fcd                	or	a5,a5,a1
    3fee:	0017e793          	ori	a5,a5,1
    3ff2:	01051c23          	sh	a6,24(a0)
    3ff6:	02f51023          	sh	a5,32(a0)
    3ffa:	8082                	ret

00003ffc <TI2_Config>:
    3ffc:	02055703          	lhu	a4,32(a0)
    4000:	0742                	slli	a4,a4,0x10
    4002:	8341                	srli	a4,a4,0x10
    4004:	9b3d                	andi	a4,a4,-17
    4006:	0742                	slli	a4,a4,0x10
    4008:	8341                	srli	a4,a4,0x10
    400a:	02e51023          	sh	a4,32(a0)
    400e:	01855883          	lhu	a7,24(a0)
    4012:	02055783          	lhu	a5,32(a0)
    4016:	07c2                	slli	a5,a5,0x10
    4018:	83c1                	srli	a5,a5,0x10
    401a:	00459813          	slli	a6,a1,0x4
    401e:	0842                	slli	a6,a6,0x10
    4020:	01085813          	srli	a6,a6,0x10
    4024:	6705                	lui	a4,0x1
    4026:	cff70713          	addi	a4,a4,-769 # cff <prvCopyDataToQueue+0x7d>
    402a:	01177733          	and	a4,a4,a7
    402e:	06b2                	slli	a3,a3,0xc
    4030:	06c2                	slli	a3,a3,0x10
    4032:	82c1                	srli	a3,a3,0x10
    4034:	8ed9                	or	a3,a3,a4
    4036:	0622                	slli	a2,a2,0x8
    4038:	0642                	slli	a2,a2,0x10
    403a:	8241                	srli	a2,a2,0x10
    403c:	8e55                	or	a2,a2,a3
    403e:	40013737          	lui	a4,0x40013
    4042:	c0070713          	addi	a4,a4,-1024 # 40012c00 <__freertos_irq_stack_top+0x2000dc00>
    4046:	02e50c63          	beq	a0,a4,407e <TI2_Config+0x82>
    404a:	40000737          	lui	a4,0x40000
    404e:	02e50863          	beq	a0,a4,407e <TI2_Config+0x82>
    4052:	40070713          	addi	a4,a4,1024 # 40000400 <__freertos_irq_stack_top+0x1fffb400>
    4056:	02e50463          	beq	a0,a4,407e <TI2_Config+0x82>
    405a:	40001737          	lui	a4,0x40001
    405e:	80070713          	addi	a4,a4,-2048 # 40000800 <__freertos_irq_stack_top+0x1fffb800>
    4062:	00e50e63          	beq	a0,a4,407e <TI2_Config+0x82>
    4066:	40001737          	lui	a4,0x40001
    406a:	c0070713          	addi	a4,a4,-1024 # 40000c00 <__freertos_irq_stack_top+0x1fffbc00>
    406e:	00e50863          	beq	a0,a4,407e <TI2_Config+0x82>
    4072:	f5f7f793          	andi	a5,a5,-161
    4076:	8fcd                	or	a5,a5,a1
    4078:	0107e793          	ori	a5,a5,16
    407c:	a039                	j	408a <TI2_Config+0x8e>
    407e:	fdf7f793          	andi	a5,a5,-33
    4082:	0107e7b3          	or	a5,a5,a6
    4086:	0107e793          	ori	a5,a5,16
    408a:	00c51c23          	sh	a2,24(a0)
    408e:	02f51023          	sh	a5,32(a0)
    4092:	8082                	ret

00004094 <TIM_TimeBaseInit>:
    4094:	00055783          	lhu	a5,0(a0)
    4098:	07c2                	slli	a5,a5,0x10
    409a:	83c1                	srli	a5,a5,0x10
    409c:	40013737          	lui	a4,0x40013
    40a0:	c0070713          	addi	a4,a4,-1024 # 40012c00 <__freertos_irq_stack_top+0x2000dc00>
    40a4:	02e50663          	beq	a0,a4,40d0 <TIM_TimeBaseInit+0x3c>
    40a8:	40000737          	lui	a4,0x40000
    40ac:	02e50263          	beq	a0,a4,40d0 <TIM_TimeBaseInit+0x3c>
    40b0:	40070713          	addi	a4,a4,1024 # 40000400 <__freertos_irq_stack_top+0x1fffb400>
    40b4:	00e50e63          	beq	a0,a4,40d0 <TIM_TimeBaseInit+0x3c>
    40b8:	40001737          	lui	a4,0x40001
    40bc:	80070713          	addi	a4,a4,-2048 # 40000800 <__freertos_irq_stack_top+0x1fffb800>
    40c0:	00e50863          	beq	a0,a4,40d0 <TIM_TimeBaseInit+0x3c>
    40c4:	40001737          	lui	a4,0x40001
    40c8:	c0070713          	addi	a4,a4,-1024 # 40000c00 <__freertos_irq_stack_top+0x1fffbc00>
    40cc:	00e51763          	bne	a0,a4,40da <TIM_TimeBaseInit+0x46>
    40d0:	f8f7f793          	andi	a5,a5,-113
    40d4:	0025d703          	lhu	a4,2(a1)
    40d8:	8fd9                	or	a5,a5,a4
    40da:	cff7f793          	andi	a5,a5,-769
    40de:	07c2                	slli	a5,a5,0x10
    40e0:	83c1                	srli	a5,a5,0x10
    40e2:	0065d703          	lhu	a4,6(a1)
    40e6:	8fd9                	or	a5,a5,a4
    40e8:	00f51023          	sh	a5,0(a0)
    40ec:	0045d783          	lhu	a5,4(a1)
    40f0:	02f51623          	sh	a5,44(a0)
    40f4:	0005d783          	lhu	a5,0(a1)
    40f8:	02f51423          	sh	a5,40(a0)
    40fc:	400137b7          	lui	a5,0x40013
    4100:	c0078793          	addi	a5,a5,-1024 # 40012c00 <__freertos_irq_stack_top+0x2000dc00>
    4104:	00f50663          	beq	a0,a5,4110 <TIM_TimeBaseInit+0x7c>
    4108:	4785                	li	a5,1
    410a:	00f51a23          	sh	a5,20(a0)
    410e:	8082                	ret
    4110:	0085c783          	lbu	a5,8(a1)
    4114:	02f51823          	sh	a5,48(a0)
    4118:	bfc5                	j	4108 <TIM_TimeBaseInit+0x74>

0000411a <TIM_OC1Init>:
    411a:	02055783          	lhu	a5,32(a0)
    411e:	07c2                	slli	a5,a5,0x10
    4120:	83c1                	srli	a5,a5,0x10
    4122:	9bf9                	andi	a5,a5,-2
    4124:	07c2                	slli	a5,a5,0x10
    4126:	83c1                	srli	a5,a5,0x10
    4128:	02f51023          	sh	a5,32(a0)
    412c:	02055703          	lhu	a4,32(a0)
    4130:	0742                	slli	a4,a4,0x10
    4132:	8341                	srli	a4,a4,0x10
    4134:	00455603          	lhu	a2,4(a0)
    4138:	0642                	slli	a2,a2,0x10
    413a:	8241                	srli	a2,a2,0x10
    413c:	01855783          	lhu	a5,24(a0)
    4140:	07c2                	slli	a5,a5,0x10
    4142:	83c1                	srli	a5,a5,0x10
    4144:	f8c7f793          	andi	a5,a5,-116
    4148:	0005d683          	lhu	a3,0(a1)
    414c:	8fd5                	or	a5,a5,a3
    414e:	9b75                	andi	a4,a4,-3
    4150:	0085d683          	lhu	a3,8(a1)
    4154:	8f55                	or	a4,a4,a3
    4156:	0025d683          	lhu	a3,2(a1)
    415a:	8f55                	or	a4,a4,a3
    415c:	400136b7          	lui	a3,0x40013
    4160:	c0068693          	addi	a3,a3,-1024 # 40012c00 <__freertos_irq_stack_top+0x2000dc00>
    4164:	00d50d63          	beq	a0,a3,417e <TIM_OC1Init+0x64>
    4168:	00c51223          	sh	a2,4(a0)
    416c:	00f51c23          	sh	a5,24(a0)
    4170:	0065d783          	lhu	a5,6(a1)
    4174:	02f51a23          	sh	a5,52(a0)
    4178:	02e51023          	sh	a4,32(a0)
    417c:	8082                	ret
    417e:	9b5d                	andi	a4,a4,-9
    4180:	00a5d683          	lhu	a3,10(a1)
    4184:	8f55                	or	a4,a4,a3
    4186:	9b6d                	andi	a4,a4,-5
    4188:	0045d683          	lhu	a3,4(a1)
    418c:	8f55                	or	a4,a4,a3
    418e:	cff67613          	andi	a2,a2,-769
    4192:	00c5d683          	lhu	a3,12(a1)
    4196:	8e55                	or	a2,a2,a3
    4198:	00e5d683          	lhu	a3,14(a1)
    419c:	8e55                	or	a2,a2,a3
    419e:	b7e9                	j	4168 <TIM_OC1Init+0x4e>

000041a0 <TIM_OC2Init>:
    41a0:	02055783          	lhu	a5,32(a0)
    41a4:	07c2                	slli	a5,a5,0x10
    41a6:	83c1                	srli	a5,a5,0x10
    41a8:	9bbd                	andi	a5,a5,-17
    41aa:	07c2                	slli	a5,a5,0x10
    41ac:	83c1                	srli	a5,a5,0x10
    41ae:	02f51023          	sh	a5,32(a0)
    41b2:	02055783          	lhu	a5,32(a0)
    41b6:	07c2                	slli	a5,a5,0x10
    41b8:	83c1                	srli	a5,a5,0x10
    41ba:	00455603          	lhu	a2,4(a0)
    41be:	0642                	slli	a2,a2,0x10
    41c0:	8241                	srli	a2,a2,0x10
    41c2:	01855683          	lhu	a3,24(a0)
    41c6:	7765                	lui	a4,0xffff9
    41c8:	cff70713          	addi	a4,a4,-769 # ffff8cff <__freertos_irq_stack_top+0xdfff3cff>
    41cc:	8ef9                	and	a3,a3,a4
    41ce:	0005d703          	lhu	a4,0(a1)
    41d2:	0722                	slli	a4,a4,0x8
    41d4:	0742                	slli	a4,a4,0x10
    41d6:	8341                	srli	a4,a4,0x10
    41d8:	8f55                	or	a4,a4,a3
    41da:	fdf7f793          	andi	a5,a5,-33
    41de:	0085d683          	lhu	a3,8(a1)
    41e2:	0692                	slli	a3,a3,0x4
    41e4:	06c2                	slli	a3,a3,0x10
    41e6:	82c1                	srli	a3,a3,0x10
    41e8:	8edd                	or	a3,a3,a5
    41ea:	0025d783          	lhu	a5,2(a1)
    41ee:	0792                	slli	a5,a5,0x4
    41f0:	07c2                	slli	a5,a5,0x10
    41f2:	83c1                	srli	a5,a5,0x10
    41f4:	8fd5                	or	a5,a5,a3
    41f6:	400136b7          	lui	a3,0x40013
    41fa:	c0068693          	addi	a3,a3,-1024 # 40012c00 <__freertos_irq_stack_top+0x2000dc00>
    41fe:	00d50d63          	beq	a0,a3,4218 <TIM_OC2Init+0x78>
    4202:	00c51223          	sh	a2,4(a0)
    4206:	00e51c23          	sh	a4,24(a0)
    420a:	0065d703          	lhu	a4,6(a1)
    420e:	02e51c23          	sh	a4,56(a0)
    4212:	02f51023          	sh	a5,32(a0)
    4216:	8082                	ret
    4218:	f7f7f793          	andi	a5,a5,-129
    421c:	00a5d683          	lhu	a3,10(a1)
    4220:	0692                	slli	a3,a3,0x4
    4222:	06c2                	slli	a3,a3,0x10
    4224:	82c1                	srli	a3,a3,0x10
    4226:	8fd5                	or	a5,a5,a3
    4228:	fbf7f793          	andi	a5,a5,-65
    422c:	0045d683          	lhu	a3,4(a1)
    4230:	0692                	slli	a3,a3,0x4
    4232:	06c2                	slli	a3,a3,0x10
    4234:	82c1                	srli	a3,a3,0x10
    4236:	8fd5                	or	a5,a5,a3
    4238:	76fd                	lui	a3,0xfffff
    423a:	3ff68693          	addi	a3,a3,1023 # fffff3ff <__freertos_irq_stack_top+0xdfffa3ff>
    423e:	00d67833          	and	a6,a2,a3
    4242:	00c5d683          	lhu	a3,12(a1)
    4246:	068a                	slli	a3,a3,0x2
    4248:	01069613          	slli	a2,a3,0x10
    424c:	8241                	srli	a2,a2,0x10
    424e:	010666b3          	or	a3,a2,a6
    4252:	00e5d603          	lhu	a2,14(a1)
    4256:	060a                	slli	a2,a2,0x2
    4258:	0642                	slli	a2,a2,0x10
    425a:	8241                	srli	a2,a2,0x10
    425c:	8e55                	or	a2,a2,a3
    425e:	b755                	j	4202 <TIM_OC2Init+0x62>

00004260 <TIM_OC3Init>:
    4260:	02055783          	lhu	a5,32(a0)
    4264:	07c2                	slli	a5,a5,0x10
    4266:	83c1                	srli	a5,a5,0x10
    4268:	eff7f793          	andi	a5,a5,-257
    426c:	07c2                	slli	a5,a5,0x10
    426e:	83c1                	srli	a5,a5,0x10
    4270:	02f51023          	sh	a5,32(a0)
    4274:	02055783          	lhu	a5,32(a0)
    4278:	07c2                	slli	a5,a5,0x10
    427a:	83c1                	srli	a5,a5,0x10
    427c:	00455603          	lhu	a2,4(a0)
    4280:	0642                	slli	a2,a2,0x10
    4282:	8241                	srli	a2,a2,0x10
    4284:	01c55703          	lhu	a4,28(a0)
    4288:	0742                	slli	a4,a4,0x10
    428a:	8341                	srli	a4,a4,0x10
    428c:	f8c77713          	andi	a4,a4,-116
    4290:	0005d683          	lhu	a3,0(a1)
    4294:	8f55                	or	a4,a4,a3
    4296:	dff7f793          	andi	a5,a5,-513
    429a:	0085d683          	lhu	a3,8(a1)
    429e:	06a2                	slli	a3,a3,0x8
    42a0:	06c2                	slli	a3,a3,0x10
    42a2:	82c1                	srli	a3,a3,0x10
    42a4:	8edd                	or	a3,a3,a5
    42a6:	0025d783          	lhu	a5,2(a1)
    42aa:	07a2                	slli	a5,a5,0x8
    42ac:	07c2                	slli	a5,a5,0x10
    42ae:	83c1                	srli	a5,a5,0x10
    42b0:	8fd5                	or	a5,a5,a3
    42b2:	400136b7          	lui	a3,0x40013
    42b6:	c0068693          	addi	a3,a3,-1024 # 40012c00 <__freertos_irq_stack_top+0x2000dc00>
    42ba:	00d50d63          	beq	a0,a3,42d4 <TIM_OC3Init+0x74>
    42be:	00c51223          	sh	a2,4(a0)
    42c2:	00e51e23          	sh	a4,28(a0)
    42c6:	0065d703          	lhu	a4,6(a1)
    42ca:	02e51e23          	sh	a4,60(a0)
    42ce:	02f51023          	sh	a5,32(a0)
    42d2:	8082                	ret
    42d4:	76fd                	lui	a3,0xfffff
    42d6:	7ff68693          	addi	a3,a3,2047 # fffff7ff <__freertos_irq_stack_top+0xdfffa7ff>
    42da:	8ff5                	and	a5,a5,a3
    42dc:	00a5d683          	lhu	a3,10(a1)
    42e0:	06a2                	slli	a3,a3,0x8
    42e2:	06c2                	slli	a3,a3,0x10
    42e4:	82c1                	srli	a3,a3,0x10
    42e6:	8fd5                	or	a5,a5,a3
    42e8:	bff7f693          	andi	a3,a5,-1025
    42ec:	0045d783          	lhu	a5,4(a1)
    42f0:	07a2                	slli	a5,a5,0x8
    42f2:	07c2                	slli	a5,a5,0x10
    42f4:	83c1                	srli	a5,a5,0x10
    42f6:	8fd5                	or	a5,a5,a3
    42f8:	76f5                	lui	a3,0xffffd
    42fa:	16fd                	addi	a3,a3,-1
    42fc:	00d67833          	and	a6,a2,a3
    4300:	00c5d683          	lhu	a3,12(a1)
    4304:	0692                	slli	a3,a3,0x4
    4306:	01069613          	slli	a2,a3,0x10
    430a:	8241                	srli	a2,a2,0x10
    430c:	010666b3          	or	a3,a2,a6
    4310:	00e5d603          	lhu	a2,14(a1)
    4314:	0612                	slli	a2,a2,0x4
    4316:	0642                	slli	a2,a2,0x10
    4318:	8241                	srli	a2,a2,0x10
    431a:	8e55                	or	a2,a2,a3
    431c:	b74d                	j	42be <TIM_OC3Init+0x5e>

0000431e <TIM_OC4Init>:
    431e:	02055703          	lhu	a4,32(a0)
    4322:	77fd                	lui	a5,0xfffff
    4324:	17fd                	addi	a5,a5,-1
    4326:	8ff9                	and	a5,a5,a4
    4328:	02f51023          	sh	a5,32(a0)
    432c:	02055783          	lhu	a5,32(a0)
    4330:	00455803          	lhu	a6,4(a0)
    4334:	0842                	slli	a6,a6,0x10
    4336:	01085813          	srli	a6,a6,0x10
    433a:	01c55603          	lhu	a2,28(a0)
    433e:	7765                	lui	a4,0xffff9
    4340:	cff70713          	addi	a4,a4,-769 # ffff8cff <__freertos_irq_stack_top+0xdfff3cff>
    4344:	8e79                	and	a2,a2,a4
    4346:	0005d703          	lhu	a4,0(a1)
    434a:	0722                	slli	a4,a4,0x8
    434c:	0742                	slli	a4,a4,0x10
    434e:	8341                	srli	a4,a4,0x10
    4350:	8f51                	or	a4,a4,a2
    4352:	76f9                	lui	a3,0xffffe
    4354:	16fd                	addi	a3,a3,-1
    4356:	8efd                	and	a3,a3,a5
    4358:	0085d783          	lhu	a5,8(a1)
    435c:	07b2                	slli	a5,a5,0xc
    435e:	07c2                	slli	a5,a5,0x10
    4360:	83c1                	srli	a5,a5,0x10
    4362:	8edd                	or	a3,a3,a5
    4364:	0025d783          	lhu	a5,2(a1)
    4368:	07b2                	slli	a5,a5,0xc
    436a:	07c2                	slli	a5,a5,0x10
    436c:	83c1                	srli	a5,a5,0x10
    436e:	8fd5                	or	a5,a5,a3
    4370:	400136b7          	lui	a3,0x40013
    4374:	c0068693          	addi	a3,a3,-1024 # 40012c00 <__freertos_irq_stack_top+0x2000dc00>
    4378:	00d50d63          	beq	a0,a3,4392 <TIM_OC4Init+0x74>
    437c:	01051223          	sh	a6,4(a0)
    4380:	00e51e23          	sh	a4,28(a0)
    4384:	0065d703          	lhu	a4,6(a1)
    4388:	04e51023          	sh	a4,64(a0)
    438c:	02f51023          	sh	a5,32(a0)
    4390:	8082                	ret
    4392:	76f1                	lui	a3,0xffffc
    4394:	16fd                	addi	a3,a3,-1
    4396:	00d87833          	and	a6,a6,a3
    439a:	00c5d683          	lhu	a3,12(a1)
    439e:	069a                	slli	a3,a3,0x6
    43a0:	06c2                	slli	a3,a3,0x10
    43a2:	82c1                	srli	a3,a3,0x10
    43a4:	0106e833          	or	a6,a3,a6
    43a8:	bfd1                	j	437c <TIM_OC4Init+0x5e>

000043aa <TIM_Cmd>:
    43aa:	c981                	beqz	a1,43ba <TIM_Cmd+0x10>
    43ac:	00055783          	lhu	a5,0(a0)
    43b0:	0017e793          	ori	a5,a5,1
    43b4:	00f51023          	sh	a5,0(a0)
    43b8:	8082                	ret
    43ba:	00055783          	lhu	a5,0(a0)
    43be:	07c2                	slli	a5,a5,0x10
    43c0:	83c1                	srli	a5,a5,0x10
    43c2:	9bf9                	andi	a5,a5,-2
    43c4:	07c2                	slli	a5,a5,0x10
    43c6:	83c1                	srli	a5,a5,0x10
    43c8:	00f51023          	sh	a5,0(a0)
    43cc:	8082                	ret

000043ce <TIM_CtrlPWMOutputs>:
    43ce:	c991                	beqz	a1,43e2 <TIM_CtrlPWMOutputs+0x14>
    43d0:	04455783          	lhu	a5,68(a0)
    43d4:	7761                	lui	a4,0xffff8
    43d6:	8fd9                	or	a5,a5,a4
    43d8:	07c2                	slli	a5,a5,0x10
    43da:	83c1                	srli	a5,a5,0x10
    43dc:	04f51223          	sh	a5,68(a0)
    43e0:	8082                	ret
    43e2:	04455703          	lhu	a4,68(a0)
    43e6:	67a1                	lui	a5,0x8
    43e8:	17fd                	addi	a5,a5,-1
    43ea:	8ff9                	and	a5,a5,a4
    43ec:	04f51223          	sh	a5,68(a0)
    43f0:	8082                	ret

000043f2 <TIM_ITConfig>:
    43f2:	c619                	beqz	a2,4400 <TIM_ITConfig+0xe>
    43f4:	00c55783          	lhu	a5,12(a0)
    43f8:	8ddd                	or	a1,a1,a5
    43fa:	00b51623          	sh	a1,12(a0)
    43fe:	8082                	ret
    4400:	00c55783          	lhu	a5,12(a0)
    4404:	fff5c593          	not	a1,a1
    4408:	8dfd                	and	a1,a1,a5
    440a:	00b51623          	sh	a1,12(a0)
    440e:	8082                	ret

00004410 <TIM_ARRPreloadConfig>:
    4410:	c981                	beqz	a1,4420 <TIM_ARRPreloadConfig+0x10>
    4412:	00055783          	lhu	a5,0(a0)
    4416:	0807e793          	ori	a5,a5,128
    441a:	00f51023          	sh	a5,0(a0)
    441e:	8082                	ret
    4420:	00055783          	lhu	a5,0(a0)
    4424:	07c2                	slli	a5,a5,0x10
    4426:	83c1                	srli	a5,a5,0x10
    4428:	f7f7f793          	andi	a5,a5,-129
    442c:	07c2                	slli	a5,a5,0x10
    442e:	83c1                	srli	a5,a5,0x10
    4430:	00f51023          	sh	a5,0(a0)
    4434:	8082                	ret

00004436 <TIM_OC1PreloadConfig>:
    4436:	01855783          	lhu	a5,24(a0)
    443a:	07c2                	slli	a5,a5,0x10
    443c:	83c1                	srli	a5,a5,0x10
    443e:	9bdd                	andi	a5,a5,-9
    4440:	8ddd                	or	a1,a1,a5
    4442:	00b51c23          	sh	a1,24(a0)
    4446:	8082                	ret

00004448 <TIM_OC2PreloadConfig>:
    4448:	01855703          	lhu	a4,24(a0)
    444c:	77fd                	lui	a5,0xfffff
    444e:	7ff78793          	addi	a5,a5,2047 # fffff7ff <__freertos_irq_stack_top+0xdfffa7ff>
    4452:	8ff9                	and	a5,a5,a4
    4454:	05a2                	slli	a1,a1,0x8
    4456:	05c2                	slli	a1,a1,0x10
    4458:	81c1                	srli	a1,a1,0x10
    445a:	8ddd                	or	a1,a1,a5
    445c:	00b51c23          	sh	a1,24(a0)
    4460:	8082                	ret

00004462 <TIM_OC3PreloadConfig>:
    4462:	01c55783          	lhu	a5,28(a0)
    4466:	07c2                	slli	a5,a5,0x10
    4468:	83c1                	srli	a5,a5,0x10
    446a:	9bdd                	andi	a5,a5,-9
    446c:	8ddd                	or	a1,a1,a5
    446e:	00b51e23          	sh	a1,28(a0)
    4472:	8082                	ret

00004474 <TIM_OC4PreloadConfig>:
    4474:	01c55703          	lhu	a4,28(a0)
    4478:	77fd                	lui	a5,0xfffff
    447a:	7ff78793          	addi	a5,a5,2047 # fffff7ff <__freertos_irq_stack_top+0xdfffa7ff>
    447e:	8ff9                	and	a5,a5,a4
    4480:	05a2                	slli	a1,a1,0x8
    4482:	05c2                	slli	a1,a1,0x10
    4484:	81c1                	srli	a1,a1,0x10
    4486:	8ddd                	or	a1,a1,a5
    4488:	00b51e23          	sh	a1,28(a0)
    448c:	8082                	ret

0000448e <TIM_UpdateDisableConfig>:
    448e:	c981                	beqz	a1,449e <TIM_UpdateDisableConfig+0x10>
    4490:	00055783          	lhu	a5,0(a0)
    4494:	0027e793          	ori	a5,a5,2
    4498:	00f51023          	sh	a5,0(a0)
    449c:	8082                	ret
    449e:	00055783          	lhu	a5,0(a0)
    44a2:	07c2                	slli	a5,a5,0x10
    44a4:	83c1                	srli	a5,a5,0x10
    44a6:	9bf5                	andi	a5,a5,-3
    44a8:	07c2                	slli	a5,a5,0x10
    44aa:	83c1                	srli	a5,a5,0x10
    44ac:	00f51023          	sh	a5,0(a0)
    44b0:	8082                	ret

000044b2 <TIM_UpdateRequestConfig>:
    44b2:	c981                	beqz	a1,44c2 <TIM_UpdateRequestConfig+0x10>
    44b4:	00055783          	lhu	a5,0(a0)
    44b8:	0047e793          	ori	a5,a5,4
    44bc:	00f51023          	sh	a5,0(a0)
    44c0:	8082                	ret
    44c2:	00055783          	lhu	a5,0(a0)
    44c6:	07c2                	slli	a5,a5,0x10
    44c8:	83c1                	srli	a5,a5,0x10
    44ca:	9bed                	andi	a5,a5,-5
    44cc:	07c2                	slli	a5,a5,0x10
    44ce:	83c1                	srli	a5,a5,0x10
    44d0:	00f51023          	sh	a5,0(a0)
    44d4:	8082                	ret

000044d6 <TIM_SetCounter>:
    44d6:	02b51223          	sh	a1,36(a0)
    44da:	8082                	ret

000044dc <TIM_SetCompare1>:
    44dc:	02b51a23          	sh	a1,52(a0)
    44e0:	8082                	ret

000044e2 <TIM_SetIC1Prescaler>:
    44e2:	01855783          	lhu	a5,24(a0)
    44e6:	07c2                	slli	a5,a5,0x10
    44e8:	83c1                	srli	a5,a5,0x10
    44ea:	9bcd                	andi	a5,a5,-13
    44ec:	07c2                	slli	a5,a5,0x10
    44ee:	83c1                	srli	a5,a5,0x10
    44f0:	00f51c23          	sh	a5,24(a0)
    44f4:	01855783          	lhu	a5,24(a0)
    44f8:	8ddd                	or	a1,a1,a5
    44fa:	00b51c23          	sh	a1,24(a0)
    44fe:	8082                	ret

00004500 <TIM_SetIC2Prescaler>:
    4500:	01855703          	lhu	a4,24(a0)
    4504:	77fd                	lui	a5,0xfffff
    4506:	3ff78793          	addi	a5,a5,1023 # fffff3ff <__freertos_irq_stack_top+0xdfffa3ff>
    450a:	8ff9                	and	a5,a5,a4
    450c:	00f51c23          	sh	a5,24(a0)
    4510:	01855783          	lhu	a5,24(a0)
    4514:	05a2                	slli	a1,a1,0x8
    4516:	05c2                	slli	a1,a1,0x10
    4518:	81c1                	srli	a1,a1,0x10
    451a:	8ddd                	or	a1,a1,a5
    451c:	00b51c23          	sh	a1,24(a0)
    4520:	8082                	ret

00004522 <TIM_PWMIConfig>:
    4522:	fe3fb2ef          	jal	t0,504 <__riscv_save_4>
    4526:	84aa                	mv	s1,a0
    4528:	842e                	mv	s0,a1
    452a:	0025d583          	lhu	a1,2(a1)
    452e:	e1b9                	bnez	a1,4574 <TIM_PWMIConfig+0x52>
    4530:	4909                	li	s2,2
    4532:	00445603          	lhu	a2,4(s0)
    4536:	4785                	li	a5,1
    4538:	04f60063          	beq	a2,a5,4578 <TIM_PWMIConfig+0x56>
    453c:	4985                	li	s3,1
    453e:	00045783          	lhu	a5,0(s0)
    4542:	ef8d                	bnez	a5,457c <TIM_PWMIConfig+0x5a>
    4544:	00845683          	lhu	a3,8(s0)
    4548:	8526                	mv	a0,s1
    454a:	a25ff0ef          	jal	ra,3f6e <TI1_Config>
    454e:	00645583          	lhu	a1,6(s0)
    4552:	8526                	mv	a0,s1
    4554:	f8fff0ef          	jal	ra,44e2 <TIM_SetIC1Prescaler>
    4558:	00845683          	lhu	a3,8(s0)
    455c:	864e                	mv	a2,s3
    455e:	85ca                	mv	a1,s2
    4560:	8526                	mv	a0,s1
    4562:	a9bff0ef          	jal	ra,3ffc <TI2_Config>
    4566:	00645583          	lhu	a1,6(s0)
    456a:	8526                	mv	a0,s1
    456c:	f95ff0ef          	jal	ra,4500 <TIM_SetIC2Prescaler>
    4570:	fc9fb06f          	j	538 <__riscv_restore_4>
    4574:	4901                	li	s2,0
    4576:	bf75                	j	4532 <TIM_PWMIConfig+0x10>
    4578:	4989                	li	s3,2
    457a:	b7d1                	j	453e <TIM_PWMIConfig+0x1c>
    457c:	00845683          	lhu	a3,8(s0)
    4580:	8526                	mv	a0,s1
    4582:	a7bff0ef          	jal	ra,3ffc <TI2_Config>
    4586:	00645583          	lhu	a1,6(s0)
    458a:	8526                	mv	a0,s1
    458c:	f75ff0ef          	jal	ra,4500 <TIM_SetIC2Prescaler>
    4590:	00845683          	lhu	a3,8(s0)
    4594:	864e                	mv	a2,s3
    4596:	85ca                	mv	a1,s2
    4598:	8526                	mv	a0,s1
    459a:	9d5ff0ef          	jal	ra,3f6e <TI1_Config>
    459e:	00645583          	lhu	a1,6(s0)
    45a2:	8526                	mv	a0,s1
    45a4:	f3fff0ef          	jal	ra,44e2 <TIM_SetIC1Prescaler>
    45a8:	b7e1                	j	4570 <TIM_PWMIConfig+0x4e>

000045aa <TIM_GetCapture1>:
    45aa:	03455503          	lhu	a0,52(a0)
    45ae:	8082                	ret

000045b0 <TIM_GetCounter>:
    45b0:	02455503          	lhu	a0,36(a0)
    45b4:	8082                	ret

000045b6 <TIM_ClearFlag>:
    45b6:	fff5c593          	not	a1,a1
    45ba:	05c2                	slli	a1,a1,0x10
    45bc:	81c1                	srli	a1,a1,0x10
    45be:	00b51823          	sh	a1,16(a0)
    45c2:	8082                	ret

000045c4 <TIM_GetITStatus>:
    45c4:	01055783          	lhu	a5,16(a0)
    45c8:	8fed                	and	a5,a5,a1
    45ca:	00c55703          	lhu	a4,12(a0)
    45ce:	8df9                	and	a1,a1,a4
    45d0:	c781                	beqz	a5,45d8 <TIM_GetITStatus+0x14>
    45d2:	e589                	bnez	a1,45dc <TIM_GetITStatus+0x18>
    45d4:	4501                	li	a0,0
    45d6:	8082                	ret
    45d8:	4501                	li	a0,0
    45da:	8082                	ret
    45dc:	4505                	li	a0,1
    45de:	8082                	ret

000045e0 <TIM_ClearITPendingBit>:
    45e0:	fff5c593          	not	a1,a1
    45e4:	05c2                	slli	a1,a1,0x10
    45e6:	81c1                	srli	a1,a1,0x10
    45e8:	00b51823          	sh	a1,16(a0)
    45ec:	8082                	ret

000045ee <USART_Init>:
    45ee:	f31fb2ef          	jal	t0,51e <__riscv_save_0>
    45f2:	1101                	addi	sp,sp,-32
    45f4:	842a                	mv	s0,a0
    45f6:	84ae                	mv	s1,a1
    45f8:	01055683          	lhu	a3,16(a0)
    45fc:	0065d703          	lhu	a4,6(a1)
    4600:	77f5                	lui	a5,0xffffd
    4602:	17fd                	addi	a5,a5,-1
    4604:	8ff5                	and	a5,a5,a3
    4606:	8fd9                	or	a5,a5,a4
    4608:	00f51823          	sh	a5,16(a0)
    460c:	00c55603          	lhu	a2,12(a0)
    4610:	0045d683          	lhu	a3,4(a1)
    4614:	0085d703          	lhu	a4,8(a1)
    4618:	00a5d783          	lhu	a5,10(a1)
    461c:	8ed9                	or	a3,a3,a4
    461e:	8fd5                	or	a5,a5,a3
    4620:	777d                	lui	a4,0xfffff
    4622:	9f370713          	addi	a4,a4,-1549 # ffffe9f3 <__freertos_irq_stack_top+0xdfff99f3>
    4626:	8f71                	and	a4,a4,a2
    4628:	8fd9                	or	a5,a5,a4
    462a:	00f51623          	sh	a5,12(a0)
    462e:	01455783          	lhu	a5,20(a0)
    4632:	07c2                	slli	a5,a5,0x10
    4634:	83c1                	srli	a5,a5,0x10
    4636:	00c5d703          	lhu	a4,12(a1)
    463a:	cff7f793          	andi	a5,a5,-769
    463e:	8fd9                	or	a5,a5,a4
    4640:	00f51a23          	sh	a5,20(a0)
    4644:	0068                	addi	a0,sp,12
    4646:	f16ff0ef          	jal	ra,3d5c <RCC_GetClocksFreq>
    464a:	400147b7          	lui	a5,0x40014
    464e:	80078793          	addi	a5,a5,-2048 # 40013800 <__freertos_irq_stack_top+0x2000e800>
    4652:	06f40663          	beq	s0,a5,46be <USART_Init+0xd0>
    4656:	46d2                	lw	a3,20(sp)
    4658:	00c45783          	lhu	a5,12(s0)
    465c:	07c2                	slli	a5,a5,0x10
    465e:	87c1                	srai	a5,a5,0x10
    4660:	0607c163          	bltz	a5,46c2 <USART_Init+0xd4>
    4664:	00169713          	slli	a4,a3,0x1
    4668:	9736                	add	a4,a4,a3
    466a:	00371793          	slli	a5,a4,0x3
    466e:	97b6                	add	a5,a5,a3
    4670:	4098                	lw	a4,0(s1)
    4672:	070a                	slli	a4,a4,0x2
    4674:	02e7d7b3          	divu	a5,a5,a4
    4678:	06400593          	li	a1,100
    467c:	02b7d6b3          	divu	a3,a5,a1
    4680:	00469613          	slli	a2,a3,0x4
    4684:	10000737          	lui	a4,0x10000
    4688:	177d                	addi	a4,a4,-1
    468a:	8ef9                	and	a3,a3,a4
    468c:	02b686b3          	mul	a3,a3,a1
    4690:	8f95                	sub	a5,a5,a3
    4692:	00c45703          	lhu	a4,12(s0)
    4696:	0742                	slli	a4,a4,0x10
    4698:	8741                	srai	a4,a4,0x10
    469a:	04074063          	bltz	a4,46da <USART_Init+0xec>
    469e:	0792                	slli	a5,a5,0x4
    46a0:	03278793          	addi	a5,a5,50
    46a4:	06400713          	li	a4,100
    46a8:	02e7d7b3          	divu	a5,a5,a4
    46ac:	8bbd                	andi	a5,a5,15
    46ae:	8fd1                	or	a5,a5,a2
    46b0:	07c2                	slli	a5,a5,0x10
    46b2:	83c1                	srli	a5,a5,0x10
    46b4:	00f41423          	sh	a5,8(s0)
    46b8:	6105                	addi	sp,sp,32
    46ba:	e89fb06f          	j	542 <__riscv_restore_0>
    46be:	46e2                	lw	a3,24(sp)
    46c0:	bf61                	j	4658 <USART_Init+0x6a>
    46c2:	00169793          	slli	a5,a3,0x1
    46c6:	97b6                	add	a5,a5,a3
    46c8:	00379713          	slli	a4,a5,0x3
    46cc:	00d707b3          	add	a5,a4,a3
    46d0:	4098                	lw	a4,0(s1)
    46d2:	0706                	slli	a4,a4,0x1
    46d4:	02e7d7b3          	divu	a5,a5,a4
    46d8:	b745                	j	4678 <USART_Init+0x8a>
    46da:	00379713          	slli	a4,a5,0x3
    46de:	03270713          	addi	a4,a4,50 # 10000032 <_data_lma+0xfff2096>
    46e2:	06400793          	li	a5,100
    46e6:	02f75733          	divu	a4,a4,a5
    46ea:	8b1d                	andi	a4,a4,7
    46ec:	00c767b3          	or	a5,a4,a2
    46f0:	b7c1                	j	46b0 <USART_Init+0xc2>

000046f2 <USART_Cmd>:
    46f2:	c981                	beqz	a1,4702 <USART_Cmd+0x10>
    46f4:	00c55783          	lhu	a5,12(a0)
    46f8:	6709                	lui	a4,0x2
    46fa:	8fd9                	or	a5,a5,a4
    46fc:	00f51623          	sh	a5,12(a0)
    4700:	8082                	ret
    4702:	00c55703          	lhu	a4,12(a0)
    4706:	77f9                	lui	a5,0xffffe
    4708:	17fd                	addi	a5,a5,-1
    470a:	8ff9                	and	a5,a5,a4
    470c:	00f51623          	sh	a5,12(a0)
    4710:	8082                	ret

00004712 <USART_SendData>:
    4712:	1ff5f593          	andi	a1,a1,511
    4716:	00b51223          	sh	a1,4(a0)
    471a:	8082                	ret

0000471c <USART_ReceiveData>:
    471c:	00455503          	lhu	a0,4(a0)
    4720:	1ff57513          	andi	a0,a0,511
    4724:	8082                	ret

00004726 <USART_GetFlagStatus>:
    4726:	00055783          	lhu	a5,0(a0)
    472a:	8dfd                	and	a1,a1,a5
    472c:	c199                	beqz	a1,4732 <USART_GetFlagStatus+0xc>
    472e:	4505                	li	a0,1
    4730:	8082                	ret
    4732:	4501                	li	a0,0
    4734:	8082                	ret

00004736 <USART_ClearFlag>:
    4736:	fff5c593          	not	a1,a1
    473a:	05c2                	slli	a1,a1,0x10
    473c:	81c1                	srli	a1,a1,0x10
    473e:	00b51023          	sh	a1,0(a0)
    4742:	8082                	ret

00004744 <USART_GetITStatus>:
    4744:	0ff5f793          	andi	a5,a1,255
    4748:	8395                	srli	a5,a5,0x5
    474a:	4685                	li	a3,1
    474c:	00b69733          	sll	a4,a3,a1
    4750:	02d78363          	beq	a5,a3,4776 <USART_GetITStatus+0x32>
    4754:	4689                	li	a3,2
    4756:	02d78463          	beq	a5,a3,477e <USART_GetITStatus+0x3a>
    475a:	01455783          	lhu	a5,20(a0)
    475e:	8f7d                	and	a4,a4,a5
    4760:	81a1                	srli	a1,a1,0x8
    4762:	4785                	li	a5,1
    4764:	00b795b3          	sll	a1,a5,a1
    4768:	00055783          	lhu	a5,0(a0)
    476c:	8dfd                	and	a1,a1,a5
    476e:	cf01                	beqz	a4,4786 <USART_GetITStatus+0x42>
    4770:	ed89                	bnez	a1,478a <USART_GetITStatus+0x46>
    4772:	4501                	li	a0,0
    4774:	8082                	ret
    4776:	00c55783          	lhu	a5,12(a0)
    477a:	8f7d                	and	a4,a4,a5
    477c:	b7d5                	j	4760 <USART_GetITStatus+0x1c>
    477e:	01055783          	lhu	a5,16(a0)
    4782:	8f7d                	and	a4,a4,a5
    4784:	bff1                	j	4760 <USART_GetITStatus+0x1c>
    4786:	4501                	li	a0,0
    4788:	8082                	ret
    478a:	4505                	li	a0,1
    478c:	8082                	ret

0000478e <USART_Printf_Init>:
    478e:	d91fb2ef          	jal	t0,51e <__riscv_save_0>
    4792:	1101                	addi	sp,sp,-32
    4794:	842a                	mv	s0,a0
    4796:	4585                	li	a1,1
    4798:	6511                	lui	a0,0x4
    479a:	0511                	addi	a0,a0,4
    479c:	ef0ff0ef          	jal	ra,3e8c <RCC_APB2PeriphClockCmd>
    47a0:	20000793          	li	a5,512
    47a4:	00f11a23          	sh	a5,20(sp)
    47a8:	478d                	li	a5,3
    47aa:	cc3e                	sw	a5,24(sp)
    47ac:	47e1                	li	a5,24
    47ae:	ce3e                	sw	a5,28(sp)
    47b0:	084c                	addi	a1,sp,20
    47b2:	40011537          	lui	a0,0x40011
    47b6:	80050513          	addi	a0,a0,-2048 # 40010800 <__freertos_irq_stack_top+0x2000b800>
    47ba:	842ff0ef          	jal	ra,37fc <GPIO_Init>
    47be:	c222                	sw	s0,4(sp)
    47c0:	00011423          	sh	zero,8(sp)
    47c4:	00011523          	sh	zero,10(sp)
    47c8:	00011623          	sh	zero,12(sp)
    47cc:	00011823          	sh	zero,16(sp)
    47d0:	47a1                	li	a5,8
    47d2:	00f11723          	sh	a5,14(sp)
    47d6:	004c                	addi	a1,sp,4
    47d8:	40014437          	lui	s0,0x40014
    47dc:	80040513          	addi	a0,s0,-2048 # 40013800 <__freertos_irq_stack_top+0x2000e800>
    47e0:	e0fff0ef          	jal	ra,45ee <USART_Init>
    47e4:	4585                	li	a1,1
    47e6:	80040513          	addi	a0,s0,-2048
    47ea:	f09ff0ef          	jal	ra,46f2 <USART_Cmd>
    47ee:	6105                	addi	sp,sp,32
    47f0:	d53fb06f          	j	542 <__riscv_restore_0>

000047f4 <_write>:
    47f4:	d11fb2ef          	jal	t0,504 <__riscv_save_4>
    47f8:	84ae                	mv	s1,a1
    47fa:	89b2                	mv	s3,a2
    47fc:	4401                	li	s0,0
    47fe:	a839                	j	481c <_write+0x28>
    4800:	00148913          	addi	s2,s1,1
    4804:	00048583          	lb	a1,0(s1)
    4808:	05c2                	slli	a1,a1,0x10
    480a:	81c1                	srli	a1,a1,0x10
    480c:	40014537          	lui	a0,0x40014
    4810:	80050513          	addi	a0,a0,-2048 # 40013800 <__freertos_irq_stack_top+0x2000e800>
    4814:	effff0ef          	jal	ra,4712 <USART_SendData>
    4818:	0405                	addi	s0,s0,1
    481a:	84ca                	mv	s1,s2
    481c:	01345c63          	bge	s0,s3,4834 <_write+0x40>
    4820:	04000593          	li	a1,64
    4824:	40014537          	lui	a0,0x40014
    4828:	80050513          	addi	a0,a0,-2048 # 40013800 <__freertos_irq_stack_top+0x2000e800>
    482c:	efbff0ef          	jal	ra,4726 <USART_GetFlagStatus>
    4830:	d965                	beqz	a0,4820 <_write+0x2c>
    4832:	b7f9                	j	4800 <_write+0xc>
    4834:	854e                	mv	a0,s3
    4836:	d03fb06f          	j	538 <__riscv_restore_4>

0000483a <_sbrk>:
    483a:	8101a703          	lw	a4,-2032(gp) # 20000090 <curbrk.4666>
    483e:	953a                	add	a0,a0,a4
    4840:	200037b7          	lui	a5,0x20003
    4844:	40878793          	addi	a5,a5,1032 # 20003408 <_ebss>
    4848:	00f56c63          	bltu	a0,a5,4860 <_sbrk+0x26>
    484c:	200057b7          	lui	a5,0x20005
    4850:	80078793          	addi	a5,a5,-2048 # 20004800 <_heap_end>
    4854:	00a7e863          	bltu	a5,a0,4864 <_sbrk+0x2a>
    4858:	80a1a823          	sw	a0,-2032(gp) # 20000090 <curbrk.4666>
    485c:	853a                	mv	a0,a4
    485e:	8082                	ret
    4860:	577d                	li	a4,-1
    4862:	bfed                	j	485c <_sbrk+0x22>
    4864:	577d                	li	a4,-1
    4866:	bfdd                	j	485c <_sbrk+0x22>

00004868 <MCAL_Config_ConfigAllPins>:
    4868:	c87fb2ef          	jal	t0,4ee <__riscv_save_12>
    486c:	7175                	addi	sp,sp,-144
    486e:	4581                	li	a1,0
    4870:	4505                	li	a0,1
    4872:	dfcff0ef          	jal	ra,3e6e <RCC_AHBPeriphClockCmd>
    4876:	4581                	li	a1,0
    4878:	4509                	li	a0,2
    487a:	df4ff0ef          	jal	ra,3e6e <RCC_AHBPeriphClockCmd>
    487e:	4581                	li	a1,0
    4880:	4511                	li	a0,4
    4882:	decff0ef          	jal	ra,3e6e <RCC_AHBPeriphClockCmd>
    4886:	4581                	li	a1,0
    4888:	04000513          	li	a0,64
    488c:	de2ff0ef          	jal	ra,3e6e <RCC_AHBPeriphClockCmd>
    4890:	4581                	li	a1,0
    4892:	6505                	lui	a0,0x1
    4894:	ddaff0ef          	jal	ra,3e6e <RCC_AHBPeriphClockCmd>
    4898:	4581                	li	a1,0
    489a:	4505                	li	a0,1
    489c:	df0ff0ef          	jal	ra,3e8c <RCC_APB2PeriphClockCmd>
    48a0:	4585                	li	a1,1
    48a2:	4511                	li	a0,4
    48a4:	de8ff0ef          	jal	ra,3e8c <RCC_APB2PeriphClockCmd>
    48a8:	4585                	li	a1,1
    48aa:	4521                	li	a0,8
    48ac:	de0ff0ef          	jal	ra,3e8c <RCC_APB2PeriphClockCmd>
    48b0:	4585                	li	a1,1
    48b2:	4541                	li	a0,16
    48b4:	dd8ff0ef          	jal	ra,3e8c <RCC_APB2PeriphClockCmd>
    48b8:	4581                	li	a1,0
    48ba:	20000513          	li	a0,512
    48be:	dceff0ef          	jal	ra,3e8c <RCC_APB2PeriphClockCmd>
    48c2:	4581                	li	a1,0
    48c4:	40000513          	li	a0,1024
    48c8:	dc4ff0ef          	jal	ra,3e8c <RCC_APB2PeriphClockCmd>
    48cc:	4585                	li	a1,1
    48ce:	6d85                	lui	s11,0x1
    48d0:	800d8513          	addi	a0,s11,-2048 # 800 <__stack_size>
    48d4:	db8ff0ef          	jal	ra,3e8c <RCC_APB2PeriphClockCmd>
    48d8:	4585                	li	a1,1
    48da:	6505                	lui	a0,0x1
    48dc:	db0ff0ef          	jal	ra,3e8c <RCC_APB2PeriphClockCmd>
    48e0:	4581                	li	a1,0
    48e2:	6509                	lui	a0,0x2
    48e4:	da8ff0ef          	jal	ra,3e8c <RCC_APB2PeriphClockCmd>
    48e8:	4581                	li	a1,0
    48ea:	6511                	lui	a0,0x4
    48ec:	da0ff0ef          	jal	ra,3e8c <RCC_APB2PeriphClockCmd>
    48f0:	4585                	li	a1,1
    48f2:	4505                	li	a0,1
    48f4:	db6ff0ef          	jal	ra,3eaa <RCC_APB1PeriphClockCmd>
    48f8:	4581                	li	a1,0
    48fa:	4509                	li	a0,2
    48fc:	daeff0ef          	jal	ra,3eaa <RCC_APB1PeriphClockCmd>
    4900:	4585                	li	a1,1
    4902:	4511                	li	a0,4
    4904:	da6ff0ef          	jal	ra,3eaa <RCC_APB1PeriphClockCmd>
    4908:	4581                	li	a1,0
    490a:	4521                	li	a0,8
    490c:	d9eff0ef          	jal	ra,3eaa <RCC_APB1PeriphClockCmd>
    4910:	4581                	li	a1,0
    4912:	800d8513          	addi	a0,s11,-2048
    4916:	d94ff0ef          	jal	ra,3eaa <RCC_APB1PeriphClockCmd>
    491a:	4581                	li	a1,0
    491c:	6511                	lui	a0,0x4
    491e:	d8cff0ef          	jal	ra,3eaa <RCC_APB1PeriphClockCmd>
    4922:	4581                	li	a1,0
    4924:	00020537          	lui	a0,0x20
    4928:	d82ff0ef          	jal	ra,3eaa <RCC_APB1PeriphClockCmd>
    492c:	4581                	li	a1,0
    492e:	00040537          	lui	a0,0x40
    4932:	d78ff0ef          	jal	ra,3eaa <RCC_APB1PeriphClockCmd>
    4936:	4585                	li	a1,1
    4938:	00080537          	lui	a0,0x80
    493c:	d6eff0ef          	jal	ra,3eaa <RCC_APB1PeriphClockCmd>
    4940:	4581                	li	a1,0
    4942:	00200537          	lui	a0,0x200
    4946:	d64ff0ef          	jal	ra,3eaa <RCC_APB1PeriphClockCmd>
    494a:	4585                	li	a1,1
    494c:	00400537          	lui	a0,0x400
    4950:	d5aff0ef          	jal	ra,3eaa <RCC_APB1PeriphClockCmd>
    4954:	4581                	li	a1,0
    4956:	00800537          	lui	a0,0x800
    495a:	d50ff0ef          	jal	ra,3eaa <RCC_APB1PeriphClockCmd>
    495e:	4581                	li	a1,0
    4960:	02000537          	lui	a0,0x2000
    4964:	d46ff0ef          	jal	ra,3eaa <RCC_APB1PeriphClockCmd>
    4968:	4581                	li	a1,0
    496a:	08000537          	lui	a0,0x8000
    496e:	d3cff0ef          	jal	ra,3eaa <RCC_APB1PeriphClockCmd>
    4972:	4581                	li	a1,0
    4974:	10000537          	lui	a0,0x10000
    4978:	d32ff0ef          	jal	ra,3eaa <RCC_APB1PeriphClockCmd>
    497c:	4a05                	li	s4,1
    497e:	09411223          	sh	s4,132(sp)
    4982:	4785                	li	a5,1
    4984:	c53e                	sw	a5,136(sp)
    4986:	04800793          	li	a5,72
    498a:	c73e                	sw	a5,140(sp)
    498c:	014c                	addi	a1,sp,132
    498e:	40011437          	lui	s0,0x40011
    4992:	80040513          	addi	a0,s0,-2048 # 40010800 <__freertos_irq_stack_top+0x2000b800>
    4996:	e67fe0ef          	jal	ra,37fc <GPIO_Init>
    499a:	49c1                	li	s3,16
    499c:	c74e                	sw	s3,140(sp)
    499e:	4b89                	li	s7,2
    49a0:	09711223          	sh	s7,132(sp)
    49a4:	014c                	addi	a1,sp,132
    49a6:	80040513          	addi	a0,s0,-2048
    49aa:	e53fe0ef          	jal	ra,37fc <GPIO_Init>
    49ae:	c74e                	sw	s3,140(sp)
    49b0:	4791                	li	a5,4
    49b2:	08f11223          	sh	a5,132(sp)
    49b6:	014c                	addi	a1,sp,132
    49b8:	80040513          	addi	a0,s0,-2048
    49bc:	e41fe0ef          	jal	ra,37fc <GPIO_Init>
    49c0:	c74e                	sw	s3,140(sp)
    49c2:	46a1                	li	a3,8
    49c4:	08d11223          	sh	a3,132(sp)
    49c8:	014c                	addi	a1,sp,132
    49ca:	80040513          	addi	a0,s0,-2048
    49ce:	e2ffe0ef          	jal	ra,37fc <GPIO_Init>
    49d2:	c702                	sw	zero,140(sp)
    49d4:	09311223          	sh	s3,132(sp)
    49d8:	014c                	addi	a1,sp,132
    49da:	80040513          	addi	a0,s0,-2048
    49de:	e1ffe0ef          	jal	ra,37fc <GPIO_Init>
    49e2:	4961                	li	s2,24
    49e4:	c74a                	sw	s2,140(sp)
    49e6:	02000793          	li	a5,32
    49ea:	08f11223          	sh	a5,132(sp)
    49ee:	014c                	addi	a1,sp,132
    49f0:	80040513          	addi	a0,s0,-2048
    49f4:	e09fe0ef          	jal	ra,37fc <GPIO_Init>
    49f8:	4491                	li	s1,4
    49fa:	c726                	sw	s1,140(sp)
    49fc:	04000613          	li	a2,64
    4a00:	08c11223          	sh	a2,132(sp)
    4a04:	014c                	addi	a1,sp,132
    4a06:	80040513          	addi	a0,s0,-2048
    4a0a:	df3fe0ef          	jal	ra,37fc <GPIO_Init>
    4a0e:	c74a                	sw	s2,140(sp)
    4a10:	08000593          	li	a1,128
    4a14:	08b11223          	sh	a1,132(sp)
    4a18:	0148                	addi	a0,sp,132
    4a1a:	85aa                	mv	a1,a0
    4a1c:	80040513          	addi	a0,s0,-2048
    4a20:	dddfe0ef          	jal	ra,37fc <GPIO_Init>
    4a24:	c726                	sw	s1,140(sp)
    4a26:	10000513          	li	a0,256
    4a2a:	08a11223          	sh	a0,132(sp)
    4a2e:	08410813          	addi	a6,sp,132
    4a32:	85c2                	mv	a1,a6
    4a34:	80040513          	addi	a0,s0,-2048
    4a38:	dc5fe0ef          	jal	ra,37fc <GPIO_Init>
    4a3c:	c74a                	sw	s2,140(sp)
    4a3e:	20000b13          	li	s6,512
    4a42:	09611223          	sh	s6,132(sp)
    4a46:	08410813          	addi	a6,sp,132
    4a4a:	85c2                	mv	a1,a6
    4a4c:	80040513          	addi	a0,s0,-2048
    4a50:	dadfe0ef          	jal	ra,37fc <GPIO_Init>
    4a54:	c74a                	sw	s2,140(sp)
    4a56:	40000d13          	li	s10,1024
    4a5a:	09a11223          	sh	s10,132(sp)
    4a5e:	08410813          	addi	a6,sp,132
    4a62:	85c2                	mv	a1,a6
    4a64:	80040513          	addi	a0,s0,-2048
    4a68:	d95fe0ef          	jal	ra,37fc <GPIO_Init>
    4a6c:	c74e                	sw	s3,140(sp)
    4a6e:	6785                	lui	a5,0x1
    4a70:	80078813          	addi	a6,a5,-2048 # 800 <__stack_size>
    4a74:	01011723          	sh	a6,14(sp)
    4a78:	09011223          	sh	a6,132(sp)
    4a7c:	08410893          	addi	a7,sp,132
    4a80:	85c6                	mv	a1,a7
    4a82:	80040513          	addi	a0,s0,-2048
    4a86:	d77fe0ef          	jal	ra,37fc <GPIO_Init>
    4a8a:	02800793          	li	a5,40
    4a8e:	c73e                	sw	a5,140(sp)
    4a90:	09b11223          	sh	s11,132(sp)
    4a94:	08410893          	addi	a7,sp,132
    4a98:	85c6                	mv	a1,a7
    4a9a:	80040513          	addi	a0,s0,-2048
    4a9e:	d5ffe0ef          	jal	ra,37fc <GPIO_Init>
    4aa2:	c726                	sw	s1,140(sp)
    4aa4:	6a89                	lui	s5,0x2
    4aa6:	09511223          	sh	s5,132(sp)
    4aaa:	08410893          	addi	a7,sp,132
    4aae:	85c6                	mv	a1,a7
    4ab0:	80040513          	addi	a0,s0,-2048
    4ab4:	d49fe0ef          	jal	ra,37fc <GPIO_Init>
    4ab8:	c726                	sw	s1,140(sp)
    4aba:	6c11                	lui	s8,0x4
    4abc:	09811223          	sh	s8,132(sp)
    4ac0:	08410893          	addi	a7,sp,132
    4ac4:	85c6                	mv	a1,a7
    4ac6:	80040513          	addi	a0,s0,-2048
    4aca:	d33fe0ef          	jal	ra,37fc <GPIO_Init>
    4ace:	c74e                	sw	s3,140(sp)
    4ad0:	7ce1                	lui	s9,0xffff8
    4ad2:	09911223          	sh	s9,132(sp)
    4ad6:	08410893          	addi	a7,sp,132
    4ada:	85c6                	mv	a1,a7
    4adc:	80040513          	addi	a0,s0,-2048
    4ae0:	d1dfe0ef          	jal	ra,37fc <GPIO_Init>
    4ae4:	c74a                	sw	s2,140(sp)
    4ae6:	4885                	li	a7,1
    4ae8:	09111223          	sh	a7,132(sp)
    4aec:	08410893          	addi	a7,sp,132
    4af0:	85c6                	mv	a1,a7
    4af2:	c0040513          	addi	a0,s0,-1024
    4af6:	d07fe0ef          	jal	ra,37fc <GPIO_Init>
    4afa:	c726                	sw	s1,140(sp)
    4afc:	09711223          	sh	s7,132(sp)
    4b00:	08410893          	addi	a7,sp,132
    4b04:	85c6                	mv	a1,a7
    4b06:	c0040513          	addi	a0,s0,-1024
    4b0a:	cf3fe0ef          	jal	ra,37fc <GPIO_Init>
    4b0e:	c74a                	sw	s2,140(sp)
    4b10:	08911223          	sh	s1,132(sp)
    4b14:	08410893          	addi	a7,sp,132
    4b18:	85c6                	mv	a1,a7
    4b1a:	c0040513          	addi	a0,s0,-1024
    4b1e:	cdffe0ef          	jal	ra,37fc <GPIO_Init>
    4b22:	c726                	sw	s1,140(sp)
    4b24:	46a1                	li	a3,8
    4b26:	08d11223          	sh	a3,132(sp)
    4b2a:	0154                	addi	a3,sp,132
    4b2c:	85b6                	mv	a1,a3
    4b2e:	c0040513          	addi	a0,s0,-1024
    4b32:	ccbfe0ef          	jal	ra,37fc <GPIO_Init>
    4b36:	c74a                	sw	s2,140(sp)
    4b38:	09311223          	sh	s3,132(sp)
    4b3c:	0154                	addi	a3,sp,132
    4b3e:	85b6                	mv	a1,a3
    4b40:	c0040513          	addi	a0,s0,-1024
    4b44:	cb9fe0ef          	jal	ra,37fc <GPIO_Init>
    4b48:	c726                	sw	s1,140(sp)
    4b4a:	02000793          	li	a5,32
    4b4e:	08f11223          	sh	a5,132(sp)
    4b52:	0154                	addi	a3,sp,132
    4b54:	85b6                	mv	a1,a3
    4b56:	c0040513          	addi	a0,s0,-1024
    4b5a:	ca3fe0ef          	jal	ra,37fc <GPIO_Init>
    4b5e:	c74a                	sw	s2,140(sp)
    4b60:	04000613          	li	a2,64
    4b64:	08c11223          	sh	a2,132(sp)
    4b68:	0154                	addi	a3,sp,132
    4b6a:	85b6                	mv	a1,a3
    4b6c:	c0040513          	addi	a0,s0,-1024
    4b70:	c8dfe0ef          	jal	ra,37fc <GPIO_Init>
    4b74:	c74a                	sw	s2,140(sp)
    4b76:	08000593          	li	a1,128
    4b7a:	08b11223          	sh	a1,132(sp)
    4b7e:	014c                	addi	a1,sp,132
    4b80:	c0040513          	addi	a0,s0,-1024
    4b84:	c79fe0ef          	jal	ra,37fc <GPIO_Init>
    4b88:	c74a                	sw	s2,140(sp)
    4b8a:	10000513          	li	a0,256
    4b8e:	08a11223          	sh	a0,132(sp)
    4b92:	014c                	addi	a1,sp,132
    4b94:	c0040513          	addi	a0,s0,-1024
    4b98:	c65fe0ef          	jal	ra,37fc <GPIO_Init>
    4b9c:	c74a                	sw	s2,140(sp)
    4b9e:	09611223          	sh	s6,132(sp)
    4ba2:	014c                	addi	a1,sp,132
    4ba4:	c0040513          	addi	a0,s0,-1024
    4ba8:	c55fe0ef          	jal	ra,37fc <GPIO_Init>
    4bac:	4971                	li	s2,28
    4bae:	c74a                	sw	s2,140(sp)
    4bb0:	09a11223          	sh	s10,132(sp)
    4bb4:	014c                	addi	a1,sp,132
    4bb6:	c0040513          	addi	a0,s0,-1024
    4bba:	c43fe0ef          	jal	ra,37fc <GPIO_Init>
    4bbe:	c74a                	sw	s2,140(sp)
    4bc0:	00e15803          	lhu	a6,14(sp)
    4bc4:	09011223          	sh	a6,132(sp)
    4bc8:	014c                	addi	a1,sp,132
    4bca:	c0040513          	addi	a0,s0,-1024
    4bce:	c2ffe0ef          	jal	ra,37fc <GPIO_Init>
    4bd2:	04800713          	li	a4,72
    4bd6:	c73a                	sw	a4,140(sp)
    4bd8:	09b11223          	sh	s11,132(sp)
    4bdc:	014c                	addi	a1,sp,132
    4bde:	c0040513          	addi	a0,s0,-1024
    4be2:	c1bfe0ef          	jal	ra,37fc <GPIO_Init>
    4be6:	c726                	sw	s1,140(sp)
    4be8:	09511223          	sh	s5,132(sp)
    4bec:	014c                	addi	a1,sp,132
    4bee:	c0040513          	addi	a0,s0,-1024
    4bf2:	c0bfe0ef          	jal	ra,37fc <GPIO_Init>
    4bf6:	c726                	sw	s1,140(sp)
    4bf8:	09811223          	sh	s8,132(sp)
    4bfc:	014c                	addi	a1,sp,132
    4bfe:	c0040513          	addi	a0,s0,-1024
    4c02:	bfbfe0ef          	jal	ra,37fc <GPIO_Init>
    4c06:	c726                	sw	s1,140(sp)
    4c08:	09911223          	sh	s9,132(sp)
    4c0c:	014c                	addi	a1,sp,132
    4c0e:	c0040513          	addi	a0,s0,-1024
    4c12:	bebfe0ef          	jal	ra,37fc <GPIO_Init>
    4c16:	c726                	sw	s1,140(sp)
    4c18:	09511223          	sh	s5,132(sp)
    4c1c:	014c                	addi	a1,sp,132
    4c1e:	40011537          	lui	a0,0x40011
    4c22:	bdbfe0ef          	jal	ra,37fc <GPIO_Init>
    4c26:	c74e                	sw	s3,140(sp)
    4c28:	09811223          	sh	s8,132(sp)
    4c2c:	014c                	addi	a1,sp,132
    4c2e:	40011537          	lui	a0,0x40011
    4c32:	bcbfe0ef          	jal	ra,37fc <GPIO_Init>
    4c36:	c74e                	sw	s3,140(sp)
    4c38:	09911223          	sh	s9,132(sp)
    4c3c:	014c                	addi	a1,sp,132
    4c3e:	40011537          	lui	a0,0x40011
    4c42:	bbbfe0ef          	jal	ra,37fc <GPIO_Init>
    4c46:	65a1                	lui	a1,0x8
    4c48:	80040513          	addi	a0,s0,-2048
    4c4c:	cfdfe0ef          	jal	ra,3948 <GPIO_ResetBits>
    4c50:	200034b7          	lui	s1,0x20003
    4c54:	38048493          	addi	s1,s1,896 # 20003380 <MCAL_CFG_adxlSPI>
    4c58:	40013db7          	lui	s11,0x40013
    4c5c:	01b4a023          	sw	s11,0(s1)
    4c60:	c0c0                	sw	s0,4(s1)
    4c62:	01849423          	sh	s8,8(s1)
    4c66:	00049523          	sh	zero,10(s1)
    4c6a:	10400693          	li	a3,260
    4c6e:	00d49623          	sh	a3,12(s1)
    4c72:	00049723          	sh	zero,14(s1)
    4c76:	01749823          	sh	s7,16(s1)
    4c7a:	01449923          	sh	s4,18(s1)
    4c7e:	01649a23          	sh	s6,20(s1)
    4c82:	03800713          	li	a4,56
    4c86:	00e49b23          	sh	a4,22(s1)
    4c8a:	00049c23          	sh	zero,24(s1)
    4c8e:	4795                	li	a5,5
    4c90:	00f49d23          	sh	a5,26(s1)
    4c94:	20003937          	lui	s2,0x20003
    4c98:	36490913          	addi	s2,s2,868 # 20003364 <MCAL_CFG_BMPSPI>
    4c9c:	01b92023          	sw	s11,0(s2)
    4ca0:	00892223          	sw	s0,4(s2)
    4ca4:	01991423          	sh	s9,8(s2)
    4ca8:	00091523          	sh	zero,10(s2)
    4cac:	00d91623          	sh	a3,12(s2)
    4cb0:	00091723          	sh	zero,14(s2)
    4cb4:	01791823          	sh	s7,16(s2)
    4cb8:	01491923          	sh	s4,18(s2)
    4cbc:	01691a23          	sh	s6,20(s2)
    4cc0:	00e91b23          	sh	a4,22(s2)
    4cc4:	00091c23          	sh	zero,24(s2)
    4cc8:	00f91d23          	sh	a5,26(s2)
    4ccc:	00a48593          	addi	a1,s1,10
    4cd0:	40013537          	lui	a0,0x40013
    4cd4:	9f4ff0ef          	jal	ra,3ec8 <SPI_Init>
    4cd8:	0084d583          	lhu	a1,8(s1)
    4cdc:	40c8                	lw	a0,4(s1)
    4cde:	c51fe0ef          	jal	ra,392e <GPIO_SetBits>
    4ce2:	00895583          	lhu	a1,8(s2)
    4ce6:	00492503          	lw	a0,4(s2)
    4cea:	c45fe0ef          	jal	ra,392e <GPIO_SetBits>
    4cee:	4585                	li	a1,1
    4cf0:	40013537          	lui	a0,0x40013
    4cf4:	a38ff0ef          	jal	ra,3f2c <SPI_Cmd>
    4cf8:	000627b7          	lui	a5,0x62
    4cfc:	a8078793          	addi	a5,a5,-1408 # 61a80 <_data_lma+0x53ae4>
    4d00:	dabe                	sw	a5,116(sp)
    4d02:	06011c23          	sh	zero,120(sp)
    4d06:	77f1                	lui	a5,0xffffc
    4d08:	17fd                	addi	a5,a5,-1
    4d0a:	06f11d23          	sh	a5,122(sp)
    4d0e:	02f00793          	li	a5,47
    4d12:	06f11e23          	sh	a5,124(sp)
    4d16:	07a11f23          	sh	s10,126(sp)
    4d1a:	09811023          	sh	s8,128(sp)
    4d1e:	18cc                	addi	a1,sp,116
    4d20:	40006437          	lui	s0,0x40006
    4d24:	80040513          	addi	a0,s0,-2048 # 40005800 <__freertos_irq_stack_top+0x20000800>
    4d28:	c3bfe0ef          	jal	ra,3962 <I2C_Init>
    4d2c:	4585                	li	a1,1
    4d2e:	80040513          	addi	a0,s0,-2048
    4d32:	d4dfe0ef          	jal	ra,3a7e <I2C_Cmd>
    4d36:	06011823          	sh	zero,112(sp)
    4d3a:	02000793          	li	a5,32
    4d3e:	06f11523          	sh	a5,106(sp)
    4d42:	07611723          	sh	s6,110(sp)
    4d46:	08f00493          	li	s1,143
    4d4a:	06911423          	sh	s1,104(sp)
    4d4e:	710a8a93          	addi	s5,s5,1808 # 2710 <prvCheckForValidListAndQueue+0x6>
    4d52:	07511623          	sh	s5,108(sp)
    4d56:	10ac                	addi	a1,sp,104
    4d58:	40001437          	lui	s0,0x40001
    4d5c:	80040513          	addi	a0,s0,-2048 # 40000800 <__freertos_irq_stack_top+0x1fffb800>
    4d60:	b34ff0ef          	jal	ra,4094 <TIM_TimeBaseInit>
    4d64:	ce82                	sw	zero,92(sp)
    4d66:	d082                	sw	zero,96(sp)
    4d68:	d282                	sw	zero,100(sp)
    4d6a:	07000793          	li	a5,112
    4d6e:	04f11c23          	sh	a5,88(sp)
    4d72:	05411d23          	sh	s4,90(sp)
    4d76:	07711023          	sh	s7,96(sp)
    4d7a:	08ac                	addi	a1,sp,88
    4d7c:	80040513          	addi	a0,s0,-2048
    4d80:	b9aff0ef          	jal	ra,411a <TIM_OC1Init>
    4d84:	08ac                	addi	a1,sp,88
    4d86:	80040513          	addi	a0,s0,-2048
    4d8a:	c16ff0ef          	jal	ra,41a0 <TIM_OC2Init>
    4d8e:	08ac                	addi	a1,sp,88
    4d90:	80040513          	addi	a0,s0,-2048
    4d94:	cccff0ef          	jal	ra,4260 <TIM_OC3Init>
    4d98:	08ac                	addi	a1,sp,88
    4d9a:	80040513          	addi	a0,s0,-2048
    4d9e:	d80ff0ef          	jal	ra,431e <TIM_OC4Init>
    4da2:	4585                	li	a1,1
    4da4:	80040513          	addi	a0,s0,-2048
    4da8:	e26ff0ef          	jal	ra,43ce <TIM_CtrlPWMOutputs>
    4dac:	4581                	li	a1,0
    4dae:	80040513          	addi	a0,s0,-2048
    4db2:	e84ff0ef          	jal	ra,4436 <TIM_OC1PreloadConfig>
    4db6:	4581                	li	a1,0
    4db8:	80040513          	addi	a0,s0,-2048
    4dbc:	e8cff0ef          	jal	ra,4448 <TIM_OC2PreloadConfig>
    4dc0:	4581                	li	a1,0
    4dc2:	80040513          	addi	a0,s0,-2048
    4dc6:	e9cff0ef          	jal	ra,4462 <TIM_OC3PreloadConfig>
    4dca:	4581                	li	a1,0
    4dcc:	80040513          	addi	a0,s0,-2048
    4dd0:	ea4ff0ef          	jal	ra,4474 <TIM_OC4PreloadConfig>
    4dd4:	4585                	li	a1,1
    4dd6:	80040513          	addi	a0,s0,-2048
    4dda:	e36ff0ef          	jal	ra,4410 <TIM_ARRPreloadConfig>
    4dde:	4585                	li	a1,1
    4de0:	80040513          	addi	a0,s0,-2048
    4de4:	dc6ff0ef          	jal	ra,43aa <TIM_Cmd>
    4de8:	04011a23          	sh	zero,84(sp)
    4dec:	05311723          	sh	s3,78(sp)
    4df0:	05611923          	sh	s6,82(sp)
    4df4:	04911623          	sh	s1,76(sp)
    4df8:	679d                	lui	a5,0x7
    4dfa:	53078793          	addi	a5,a5,1328 # 7530 <__ieee754_pow+0x7ac>
    4dfe:	04f11823          	sh	a5,80(sp)
    4e02:	00ec                	addi	a1,sp,76
    4e04:	40000537          	lui	a0,0x40000
    4e08:	a8cff0ef          	jal	ra,4094 <TIM_TimeBaseInit>
    4e0c:	4585                	li	a1,1
    4e0e:	40000537          	lui	a0,0x40000
    4e12:	dfeff0ef          	jal	ra,4410 <TIM_ARRPreloadConfig>
    4e16:	4585                	li	a1,1
    4e18:	40000537          	lui	a0,0x40000
    4e1c:	e96ff0ef          	jal	ra,44b2 <TIM_UpdateRequestConfig>
    4e20:	4585                	li	a1,1
    4e22:	40000537          	lui	a0,0x40000
    4e26:	e68ff0ef          	jal	ra,448e <TIM_UpdateDisableConfig>
    4e2a:	04011123          	sh	zero,66(sp)
    4e2e:	04011423          	sh	zero,72(sp)
    4e32:	05611323          	sh	s6,70(sp)
    4e36:	04911023          	sh	s1,64(sp)
    4e3a:	05511223          	sh	s5,68(sp)
    4e3e:	008c                	addi	a1,sp,64
    4e40:	c00d8513          	addi	a0,s11,-1024 # 40012c00 <__freertos_irq_stack_top+0x2000dc00>
    4e44:	a50ff0ef          	jal	ra,4094 <TIM_TimeBaseInit>
    4e48:	4585                	li	a1,1
    4e4a:	c00d8513          	addi	a0,s11,-1024
    4e4e:	dc2ff0ef          	jal	ra,4410 <TIM_ARRPreloadConfig>
    4e52:	4585                	li	a1,1
    4e54:	c00d8513          	addi	a0,s11,-1024
    4e58:	e5aff0ef          	jal	ra,44b2 <TIM_UpdateRequestConfig>
    4e5c:	da02                	sw	zero,52(sp)
    4e5e:	dc02                	sw	zero,56(sp)
    4e60:	02011e23          	sh	zero,60(sp)
    4e64:	47a9                	li	a5,10
    4e66:	02f11b23          	sh	a5,54(sp)
    4e6a:	03411c23          	sh	s4,56(sp)
    4e6e:	184c                	addi	a1,sp,52
    4e70:	c00d8513          	addi	a0,s11,-1024
    4e74:	eaeff0ef          	jal	ra,4522 <TIM_PWMIConfig>
    4e78:	02011723          	sh	zero,46(sp)
    4e7c:	02b00793          	li	a5,43
    4e80:	02f10623          	sb	a5,44(sp)
    4e84:	034106a3          	sb	s4,45(sp)
    4e88:	03410723          	sb	s4,46(sp)
    4e8c:	4785                	li	a5,1
    4e8e:	d83e                	sw	a5,48(sp)
    4e90:	1068                	addi	a0,sp,44
    4e92:	d19fe0ef          	jal	ra,3baa <NVIC_Init>
    4e96:	02900793          	li	a5,41
    4e9a:	02f10623          	sb	a5,44(sp)
    4e9e:	1068                	addi	a0,sp,44
    4ea0:	d0bfe0ef          	jal	ra,3baa <NVIC_Init>
    4ea4:	4581                	li	a1,0
    4ea6:	c00d8513          	addi	a0,s11,-1024
    4eaa:	d00ff0ef          	jal	ra,43aa <TIM_Cmd>
    4eae:	d002                	sw	zero,32(sp)
    4eb0:	d202                	sw	zero,36(sp)
    4eb2:	d402                	sw	zero,40(sp)
    4eb4:	67f1                	lui	a5,0x1c
    4eb6:	20078793          	addi	a5,a5,512 # 1c200 <_data_lma+0xe264>
    4eba:	ce3e                	sw	a5,28(sp)
    4ebc:	30000793          	li	a5,768
    4ec0:	02f11423          	sh	a5,40(sp)
    4ec4:	47b1                	li	a5,12
    4ec6:	02f11323          	sh	a5,38(sp)
    4eca:	086c                	addi	a1,sp,28
    4ecc:	40005437          	lui	s0,0x40005
    4ed0:	c0040513          	addi	a0,s0,-1024 # 40004c00 <__freertos_irq_stack_top+0x1ffffc00>
    4ed4:	f1aff0ef          	jal	ra,45ee <USART_Init>
    4ed8:	4585                	li	a1,1
    4eda:	c0040513          	addi	a0,s0,-1024
    4ede:	815ff0ef          	jal	ra,46f2 <USART_Cmd>
    4ee2:	4501                	li	a0,0
    4ee4:	6149                	addi	sp,sp,144
    4ee6:	e44fb06f          	j	52a <__riscv_restore_12>

00004eea <SetSysClockTo144_HSE>:
    4eea:	1141                	addi	sp,sp,-16
    4eec:	c602                	sw	zero,12(sp)
    4eee:	c402                	sw	zero,8(sp)
    4ef0:	40021737          	lui	a4,0x40021
    4ef4:	431c                	lw	a5,0(a4)
    4ef6:	66c1                	lui	a3,0x10
    4ef8:	8fd5                	or	a5,a5,a3
    4efa:	c31c                	sw	a5,0(a4)
    4efc:	400217b7          	lui	a5,0x40021
    4f00:	439c                	lw	a5,0(a5)
    4f02:	00020737          	lui	a4,0x20
    4f06:	8ff9                	and	a5,a5,a4
    4f08:	c43e                	sw	a5,8(sp)
    4f0a:	47b2                	lw	a5,12(sp)
    4f0c:	0785                	addi	a5,a5,1
    4f0e:	c63e                	sw	a5,12(sp)
    4f10:	47a2                	lw	a5,8(sp)
    4f12:	e789                	bnez	a5,4f1c <SetSysClockTo144_HSE+0x32>
    4f14:	4732                	lw	a4,12(sp)
    4f16:	6785                	lui	a5,0x1
    4f18:	fef712e3          	bne	a4,a5,4efc <SetSysClockTo144_HSE+0x12>
    4f1c:	400217b7          	lui	a5,0x40021
    4f20:	439c                	lw	a5,0(a5)
    4f22:	00e79713          	slli	a4,a5,0xe
    4f26:	00075a63          	bgez	a4,4f3a <SetSysClockTo144_HSE+0x50>
    4f2a:	4785                	li	a5,1
    4f2c:	c43e                	sw	a5,8(sp)
    4f2e:	4722                	lw	a4,8(sp)
    4f30:	4785                	li	a5,1
    4f32:	00f70663          	beq	a4,a5,4f3e <SetSysClockTo144_HSE+0x54>
    4f36:	0141                	addi	sp,sp,16
    4f38:	8082                	ret
    4f3a:	c402                	sw	zero,8(sp)
    4f3c:	bfcd                	j	4f2e <SetSysClockTo144_HSE+0x44>
    4f3e:	400217b7          	lui	a5,0x40021
    4f42:	43d8                	lw	a4,4(a5)
    4f44:	c3d8                	sw	a4,4(a5)
    4f46:	43d8                	lw	a4,4(a5)
    4f48:	c3d8                	sw	a4,4(a5)
    4f4a:	43d8                	lw	a4,4(a5)
    4f4c:	c3d8                	sw	a4,4(a5)
    4f4e:	43d8                	lw	a4,4(a5)
    4f50:	ffc106b7          	lui	a3,0xffc10
    4f54:	16fd                	addi	a3,a3,-1
    4f56:	8f75                	and	a4,a4,a3
    4f58:	c3d8                	sw	a4,4(a5)
    4f5a:	43d8                	lw	a4,4(a5)
    4f5c:	003d06b7          	lui	a3,0x3d0
    4f60:	8f55                	or	a4,a4,a3
    4f62:	c3d8                	sw	a4,4(a5)
    4f64:	4398                	lw	a4,0(a5)
    4f66:	010006b7          	lui	a3,0x1000
    4f6a:	8f55                	or	a4,a4,a3
    4f6c:	c398                	sw	a4,0(a5)
    4f6e:	400217b7          	lui	a5,0x40021
    4f72:	439c                	lw	a5,0(a5)
    4f74:	00679713          	slli	a4,a5,0x6
    4f78:	fe075be3          	bgez	a4,4f6e <SetSysClockTo144_HSE+0x84>
    4f7c:	400217b7          	lui	a5,0x40021
    4f80:	43d8                	lw	a4,4(a5)
    4f82:	9b71                	andi	a4,a4,-4
    4f84:	c3d8                	sw	a4,4(a5)
    4f86:	43d8                	lw	a4,4(a5)
    4f88:	00276713          	ori	a4,a4,2
    4f8c:	c3d8                	sw	a4,4(a5)
    4f8e:	400217b7          	lui	a5,0x40021
    4f92:	43dc                	lw	a5,4(a5)
    4f94:	8bb1                	andi	a5,a5,12
    4f96:	4721                	li	a4,8
    4f98:	fee79be3          	bne	a5,a4,4f8e <SetSysClockTo144_HSE+0xa4>
    4f9c:	bf69                	j	4f36 <SetSysClockTo144_HSE+0x4c>

00004f9e <SetSysClock>:
    4f9e:	d80fb2ef          	jal	t0,51e <__riscv_save_0>
    4fa2:	f49ff0ef          	jal	ra,4eea <SetSysClockTo144_HSE>
    4fa6:	d9cfb06f          	j	542 <__riscv_restore_0>

00004faa <SystemInit>:
    4faa:	d74fb2ef          	jal	t0,51e <__riscv_save_0>
    4fae:	400217b7          	lui	a5,0x40021
    4fb2:	4398                	lw	a4,0(a5)
    4fb4:	00176713          	ori	a4,a4,1
    4fb8:	c398                	sw	a4,0(a5)
    4fba:	43d8                	lw	a4,4(a5)
    4fbc:	f8ff06b7          	lui	a3,0xf8ff0
    4fc0:	8f75                	and	a4,a4,a3
    4fc2:	c3d8                	sw	a4,4(a5)
    4fc4:	4398                	lw	a4,0(a5)
    4fc6:	fef706b7          	lui	a3,0xfef70
    4fca:	16fd                	addi	a3,a3,-1
    4fcc:	8f75                	and	a4,a4,a3
    4fce:	c398                	sw	a4,0(a5)
    4fd0:	4398                	lw	a4,0(a5)
    4fd2:	fffc06b7          	lui	a3,0xfffc0
    4fd6:	16fd                	addi	a3,a3,-1
    4fd8:	8f75                	and	a4,a4,a3
    4fda:	c398                	sw	a4,0(a5)
    4fdc:	43d8                	lw	a4,4(a5)
    4fde:	ff8106b7          	lui	a3,0xff810
    4fe2:	16fd                	addi	a3,a3,-1
    4fe4:	8f75                	and	a4,a4,a3
    4fe6:	c3d8                	sw	a4,4(a5)
    4fe8:	009f0737          	lui	a4,0x9f0
    4fec:	c798                	sw	a4,8(a5)
    4fee:	fb1ff0ef          	jal	ra,4f9e <SetSysClock>
    4ff2:	d50fb06f          	j	542 <__riscv_restore_0>

00004ff6 <SystemCoreClockUpdate>:
    4ff6:	400217b7          	lui	a5,0x40021
    4ffa:	43dc                	lw	a5,4(a5)
    4ffc:	8bb1                	andi	a5,a5,12
    4ffe:	4711                	li	a4,4
    5000:	04e78763          	beq	a5,a4,504e <SystemCoreClockUpdate+0x58>
    5004:	4721                	li	a4,8
    5006:	04e78b63          	beq	a5,a4,505c <SystemCoreClockUpdate+0x66>
    500a:	cb81                	beqz	a5,501a <SystemCoreClockUpdate+0x24>
    500c:	007a17b7          	lui	a5,0x7a1
    5010:	20078793          	addi	a5,a5,512 # 7a1200 <_data_lma+0x793264>
    5014:	80f1aa23          	sw	a5,-2028(gp) # 20000094 <SystemCoreClock>
    5018:	a039                	j	5026 <SystemCoreClockUpdate+0x30>
    501a:	007a17b7          	lui	a5,0x7a1
    501e:	20078793          	addi	a5,a5,512 # 7a1200 <_data_lma+0x793264>
    5022:	80f1aa23          	sw	a5,-2028(gp) # 20000094 <SystemCoreClock>
    5026:	400217b7          	lui	a5,0x40021
    502a:	43dc                	lw	a5,4(a5)
    502c:	8391                	srli	a5,a5,0x4
    502e:	00f7f713          	andi	a4,a5,15
    5032:	200007b7          	lui	a5,0x20000
    5036:	01078793          	addi	a5,a5,16 # 20000010 <AHBPrescTable>
    503a:	97ba                	add	a5,a5,a4
    503c:	0007c683          	lbu	a3,0(a5)
    5040:	81418793          	addi	a5,gp,-2028 # 20000094 <SystemCoreClock>
    5044:	4398                	lw	a4,0(a5)
    5046:	00d75733          	srl	a4,a4,a3
    504a:	c398                	sw	a4,0(a5)
    504c:	8082                	ret
    504e:	007a17b7          	lui	a5,0x7a1
    5052:	20078793          	addi	a5,a5,512 # 7a1200 <_data_lma+0x793264>
    5056:	80f1aa23          	sw	a5,-2028(gp) # 20000094 <SystemCoreClock>
    505a:	b7f1                	j	5026 <SystemCoreClockUpdate+0x30>
    505c:	40021737          	lui	a4,0x40021
    5060:	435c                	lw	a5,4(a4)
    5062:	4358                	lw	a4,4(a4)
    5064:	66c1                	lui	a3,0x10
    5066:	8f75                	and	a4,a4,a3
    5068:	83c9                	srli	a5,a5,0x12
    506a:	8bbd                	andi	a5,a5,15
    506c:	0789                	addi	a5,a5,2
    506e:	46c5                	li	a3,17
    5070:	02d78263          	beq	a5,a3,5094 <SystemCoreClockUpdate+0x9e>
    5074:	eb1d                	bnez	a4,50aa <SystemCoreClockUpdate+0xb4>
    5076:	40024737          	lui	a4,0x40024
    507a:	80072703          	lw	a4,-2048(a4) # 40023800 <__freertos_irq_stack_top+0x2001e800>
    507e:	8b41                	andi	a4,a4,16
    5080:	cf01                	beqz	a4,5098 <SystemCoreClockUpdate+0xa2>
    5082:	007a1737          	lui	a4,0x7a1
    5086:	20070713          	addi	a4,a4,512 # 7a1200 <_data_lma+0x793264>
    508a:	02e787b3          	mul	a5,a5,a4
    508e:	80f1aa23          	sw	a5,-2028(gp) # 20000094 <SystemCoreClock>
    5092:	bf51                	j	5026 <SystemCoreClockUpdate+0x30>
    5094:	47c9                	li	a5,18
    5096:	bff9                	j	5074 <SystemCoreClockUpdate+0x7e>
    5098:	003d1737          	lui	a4,0x3d1
    509c:	90070713          	addi	a4,a4,-1792 # 3d0900 <_data_lma+0x3c2964>
    50a0:	02e787b3          	mul	a5,a5,a4
    50a4:	80f1aa23          	sw	a5,-2028(gp) # 20000094 <SystemCoreClock>
    50a8:	bfbd                	j	5026 <SystemCoreClockUpdate+0x30>
    50aa:	40021737          	lui	a4,0x40021
    50ae:	4358                	lw	a4,4(a4)
    50b0:	00e71693          	slli	a3,a4,0xe
    50b4:	0006db63          	bgez	a3,50ca <SystemCoreClockUpdate+0xd4>
    50b8:	003d1737          	lui	a4,0x3d1
    50bc:	90070713          	addi	a4,a4,-1792 # 3d0900 <_data_lma+0x3c2964>
    50c0:	02e787b3          	mul	a5,a5,a4
    50c4:	80f1aa23          	sw	a5,-2028(gp) # 20000094 <SystemCoreClock>
    50c8:	bfb9                	j	5026 <SystemCoreClockUpdate+0x30>
    50ca:	007a1737          	lui	a4,0x7a1
    50ce:	20070713          	addi	a4,a4,512 # 7a1200 <_data_lma+0x793264>
    50d2:	02e787b3          	mul	a5,a5,a4
    50d6:	80f1aa23          	sw	a5,-2028(gp) # 20000094 <SystemCoreClock>
    50da:	b7b1                	j	5026 <SystemCoreClockUpdate+0x30>

000050dc <HAL_WRAPPER_ReadAcc>:
    50dc:	cd1d                	beqz	a0,511a <HAL_WRAPPER_ReadAcc+0x3e>
    50de:	c40fb2ef          	jal	t0,51e <__riscv_save_0>
    50e2:	84aa                	mv	s1,a0
    50e4:	20003537          	lui	a0,0x20003
    50e8:	3b450413          	addi	s0,a0,948 # 200033b4 <global_MPU6050ACC_t>
    50ec:	00840613          	addi	a2,s0,8
    50f0:	00440593          	addi	a1,s0,4
    50f4:	3b450513          	addi	a0,a0,948
    50f8:	2ac9                	jal	52ca <mpu6050_accel_read>
    50fa:	401c                	lw	a5,0(s0)
    50fc:	80000737          	lui	a4,0x80000
    5100:	8fb9                	xor	a5,a5,a4
    5102:	c01c                	sw	a5,0(s0)
    5104:	4054                	lw	a3,4(s0)
    5106:	8f35                	xor	a4,a4,a3
    5108:	c058                	sw	a4,4(s0)
    510a:	c09c                	sw	a5,0(s1)
    510c:	405c                	lw	a5,4(s0)
    510e:	c0dc                	sw	a5,4(s1)
    5110:	441c                	lw	a5,8(s0)
    5112:	c49c                	sw	a5,8(s1)
    5114:	4501                	li	a0,0
    5116:	c2cfb06f          	j	542 <__riscv_restore_0>
    511a:	4505                	li	a0,1
    511c:	8082                	ret

0000511e <HAL_WRAPPER_ReadGyro>:
    511e:	c00fb2ef          	jal	t0,51e <__riscv_save_0>
    5122:	84aa                	mv	s1,a0
    5124:	20003537          	lui	a0,0x20003
    5128:	3c050413          	addi	s0,a0,960 # 200033c0 <global_MPU6050GYRO_t>
    512c:	00840613          	addi	a2,s0,8
    5130:	00440593          	addi	a1,s0,4
    5134:	3c050513          	addi	a0,a0,960
    5138:	2481                	jal	5378 <mpu6050_gyro_read>
    513a:	4018                	lw	a4,0(s0)
    513c:	800007b7          	lui	a5,0x80000
    5140:	8f3d                	xor	a4,a4,a5
    5142:	c018                	sw	a4,0(s0)
    5144:	4054                	lw	a3,4(s0)
    5146:	8fb5                	xor	a5,a5,a3
    5148:	c05c                	sw	a5,4(s0)
    514a:	c0dc                	sw	a5,4(s1)
    514c:	c098                	sw	a4,0(s1)
    514e:	441c                	lw	a5,8(s0)
    5150:	c49c                	sw	a5,8(s1)
    5152:	4501                	li	a0,0
    5154:	beefb06f          	j	542 <__riscv_restore_0>

00005158 <HAL_WRAPPER_ReadMagnet>:
    5158:	bc6fb2ef          	jal	t0,51e <__riscv_save_0>
    515c:	84aa                	mv	s1,a0
    515e:	20003937          	lui	s2,0x20003
    5162:	39c90413          	addi	s0,s2,924 # 2000339c <global_HMC5883MAGNET_t>
    5166:	39c90513          	addi	a0,s2,924
    516a:	21f9                	jal	5638 <hmc5883l_read>
    516c:	00045783          	lhu	a5,0(s0)
    5170:	40f007b3          	neg	a5,a5
    5174:	00245703          	lhu	a4,2(s0)
    5178:	40e00733          	neg	a4,a4
    517c:	00e41023          	sh	a4,0(s0)
    5180:	00f41123          	sh	a5,2(s0)
    5184:	39c90513          	addi	a0,s2,924
    5188:	2b19                	jal	569e <hmc5883l_normalize>
    518a:	441c                	lw	a5,8(s0)
    518c:	c09c                	sw	a5,0(s1)
    518e:	445c                	lw	a5,12(s0)
    5190:	c0dc                	sw	a5,4(s1)
    5192:	481c                	lw	a5,16(s0)
    5194:	c49c                	sw	a5,8(s1)
    5196:	4501                	li	a0,0
    5198:	baafb06f          	j	542 <__riscv_restore_0>

0000519c <HAL_WRAPPER_SetESCSpeeds>:
    519c:	00054583          	lbu	a1,0(a0)
    51a0:	06400793          	li	a5,100
    51a4:	04b7e863          	bltu	a5,a1,51f4 <HAL_WRAPPER_SetESCSpeeds+0x58>
    51a8:	00154703          	lbu	a4,1(a0)
    51ac:	04e7e663          	bltu	a5,a4,51f8 <HAL_WRAPPER_SetESCSpeeds+0x5c>
    51b0:	00254703          	lbu	a4,2(a0)
    51b4:	04e7e463          	bltu	a5,a4,51fc <HAL_WRAPPER_SetESCSpeeds+0x60>
    51b8:	00354703          	lbu	a4,3(a0)
    51bc:	00e7f463          	bgeu	a5,a4,51c4 <HAL_WRAPPER_SetESCSpeeds+0x28>
    51c0:	4505                	li	a0,1
    51c2:	8082                	ret
    51c4:	b5afb2ef          	jal	t0,51e <__riscv_save_0>
    51c8:	842a                	mv	s0,a0
    51ca:	4501                	li	a0,0
    51cc:	58e000ef          	jal	ra,575a <HAL_ESC_setSpeed>
    51d0:	00144583          	lbu	a1,1(s0)
    51d4:	4505                	li	a0,1
    51d6:	584000ef          	jal	ra,575a <HAL_ESC_setSpeed>
    51da:	00244583          	lbu	a1,2(s0)
    51de:	4509                	li	a0,2
    51e0:	57a000ef          	jal	ra,575a <HAL_ESC_setSpeed>
    51e4:	00344583          	lbu	a1,3(s0)
    51e8:	450d                	li	a0,3
    51ea:	570000ef          	jal	ra,575a <HAL_ESC_setSpeed>
    51ee:	4501                	li	a0,0
    51f0:	b52fb06f          	j	542 <__riscv_restore_0>
    51f4:	4505                	li	a0,1
    51f6:	8082                	ret
    51f8:	4505                	li	a0,1
    51fa:	8082                	ret
    51fc:	4505                	li	a0,1
    51fe:	8082                	ret

00005200 <HAL_WRAPPER_GetCommMessage>:
    5200:	b1efb2ef          	jal	t0,51e <__riscv_save_0>
    5204:	4585                	li	a1,1
    5206:	c12fe0ef          	jal	ra,3618 <MCAL_WRAPPER_ReceiveDataThroughUART4>
    520a:	e119                	bnez	a0,5210 <HAL_WRAPPER_GetCommMessage+0x10>
    520c:	b36fb06f          	j	542 <__riscv_restore_0>
    5210:	450d                	li	a0,3
    5212:	bfed                	j	520c <HAL_WRAPPER_GetCommMessage+0xc>

00005214 <HAL_WRAPPER_SendCommMessage>:
    5214:	b0afb2ef          	jal	t0,51e <__riscv_save_0>
    5218:	1141                	addi	sp,sp,-16
    521a:	00a107a3          	sb	a0,15(sp)
    521e:	4585                	li	a1,1
    5220:	00f10513          	addi	a0,sp,15
    5224:	b96fe0ef          	jal	ra,35ba <MCAL_WRAPPER_SendDataThroughUART4>
    5228:	e501                	bnez	a0,5230 <HAL_WRAPPER_SendCommMessage+0x1c>
    522a:	0141                	addi	sp,sp,16
    522c:	b16fb06f          	j	542 <__riscv_restore_0>
    5230:	4509                	li	a0,2
    5232:	bfe5                	j	522a <HAL_WRAPPER_SendCommMessage+0x16>

00005234 <HAL_WRAPPER_ReadPressure>:
    5234:	aeafb2ef          	jal	t0,51e <__riscv_save_0>
    5238:	842a                	mv	s0,a0
    523a:	213000ef          	jal	ra,5c4c <BMP280_get_pressure>
    523e:	c008                	sw	a0,0(s0)
    5240:	4501                	li	a0,0
    5242:	b00fb06f          	j	542 <__riscv_restore_0>

00005246 <HAL_WRAPPER_ReadTemperature>:
    5246:	ad8fb2ef          	jal	t0,51e <__riscv_save_0>
    524a:	842a                	mv	s0,a0
    524c:	1e9000ef          	jal	ra,5c34 <BMP280_get_temperature>
    5250:	c008                	sw	a0,0(s0)
    5252:	4501                	li	a0,0
    5254:	aeefb06f          	j	542 <__riscv_restore_0>

00005258 <HAL_WRAPPER_ReadAltitude>:
    5258:	ac6fb2ef          	jal	t0,51e <__riscv_save_0>
    525c:	842a                	mv	s0,a0
    525e:	4188                	lw	a0,0(a1)
    5260:	209000ef          	jal	ra,5c68 <BMP280_get_altitude>
    5264:	c008                	sw	a0,0(s0)
    5266:	00440513          	addi	a0,s0,4
    526a:	2945                	jal	571a <HAL_HCSR04_GetDistance>
    526c:	4501                	li	a0,0
    526e:	ad4fb06f          	j	542 <__riscv_restore_0>

00005272 <mpu6050_accel_setup>:
    5272:	aacfb2ef          	jal	t0,51e <__riscv_save_0>
    5276:	4581                	li	a1,0
    5278:	06800513          	li	a0,104
    527c:	f75fd0ef          	jal	ra,31f0 <I2C_start_transmission>
    5280:	06b00513          	li	a0,107
    5284:	fe7fd0ef          	jal	ra,326a <I2C_write>
    5288:	4501                	li	a0,0
    528a:	fe1fd0ef          	jal	ra,326a <I2C_write>
    528e:	80efe0ef          	jal	ra,329c <I2C_stop>
    5292:	4581                	li	a1,0
    5294:	06800513          	li	a0,104
    5298:	f59fd0ef          	jal	ra,31f0 <I2C_start_transmission>
    529c:	4569                	li	a0,26
    529e:	fcdfd0ef          	jal	ra,326a <I2C_write>
    52a2:	4515                	li	a0,5
    52a4:	fc7fd0ef          	jal	ra,326a <I2C_write>
    52a8:	ff5fd0ef          	jal	ra,329c <I2C_stop>
    52ac:	4581                	li	a1,0
    52ae:	06800513          	li	a0,104
    52b2:	f3ffd0ef          	jal	ra,31f0 <I2C_start_transmission>
    52b6:	4571                	li	a0,28
    52b8:	fb3fd0ef          	jal	ra,326a <I2C_write>
    52bc:	4541                	li	a0,16
    52be:	fadfd0ef          	jal	ra,326a <I2C_write>
    52c2:	fdbfd0ef          	jal	ra,329c <I2C_stop>
    52c6:	a7cfb06f          	j	542 <__riscv_restore_0>

000052ca <mpu6050_accel_read>:
    52ca:	a3afb2ef          	jal	t0,504 <__riscv_save_4>
    52ce:	8aaa                	mv	s5,a0
    52d0:	8a2e                	mv	s4,a1
    52d2:	89b2                	mv	s3,a2
    52d4:	4581                	li	a1,0
    52d6:	06800513          	li	a0,104
    52da:	f17fd0ef          	jal	ra,31f0 <I2C_start_transmission>
    52de:	03b00513          	li	a0,59
    52e2:	f89fd0ef          	jal	ra,326a <I2C_write>
    52e6:	fb7fd0ef          	jal	ra,329c <I2C_stop>
    52ea:	4599                	li	a1,6
    52ec:	06800513          	li	a0,104
    52f0:	804fe0ef          	jal	ra,32f4 <I2C_requestFrom>
    52f4:	fd9fd0ef          	jal	ra,32cc <I2C_read>
    52f8:	00851913          	slli	s2,a0,0x8
    52fc:	0942                	slli	s2,s2,0x10
    52fe:	41095913          	srai	s2,s2,0x10
    5302:	fcbfd0ef          	jal	ra,32cc <I2C_read>
    5306:	0542                	slli	a0,a0,0x10
    5308:	8541                	srai	a0,a0,0x10
    530a:	00a96933          	or	s2,s2,a0
    530e:	fbffd0ef          	jal	ra,32cc <I2C_read>
    5312:	00851493          	slli	s1,a0,0x8
    5316:	04c2                	slli	s1,s1,0x10
    5318:	84c1                	srai	s1,s1,0x10
    531a:	fb3fd0ef          	jal	ra,32cc <I2C_read>
    531e:	0542                	slli	a0,a0,0x10
    5320:	8541                	srai	a0,a0,0x10
    5322:	8cc9                	or	s1,s1,a0
    5324:	fa9fd0ef          	jal	ra,32cc <I2C_read>
    5328:	0522                	slli	a0,a0,0x8
    532a:	01051413          	slli	s0,a0,0x10
    532e:	8441                	srai	s0,s0,0x10
    5330:	f9dfd0ef          	jal	ra,32cc <I2C_read>
    5334:	0542                	slli	a0,a0,0x10
    5336:	8541                	srai	a0,a0,0x10
    5338:	8c49                	or	s0,s0,a0
    533a:	854a                	mv	a0,s2
    533c:	25f060ef          	jal	ra,bd9a <__floatsisf>
    5340:	0000d937          	lui	s2,0xd
    5344:	72492583          	lw	a1,1828(s2) # d724 <_read+0x18e>
    5348:	3e0060ef          	jal	ra,b728 <__mulsf3>
    534c:	00aaa023          	sw	a0,0(s5)
    5350:	8526                	mv	a0,s1
    5352:	249060ef          	jal	ra,bd9a <__floatsisf>
    5356:	72492583          	lw	a1,1828(s2)
    535a:	3ce060ef          	jal	ra,b728 <__mulsf3>
    535e:	00aa2023          	sw	a0,0(s4)
    5362:	8522                	mv	a0,s0
    5364:	237060ef          	jal	ra,bd9a <__floatsisf>
    5368:	72492583          	lw	a1,1828(s2)
    536c:	3bc060ef          	jal	ra,b728 <__mulsf3>
    5370:	00a9a023          	sw	a0,0(s3)
    5374:	9c4fb06f          	j	538 <__riscv_restore_4>

00005378 <mpu6050_gyro_read>:
    5378:	97efb2ef          	jal	t0,4f6 <__riscv_save_10>
    537c:	8baa                	mv	s7,a0
    537e:	8b2e                	mv	s6,a1
    5380:	89b2                	mv	s3,a2
    5382:	4581                	li	a1,0
    5384:	06800513          	li	a0,104
    5388:	e69fd0ef          	jal	ra,31f0 <I2C_start_transmission>
    538c:	04300513          	li	a0,67
    5390:	edbfd0ef          	jal	ra,326a <I2C_write>
    5394:	f09fd0ef          	jal	ra,329c <I2C_stop>
    5398:	4599                	li	a1,6
    539a:	06800513          	li	a0,104
    539e:	f57fd0ef          	jal	ra,32f4 <I2C_requestFrom>
    53a2:	f2bfd0ef          	jal	ra,32cc <I2C_read>
    53a6:	00851913          	slli	s2,a0,0x8
    53aa:	0942                	slli	s2,s2,0x10
    53ac:	41095913          	srai	s2,s2,0x10
    53b0:	f1dfd0ef          	jal	ra,32cc <I2C_read>
    53b4:	0542                	slli	a0,a0,0x10
    53b6:	8541                	srai	a0,a0,0x10
    53b8:	00a96933          	or	s2,s2,a0
    53bc:	f11fd0ef          	jal	ra,32cc <I2C_read>
    53c0:	00851493          	slli	s1,a0,0x8
    53c4:	04c2                	slli	s1,s1,0x10
    53c6:	84c1                	srai	s1,s1,0x10
    53c8:	f05fd0ef          	jal	ra,32cc <I2C_read>
    53cc:	0542                	slli	a0,a0,0x10
    53ce:	8541                	srai	a0,a0,0x10
    53d0:	8cc9                	or	s1,s1,a0
    53d2:	efbfd0ef          	jal	ra,32cc <I2C_read>
    53d6:	00851413          	slli	s0,a0,0x8
    53da:	0442                	slli	s0,s0,0x10
    53dc:	8441                	srai	s0,s0,0x10
    53de:	eeffd0ef          	jal	ra,32cc <I2C_read>
    53e2:	0542                	slli	a0,a0,0x10
    53e4:	8541                	srai	a0,a0,0x10
    53e6:	8c49                	or	s0,s0,a0
    53e8:	854a                	mv	a0,s2
    53ea:	1b1060ef          	jal	ra,bd9a <__floatsisf>
    53ee:	3b5060ef          	jal	ra,bfa2 <__extendsfdf2>
    53f2:	0000d937          	lui	s2,0xd
    53f6:	72892603          	lw	a2,1832(s2) # d728 <_read+0x192>
    53fa:	72c92683          	lw	a3,1836(s2)
    53fe:	792040ef          	jal	ra,9b90 <__divdf3>
    5402:	8a2a                	mv	s4,a0
    5404:	8aae                	mv	s5,a1
    5406:	200007b7          	lui	a5,0x20000
    540a:	13c7a503          	lw	a0,316(a5) # 2000013c <roll_calibration>
    540e:	395060ef          	jal	ra,bfa2 <__extendsfdf2>
    5412:	862a                	mv	a2,a0
    5414:	86ae                	mv	a3,a1
    5416:	8552                	mv	a0,s4
    5418:	85d6                	mv	a1,s5
    541a:	3b0050ef          	jal	ra,a7ca <__subdf3>
    541e:	431060ef          	jal	ra,c04e <__truncdfsf2>
    5422:	00aba023          	sw	a0,0(s7)
    5426:	8526                	mv	a0,s1
    5428:	173060ef          	jal	ra,bd9a <__floatsisf>
    542c:	377060ef          	jal	ra,bfa2 <__extendsfdf2>
    5430:	72892603          	lw	a2,1832(s2)
    5434:	72c92683          	lw	a3,1836(s2)
    5438:	758040ef          	jal	ra,9b90 <__divdf3>
    543c:	8a2a                	mv	s4,a0
    543e:	8aae                	mv	s5,a1
    5440:	200007b7          	lui	a5,0x20000
    5444:	1387a503          	lw	a0,312(a5) # 20000138 <pitch_calibration>
    5448:	35b060ef          	jal	ra,bfa2 <__extendsfdf2>
    544c:	862a                	mv	a2,a0
    544e:	86ae                	mv	a3,a1
    5450:	8552                	mv	a0,s4
    5452:	85d6                	mv	a1,s5
    5454:	376050ef          	jal	ra,a7ca <__subdf3>
    5458:	3f7060ef          	jal	ra,c04e <__truncdfsf2>
    545c:	00ab2023          	sw	a0,0(s6)
    5460:	8522                	mv	a0,s0
    5462:	139060ef          	jal	ra,bd9a <__floatsisf>
    5466:	33d060ef          	jal	ra,bfa2 <__extendsfdf2>
    546a:	72892603          	lw	a2,1832(s2)
    546e:	72c92683          	lw	a3,1836(s2)
    5472:	71e040ef          	jal	ra,9b90 <__divdf3>
    5476:	842a                	mv	s0,a0
    5478:	84ae                	mv	s1,a1
    547a:	200007b7          	lui	a5,0x20000
    547e:	1407a503          	lw	a0,320(a5) # 20000140 <yaw_calibration>
    5482:	321060ef          	jal	ra,bfa2 <__extendsfdf2>
    5486:	862a                	mv	a2,a0
    5488:	86ae                	mv	a3,a1
    548a:	8522                	mv	a0,s0
    548c:	85a6                	mv	a1,s1
    548e:	33c050ef          	jal	ra,a7ca <__subdf3>
    5492:	3bd060ef          	jal	ra,c04e <__truncdfsf2>
    5496:	00a9a023          	sw	a0,0(s3)
    549a:	894fb06f          	j	52e <__riscv_restore_10>

0000549e <mpu6050_gyro_setup>:
    549e:	866fb2ef          	jal	t0,504 <__riscv_save_4>
    54a2:	1141                	addi	sp,sp,-16
    54a4:	4581                	li	a1,0
    54a6:	06800513          	li	a0,104
    54aa:	d47fd0ef          	jal	ra,31f0 <I2C_start_transmission>
    54ae:	06b00513          	li	a0,107
    54b2:	db9fd0ef          	jal	ra,326a <I2C_write>
    54b6:	4501                	li	a0,0
    54b8:	db3fd0ef          	jal	ra,326a <I2C_write>
    54bc:	de1fd0ef          	jal	ra,329c <I2C_stop>
    54c0:	4581                	li	a1,0
    54c2:	06800513          	li	a0,104
    54c6:	d2bfd0ef          	jal	ra,31f0 <I2C_start_transmission>
    54ca:	4569                	li	a0,26
    54cc:	d9ffd0ef          	jal	ra,326a <I2C_write>
    54d0:	4515                	li	a0,5
    54d2:	d99fd0ef          	jal	ra,326a <I2C_write>
    54d6:	dc7fd0ef          	jal	ra,329c <I2C_stop>
    54da:	4581                	li	a1,0
    54dc:	06800513          	li	a0,104
    54e0:	d11fd0ef          	jal	ra,31f0 <I2C_start_transmission>
    54e4:	456d                	li	a0,27
    54e6:	d85fd0ef          	jal	ra,326a <I2C_write>
    54ea:	4521                	li	a0,8
    54ec:	d7ffd0ef          	jal	ra,326a <I2C_write>
    54f0:	dadfd0ef          	jal	ra,329c <I2C_stop>
    54f4:	00000493          	li	s1,0
    54f8:	8926                	mv	s2,s1
    54fa:	89a6                	mv	s3,s1
    54fc:	7d000713          	li	a4,2000
    5500:	fff70793          	addi	a5,a4,-1 # 7fffffff <__freertos_irq_stack_top+0x5fffafff>
    5504:	01079413          	slli	s0,a5,0x10
    5508:	8441                	srai	s0,s0,0x10
    550a:	cb1d                	beqz	a4,5540 <mpu6050_gyro_setup+0xa2>
    550c:	0050                	addi	a2,sp,4
    550e:	002c                	addi	a1,sp,8
    5510:	0068                	addi	a0,sp,12
    5512:	e67ff0ef          	jal	ra,5378 <mpu6050_gyro_read>
    5516:	45b2                	lw	a1,12(sp)
    5518:	854e                	mv	a0,s3
    551a:	36d050ef          	jal	ra,b086 <__addsf3>
    551e:	89aa                	mv	s3,a0
    5520:	45a2                	lw	a1,8(sp)
    5522:	854a                	mv	a0,s2
    5524:	363050ef          	jal	ra,b086 <__addsf3>
    5528:	892a                	mv	s2,a0
    552a:	4592                	lw	a1,4(sp)
    552c:	8526                	mv	a0,s1
    552e:	359050ef          	jal	ra,b086 <__addsf3>
    5532:	84aa                	mv	s1,a0
    5534:	3e800513          	li	a0,1000
    5538:	936fe0ef          	jal	ra,366e <MCAL_WRAPPER_DelayUS>
    553c:	8722                	mv	a4,s0
    553e:	b7c9                	j	5500 <mpu6050_gyro_setup+0x62>
    5540:	0000d437          	lui	s0,0xd
    5544:	73042583          	lw	a1,1840(s0) # d730 <_read+0x19a>
    5548:	854e                	mv	a0,s3
    554a:	6a7050ef          	jal	ra,b3f0 <__divsf3>
    554e:	200007b7          	lui	a5,0x20000
    5552:	12a7ae23          	sw	a0,316(a5) # 2000013c <roll_calibration>
    5556:	73042583          	lw	a1,1840(s0)
    555a:	854a                	mv	a0,s2
    555c:	695050ef          	jal	ra,b3f0 <__divsf3>
    5560:	200007b7          	lui	a5,0x20000
    5564:	12a7ac23          	sw	a0,312(a5) # 20000138 <pitch_calibration>
    5568:	73042583          	lw	a1,1840(s0)
    556c:	8526                	mv	a0,s1
    556e:	683050ef          	jal	ra,b3f0 <__divsf3>
    5572:	200007b7          	lui	a5,0x20000
    5576:	14a7a023          	sw	a0,320(a5) # 20000140 <yaw_calibration>
    557a:	0141                	addi	sp,sp,16
    557c:	fbdfa06f          	j	538 <__riscv_restore_4>

00005580 <mpu6050_init>:
    5580:	f9ffa2ef          	jal	t0,51e <__riscv_save_0>
    5584:	f1bff0ef          	jal	ra,549e <mpu6050_gyro_setup>
    5588:	cebff0ef          	jal	ra,5272 <mpu6050_accel_setup>
    558c:	fb7fa06f          	j	542 <__riscv_restore_0>

00005590 <hmc5883l_init>:
    5590:	f8ffa2ef          	jal	t0,51e <__riscv_save_0>
    5594:	4581                	li	a1,0
    5596:	06800513          	li	a0,104
    559a:	c57fd0ef          	jal	ra,31f0 <I2C_start_transmission>
    559e:	06a00513          	li	a0,106
    55a2:	cc9fd0ef          	jal	ra,326a <I2C_write>
    55a6:	4501                	li	a0,0
    55a8:	cc3fd0ef          	jal	ra,326a <I2C_write>
    55ac:	cf1fd0ef          	jal	ra,329c <I2C_stop>
    55b0:	4581                	li	a1,0
    55b2:	06800513          	li	a0,104
    55b6:	c3bfd0ef          	jal	ra,31f0 <I2C_start_transmission>
    55ba:	03700513          	li	a0,55
    55be:	cadfd0ef          	jal	ra,326a <I2C_write>
    55c2:	4509                	li	a0,2
    55c4:	ca7fd0ef          	jal	ra,326a <I2C_write>
    55c8:	cd5fd0ef          	jal	ra,329c <I2C_stop>
    55cc:	4581                	li	a1,0
    55ce:	06800513          	li	a0,104
    55d2:	c1ffd0ef          	jal	ra,31f0 <I2C_start_transmission>
    55d6:	06b00513          	li	a0,107
    55da:	c91fd0ef          	jal	ra,326a <I2C_write>
    55de:	4501                	li	a0,0
    55e0:	c8bfd0ef          	jal	ra,326a <I2C_write>
    55e4:	cb9fd0ef          	jal	ra,329c <I2C_stop>
    55e8:	4581                	li	a1,0
    55ea:	4579                	li	a0,30
    55ec:	c05fd0ef          	jal	ra,31f0 <I2C_start_transmission>
    55f0:	4509                	li	a0,2
    55f2:	c79fd0ef          	jal	ra,326a <I2C_write>
    55f6:	4501                	li	a0,0
    55f8:	c73fd0ef          	jal	ra,326a <I2C_write>
    55fc:	ca1fd0ef          	jal	ra,329c <I2C_stop>
    5600:	4581                	li	a1,0
    5602:	4579                	li	a0,30
    5604:	bedfd0ef          	jal	ra,31f0 <I2C_start_transmission>
    5608:	4501                	li	a0,0
    560a:	c61fd0ef          	jal	ra,326a <I2C_write>
    560e:	07000513          	li	a0,112
    5612:	c59fd0ef          	jal	ra,326a <I2C_write>
    5616:	c87fd0ef          	jal	ra,329c <I2C_stop>
    561a:	4581                	li	a1,0
    561c:	4579                	li	a0,30
    561e:	bd3fd0ef          	jal	ra,31f0 <I2C_start_transmission>
    5622:	4505                	li	a0,1
    5624:	c47fd0ef          	jal	ra,326a <I2C_write>
    5628:	02000513          	li	a0,32
    562c:	c3ffd0ef          	jal	ra,326a <I2C_write>
    5630:	c6dfd0ef          	jal	ra,329c <I2C_stop>
    5634:	f0ffa06f          	j	542 <__riscv_restore_0>

00005638 <hmc5883l_read>:
    5638:	ee7fa2ef          	jal	t0,51e <__riscv_save_0>
    563c:	842a                	mv	s0,a0
    563e:	4581                	li	a1,0
    5640:	4579                	li	a0,30
    5642:	baffd0ef          	jal	ra,31f0 <I2C_start_transmission>
    5646:	450d                	li	a0,3
    5648:	c23fd0ef          	jal	ra,326a <I2C_write>
    564c:	c51fd0ef          	jal	ra,329c <I2C_stop>
    5650:	4599                	li	a1,6
    5652:	4579                	li	a0,30
    5654:	ca1fd0ef          	jal	ra,32f4 <I2C_requestFrom>
    5658:	c75fd0ef          	jal	ra,32cc <I2C_read>
    565c:	00851493          	slli	s1,a0,0x8
    5660:	c6dfd0ef          	jal	ra,32cc <I2C_read>
    5664:	0542                	slli	a0,a0,0x10
    5666:	8541                	srai	a0,a0,0x10
    5668:	8d45                	or	a0,a0,s1
    566a:	00a41023          	sh	a0,0(s0)
    566e:	c5ffd0ef          	jal	ra,32cc <I2C_read>
    5672:	00851493          	slli	s1,a0,0x8
    5676:	c57fd0ef          	jal	ra,32cc <I2C_read>
    567a:	0542                	slli	a0,a0,0x10
    567c:	8541                	srai	a0,a0,0x10
    567e:	8d45                	or	a0,a0,s1
    5680:	00a41223          	sh	a0,4(s0)
    5684:	c49fd0ef          	jal	ra,32cc <I2C_read>
    5688:	00851493          	slli	s1,a0,0x8
    568c:	c41fd0ef          	jal	ra,32cc <I2C_read>
    5690:	0542                	slli	a0,a0,0x10
    5692:	8541                	srai	a0,a0,0x10
    5694:	8d45                	or	a0,a0,s1
    5696:	00a41123          	sh	a0,2(s0)
    569a:	ea9fa06f          	j	542 <__riscv_restore_0>

0000569e <hmc5883l_normalize>:
    569e:	e81fa2ef          	jal	t0,51e <__riscv_save_0>
    56a2:	842a                	mv	s0,a0
    56a4:	00051503          	lh	a0,0(a0)
    56a8:	105050ef          	jal	ra,afac <__floatsidf>
    56ac:	0000d7b7          	lui	a5,0xd
    56b0:	7387a603          	lw	a2,1848(a5) # d738 <_read+0x1a2>
    56b4:	73c7a683          	lw	a3,1852(a5)
    56b8:	112050ef          	jal	ra,a7ca <__subdf3>
    56bc:	0000d4b7          	lui	s1,0xd
    56c0:	7404a603          	lw	a2,1856(s1) # d740 <_read+0x1aa>
    56c4:	7444a683          	lw	a3,1860(s1)
    56c8:	4c8040ef          	jal	ra,9b90 <__divdf3>
    56cc:	183060ef          	jal	ra,c04e <__truncdfsf2>
    56d0:	c408                	sw	a0,8(s0)
    56d2:	00241503          	lh	a0,2(s0)
    56d6:	0d7050ef          	jal	ra,afac <__floatsidf>
    56da:	0000d7b7          	lui	a5,0xd
    56de:	7487a603          	lw	a2,1864(a5) # d748 <_read+0x1b2>
    56e2:	74c7a683          	lw	a3,1868(a5)
    56e6:	57b030ef          	jal	ra,9460 <__adddf3>
    56ea:	7404a603          	lw	a2,1856(s1)
    56ee:	7444a683          	lw	a3,1860(s1)
    56f2:	49e040ef          	jal	ra,9b90 <__divdf3>
    56f6:	159060ef          	jal	ra,c04e <__truncdfsf2>
    56fa:	c448                	sw	a0,12(s0)
    56fc:	00441503          	lh	a0,4(s0)
    5700:	0ad050ef          	jal	ra,afac <__floatsidf>
    5704:	7404a603          	lw	a2,1856(s1)
    5708:	7444a683          	lw	a3,1860(s1)
    570c:	484040ef          	jal	ra,9b90 <__divdf3>
    5710:	13f060ef          	jal	ra,c04e <__truncdfsf2>
    5714:	c808                	sw	a0,16(s0)
    5716:	e2dfa06f          	j	542 <__riscv_restore_0>

0000571a <HAL_HCSR04_GetDistance>:
    571a:	e05fa2ef          	jal	t0,51e <__riscv_save_0>
    571e:	1141                	addi	sp,sp,-16
    5720:	842a                	mv	s0,a0
    5722:	c602                	sw	zero,12(sp)
    5724:	4529                	li	a0,10
    5726:	fb3fd0ef          	jal	ra,36d8 <MCAL_WRAPPER_HCSR04Trig>
    572a:	0068                	addi	a0,sp,12
    572c:	de1fd0ef          	jal	ra,350c <MCAL_WRAPPER_TIM1GetWidthOfPulse>
    5730:	e11d                	bnez	a0,5756 <HAL_HCSR04_GetDistance+0x3c>
    5732:	4532                	lw	a0,12(sp)
    5734:	0eb050ef          	jal	ra,b01e <__floatunsidf>
    5738:	0000d7b7          	lui	a5,0xd
    573c:	7507a603          	lw	a2,1872(a5) # d750 <_read+0x1ba>
    5740:	7547a683          	lw	a3,1876(a5)
    5744:	3cf040ef          	jal	ra,a312 <__muldf3>
    5748:	107060ef          	jal	ra,c04e <__truncdfsf2>
    574c:	c008                	sw	a0,0(s0)
    574e:	4501                	li	a0,0
    5750:	0141                	addi	sp,sp,16
    5752:	df1fa06f          	j	542 <__riscv_restore_0>
    5756:	4509                	li	a0,2
    5758:	bfe5                	j	5750 <HAL_HCSR04_GetDistance+0x36>

0000575a <HAL_ESC_setSpeed>:
    575a:	478d                	li	a5,3
    575c:	04a7e963          	bltu	a5,a0,57ae <HAL_ESC_setSpeed+0x54>
    5760:	06400793          	li	a5,100
    5764:	04b7e763          	bltu	a5,a1,57b2 <HAL_ESC_setSpeed+0x58>
    5768:	db7fa2ef          	jal	t0,51e <__riscv_save_0>
    576c:	4785                	li	a5,1
    576e:	02f50163          	beq	a0,a5,5790 <HAL_ESC_setSpeed+0x36>
    5772:	c911                	beqz	a0,5786 <HAL_ESC_setSpeed+0x2c>
    5774:	4789                	li	a5,2
    5776:	02f50263          	beq	a0,a5,579a <HAL_ESC_setSpeed+0x40>
    577a:	478d                	li	a5,3
    577c:	02f50463          	beq	a0,a5,57a4 <HAL_ESC_setSpeed+0x4a>
    5780:	4501                	li	a0,0
    5782:	dc1fa06f          	j	542 <__riscv_restore_0>
    5786:	4501                	li	a0,0
    5788:	c01fd0ef          	jal	ra,3388 <MCAL_WRAPEPR_TIM4_PWM_OUT>
    578c:	4501                	li	a0,0
    578e:	bfd5                	j	5782 <HAL_ESC_setSpeed+0x28>
    5790:	4505                	li	a0,1
    5792:	bf7fd0ef          	jal	ra,3388 <MCAL_WRAPEPR_TIM4_PWM_OUT>
    5796:	4501                	li	a0,0
    5798:	b7ed                	j	5782 <HAL_ESC_setSpeed+0x28>
    579a:	4509                	li	a0,2
    579c:	bedfd0ef          	jal	ra,3388 <MCAL_WRAPEPR_TIM4_PWM_OUT>
    57a0:	4501                	li	a0,0
    57a2:	b7c5                	j	5782 <HAL_ESC_setSpeed+0x28>
    57a4:	450d                	li	a0,3
    57a6:	be3fd0ef          	jal	ra,3388 <MCAL_WRAPEPR_TIM4_PWM_OUT>
    57aa:	4501                	li	a0,0
    57ac:	bfd9                	j	5782 <HAL_ESC_setSpeed+0x28>
    57ae:	4505                	li	a0,1
    57b0:	8082                	ret
    57b2:	4505                	li	a0,1
    57b4:	8082                	ret

000057b6 <HAL_Config_ConfigAllHW>:
    57b6:	d69fa2ef          	jal	t0,51e <__riscv_save_0>
    57ba:	200007b7          	lui	a5,0x20000
    57be:	14478793          	addi	a5,a5,324 # 20000144 <global_adxl345Config_t>
    57c2:	4735                	li	a4,13
    57c4:	00e78023          	sb	a4,0(a5)
    57c8:	4685                	li	a3,1
    57ca:	00d782a3          	sb	a3,5(a5)
    57ce:	4709                	li	a4,2
    57d0:	00e78223          	sb	a4,4(a5)
    57d4:	00d781a3          	sb	a3,3(a5)
    57d8:	469d                	li	a3,7
    57da:	00d780a3          	sb	a3,1(a5)
    57de:	00e78123          	sb	a4,2(a5)
    57e2:	d9fff0ef          	jal	ra,5580 <mpu6050_init>
    57e6:	dabff0ef          	jal	ra,5590 <hmc5883l_init>
    57ea:	2931                	jal	5c06 <BMP280_Init>
    57ec:	4501                	li	a0,0
    57ee:	d55fa06f          	j	542 <__riscv_restore_0>

000057f2 <BMP280_ReadRegister>:
    57f2:	d2dfa2ef          	jal	t0,51e <__riscv_save_0>
    57f6:	1141                	addi	sp,sp,-16
    57f8:	f8056513          	ori	a0,a0,-128
    57fc:	00a10623          	sb	a0,12(sp)
    5800:	000106a3          	sb	zero,13(sp)
    5804:	0074                	addi	a3,sp,12
    5806:	4609                	li	a2,2
    5808:	85b6                	mv	a1,a3
    580a:	20003537          	lui	a0,0x20003
    580e:	36450513          	addi	a0,a0,868 # 20003364 <MCAL_CFG_BMPSPI>
    5812:	967fd0ef          	jal	ra,3178 <MCAL_WRAPEPR_SPI_POLL_TRANSFER>
    5816:	00d14503          	lbu	a0,13(sp)
    581a:	0141                	addi	sp,sp,16
    581c:	d27fa06f          	j	542 <__riscv_restore_0>

00005820 <BMP280_WriteRegister>:
    5820:	cfffa2ef          	jal	t0,51e <__riscv_save_0>
    5824:	1141                	addi	sp,sp,-16
    5826:	07f57513          	andi	a0,a0,127
    582a:	00a10623          	sb	a0,12(sp)
    582e:	00b106a3          	sb	a1,13(sp)
    5832:	4681                	li	a3,0
    5834:	4609                	li	a2,2
    5836:	006c                	addi	a1,sp,12
    5838:	20003537          	lui	a0,0x20003
    583c:	36450513          	addi	a0,a0,868 # 20003364 <MCAL_CFG_BMPSPI>
    5840:	939fd0ef          	jal	ra,3178 <MCAL_WRAPEPR_SPI_POLL_TRANSFER>
    5844:	0141                	addi	sp,sp,16
    5846:	cfdfa06f          	j	542 <__riscv_restore_0>

0000584a <BMP280_ReadUnsignedShort>:
    584a:	cd5fa2ef          	jal	t0,51e <__riscv_save_0>
    584e:	842a                	mv	s0,a0
    5850:	fa3ff0ef          	jal	ra,57f2 <BMP280_ReadRegister>
    5854:	84aa                	mv	s1,a0
    5856:	00140513          	addi	a0,s0,1
    585a:	0ff57513          	andi	a0,a0,255
    585e:	f95ff0ef          	jal	ra,57f2 <BMP280_ReadRegister>
    5862:	0522                	slli	a0,a0,0x8
    5864:	8d45                	or	a0,a0,s1
    5866:	0542                	slli	a0,a0,0x10
    5868:	8141                	srli	a0,a0,0x10
    586a:	cd9fa06f          	j	542 <__riscv_restore_0>

0000586e <BMP280_ReadSignedShort>:
    586e:	cb1fa2ef          	jal	t0,51e <__riscv_save_0>
    5872:	84aa                	mv	s1,a0
    5874:	f7fff0ef          	jal	ra,57f2 <BMP280_ReadRegister>
    5878:	842a                	mv	s0,a0
    587a:	00148513          	addi	a0,s1,1
    587e:	0ff57513          	andi	a0,a0,255
    5882:	f71ff0ef          	jal	ra,57f2 <BMP280_ReadRegister>
    5886:	0522                	slli	a0,a0,0x8
    5888:	0542                	slli	a0,a0,0x10
    588a:	8541                	srai	a0,a0,0x10
    588c:	0442                	slli	s0,s0,0x10
    588e:	8441                	srai	s0,s0,0x10
    5890:	8d41                	or	a0,a0,s0
    5892:	cb1fa06f          	j	542 <__riscv_restore_0>

00005896 <BMP280_get_trimming_parameters>:
    5896:	c89fa2ef          	jal	t0,51e <__riscv_save_0>
    589a:	08800513          	li	a0,136
    589e:	fadff0ef          	jal	ra,584a <BMP280_ReadUnsignedShort>
    58a2:	20003437          	lui	s0,0x20003
    58a6:	3cc40413          	addi	s0,s0,972 # 200033cc <trimmingParameter>
    58aa:	00a41023          	sh	a0,0(s0)
    58ae:	08e00513          	li	a0,142
    58b2:	f99ff0ef          	jal	ra,584a <BMP280_ReadUnsignedShort>
    58b6:	00a41323          	sh	a0,6(s0)
    58ba:	08a00513          	li	a0,138
    58be:	fb1ff0ef          	jal	ra,586e <BMP280_ReadSignedShort>
    58c2:	00a41123          	sh	a0,2(s0)
    58c6:	08c00513          	li	a0,140
    58ca:	fa5ff0ef          	jal	ra,586e <BMP280_ReadSignedShort>
    58ce:	00a41223          	sh	a0,4(s0)
    58d2:	09000513          	li	a0,144
    58d6:	f99ff0ef          	jal	ra,586e <BMP280_ReadSignedShort>
    58da:	00a41423          	sh	a0,8(s0)
    58de:	09200513          	li	a0,146
    58e2:	f8dff0ef          	jal	ra,586e <BMP280_ReadSignedShort>
    58e6:	00a41523          	sh	a0,10(s0)
    58ea:	09400513          	li	a0,148
    58ee:	f81ff0ef          	jal	ra,586e <BMP280_ReadSignedShort>
    58f2:	00a41623          	sh	a0,12(s0)
    58f6:	09600513          	li	a0,150
    58fa:	f75ff0ef          	jal	ra,586e <BMP280_ReadSignedShort>
    58fe:	00a41723          	sh	a0,14(s0)
    5902:	09800513          	li	a0,152
    5906:	f69ff0ef          	jal	ra,586e <BMP280_ReadSignedShort>
    590a:	00a41823          	sh	a0,16(s0)
    590e:	09a00513          	li	a0,154
    5912:	f5dff0ef          	jal	ra,586e <BMP280_ReadSignedShort>
    5916:	00a41923          	sh	a0,18(s0)
    591a:	09c00513          	li	a0,156
    591e:	f51ff0ef          	jal	ra,586e <BMP280_ReadSignedShort>
    5922:	00a41a23          	sh	a0,20(s0)
    5926:	09e00513          	li	a0,158
    592a:	f45ff0ef          	jal	ra,586e <BMP280_ReadSignedShort>
    592e:	00a41b23          	sh	a0,22(s0)
    5932:	c11fa06f          	j	542 <__riscv_restore_0>

00005936 <BMP280_ReadDataRegisters>:
    5936:	be9fa2ef          	jal	t0,51e <__riscv_save_0>
    593a:	84aa                	mv	s1,a0
    593c:	eb7ff0ef          	jal	ra,57f2 <BMP280_ReadRegister>
    5940:	842a                	mv	s0,a0
    5942:	00148513          	addi	a0,s1,1
    5946:	0ff57513          	andi	a0,a0,255
    594a:	ea9ff0ef          	jal	ra,57f2 <BMP280_ReadRegister>
    594e:	892a                	mv	s2,a0
    5950:	00248513          	addi	a0,s1,2
    5954:	0ff57513          	andi	a0,a0,255
    5958:	e9bff0ef          	jal	ra,57f2 <BMP280_ReadRegister>
    595c:	0442                	slli	s0,s0,0x10
    595e:	0922                	slli	s2,s2,0x8
    5960:	01246433          	or	s0,s0,s2
    5964:	8d41                	or	a0,a0,s0
    5966:	bddfa06f          	j	542 <__riscv_restore_0>

0000596a <BMP280_GetTemperatureRawData>:
    596a:	bb5fa2ef          	jal	t0,51e <__riscv_save_0>
    596e:	842a                	mv	s0,a0
    5970:	0fa00513          	li	a0,250
    5974:	fc3ff0ef          	jal	ra,5936 <BMP280_ReadDataRegisters>
    5978:	8511                	srai	a0,a0,0x4
    597a:	c008                	sw	a0,0(s0)
    597c:	bc7fa06f          	j	542 <__riscv_restore_0>

00005980 <BMP280_GetPressureRawData>:
    5980:	b9ffa2ef          	jal	t0,51e <__riscv_save_0>
    5984:	842a                	mv	s0,a0
    5986:	0f700513          	li	a0,247
    598a:	fadff0ef          	jal	ra,5936 <BMP280_ReadDataRegisters>
    598e:	8511                	srai	a0,a0,0x4
    5990:	c008                	sw	a0,0(s0)
    5992:	bb1fa06f          	j	542 <__riscv_restore_0>

00005996 <BMP280_CompensateTemperature>:
    5996:	b89fa2ef          	jal	t0,51e <__riscv_save_0>
    599a:	40355793          	srai	a5,a0,0x3
    599e:	20003737          	lui	a4,0x20003
    59a2:	3cc70713          	addi	a4,a4,972 # 200033cc <trimmingParameter>
    59a6:	00075683          	lhu	a3,0(a4)
    59aa:	00169613          	slli	a2,a3,0x1
    59ae:	8f91                	sub	a5,a5,a2
    59b0:	00271603          	lh	a2,2(a4)
    59b4:	02c787b3          	mul	a5,a5,a2
    59b8:	87ad                	srai	a5,a5,0xb
    59ba:	8511                	srai	a0,a0,0x4
    59bc:	8d15                	sub	a0,a0,a3
    59be:	02a50533          	mul	a0,a0,a0
    59c2:	8531                	srai	a0,a0,0xc
    59c4:	00471703          	lh	a4,4(a4)
    59c8:	02e50533          	mul	a0,a0,a4
    59cc:	8539                	srai	a0,a0,0xe
    59ce:	953e                	add	a0,a0,a5
    59d0:	200007b7          	lui	a5,0x20000
    59d4:	14a7a623          	sw	a0,332(a5) # 2000014c <t_fine>
    59d8:	00251793          	slli	a5,a0,0x2
    59dc:	953e                	add	a0,a0,a5
    59de:	08050513          	addi	a0,a0,128
    59e2:	8521                	srai	a0,a0,0x8
    59e4:	3b6060ef          	jal	ra,bd9a <__floatsisf>
    59e8:	0000d7b7          	lui	a5,0xd
    59ec:	75c7a583          	lw	a1,1884(a5) # d75c <_read+0x1c6>
    59f0:	201050ef          	jal	ra,b3f0 <__divsf3>
    59f4:	b4ffa06f          	j	542 <__riscv_restore_0>

000059f8 <BMP280_CompensatePressure>:
    59f8:	b27fa2ef          	jal	t0,51e <__riscv_save_0>
    59fc:	200007b7          	lui	a5,0x20000
    5a00:	14c7a583          	lw	a1,332(a5) # 2000014c <t_fine>
    5a04:	41f5d793          	srai	a5,a1,0x1f
    5a08:	7685                	lui	a3,0xfffe1
    5a0a:	c0068693          	addi	a3,a3,-1024 # fffe0c00 <__freertos_irq_stack_top+0xdffdbc00>
    5a0e:	96ae                	add	a3,a3,a1
    5a10:	00b6b5b3          	sltu	a1,a3,a1
    5a14:	17fd                	addi	a5,a5,-1
    5a16:	95be                	add	a1,a1,a5
    5a18:	02d587b3          	mul	a5,a1,a3
    5a1c:	0786                	slli	a5,a5,0x1
    5a1e:	02d68e33          	mul	t3,a3,a3
    5a22:	02d6b733          	mulhu	a4,a3,a3
    5a26:	97ba                	add	a5,a5,a4
    5a28:	200038b7          	lui	a7,0x20003
    5a2c:	3cc88893          	addi	a7,a7,972 # 200033cc <trimmingParameter>
    5a30:	01089603          	lh	a2,16(a7)
    5a34:	41f65e93          	srai	t4,a2,0x1f
    5a38:	02c78733          	mul	a4,a5,a2
    5a3c:	03ce8eb3          	mul	t4,t4,t3
    5a40:	9776                	add	a4,a4,t4
    5a42:	02ce0833          	mul	a6,t3,a2
    5a46:	02ce3633          	mulhu	a2,t3,a2
    5a4a:	00c70eb3          	add	t4,a4,a2
    5a4e:	00e89603          	lh	a2,14(a7)
    5a52:	41f65713          	srai	a4,a2,0x1f
    5a56:	02d70733          	mul	a4,a4,a3
    5a5a:	02c58333          	mul	t1,a1,a2
    5a5e:	971a                	add	a4,a4,t1
    5a60:	02d60333          	mul	t1,a2,a3
    5a64:	02d63633          	mulhu	a2,a2,a3
    5a68:	9732                	add	a4,a4,a2
    5a6a:	00f35613          	srli	a2,t1,0xf
    5a6e:	0746                	slli	a4,a4,0x11
    5a70:	8f51                	or	a4,a4,a2
    5a72:	0346                	slli	t1,t1,0x11
    5a74:	981a                	add	a6,a6,t1
    5a76:	00683333          	sltu	t1,a6,t1
    5a7a:	9776                	add	a4,a4,t4
    5a7c:	00e30633          	add	a2,t1,a4
    5a80:	00c89303          	lh	t1,12(a7)
    5a84:	030e                	slli	t1,t1,0x3
    5a86:	9332                	add	t1,t1,a2
    5a88:	00a89603          	lh	a2,10(a7)
    5a8c:	41f65e93          	srai	t4,a2,0x1f
    5a90:	02c78733          	mul	a4,a5,a2
    5a94:	03ce87b3          	mul	a5,t4,t3
    5a98:	973e                	add	a4,a4,a5
    5a9a:	02ce07b3          	mul	a5,t3,a2
    5a9e:	02ce3e33          	mulhu	t3,t3,a2
    5aa2:	9772                	add	a4,a4,t3
    5aa4:	01871613          	slli	a2,a4,0x18
    5aa8:	83a1                	srli	a5,a5,0x8
    5aaa:	8fd1                	or	a5,a5,a2
    5aac:	8721                	srai	a4,a4,0x8
    5aae:	00889e03          	lh	t3,8(a7)
    5ab2:	41fe5613          	srai	a2,t3,0x1f
    5ab6:	02d60633          	mul	a2,a2,a3
    5aba:	03c585b3          	mul	a1,a1,t3
    5abe:	962e                	add	a2,a2,a1
    5ac0:	02de05b3          	mul	a1,t3,a3
    5ac4:	02de3e33          	mulhu	t3,t3,a3
    5ac8:	01c606b3          	add	a3,a2,t3
    5acc:	0145d613          	srli	a2,a1,0x14
    5ad0:	06b2                	slli	a3,a3,0xc
    5ad2:	8ed1                	or	a3,a3,a2
    5ad4:	00c59613          	slli	a2,a1,0xc
    5ad8:	963e                	add	a2,a2,a5
    5ada:	00f637b3          	sltu	a5,a2,a5
    5ade:	9736                	add	a4,a4,a3
    5ae0:	97ba                	add	a5,a5,a4
    5ae2:	66a1                	lui	a3,0x8
    5ae4:	96be                	add	a3,a3,a5
    5ae6:	0068d783          	lhu	a5,6(a7)
    5aea:	02f686b3          	mul	a3,a3,a5
    5aee:	02f637b3          	mulhu	a5,a2,a5
    5af2:	96be                	add	a3,a3,a5
    5af4:	4016d613          	srai	a2,a3,0x1
    5af8:	86fd                	srai	a3,a3,0x1f
    5afa:	00d667b3          	or	a5,a2,a3
    5afe:	10078163          	beqz	a5,5c00 <BMP280_CompensatePressure+0x208>
    5b02:	001005b7          	lui	a1,0x100
    5b06:	8d89                	sub	a1,a1,a0
    5b08:	4015d793          	srai	a5,a1,0x1
    5b0c:	05fe                	slli	a1,a1,0x1f
    5b0e:	41058833          	sub	a6,a1,a6
    5b12:	0105b5b3          	sltu	a1,a1,a6
    5b16:	40678333          	sub	t1,a5,t1
    5b1a:	40b305b3          	sub	a1,t1,a1
    5b1e:	6505                	lui	a0,0x1
    5b20:	c3550513          	addi	a0,a0,-971 # c35 <uxListRemove+0x11>
    5b24:	02a585b3          	mul	a1,a1,a0
    5b28:	02a837b3          	mulhu	a5,a6,a0
    5b2c:	95be                	add	a1,a1,a5
    5b2e:	02a80533          	mul	a0,a6,a0
    5b32:	556030ef          	jal	ra,9088 <__divdi3>
    5b36:	20003837          	lui	a6,0x20003
    5b3a:	3cc80813          	addi	a6,a6,972 # 200033cc <trimmingParameter>
    5b3e:	01681883          	lh	a7,22(a6)
    5b42:	41f8d613          	srai	a2,a7,0x1f
    5b46:	01359793          	slli	a5,a1,0x13
    5b4a:	00d55693          	srli	a3,a0,0xd
    5b4e:	8edd                	or	a3,a3,a5
    5b50:	40d5d793          	srai	a5,a1,0xd
    5b54:	02d60633          	mul	a2,a2,a3
    5b58:	03178733          	mul	a4,a5,a7
    5b5c:	963a                	add	a2,a2,a4
    5b5e:	02d88333          	mul	t1,a7,a3
    5b62:	02d8b8b3          	mulhu	a7,a7,a3
    5b66:	9646                	add	a2,a2,a7
    5b68:	02678733          	mul	a4,a5,t1
    5b6c:	02d60633          	mul	a2,a2,a3
    5b70:	9732                	add	a4,a4,a2
    5b72:	026687b3          	mul	a5,a3,t1
    5b76:	0266b6b3          	mulhu	a3,a3,t1
    5b7a:	9736                	add	a4,a4,a3
    5b7c:	00771693          	slli	a3,a4,0x7
    5b80:	83e5                	srli	a5,a5,0x19
    5b82:	8fd5                	or	a5,a5,a3
    5b84:	41975693          	srai	a3,a4,0x19
    5b88:	01481883          	lh	a7,20(a6)
    5b8c:	41f8d613          	srai	a2,a7,0x1f
    5b90:	02a60633          	mul	a2,a2,a0
    5b94:	02b88733          	mul	a4,a7,a1
    5b98:	963a                	add	a2,a2,a4
    5b9a:	02a88733          	mul	a4,a7,a0
    5b9e:	02a8b8b3          	mulhu	a7,a7,a0
    5ba2:	9646                	add	a2,a2,a7
    5ba4:	00d61893          	slli	a7,a2,0xd
    5ba8:	834d                	srli	a4,a4,0x13
    5baa:	00e8e733          	or	a4,a7,a4
    5bae:	864d                	srai	a2,a2,0x13
    5bb0:	97aa                	add	a5,a5,a0
    5bb2:	00a7b533          	sltu	a0,a5,a0
    5bb6:	95b6                	add	a1,a1,a3
    5bb8:	952e                	add	a0,a0,a1
    5bba:	00e785b3          	add	a1,a5,a4
    5bbe:	00f5b7b3          	sltu	a5,a1,a5
    5bc2:	9532                	add	a0,a0,a2
    5bc4:	97aa                	add	a5,a5,a0
    5bc6:	01879713          	slli	a4,a5,0x18
    5bca:	81a1                	srli	a1,a1,0x8
    5bcc:	8dd9                	or	a1,a1,a4
    5bce:	87a1                	srai	a5,a5,0x8
    5bd0:	01281503          	lh	a0,18(a6)
    5bd4:	41f55713          	srai	a4,a0,0x1f
    5bd8:	01c55693          	srli	a3,a0,0x1c
    5bdc:	0712                	slli	a4,a4,0x4
    5bde:	8f55                	or	a4,a4,a3
    5be0:	0512                	slli	a0,a0,0x4
    5be2:	952e                	add	a0,a0,a1
    5be4:	00b535b3          	sltu	a1,a0,a1
    5be8:	97ba                	add	a5,a5,a4
    5bea:	95be                	add	a1,a1,a5
    5bec:	274060ef          	jal	ra,be60 <__floatdisf>
    5bf0:	0000d7b7          	lui	a5,0xd
    5bf4:	7587a583          	lw	a1,1880(a5) # d758 <_read+0x1c2>
    5bf8:	7f8050ef          	jal	ra,b3f0 <__divsf3>
    5bfc:	947fa06f          	j	542 <__riscv_restore_0>
    5c00:	00000513          	li	a0,0
    5c04:	bfe5                	j	5bfc <BMP280_CompensatePressure+0x204>

00005c06 <BMP280_Init>:
    5c06:	919fa2ef          	jal	t0,51e <__riscv_save_0>
    5c0a:	c8dff0ef          	jal	ra,5896 <BMP280_get_trimming_parameters>
    5c0e:	4581                	li	a1,0
    5c10:	0f500513          	li	a0,245
    5c14:	c0dff0ef          	jal	ra,5820 <BMP280_WriteRegister>
    5c18:	0b700593          	li	a1,183
    5c1c:	0f400513          	li	a0,244
    5c20:	c01ff0ef          	jal	ra,5820 <BMP280_WriteRegister>
    5c24:	00025537          	lui	a0,0x25
    5c28:	9f050513          	addi	a0,a0,-1552 # 249f0 <_data_lma+0x16a54>
    5c2c:	a43fd0ef          	jal	ra,366e <MCAL_WRAPPER_DelayUS>
    5c30:	913fa06f          	j	542 <__riscv_restore_0>

00005c34 <BMP280_get_temperature>:
    5c34:	8ebfa2ef          	jal	t0,51e <__riscv_save_0>
    5c38:	1141                	addi	sp,sp,-16
    5c3a:	0068                	addi	a0,sp,12
    5c3c:	d2fff0ef          	jal	ra,596a <BMP280_GetTemperatureRawData>
    5c40:	4532                	lw	a0,12(sp)
    5c42:	d55ff0ef          	jal	ra,5996 <BMP280_CompensateTemperature>
    5c46:	0141                	addi	sp,sp,16
    5c48:	8fbfa06f          	j	542 <__riscv_restore_0>

00005c4c <BMP280_get_pressure>:
    5c4c:	8d3fa2ef          	jal	t0,51e <__riscv_save_0>
    5c50:	1141                	addi	sp,sp,-16
    5c52:	fe3ff0ef          	jal	ra,5c34 <BMP280_get_temperature>
    5c56:	0068                	addi	a0,sp,12
    5c58:	d29ff0ef          	jal	ra,5980 <BMP280_GetPressureRawData>
    5c5c:	4532                	lw	a0,12(sp)
    5c5e:	d9bff0ef          	jal	ra,59f8 <BMP280_CompensatePressure>
    5c62:	0141                	addi	sp,sp,16
    5c64:	8dffa06f          	j	542 <__riscv_restore_0>

00005c68 <BMP280_get_altitude>:
    5c68:	8b7fa2ef          	jal	t0,51e <__riscv_save_0>
    5c6c:	842a                	mv	s0,a0
    5c6e:	fdfff0ef          	jal	ra,5c4c <BMP280_get_pressure>
    5c72:	85a2                	mv	a1,s0
    5c74:	77c050ef          	jal	ra,b3f0 <__divsf3>
    5c78:	0000d437          	lui	s0,0xd
    5c7c:	326060ef          	jal	ra,bfa2 <__extendsfdf2>
    5c80:	76042603          	lw	a2,1888(s0) # d760 <_read+0x1ca>
    5c84:	76442683          	lw	a3,1892(s0)
    5c88:	33b000ef          	jal	ra,67c2 <pow>
    5c8c:	862a                	mv	a2,a0
    5c8e:	86ae                	mv	a3,a1
    5c90:	0000d7b7          	lui	a5,0xd
    5c94:	7687a503          	lw	a0,1896(a5) # d768 <_read+0x1d2>
    5c98:	76c7a583          	lw	a1,1900(a5)
    5c9c:	32f040ef          	jal	ra,a7ca <__subdf3>
    5ca0:	0000d7b7          	lui	a5,0xd
    5ca4:	7707a603          	lw	a2,1904(a5) # d770 <_read+0x1da>
    5ca8:	7747a683          	lw	a3,1908(a5)
    5cac:	666040ef          	jal	ra,a312 <__muldf3>
    5cb0:	39e060ef          	jal	ra,c04e <__truncdfsf2>
    5cb4:	842a                	mv	s0,a0
    5cb6:	00000593          	li	a1,0
    5cba:	1e9050ef          	jal	ra,b6a2 <__gesf2>
    5cbe:	00a05563          	blez	a0,5cc8 <BMP280_get_altitude+0x60>
    5cc2:	8522                	mv	a0,s0
    5cc4:	87ffa06f          	j	542 <__riscv_restore_0>
    5cc8:	00000413          	li	s0,0
    5ccc:	bfdd                	j	5cc2 <BMP280_get_altitude+0x5a>

00005cce <NMI_Handler>:
    5cce:	a001                	j	5cce <NMI_Handler>

00005cd0 <HardFault_Handler>:
    5cd0:	a001                	j	5cd0 <HardFault_Handler>

00005cd2 <Task_CollectSensorData>:
    5cd2:	84dfa2ef          	jal	t0,51e <__riscv_save_0>
    5cd6:	7159                	addi	sp,sp,-112
    5cd8:	d282                	sw	zero,100(sp)
    5cda:	d482                	sw	zero,104(sp)
    5cdc:	d682                	sw	zero,108(sp)
    5cde:	cc82                	sw	zero,88(sp)
    5ce0:	ce82                	sw	zero,92(sp)
    5ce2:	d082                	sw	zero,96(sp)
    5ce4:	c682                	sw	zero,76(sp)
    5ce6:	c882                	sw	zero,80(sp)
    5ce8:	ca82                	sw	zero,84(sp)
    5cea:	00000793          	li	a5,0
    5cee:	c4be                	sw	a5,72(sp)
    5cf0:	c2be                	sw	a5,68(sp)
    5cf2:	c0be                	sw	a5,64(sp)
    5cf4:	dc02                	sw	zero,56(sp)
    5cf6:	de02                	sw	zero,60(sp)
    5cf8:	c202                	sw	zero,4(sp)
    5cfa:	c402                	sw	zero,8(sp)
    5cfc:	c602                	sw	zero,12(sp)
    5cfe:	c802                	sw	zero,16(sp)
    5d00:	ca02                	sw	zero,20(sp)
    5d02:	cc02                	sw	zero,24(sp)
    5d04:	ce02                	sw	zero,28(sp)
    5d06:	d002                	sw	zero,32(sp)
    5d08:	d202                	sw	zero,36(sp)
    5d0a:	d402                	sw	zero,40(sp)
    5d0c:	d602                	sw	zero,44(sp)
    5d0e:	d802                	sw	zero,48(sp)
    5d10:	da02                	sw	zero,52(sp)
    5d12:	00c8                	addi	a0,sp,68
    5d14:	d20ff0ef          	jal	ra,5234 <HAL_WRAPPER_ReadPressure>
    5d18:	10c8                	addi	a0,sp,100
    5d1a:	bc2ff0ef          	jal	ra,50dc <HAL_WRAPPER_ReadAcc>
    5d1e:	08a8                	addi	a0,sp,88
    5d20:	bfeff0ef          	jal	ra,511e <HAL_WRAPPER_ReadGyro>
    5d24:	00e8                	addi	a0,sp,76
    5d26:	c32ff0ef          	jal	ra,5158 <HAL_WRAPPER_ReadMagnet>
    5d2a:	00a8                	addi	a0,sp,72
    5d2c:	d08ff0ef          	jal	ra,5234 <HAL_WRAPPER_ReadPressure>
    5d30:	0088                	addi	a0,sp,64
    5d32:	d14ff0ef          	jal	ra,5246 <HAL_WRAPPER_ReadTemperature>
    5d36:	00cc                	addi	a1,sp,68
    5d38:	1828                	addi	a0,sp,56
    5d3a:	d1eff0ef          	jal	ra,5258 <HAL_WRAPPER_ReadAltitude>
    5d3e:	5796                	lw	a5,100(sp)
    5d40:	c23e                	sw	a5,4(sp)
    5d42:	57a6                	lw	a5,104(sp)
    5d44:	c43e                	sw	a5,8(sp)
    5d46:	57b6                	lw	a5,108(sp)
    5d48:	c63e                	sw	a5,12(sp)
    5d4a:	47e6                	lw	a5,88(sp)
    5d4c:	c83e                	sw	a5,16(sp)
    5d4e:	47f6                	lw	a5,92(sp)
    5d50:	ca3e                	sw	a5,20(sp)
    5d52:	5786                	lw	a5,96(sp)
    5d54:	cc3e                	sw	a5,24(sp)
    5d56:	47b6                	lw	a5,76(sp)
    5d58:	ce3e                	sw	a5,28(sp)
    5d5a:	47c6                	lw	a5,80(sp)
    5d5c:	d03e                	sw	a5,32(sp)
    5d5e:	47d6                	lw	a5,84(sp)
    5d60:	d23e                	sw	a5,36(sp)
    5d62:	47a6                	lw	a5,72(sp)
    5d64:	d43e                	sw	a5,40(sp)
    5d66:	4786                	lw	a5,64(sp)
    5d68:	d63e                	sw	a5,44(sp)
    5d6a:	57e2                	lw	a5,56(sp)
    5d6c:	d83e                	sw	a5,48(sp)
    5d6e:	57f2                	lw	a5,60(sp)
    5d70:	da3e                	sw	a5,52(sp)
    5d72:	200007b7          	lui	a5,0x20000
    5d76:	1607a603          	lw	a2,352(a5) # 20000160 <queue_RawSensorData_Handle_t>
    5d7a:	004c                	addi	a1,sp,4
    5d7c:	3e800513          	li	a0,1000
    5d80:	8cbfa0ef          	jal	ra,64a <SERVICE_RTOS_AppendToBlockingQueue>
    5d84:	4515                	li	a0,5
    5d86:	929fa0ef          	jal	ra,6ae <SERVICE_RTOS_BlockFor>
    5d8a:	b779                	j	5d18 <Task_CollectSensorData+0x46>

00005d8c <Task_SensorFusion>:
    5d8c:	f92fa2ef          	jal	t0,51e <__riscv_save_0>
    5d90:	7175                	addi	sp,sp,-144
    5d92:	ce82                	sw	zero,92(sp)
    5d94:	d082                	sw	zero,96(sp)
    5d96:	d282                	sw	zero,100(sp)
    5d98:	d482                	sw	zero,104(sp)
    5d9a:	d682                	sw	zero,108(sp)
    5d9c:	d882                	sw	zero,112(sp)
    5d9e:	da82                	sw	zero,116(sp)
    5da0:	dc82                	sw	zero,120(sp)
    5da2:	de82                	sw	zero,124(sp)
    5da4:	c102                	sw	zero,128(sp)
    5da6:	c302                	sw	zero,132(sp)
    5da8:	c502                	sw	zero,136(sp)
    5daa:	c702                	sw	zero,140(sp)
    5dac:	de02                	sw	zero,60(sp)
    5dae:	c082                	sw	zero,64(sp)
    5db0:	c282                	sw	zero,68(sp)
    5db2:	c482                	sw	zero,72(sp)
    5db4:	c682                	sw	zero,76(sp)
    5db6:	c882                	sw	zero,80(sp)
    5db8:	ca82                	sw	zero,84(sp)
    5dba:	cc82                	sw	zero,88(sp)
    5dbc:	ce02                	sw	zero,28(sp)
    5dbe:	d002                	sw	zero,32(sp)
    5dc0:	d202                	sw	zero,36(sp)
    5dc2:	d402                	sw	zero,40(sp)
    5dc4:	d602                	sw	zero,44(sp)
    5dc6:	d802                	sw	zero,48(sp)
    5dc8:	da02                	sw	zero,52(sp)
    5dca:	dc02                	sw	zero,56(sp)
    5dcc:	c602                	sw	zero,12(sp)
    5dce:	c802                	sw	zero,16(sp)
    5dd0:	ca02                	sw	zero,20(sp)
    5dd2:	00011c23          	sh	zero,24(sp)
    5dd6:	000105a3          	sb	zero,11(sp)
    5dda:	c202                	sw	zero,4(sp)
    5ddc:	4401                	li	s0,0
    5dde:	a00d                	j	5e00 <Task_SensorFusion+0x74>
    5de0:	200007b7          	lui	a5,0x20000
    5de4:	15c7a603          	lw	a2,348(a5) # 2000015c <queue_FusedSensorData_Handle_t>
    5de8:	086c                	addi	a1,sp,28
    5dea:	3e800513          	li	a0,1000
    5dee:	85dfa0ef          	jal	ra,64a <SERVICE_RTOS_AppendToBlockingQueue>
    5df2:	4581                	li	a1,0
    5df4:	200007b7          	lui	a5,0x20000
    5df8:	16c7a503          	lw	a0,364(a5) # 2000016c <task_Master_Handle_t>
    5dfc:	8e1fa0ef          	jal	ra,6dc <SERVICE_RTOS_Notify>
    5e00:	00b10693          	addi	a3,sp,11
    5e04:	200007b7          	lui	a5,0x20000
    5e08:	1607a603          	lw	a2,352(a5) # 20000160 <queue_RawSensorData_Handle_t>
    5e0c:	08ec                	addi	a1,sp,92
    5e0e:	3e800513          	li	a0,1000
    5e12:	865fa0ef          	jal	ra,676 <SERVICE_RTOS_ReadFromBlockingQueue>
    5e16:	f56d                	bnez	a0,5e00 <Task_SensorFusion+0x74>
    5e18:	186c                	addi	a1,sp,60
    5e1a:	08e8                	addi	a0,sp,92
    5e1c:	c5bfc0ef          	jal	ra,2a76 <SensorFuseWithKalman>
    5e20:	4716                	lw	a4,68(sp)
    5e22:	800007b7          	lui	a5,0x80000
    5e26:	8fb9                	xor	a5,a5,a4
    5e28:	d63e                	sw	a5,44(sp)
    5e2a:	47b6                	lw	a5,76(sp)
    5e2c:	d23e                	sw	a5,36(sp)
    5e2e:	47a6                	lw	a5,72(sp)
    5e30:	d43e                	sw	a5,40(sp)
    5e32:	0048                	addi	a0,sp,4
    5e34:	8d9fa0ef          	jal	ra,70c <SERVICE_RTOS_CurrentMSTime>
    5e38:	4792                	lw	a5,4(sp)
    5e3a:	8f81                	sub	a5,a5,s0
    5e3c:	3e800713          	li	a4,1000
    5e40:	faf770e3          	bgeu	a4,a5,5de0 <Task_SensorFusion+0x54>
    5e44:	3e840413          	addi	s0,s0,1000
    5e48:	faa00793          	li	a5,-86
    5e4c:	00f10623          	sb	a5,12(sp)
    5e50:	479a                	lw	a5,132(sp)
    5e52:	00f10aa3          	sb	a5,21(sp)
    5e56:	0087d713          	srli	a4,a5,0x8
    5e5a:	00e10b23          	sb	a4,22(sp)
    5e5e:	0107d713          	srli	a4,a5,0x10
    5e62:	00e10ba3          	sb	a4,23(sp)
    5e66:	83e1                	srli	a5,a5,0x18
    5e68:	00f10c23          	sb	a5,24(sp)
    5e6c:	04c00793          	li	a5,76
    5e70:	00f10ca3          	sb	a5,25(sp)
    5e74:	fcd00793          	li	a5,-51
    5e78:	00f108a3          	sb	a5,17(sp)
    5e7c:	fcc00793          	li	a5,-52
    5e80:	00f10923          	sb	a5,18(sp)
    5e84:	04400793          	li	a5,68
    5e88:	00f109a3          	sb	a5,19(sp)
    5e8c:	04100793          	li	a5,65
    5e90:	00f10a23          	sb	a5,20(sp)
    5e94:	000106a3          	sb	zero,13(sp)
    5e98:	00010723          	sb	zero,14(sp)
    5e9c:	fc000793          	li	a5,-64
    5ea0:	00f107a3          	sb	a5,15(sp)
    5ea4:	03f00793          	li	a5,63
    5ea8:	00f10823          	sb	a5,16(sp)
    5eac:	200007b7          	lui	a5,0x20000
    5eb0:	1587a603          	lw	a2,344(a5) # 20000158 <queue_DroneCommToApp_Handle_t>
    5eb4:	006c                	addi	a1,sp,12
    5eb6:	3e800513          	li	a0,1000
    5eba:	f90fa0ef          	jal	ra,64a <SERVICE_RTOS_AppendToBlockingQueue>
    5ebe:	4581                	li	a1,0
    5ec0:	200007b7          	lui	a5,0x20000
    5ec4:	1647a503          	lw	a0,356(a5) # 20000164 <task_AppComm_Handle_t>
    5ec8:	815fa0ef          	jal	ra,6dc <SERVICE_RTOS_Notify>
    5ecc:	bf11                	j	5de0 <Task_SensorFusion+0x54>

00005ece <Task_Master>:
    5ece:	e36fa2ef          	jal	t0,504 <__riscv_save_4>
    5ed2:	7171                	addi	sp,sp,-176
    5ed4:	d702                	sw	zero,172(sp)
    5ed6:	c702                	sw	zero,140(sp)
    5ed8:	c902                	sw	zero,144(sp)
    5eda:	cb02                	sw	zero,148(sp)
    5edc:	cd02                	sw	zero,152(sp)
    5ede:	cf02                	sw	zero,156(sp)
    5ee0:	d102                	sw	zero,160(sp)
    5ee2:	d302                	sw	zero,164(sp)
    5ee4:	d502                	sw	zero,168(sp)
    5ee6:	080105a3          	sb	zero,139(sp)
    5eea:	de82                	sw	zero,124(sp)
    5eec:	c102                	sw	zero,128(sp)
    5eee:	c302                	sw	zero,132(sp)
    5ef0:	08011423          	sh	zero,136(sp)
    5ef4:	d682                	sw	zero,108(sp)
    5ef6:	d882                	sw	zero,112(sp)
    5ef8:	da82                	sw	zero,116(sp)
    5efa:	dc82                	sw	zero,120(sp)
    5efc:	c882                	sw	zero,80(sp)
    5efe:	ca82                	sw	zero,84(sp)
    5f00:	cc82                	sw	zero,88(sp)
    5f02:	ce82                	sw	zero,92(sp)
    5f04:	da02                	sw	zero,52(sp)
    5f06:	dc02                	sw	zero,56(sp)
    5f08:	de02                	sw	zero,60(sp)
    5f0a:	c082                	sw	zero,64(sp)
    5f0c:	cc02                	sw	zero,24(sp)
    5f0e:	ce02                	sw	zero,28(sp)
    5f10:	d002                	sw	zero,32(sp)
    5f12:	d202                	sw	zero,36(sp)
    5f14:	200037b7          	lui	a5,0x20003
    5f18:	3e478793          	addi	a5,a5,996 # 200033e4 <global_AppCommMsg_t>
    5f1c:	20003737          	lui	a4,0x20003
    5f20:	3f470713          	addi	a4,a4,1012 # 200033f4 <global_MsgToRec_t>
    5f24:	c3d8                	sw	a4,4(a5)
    5f26:	4739                	li	a4,14
    5f28:	00e79523          	sh	a4,10(a5)
    5f2c:	00078623          	sb	zero,12(a5)
    5f30:	00078723          	sb	zero,14(a5)
    5f34:	0000d7b7          	lui	a5,0xd
    5f38:	7787a783          	lw	a5,1912(a5) # d778 <_read+0x1e2>
    5f3c:	d0be                	sw	a5,96(sp)
    5f3e:	d2be                	sw	a5,100(sp)
    5f40:	d4be                	sw	a5,104(sp)
    5f42:	c2be                	sw	a5,68(sp)
    5f44:	c4be                	sw	a5,72(sp)
    5f46:	c6be                	sw	a5,76(sp)
    5f48:	d43e                	sw	a5,40(sp)
    5f4a:	d63e                	sw	a5,44(sp)
    5f4c:	d83e                	sw	a5,48(sp)
    5f4e:	c63e                	sw	a5,12(sp)
    5f50:	c83e                	sw	a5,16(sp)
    5f52:	ca3e                	sw	a5,20(sp)
    5f54:	856ff0ef          	jal	ra,4faa <SystemInit>
    5f58:	89eff0ef          	jal	ra,4ff6 <SystemCoreClockUpdate>
    5f5c:	4509                	li	a0,2
    5f5e:	c43fd0ef          	jal	ra,3ba0 <NVIC_PriorityGroupConfig>
    5f62:	907fe0ef          	jal	ra,4868 <MCAL_Config_ConfigAllPins>
    5f66:	851ff0ef          	jal	ra,57b6 <HAL_Config_ConfigAllHW>
    5f6a:	6571                	lui	a0,0x1c
    5f6c:	20050513          	addi	a0,a0,512 # 1c200 <_data_lma+0xe264>
    5f70:	81ffe0ef          	jal	ra,478e <USART_Printf_Init>
    5f74:	dc1fc0ef          	jal	ra,2d34 <Altitude_Kalman_2D_init>
    5f78:	a811                	j	5f8c <Task_Master+0xbe>
    5f7a:	04b00793          	li	a5,75
    5f7e:	00a7f463          	bgeu	a5,a0,5f86 <Task_Master+0xb8>
    5f82:	0af107a3          	sb	a5,175(sp)
    5f86:	1168                	addi	a0,sp,172
    5f88:	a14ff0ef          	jal	ra,519c <HAL_WRAPPER_SetESCSpeeds>
    5f8c:	3e800513          	li	a0,1000
    5f90:	f2cfa0ef          	jal	ra,6bc <SERVICE_RTOS_WaitForNotification>
    5f94:	08b10693          	addi	a3,sp,139
    5f98:	200007b7          	lui	a5,0x20000
    5f9c:	1547a603          	lw	a2,340(a5) # 20000154 <queue_AppCommToDrone_Handle_t>
    5fa0:	18ec                	addi	a1,sp,124
    5fa2:	4501                	li	a0,0
    5fa4:	ed2fa0ef          	jal	ra,676 <SERVICE_RTOS_ReadFromBlockingQueue>
    5fa8:	08b10693          	addi	a3,sp,139
    5fac:	200007b7          	lui	a5,0x20000
    5fb0:	15c7a603          	lw	a2,348(a5) # 2000015c <queue_FusedSensorData_Handle_t>
    5fb4:	016c                	addi	a1,sp,140
    5fb6:	4501                	li	a0,0
    5fb8:	ebefa0ef          	jal	ra,676 <SERVICE_RTOS_ReadFromBlockingQueue>
    5fbc:	f961                	bnez	a0,5f8c <Task_Master+0xbe>
    5fbe:	07d10503          	lb	a0,125(sp)
    5fc2:	5d9050ef          	jal	ra,bd9a <__floatsisf>
    5fc6:	45da                	lw	a1,148(sp)
    5fc8:	1f5050ef          	jal	ra,b9bc <__subsf3>
    5fcc:	d6aa                	sw	a0,108(sp)
    5fce:	07e10503          	lb	a0,126(sp)
    5fd2:	5c9050ef          	jal	ra,bd9a <__floatsisf>
    5fd6:	45fa                	lw	a1,156(sp)
    5fd8:	1e5050ef          	jal	ra,b9bc <__subsf3>
    5fdc:	c8aa                	sw	a0,80(sp)
    5fde:	08010503          	lb	a0,128(sp)
    5fe2:	5b9050ef          	jal	ra,bd9a <__floatsisf>
    5fe6:	45ea                	lw	a1,152(sp)
    5fe8:	1d5050ef          	jal	ra,b9bc <__subsf3>
    5fec:	da2a                	sw	a0,52(sp)
    5fee:	07f10503          	lb	a0,127(sp)
    5ff2:	5a9050ef          	jal	ra,bd9a <__floatsisf>
    5ff6:	45ca                	lw	a1,144(sp)
    5ff8:	1c5050ef          	jal	ra,b9bc <__subsf3>
    5ffc:	cc2a                	sw	a0,24(sp)
    5ffe:	1088                	addi	a0,sp,96
    6000:	edffc0ef          	jal	ra,2ede <pid_ctrl>
    6004:	00c8                	addi	a0,sp,68
    6006:	ed9fc0ef          	jal	ra,2ede <pid_ctrl>
    600a:	1028                	addi	a0,sp,40
    600c:	ed3fc0ef          	jal	ra,2ede <pid_ctrl>
    6010:	0068                	addi	a0,sp,12
    6012:	ecdfc0ef          	jal	ra,2ede <pid_ctrl>
    6016:	5912                	lw	s2,36(sp)
    6018:	59e6                	lw	s3,120(sp)
    601a:	85ce                	mv	a1,s3
    601c:	854a                	mv	a0,s2
    601e:	19f050ef          	jal	ra,b9bc <__subsf3>
    6022:	8b2a                	mv	s6,a0
    6024:	44f6                	lw	s1,92(sp)
    6026:	85a6                	mv	a1,s1
    6028:	05e050ef          	jal	ra,b086 <__addsf3>
    602c:	4406                	lw	s0,64(sp)
    602e:	85a2                	mv	a1,s0
    6030:	18d050ef          	jal	ra,b9bc <__subsf3>
    6034:	511050ef          	jal	ra,bd44 <__fixunssfsi>
    6038:	0ff57a13          	andi	s4,a0,255
    603c:	0b410623          	sb	s4,172(sp)
    6040:	85ce                	mv	a1,s3
    6042:	854a                	mv	a0,s2
    6044:	042050ef          	jal	ra,b086 <__addsf3>
    6048:	8aaa                	mv	s5,a0
    604a:	85aa                	mv	a1,a0
    604c:	8526                	mv	a0,s1
    604e:	038050ef          	jal	ra,b086 <__addsf3>
    6052:	85aa                	mv	a1,a0
    6054:	8522                	mv	a0,s0
    6056:	030050ef          	jal	ra,b086 <__addsf3>
    605a:	4eb050ef          	jal	ra,bd44 <__fixunssfsi>
    605e:	0ff57993          	andi	s3,a0,255
    6062:	0b3106a3          	sb	s3,173(sp)
    6066:	85a6                	mv	a1,s1
    6068:	855a                	mv	a0,s6
    606a:	153050ef          	jal	ra,b9bc <__subsf3>
    606e:	85aa                	mv	a1,a0
    6070:	8522                	mv	a0,s0
    6072:	014050ef          	jal	ra,b086 <__addsf3>
    6076:	4cf050ef          	jal	ra,bd44 <__fixunssfsi>
    607a:	0ff57913          	andi	s2,a0,255
    607e:	0b210723          	sb	s2,174(sp)
    6082:	85a6                	mv	a1,s1
    6084:	8556                	mv	a0,s5
    6086:	137050ef          	jal	ra,b9bc <__subsf3>
    608a:	85a2                	mv	a1,s0
    608c:	131050ef          	jal	ra,b9bc <__subsf3>
    6090:	4b5050ef          	jal	ra,bd44 <__fixunssfsi>
    6094:	0ff57513          	andi	a0,a0,255
    6098:	0aa107a3          	sb	a0,175(sp)
    609c:	04b00793          	li	a5,75
    60a0:	0147f463          	bgeu	a5,s4,60a8 <Task_Master+0x1da>
    60a4:	0af10623          	sb	a5,172(sp)
    60a8:	04b00793          	li	a5,75
    60ac:	0137f463          	bgeu	a5,s3,60b4 <Task_Master+0x1e6>
    60b0:	0af106a3          	sb	a5,173(sp)
    60b4:	04b00793          	li	a5,75
    60b8:	ed27f1e3          	bgeu	a5,s2,5f7a <Task_Master+0xac>
    60bc:	0af10723          	sb	a5,174(sp)
    60c0:	bd6d                	j	5f7a <Task_Master+0xac>

000060c2 <UARTReceivedISR>:
    60c2:	c5cfa2ef          	jal	t0,51e <__riscv_save_0>
    60c6:	20000537          	lui	a0,0x20000
    60ca:	15250513          	addi	a0,a0,338 # 20000152 <local_u8Dummy.5040>
    60ce:	932ff0ef          	jal	ra,5200 <HAL_WRAPPER_GetCommMessage>
    60d2:	e115                	bnez	a0,60f6 <UARTReceivedISR+0x34>
    60d4:	200037b7          	lui	a5,0x20003
    60d8:	3e478793          	addi	a5,a5,996 # 200033e4 <global_AppCommMsg_t>
    60dc:	00c7c783          	lbu	a5,12(a5)
    60e0:	0ff7f793          	andi	a5,a5,255
    60e4:	eb95                	bnez	a5,6118 <UARTReceivedISR+0x56>
    60e6:	200007b7          	lui	a5,0x20000
    60ea:	1527c783          	lbu	a5,338(a5) # 20000152 <local_u8Dummy.5040>
    60ee:	05500713          	li	a4,85
    60f2:	00e78463          	beq	a5,a4,60fa <UARTReceivedISR+0x38>
    60f6:	c4cfa06f          	j	542 <__riscv_restore_0>
    60fa:	4685                	li	a3,1
    60fc:	20000737          	lui	a4,0x20000
    6100:	14d71823          	sh	a3,336(a4) # 20000150 <local_u16CurrentItem.5038>
    6104:	20003737          	lui	a4,0x20003
    6108:	3e470713          	addi	a4,a4,996 # 200033e4 <global_AppCommMsg_t>
    610c:	00d70623          	sb	a3,12(a4)
    6110:	4358                	lw	a4,4(a4)
    6112:	00f70023          	sb	a5,0(a4)
    6116:	b7c5                	j	60f6 <UARTReceivedISR+0x34>
    6118:	20003737          	lui	a4,0x20003
    611c:	3e470713          	addi	a4,a4,996 # 200033e4 <global_AppCommMsg_t>
    6120:	4350                	lw	a2,4(a4)
    6122:	200006b7          	lui	a3,0x20000
    6126:	15068693          	addi	a3,a3,336 # 20000150 <local_u16CurrentItem.5038>
    612a:	0006d783          	lhu	a5,0(a3)
    612e:	963e                	add	a2,a2,a5
    6130:	200005b7          	lui	a1,0x20000
    6134:	1525c583          	lbu	a1,338(a1) # 20000152 <local_u8Dummy.5040>
    6138:	00b60023          	sb	a1,0(a2) # 40021000 <__freertos_irq_stack_top+0x2001c000>
    613c:	0785                	addi	a5,a5,1
    613e:	07c2                	slli	a5,a5,0x10
    6140:	83c1                	srli	a5,a5,0x10
    6142:	00f69023          	sh	a5,0(a3)
    6146:	00a75703          	lhu	a4,10(a4)
    614a:	fae796e3          	bne	a5,a4,60f6 <UARTReceivedISR+0x34>
    614e:	200037b7          	lui	a5,0x20003
    6152:	3e478793          	addi	a5,a5,996 # 200033e4 <global_AppCommMsg_t>
    6156:	4705                	li	a4,1
    6158:	00e78723          	sb	a4,14(a5)
    615c:	bf69                	j	60f6 <UARTReceivedISR+0x34>

0000615e <Task_AppComm>:
    615e:	bc0fa2ef          	jal	t0,51e <__riscv_save_0>
    6162:	1101                	addi	sp,sp,-32
    6164:	c802                	sw	zero,16(sp)
    6166:	ca02                	sw	zero,20(sp)
    6168:	cc02                	sw	zero,24(sp)
    616a:	00011e23          	sh	zero,28(sp)
    616e:	000107a3          	sb	zero,15(sp)
    6172:	200037b7          	lui	a5,0x20003
    6176:	3e478793          	addi	a5,a5,996 # 200033e4 <global_AppCommMsg_t>
    617a:	0818                	addi	a4,sp,16
    617c:	c398                	sw	a4,0(a5)
    617e:	4739                	li	a4,14
    6180:	00e79423          	sh	a4,8(a5)
    6184:	a05d                	j	622a <Task_AppComm+0xcc>
    6186:	f3dff0ef          	jal	ra,60c2 <UARTReceivedISR>
    618a:	200037b7          	lui	a5,0x20003
    618e:	3e478793          	addi	a5,a5,996 # 200033e4 <global_AppCommMsg_t>
    6192:	00e7c783          	lbu	a5,14(a5)
    6196:	e78d                	bnez	a5,61c0 <Task_AppComm+0x62>
    6198:	200037b7          	lui	a5,0x20003
    619c:	3e478793          	addi	a5,a5,996 # 200033e4 <global_AppCommMsg_t>
    61a0:	0087d783          	lhu	a5,8(a5)
    61a4:	04f47a63          	bgeu	s0,a5,61f8 <Task_AppComm+0x9a>
    61a8:	200037b7          	lui	a5,0x20003
    61ac:	3e47a783          	lw	a5,996(a5) # 200033e4 <global_AppCommMsg_t>
    61b0:	97a2                	add	a5,a5,s0
    61b2:	0007c503          	lbu	a0,0(a5)
    61b6:	85eff0ef          	jal	ra,5214 <HAL_WRAPPER_SendCommMessage>
    61ba:	f571                	bnez	a0,6186 <Task_AppComm+0x28>
    61bc:	0405                	addi	s0,s0,1
    61be:	bfe9                	j	6198 <Task_AppComm+0x3a>
    61c0:	200007b7          	lui	a5,0x20000
    61c4:	1547a603          	lw	a2,340(a5) # 20000154 <queue_AppCommToDrone_Handle_t>
    61c8:	200035b7          	lui	a1,0x20003
    61cc:	3f458593          	addi	a1,a1,1012 # 200033f4 <global_MsgToRec_t>
    61d0:	3e800513          	li	a0,1000
    61d4:	c76fa0ef          	jal	ra,64a <SERVICE_RTOS_AppendToBlockingQueue>
    61d8:	4581                	li	a1,0
    61da:	200007b7          	lui	a5,0x20000
    61de:	16c7a503          	lw	a0,364(a5) # 2000016c <task_Master_Handle_t>
    61e2:	cfafa0ef          	jal	ra,6dc <SERVICE_RTOS_Notify>
    61e6:	200037b7          	lui	a5,0x20003
    61ea:	3e478793          	addi	a5,a5,996 # 200033e4 <global_AppCommMsg_t>
    61ee:	00078623          	sb	zero,12(a5)
    61f2:	00078723          	sb	zero,14(a5)
    61f6:	b74d                	j	6198 <Task_AppComm+0x3a>
    61f8:	00f10693          	addi	a3,sp,15
    61fc:	200007b7          	lui	a5,0x20000
    6200:	1587a603          	lw	a2,344(a5) # 20000158 <queue_DroneCommToApp_Handle_t>
    6204:	080c                	addi	a1,sp,16
    6206:	4501                	li	a0,0
    6208:	c6efa0ef          	jal	ra,676 <SERVICE_RTOS_ReadFromBlockingQueue>
    620c:	00f14783          	lbu	a5,15(sp)
    6210:	c781                	beqz	a5,6218 <Task_AppComm+0xba>
    6212:	e119                	bnez	a0,6218 <Task_AppComm+0xba>
    6214:	4401                	li	s0,0
    6216:	b749                	j	6198 <Task_AppComm+0x3a>
    6218:	eabff0ef          	jal	ra,60c2 <UARTReceivedISR>
    621c:	200037b7          	lui	a5,0x20003
    6220:	3e478793          	addi	a5,a5,996 # 200033e4 <global_AppCommMsg_t>
    6224:	00e7c783          	lbu	a5,14(a5)
    6228:	ef81                	bnez	a5,6240 <Task_AppComm+0xe2>
    622a:	00f10693          	addi	a3,sp,15
    622e:	200007b7          	lui	a5,0x20000
    6232:	1587a603          	lw	a2,344(a5) # 20000158 <queue_DroneCommToApp_Handle_t>
    6236:	080c                	addi	a1,sp,16
    6238:	4501                	li	a0,0
    623a:	c3cfa0ef          	jal	ra,676 <SERVICE_RTOS_ReadFromBlockingQueue>
    623e:	b7f9                	j	620c <Task_AppComm+0xae>
    6240:	200007b7          	lui	a5,0x20000
    6244:	1547a603          	lw	a2,340(a5) # 20000154 <queue_AppCommToDrone_Handle_t>
    6248:	200035b7          	lui	a1,0x20003
    624c:	3f458593          	addi	a1,a1,1012 # 200033f4 <global_MsgToRec_t>
    6250:	3e800513          	li	a0,1000
    6254:	bf6fa0ef          	jal	ra,64a <SERVICE_RTOS_AppendToBlockingQueue>
    6258:	4581                	li	a1,0
    625a:	200007b7          	lui	a5,0x20000
    625e:	16c7a503          	lw	a0,364(a5) # 2000016c <task_Master_Handle_t>
    6262:	c7afa0ef          	jal	ra,6dc <SERVICE_RTOS_Notify>
    6266:	200037b7          	lui	a5,0x20003
    626a:	3e478793          	addi	a5,a5,996 # 200033e4 <global_AppCommMsg_t>
    626e:	00078623          	sb	zero,12(a5)
    6272:	00078723          	sb	zero,14(a5)
    6276:	bf55                	j	622a <Task_AppComm+0xcc>

00006278 <main>:
    6278:	aa6fa2ef          	jal	t0,51e <__riscv_save_0>
    627c:	20000637          	lui	a2,0x20000
    6280:	16060613          	addi	a2,a2,352 # 20000160 <queue_RawSensorData_Handle_t>
    6284:	03400593          	li	a1,52
    6288:	4529                	li	a0,10
    628a:	b9cfa0ef          	jal	ra,626 <SERVICE_RTOS_CreateBlockingQueue>
    628e:	20000637          	lui	a2,0x20000
    6292:	15c60613          	addi	a2,a2,348 # 2000015c <queue_FusedSensorData_Handle_t>
    6296:	02000593          	li	a1,32
    629a:	4529                	li	a0,10
    629c:	b8afa0ef          	jal	ra,626 <SERVICE_RTOS_CreateBlockingQueue>
    62a0:	20000637          	lui	a2,0x20000
    62a4:	15460613          	addi	a2,a2,340 # 20000154 <queue_AppCommToDrone_Handle_t>
    62a8:	45b9                	li	a1,14
    62aa:	4529                	li	a0,10
    62ac:	b7afa0ef          	jal	ra,626 <SERVICE_RTOS_CreateBlockingQueue>
    62b0:	20000637          	lui	a2,0x20000
    62b4:	15860613          	addi	a2,a2,344 # 20000158 <queue_DroneCommToApp_Handle_t>
    62b8:	45b9                	li	a1,14
    62ba:	4529                	li	a0,10
    62bc:	b6afa0ef          	jal	ra,626 <SERVICE_RTOS_CreateBlockingQueue>
    62c0:	20000737          	lui	a4,0x20000
    62c4:	16870713          	addi	a4,a4,360 # 20000168 <task_CollectSensorData_Handle_t>
    62c8:	4691                	li	a3,4
    62ca:	10000613          	li	a2,256
    62ce:	0000d5b7          	lui	a1,0xd
    62d2:	77c58593          	addi	a1,a1,1916 # d77c <_read+0x1e6>
    62d6:	00006537          	lui	a0,0x6
    62da:	cd250513          	addi	a0,a0,-814 # 5cd2 <Task_CollectSensorData>
    62de:	b18fa0ef          	jal	ra,5f6 <SERVICE_RTOS_TaskCreate>
    62e2:	20000737          	lui	a4,0x20000
    62e6:	17070713          	addi	a4,a4,368 # 20000170 <task_SensorFusion_Handle_t>
    62ea:	468d                	li	a3,3
    62ec:	10000613          	li	a2,256
    62f0:	0000d5b7          	lui	a1,0xd
    62f4:	79058593          	addi	a1,a1,1936 # d790 <_read+0x1fa>
    62f8:	00006537          	lui	a0,0x6
    62fc:	d8c50513          	addi	a0,a0,-628 # 5d8c <Task_SensorFusion>
    6300:	af6fa0ef          	jal	ra,5f6 <SERVICE_RTOS_TaskCreate>
    6304:	20000737          	lui	a4,0x20000
    6308:	16470713          	addi	a4,a4,356 # 20000164 <task_AppComm_Handle_t>
    630c:	4689                	li	a3,2
    630e:	10000613          	li	a2,256
    6312:	0000d5b7          	lui	a1,0xd
    6316:	7a058593          	addi	a1,a1,1952 # d7a0 <_read+0x20a>
    631a:	00006537          	lui	a0,0x6
    631e:	15e50513          	addi	a0,a0,350 # 615e <Task_AppComm>
    6322:	ad4fa0ef          	jal	ra,5f6 <SERVICE_RTOS_TaskCreate>
    6326:	20000737          	lui	a4,0x20000
    632a:	16c70713          	addi	a4,a4,364 # 2000016c <task_Master_Handle_t>
    632e:	4695                	li	a3,5
    6330:	10000613          	li	a2,256
    6334:	0000d5b7          	lui	a1,0xd
    6338:	7b458593          	addi	a1,a1,1972 # d7b4 <_read+0x21e>
    633c:	00006537          	lui	a0,0x6
    6340:	ece50513          	addi	a0,a0,-306 # 5ece <Task_Master>
    6344:	ab2fa0ef          	jal	ra,5f6 <SERVICE_RTOS_TaskCreate>
    6348:	ad2fa0ef          	jal	ra,61a <SERVICE_RTOS_StartSchedular>
    634c:	0000d537          	lui	a0,0xd
    6350:	7bc50513          	addi	a0,a0,1980 # d7bc <_read+0x226>
    6354:	25a060ef          	jal	ra,c5ae <puts>
    6358:	bfd5                	j	634c <main+0xd4>

0000635a <atan>:
    635a:	7179                	addi	sp,sp,-48
    635c:	d04a                	sw	s2,32(sp)
    635e:	00159913          	slli	s2,a1,0x1
    6362:	d422                	sw	s0,40(sp)
    6364:	d226                	sw	s1,36(sp)
    6366:	ca56                	sw	s5,20(sp)
    6368:	d606                	sw	ra,44(sp)
    636a:	ce4e                	sw	s3,28(sp)
    636c:	cc52                	sw	s4,24(sp)
    636e:	c85a                	sw	s6,16(sp)
    6370:	c65e                	sw	s7,12(sp)
    6372:	00195913          	srli	s2,s2,0x1
    6376:	441007b7          	lui	a5,0x44100
    637a:	842e                	mv	s0,a1
    637c:	84aa                	mv	s1,a0
    637e:	8aae                	mv	s5,a1
    6380:	04f94763          	blt	s2,a5,63ce <atan+0x74>
    6384:	7ff007b7          	lui	a5,0x7ff00
    6388:	0127ce63          	blt	a5,s2,63a4 <atan+0x4a>
    638c:	00f90b63          	beq	s2,a5,63a2 <atan+0x48>
    6390:	1f505b63          	blez	s5,6586 <atan+0x22c>
    6394:	00007797          	auipc	a5,0x7
    6398:	44478793          	addi	a5,a5,1092 # d7d8 <_read+0x242>
    639c:	4384                	lw	s1,0(a5)
    639e:	43c0                	lw	s0,4(a5)
    63a0:	a811                	j	63b4 <atan+0x5a>
    63a2:	d57d                	beqz	a0,6390 <atan+0x36>
    63a4:	8626                	mv	a2,s1
    63a6:	8526                	mv	a0,s1
    63a8:	86a2                	mv	a3,s0
    63aa:	85a2                	mv	a1,s0
    63ac:	0b4030ef          	jal	ra,9460 <__adddf3>
    63b0:	84aa                	mv	s1,a0
    63b2:	842e                	mv	s0,a1
    63b4:	85a2                	mv	a1,s0
    63b6:	50b2                	lw	ra,44(sp)
    63b8:	5422                	lw	s0,40(sp)
    63ba:	8526                	mv	a0,s1
    63bc:	5902                	lw	s2,32(sp)
    63be:	5492                	lw	s1,36(sp)
    63c0:	49f2                	lw	s3,28(sp)
    63c2:	4a62                	lw	s4,24(sp)
    63c4:	4ad2                	lw	s5,20(sp)
    63c6:	4b42                	lw	s6,16(sp)
    63c8:	4bb2                	lw	s7,12(sp)
    63ca:	6145                	addi	sp,sp,48
    63cc:	8082                	ret
    63ce:	3fdc07b7          	lui	a5,0x3fdc0
    63d2:	1cf95863          	bge	s2,a5,65a2 <atan+0x248>
    63d6:	3e2007b7          	lui	a5,0x3e200
    63da:	18f94363          	blt	s2,a5,6560 <atan+0x206>
    63de:	5a7d                	li	s4,-1
    63e0:	8626                	mv	a2,s1
    63e2:	86a2                	mv	a3,s0
    63e4:	8526                	mv	a0,s1
    63e6:	85a2                	mv	a1,s0
    63e8:	72b030ef          	jal	ra,a312 <__muldf3>
    63ec:	862a                	mv	a2,a0
    63ee:	86ae                	mv	a3,a1
    63f0:	8b2a                	mv	s6,a0
    63f2:	8bae                	mv	s7,a1
    63f4:	71f030ef          	jal	ra,a312 <__muldf3>
    63f8:	00007797          	auipc	a5,0x7
    63fc:	41078793          	addi	a5,a5,1040 # d808 <_read+0x272>
    6400:	4390                	lw	a2,0(a5)
    6402:	43d4                	lw	a3,4(a5)
    6404:	892a                	mv	s2,a0
    6406:	89ae                	mv	s3,a1
    6408:	70b030ef          	jal	ra,a312 <__muldf3>
    640c:	00007797          	auipc	a5,0x7
    6410:	40478793          	addi	a5,a5,1028 # d810 <_read+0x27a>
    6414:	4390                	lw	a2,0(a5)
    6416:	43d4                	lw	a3,4(a5)
    6418:	048030ef          	jal	ra,9460 <__adddf3>
    641c:	864a                	mv	a2,s2
    641e:	86ce                	mv	a3,s3
    6420:	6f3030ef          	jal	ra,a312 <__muldf3>
    6424:	00007797          	auipc	a5,0x7
    6428:	3f478793          	addi	a5,a5,1012 # d818 <_read+0x282>
    642c:	4390                	lw	a2,0(a5)
    642e:	43d4                	lw	a3,4(a5)
    6430:	030030ef          	jal	ra,9460 <__adddf3>
    6434:	864a                	mv	a2,s2
    6436:	86ce                	mv	a3,s3
    6438:	6db030ef          	jal	ra,a312 <__muldf3>
    643c:	00007797          	auipc	a5,0x7
    6440:	3e478793          	addi	a5,a5,996 # d820 <_read+0x28a>
    6444:	4390                	lw	a2,0(a5)
    6446:	43d4                	lw	a3,4(a5)
    6448:	018030ef          	jal	ra,9460 <__adddf3>
    644c:	864a                	mv	a2,s2
    644e:	86ce                	mv	a3,s3
    6450:	6c3030ef          	jal	ra,a312 <__muldf3>
    6454:	00007797          	auipc	a5,0x7
    6458:	3d478793          	addi	a5,a5,980 # d828 <_read+0x292>
    645c:	4390                	lw	a2,0(a5)
    645e:	43d4                	lw	a3,4(a5)
    6460:	000030ef          	jal	ra,9460 <__adddf3>
    6464:	864a                	mv	a2,s2
    6466:	86ce                	mv	a3,s3
    6468:	6ab030ef          	jal	ra,a312 <__muldf3>
    646c:	00007797          	auipc	a5,0x7
    6470:	3c478793          	addi	a5,a5,964 # d830 <_read+0x29a>
    6474:	4390                	lw	a2,0(a5)
    6476:	43d4                	lw	a3,4(a5)
    6478:	7e9020ef          	jal	ra,9460 <__adddf3>
    647c:	865a                	mv	a2,s6
    647e:	86de                	mv	a3,s7
    6480:	693030ef          	jal	ra,a312 <__muldf3>
    6484:	00007797          	auipc	a5,0x7
    6488:	3b478793          	addi	a5,a5,948 # d838 <_read+0x2a2>
    648c:	4390                	lw	a2,0(a5)
    648e:	43d4                	lw	a3,4(a5)
    6490:	8b2a                	mv	s6,a0
    6492:	8bae                	mv	s7,a1
    6494:	854a                	mv	a0,s2
    6496:	85ce                	mv	a1,s3
    6498:	67b030ef          	jal	ra,a312 <__muldf3>
    649c:	00007797          	auipc	a5,0x7
    64a0:	3a478793          	addi	a5,a5,932 # d840 <_read+0x2aa>
    64a4:	4390                	lw	a2,0(a5)
    64a6:	43d4                	lw	a3,4(a5)
    64a8:	322040ef          	jal	ra,a7ca <__subdf3>
    64ac:	864a                	mv	a2,s2
    64ae:	86ce                	mv	a3,s3
    64b0:	663030ef          	jal	ra,a312 <__muldf3>
    64b4:	00007797          	auipc	a5,0x7
    64b8:	39478793          	addi	a5,a5,916 # d848 <_read+0x2b2>
    64bc:	4390                	lw	a2,0(a5)
    64be:	43d4                	lw	a3,4(a5)
    64c0:	30a040ef          	jal	ra,a7ca <__subdf3>
    64c4:	864a                	mv	a2,s2
    64c6:	86ce                	mv	a3,s3
    64c8:	64b030ef          	jal	ra,a312 <__muldf3>
    64cc:	00007797          	auipc	a5,0x7
    64d0:	38478793          	addi	a5,a5,900 # d850 <_read+0x2ba>
    64d4:	4390                	lw	a2,0(a5)
    64d6:	43d4                	lw	a3,4(a5)
    64d8:	2f2040ef          	jal	ra,a7ca <__subdf3>
    64dc:	864a                	mv	a2,s2
    64de:	86ce                	mv	a3,s3
    64e0:	633030ef          	jal	ra,a312 <__muldf3>
    64e4:	00007797          	auipc	a5,0x7
    64e8:	37478793          	addi	a5,a5,884 # d858 <_read+0x2c2>
    64ec:	4390                	lw	a2,0(a5)
    64ee:	43d4                	lw	a3,4(a5)
    64f0:	2da040ef          	jal	ra,a7ca <__subdf3>
    64f4:	864a                	mv	a2,s2
    64f6:	86ce                	mv	a3,s3
    64f8:	61b030ef          	jal	ra,a312 <__muldf3>
    64fc:	862a                	mv	a2,a0
    64fe:	86ae                	mv	a3,a1
    6500:	855a                	mv	a0,s6
    6502:	85de                	mv	a1,s7
    6504:	75d020ef          	jal	ra,9460 <__adddf3>
    6508:	8626                	mv	a2,s1
    650a:	86a2                	mv	a3,s0
    650c:	607030ef          	jal	ra,a312 <__muldf3>
    6510:	57fd                	li	a5,-1
    6512:	862a                	mv	a2,a0
    6514:	86ae                	mv	a3,a1
    6516:	06fa0f63          	beq	s4,a5,6594 <atan+0x23a>
    651a:	0a0e                	slli	s4,s4,0x3
    651c:	00007797          	auipc	a5,0x7
    6520:	36478793          	addi	a5,a5,868 # d880 <atanlo>
    6524:	97d2                	add	a5,a5,s4
    6526:	4390                	lw	a2,0(a5)
    6528:	43d4                	lw	a3,4(a5)
    652a:	00007797          	auipc	a5,0x7
    652e:	33678793          	addi	a5,a5,822 # d860 <atanhi>
    6532:	9a3e                	add	s4,s4,a5
    6534:	296040ef          	jal	ra,a7ca <__subdf3>
    6538:	8626                	mv	a2,s1
    653a:	86a2                	mv	a3,s0
    653c:	28e040ef          	jal	ra,a7ca <__subdf3>
    6540:	862a                	mv	a2,a0
    6542:	86ae                	mv	a3,a1
    6544:	000a2503          	lw	a0,0(s4)
    6548:	004a2583          	lw	a1,4(s4)
    654c:	27e040ef          	jal	ra,a7ca <__subdf3>
    6550:	84aa                	mv	s1,a0
    6552:	842e                	mv	s0,a1
    6554:	e60ad0e3          	bgez	s5,63b4 <atan+0x5a>
    6558:	80000437          	lui	s0,0x80000
    655c:	8c2d                	xor	s0,s0,a1
    655e:	bd99                	j	63b4 <atan+0x5a>
    6560:	00007797          	auipc	a5,0x7
    6564:	28878793          	addi	a5,a5,648 # d7e8 <_read+0x252>
    6568:	4390                	lw	a2,0(a5)
    656a:	43d4                	lw	a3,4(a5)
    656c:	6f5020ef          	jal	ra,9460 <__adddf3>
    6570:	00007797          	auipc	a5,0x7
    6574:	1f878793          	addi	a5,a5,504 # d768 <_read+0x1d2>
    6578:	4390                	lw	a2,0(a5)
    657a:	43d4                	lw	a3,4(a5)
    657c:	433030ef          	jal	ra,a1ae <__gedf2>
    6580:	e4a05fe3          	blez	a0,63de <atan+0x84>
    6584:	bd05                	j	63b4 <atan+0x5a>
    6586:	00007797          	auipc	a5,0x7
    658a:	25a78793          	addi	a5,a5,602 # d7e0 <_read+0x24a>
    658e:	4384                	lw	s1,0(a5)
    6590:	43c0                	lw	s0,4(a5)
    6592:	b50d                	j	63b4 <atan+0x5a>
    6594:	8526                	mv	a0,s1
    6596:	85a2                	mv	a1,s0
    6598:	232040ef          	jal	ra,a7ca <__subdf3>
    659c:	84aa                	mv	s1,a0
    659e:	842e                	mv	s0,a1
    65a0:	bd11                	j	63b4 <atan+0x5a>
    65a2:	2251                	jal	6726 <fabs>
    65a4:	3ff307b7          	lui	a5,0x3ff30
    65a8:	842a                	mv	s0,a0
    65aa:	84ae                	mv	s1,a1
    65ac:	04f95863          	bge	s2,a5,65fc <atan+0x2a2>
    65b0:	3fe607b7          	lui	a5,0x3fe60
    65b4:	0af95c63          	bge	s2,a5,666c <atan+0x312>
    65b8:	862a                	mv	a2,a0
    65ba:	86ae                	mv	a3,a1
    65bc:	6a5020ef          	jal	ra,9460 <__adddf3>
    65c0:	00007797          	auipc	a5,0x7
    65c4:	1a878793          	addi	a5,a5,424 # d768 <_read+0x1d2>
    65c8:	4390                	lw	a2,0(a5)
    65ca:	43d4                	lw	a3,4(a5)
    65cc:	4a01                	li	s4,0
    65ce:	1fc040ef          	jal	ra,a7ca <__subdf3>
    65d2:	00007797          	auipc	a5,0x7
    65d6:	21e78793          	addi	a5,a5,542 # d7f0 <_read+0x25a>
    65da:	4390                	lw	a2,0(a5)
    65dc:	43d4                	lw	a3,4(a5)
    65de:	892a                	mv	s2,a0
    65e0:	89ae                	mv	s3,a1
    65e2:	8522                	mv	a0,s0
    65e4:	85a6                	mv	a1,s1
    65e6:	67b020ef          	jal	ra,9460 <__adddf3>
    65ea:	862a                	mv	a2,a0
    65ec:	86ae                	mv	a3,a1
    65ee:	854a                	mv	a0,s2
    65f0:	85ce                	mv	a1,s3
    65f2:	59e030ef          	jal	ra,9b90 <__divdf3>
    65f6:	84aa                	mv	s1,a0
    65f8:	842e                	mv	s0,a1
    65fa:	b3dd                	j	63e0 <atan+0x86>
    65fc:	400387b7          	lui	a5,0x40038
    6600:	04f95863          	bge	s2,a5,6650 <atan+0x2f6>
    6604:	00007917          	auipc	s2,0x7
    6608:	1f490913          	addi	s2,s2,500 # d7f8 <_read+0x262>
    660c:	00092603          	lw	a2,0(s2)
    6610:	00492683          	lw	a3,4(s2)
    6614:	4a09                	li	s4,2
    6616:	1b4040ef          	jal	ra,a7ca <__subdf3>
    661a:	00092603          	lw	a2,0(s2)
    661e:	00492683          	lw	a3,4(s2)
    6622:	8b2a                	mv	s6,a0
    6624:	8bae                	mv	s7,a1
    6626:	8522                	mv	a0,s0
    6628:	85a6                	mv	a1,s1
    662a:	4e9030ef          	jal	ra,a312 <__muldf3>
    662e:	00007797          	auipc	a5,0x7
    6632:	13a78793          	addi	a5,a5,314 # d768 <_read+0x1d2>
    6636:	4390                	lw	a2,0(a5)
    6638:	43d4                	lw	a3,4(a5)
    663a:	627020ef          	jal	ra,9460 <__adddf3>
    663e:	862a                	mv	a2,a0
    6640:	86ae                	mv	a3,a1
    6642:	855a                	mv	a0,s6
    6644:	85de                	mv	a1,s7
    6646:	54a030ef          	jal	ra,9b90 <__divdf3>
    664a:	84aa                	mv	s1,a0
    664c:	842e                	mv	s0,a1
    664e:	bb49                	j	63e0 <atan+0x86>
    6650:	00007797          	auipc	a5,0x7
    6654:	1b078793          	addi	a5,a5,432 # d800 <_read+0x26a>
    6658:	4388                	lw	a0,0(a5)
    665a:	43cc                	lw	a1,4(a5)
    665c:	8622                	mv	a2,s0
    665e:	86a6                	mv	a3,s1
    6660:	530030ef          	jal	ra,9b90 <__divdf3>
    6664:	4a0d                	li	s4,3
    6666:	84aa                	mv	s1,a0
    6668:	842e                	mv	s0,a1
    666a:	bb9d                	j	63e0 <atan+0x86>
    666c:	00007917          	auipc	s2,0x7
    6670:	0fc90913          	addi	s2,s2,252 # d768 <_read+0x1d2>
    6674:	00092603          	lw	a2,0(s2)
    6678:	00492683          	lw	a3,4(s2)
    667c:	4a05                	li	s4,1
    667e:	14c040ef          	jal	ra,a7ca <__subdf3>
    6682:	8b2a                	mv	s6,a0
    6684:	8bae                	mv	s7,a1
    6686:	00092603          	lw	a2,0(s2)
    668a:	00492683          	lw	a3,4(s2)
    668e:	8522                	mv	a0,s0
    6690:	85a6                	mv	a1,s1
    6692:	b765                	j	663a <atan+0x2e0>

00006694 <cos>:
    6694:	1101                	addi	sp,sp,-32
    6696:	cc22                	sw	s0,24(sp)
    6698:	80000437          	lui	s0,0x80000
    669c:	fff44793          	not	a5,s0
    66a0:	3fe92737          	lui	a4,0x3fe92
    66a4:	ce06                	sw	ra,28(sp)
    66a6:	8fed                	and	a5,a5,a1
    66a8:	1fb70713          	addi	a4,a4,507 # 3fe921fb <__freertos_irq_stack_top+0x1fe8d1fb>
    66ac:	04f75163          	bge	a4,a5,66ee <cos+0x5a>
    66b0:	7ff00737          	lui	a4,0x7ff00
    66b4:	00e7ca63          	blt	a5,a4,66c8 <cos+0x34>
    66b8:	86ae                	mv	a3,a1
    66ba:	862a                	mv	a2,a0
    66bc:	10e040ef          	jal	ra,a7ca <__subdf3>
    66c0:	40f2                	lw	ra,28(sp)
    66c2:	4462                	lw	s0,24(sp)
    66c4:	6105                	addi	sp,sp,32
    66c6:	8082                	ret
    66c8:	860a                	mv	a2,sp
    66ca:	192010ef          	jal	ra,785c <__ieee754_rem_pio2>
    66ce:	890d                	andi	a0,a0,3
    66d0:	4785                	li	a5,1
    66d2:	02f50663          	beq	a0,a5,66fe <cos+0x6a>
    66d6:	4789                	li	a5,2
    66d8:	4622                	lw	a2,8(sp)
    66da:	46b2                	lw	a3,12(sp)
    66dc:	02f50f63          	beq	a0,a5,671a <cos+0x86>
    66e0:	c905                	beqz	a0,6710 <cos+0x7c>
    66e2:	4502                	lw	a0,0(sp)
    66e4:	4592                	lw	a1,4(sp)
    66e6:	4705                	li	a4,1
    66e8:	3ba020ef          	jal	ra,8aa2 <__kernel_sin>
    66ec:	bfd1                	j	66c0 <cos+0x2c>
    66ee:	4601                	li	a2,0
    66f0:	4681                	li	a3,0
    66f2:	7a6010ef          	jal	ra,7e98 <__kernel_cos>
    66f6:	40f2                	lw	ra,28(sp)
    66f8:	4462                	lw	s0,24(sp)
    66fa:	6105                	addi	sp,sp,32
    66fc:	8082                	ret
    66fe:	4622                	lw	a2,8(sp)
    6700:	46b2                	lw	a3,12(sp)
    6702:	4502                	lw	a0,0(sp)
    6704:	4592                	lw	a1,4(sp)
    6706:	4705                	li	a4,1
    6708:	39a020ef          	jal	ra,8aa2 <__kernel_sin>
    670c:	8da1                	xor	a1,a1,s0
    670e:	bf4d                	j	66c0 <cos+0x2c>
    6710:	4502                	lw	a0,0(sp)
    6712:	4592                	lw	a1,4(sp)
    6714:	784010ef          	jal	ra,7e98 <__kernel_cos>
    6718:	b765                	j	66c0 <cos+0x2c>
    671a:	4502                	lw	a0,0(sp)
    671c:	4592                	lw	a1,4(sp)
    671e:	77a010ef          	jal	ra,7e98 <__kernel_cos>
    6722:	8da1                	xor	a1,a1,s0
    6724:	bf71                	j	66c0 <cos+0x2c>

00006726 <fabs>:
    6726:	0586                	slli	a1,a1,0x1
    6728:	8185                	srli	a1,a1,0x1
    672a:	8082                	ret

0000672c <sin>:
    672c:	1101                	addi	sp,sp,-32
    672e:	cc22                	sw	s0,24(sp)
    6730:	80000437          	lui	s0,0x80000
    6734:	fff44793          	not	a5,s0
    6738:	3fe92737          	lui	a4,0x3fe92
    673c:	ce06                	sw	ra,28(sp)
    673e:	8fed                	and	a5,a5,a1
    6740:	1fb70713          	addi	a4,a4,507 # 3fe921fb <__freertos_irq_stack_top+0x1fe8d1fb>
    6744:	04f75163          	bge	a4,a5,6786 <sin+0x5a>
    6748:	7ff00737          	lui	a4,0x7ff00
    674c:	00e7ca63          	blt	a5,a4,6760 <sin+0x34>
    6750:	86ae                	mv	a3,a1
    6752:	862a                	mv	a2,a0
    6754:	076040ef          	jal	ra,a7ca <__subdf3>
    6758:	40f2                	lw	ra,28(sp)
    675a:	4462                	lw	s0,24(sp)
    675c:	6105                	addi	sp,sp,32
    675e:	8082                	ret
    6760:	860a                	mv	a2,sp
    6762:	0fa010ef          	jal	ra,785c <__ieee754_rem_pio2>
    6766:	890d                	andi	a0,a0,3
    6768:	4785                	li	a5,1
    676a:	02f50763          	beq	a0,a5,6798 <sin+0x6c>
    676e:	4789                	li	a5,2
    6770:	4622                	lw	a2,8(sp)
    6772:	46b2                	lw	a3,12(sp)
    6774:	02f50f63          	beq	a0,a5,67b2 <sin+0x86>
    6778:	c51d                	beqz	a0,67a6 <sin+0x7a>
    677a:	4502                	lw	a0,0(sp)
    677c:	4592                	lw	a1,4(sp)
    677e:	71a010ef          	jal	ra,7e98 <__kernel_cos>
    6782:	8da1                	xor	a1,a1,s0
    6784:	bfd1                	j	6758 <sin+0x2c>
    6786:	4701                	li	a4,0
    6788:	4601                	li	a2,0
    678a:	4681                	li	a3,0
    678c:	316020ef          	jal	ra,8aa2 <__kernel_sin>
    6790:	40f2                	lw	ra,28(sp)
    6792:	4462                	lw	s0,24(sp)
    6794:	6105                	addi	sp,sp,32
    6796:	8082                	ret
    6798:	4622                	lw	a2,8(sp)
    679a:	46b2                	lw	a3,12(sp)
    679c:	4502                	lw	a0,0(sp)
    679e:	4592                	lw	a1,4(sp)
    67a0:	6f8010ef          	jal	ra,7e98 <__kernel_cos>
    67a4:	bf55                	j	6758 <sin+0x2c>
    67a6:	4502                	lw	a0,0(sp)
    67a8:	4592                	lw	a1,4(sp)
    67aa:	4705                	li	a4,1
    67ac:	2f6020ef          	jal	ra,8aa2 <__kernel_sin>
    67b0:	b765                	j	6758 <sin+0x2c>
    67b2:	4502                	lw	a0,0(sp)
    67b4:	4592                	lw	a1,4(sp)
    67b6:	4705                	li	a4,1
    67b8:	2ea020ef          	jal	ra,8aa2 <__kernel_sin>
    67bc:	8da1                	xor	a1,a1,s0
    67be:	bf69                	j	6758 <sin+0x2c>

000067c0 <atan2>:
    67c0:	a6c5                	j	6ba0 <__ieee754_atan2>

000067c2 <pow>:
    67c2:	711d                	addi	sp,sp,-96
    67c4:	de5e                	sw	s7,60(sp)
    67c6:	81818b93          	addi	s7,gp,-2024 # 20000098 <__fdlib_version>
    67ca:	cca2                	sw	s0,88(sp)
    67cc:	caa6                	sw	s1,84(sp)
    67ce:	c8ca                	sw	s2,80(sp)
    67d0:	c6ce                	sw	s3,76(sp)
    67d2:	c4d2                	sw	s4,72(sp)
    67d4:	c2d6                	sw	s5,68(sp)
    67d6:	c0da                	sw	s6,64(sp)
    67d8:	ce86                	sw	ra,92(sp)
    67da:	892a                	mv	s2,a0
    67dc:	89ae                	mv	s3,a1
    67de:	8432                	mv	s0,a2
    67e0:	84b6                	mv	s1,a3
    67e2:	234d                	jal	6d84 <__ieee754_pow>
    67e4:	000bab03          	lw	s6,0(s7)
    67e8:	57fd                	li	a5,-1
    67ea:	8aaa                	mv	s5,a0
    67ec:	8a2e                	mv	s4,a1
    67ee:	06fb0763          	beq	s6,a5,685c <pow+0x9a>
    67f2:	8622                	mv	a2,s0
    67f4:	86a6                	mv	a3,s1
    67f6:	8522                	mv	a0,s0
    67f8:	85a6                	mv	a1,s1
    67fa:	70e040ef          	jal	ra,af08 <__unorddf2>
    67fe:	ed39                	bnez	a0,685c <pow+0x9a>
    6800:	864a                	mv	a2,s2
    6802:	86ce                	mv	a3,s3
    6804:	854a                	mv	a0,s2
    6806:	85ce                	mv	a1,s3
    6808:	700040ef          	jal	ra,af08 <__unorddf2>
    680c:	4601                	li	a2,0
    680e:	4681                	li	a3,0
    6810:	10051b63          	bnez	a0,6926 <pow+0x164>
    6814:	854a                	mv	a0,s2
    6816:	85ce                	mv	a1,s3
    6818:	12d030ef          	jal	ra,a144 <__eqdf2>
    681c:	ed29                	bnez	a0,6876 <pow+0xb4>
    681e:	4601                	li	a2,0
    6820:	4681                	li	a3,0
    6822:	8522                	mv	a0,s0
    6824:	85a6                	mv	a1,s1
    6826:	11f030ef          	jal	ra,a144 <__eqdf2>
    682a:	e14d                	bnez	a0,68cc <pow+0x10a>
    682c:	4785                	li	a5,1
    682e:	c43e                	sw	a5,8(sp)
    6830:	00007797          	auipc	a5,0x7
    6834:	09078793          	addi	a5,a5,144 # d8c0 <atanlo+0x40>
    6838:	c63e                	sw	a5,12(sp)
    683a:	d402                	sw	zero,40(sp)
    683c:	c84a                	sw	s2,16(sp)
    683e:	ca4e                	sw	s3,20(sp)
    6840:	cc22                	sw	s0,24(sp)
    6842:	ce26                	sw	s1,28(sp)
    6844:	d002                	sw	zero,32(sp)
    6846:	d202                	sw	zero,36(sp)
    6848:	100b0d63          	beqz	s6,6962 <pow+0x1a0>
    684c:	00007797          	auipc	a5,0x7
    6850:	f1c78793          	addi	a5,a5,-228 # d768 <_read+0x1d2>
    6854:	0007aa83          	lw	s5,0(a5)
    6858:	0047aa03          	lw	s4,4(a5)
    685c:	40f6                	lw	ra,92(sp)
    685e:	4466                	lw	s0,88(sp)
    6860:	8556                	mv	a0,s5
    6862:	85d2                	mv	a1,s4
    6864:	44d6                	lw	s1,84(sp)
    6866:	4946                	lw	s2,80(sp)
    6868:	49b6                	lw	s3,76(sp)
    686a:	4a26                	lw	s4,72(sp)
    686c:	4a96                	lw	s5,68(sp)
    686e:	4b06                	lw	s6,64(sp)
    6870:	5bf2                	lw	s7,60(sp)
    6872:	6125                	addi	sp,sp,96
    6874:	8082                	ret
    6876:	8556                	mv	a0,s5
    6878:	85d2                	mv	a1,s4
    687a:	3c2020ef          	jal	ra,8c3c <finite>
    687e:	0e050f63          	beqz	a0,697c <pow+0x1ba>
    6882:	8556                	mv	a0,s5
    6884:	85d2                	mv	a1,s4
    6886:	4601                	li	a2,0
    6888:	4681                	li	a3,0
    688a:	0bb030ef          	jal	ra,a144 <__eqdf2>
    688e:	f579                	bnez	a0,685c <pow+0x9a>
    6890:	854a                	mv	a0,s2
    6892:	85ce                	mv	a1,s3
    6894:	3a8020ef          	jal	ra,8c3c <finite>
    6898:	d171                	beqz	a0,685c <pow+0x9a>
    689a:	8522                	mv	a0,s0
    689c:	85a6                	mv	a1,s1
    689e:	39e020ef          	jal	ra,8c3c <finite>
    68a2:	dd4d                	beqz	a0,685c <pow+0x9a>
    68a4:	4791                	li	a5,4
    68a6:	000ba703          	lw	a4,0(s7)
    68aa:	c43e                	sw	a5,8(sp)
    68ac:	00007797          	auipc	a5,0x7
    68b0:	01478793          	addi	a5,a5,20 # d8c0 <atanlo+0x40>
    68b4:	c63e                	sw	a5,12(sp)
    68b6:	d402                	sw	zero,40(sp)
    68b8:	c84a                	sw	s2,16(sp)
    68ba:	ca4e                	sw	s3,20(sp)
    68bc:	cc22                	sw	s0,24(sp)
    68be:	ce26                	sw	s1,28(sp)
    68c0:	d002                	sw	zero,32(sp)
    68c2:	d202                	sw	zero,36(sp)
    68c4:	4789                	li	a5,2
    68c6:	12f71b63          	bne	a4,a5,69fc <pow+0x23a>
    68ca:	aa35                	j	6a06 <pow+0x244>
    68cc:	8522                	mv	a0,s0
    68ce:	85a6                	mv	a1,s1
    68d0:	36c020ef          	jal	ra,8c3c <finite>
    68d4:	d541                	beqz	a0,685c <pow+0x9a>
    68d6:	4601                	li	a2,0
    68d8:	4681                	li	a3,0
    68da:	8522                	mv	a0,s0
    68dc:	85a6                	mv	a1,s1
    68de:	17f030ef          	jal	ra,a25c <__ledf2>
    68e2:	f6055de3          	bgez	a0,685c <pow+0x9a>
    68e6:	4705                	li	a4,1
    68e8:	000ba783          	lw	a5,0(s7)
    68ec:	c43a                	sw	a4,8(sp)
    68ee:	00007717          	auipc	a4,0x7
    68f2:	fd270713          	addi	a4,a4,-46 # d8c0 <atanlo+0x40>
    68f6:	c63a                	sw	a4,12(sp)
    68f8:	d402                	sw	zero,40(sp)
    68fa:	c84a                	sw	s2,16(sp)
    68fc:	ca4e                	sw	s3,20(sp)
    68fe:	cc22                	sw	s0,24(sp)
    6900:	ce26                	sw	s1,28(sp)
    6902:	10079863          	bnez	a5,6a12 <pow+0x250>
    6906:	d002                	sw	zero,32(sp)
    6908:	d202                	sw	zero,36(sp)
    690a:	0028                	addi	a0,sp,8
    690c:	490020ef          	jal	ra,8d9c <matherr>
    6910:	10050c63          	beqz	a0,6a28 <pow+0x266>
    6914:	57a2                	lw	a5,40(sp)
    6916:	c789                	beqz	a5,6920 <pow+0x15e>
    6918:	117050ef          	jal	ra,c22e <__errno>
    691c:	57a2                	lw	a5,40(sp)
    691e:	c11c                	sw	a5,0(a0)
    6920:	5a82                	lw	s5,32(sp)
    6922:	5a12                	lw	s4,36(sp)
    6924:	bf25                	j	685c <pow+0x9a>
    6926:	8522                	mv	a0,s0
    6928:	85a6                	mv	a1,s1
    692a:	01b030ef          	jal	ra,a144 <__eqdf2>
    692e:	f51d                	bnez	a0,685c <pow+0x9a>
    6930:	00007797          	auipc	a5,0x7
    6934:	e3878793          	addi	a5,a5,-456 # d768 <_read+0x1d2>
    6938:	0047aa03          	lw	s4,4(a5)
    693c:	0007aa83          	lw	s5,0(a5)
    6940:	4685                	li	a3,1
    6942:	c436                	sw	a3,8(sp)
    6944:	00007697          	auipc	a3,0x7
    6948:	f7c68693          	addi	a3,a3,-132 # d8c0 <atanlo+0x40>
    694c:	c636                	sw	a3,12(sp)
    694e:	d402                	sw	zero,40(sp)
    6950:	c84a                	sw	s2,16(sp)
    6952:	ca4e                	sw	s3,20(sp)
    6954:	cc22                	sw	s0,24(sp)
    6956:	ce26                	sw	s1,28(sp)
    6958:	d056                	sw	s5,32(sp)
    695a:	d252                	sw	s4,36(sp)
    695c:	4789                	li	a5,2
    695e:	eefb0fe3          	beq	s6,a5,685c <pow+0x9a>
    6962:	0028                	addi	a0,sp,8
    6964:	438020ef          	jal	ra,8d9c <matherr>
    6968:	c571                	beqz	a0,6a34 <pow+0x272>
    696a:	57a2                	lw	a5,40(sp)
    696c:	dbd5                	beqz	a5,6920 <pow+0x15e>
    696e:	0c1050ef          	jal	ra,c22e <__errno>
    6972:	57a2                	lw	a5,40(sp)
    6974:	5a82                	lw	s5,32(sp)
    6976:	5a12                	lw	s4,36(sp)
    6978:	c11c                	sw	a5,0(a0)
    697a:	b5cd                	j	685c <pow+0x9a>
    697c:	854a                	mv	a0,s2
    697e:	85ce                	mv	a1,s3
    6980:	2bc020ef          	jal	ra,8c3c <finite>
    6984:	ee050fe3          	beqz	a0,6882 <pow+0xc0>
    6988:	8522                	mv	a0,s0
    698a:	85a6                	mv	a1,s1
    698c:	2b0020ef          	jal	ra,8c3c <finite>
    6990:	ee0509e3          	beqz	a0,6882 <pow+0xc0>
    6994:	86d2                	mv	a3,s4
    6996:	85d2                	mv	a1,s4
    6998:	8656                	mv	a2,s5
    699a:	8556                	mv	a0,s5
    699c:	000baa03          	lw	s4,0(s7)
    69a0:	568040ef          	jal	ra,af08 <__unorddf2>
    69a4:	10051763          	bnez	a0,6ab2 <pow+0x2f0>
    69a8:	00007797          	auipc	a5,0x7
    69ac:	d5078793          	addi	a5,a5,-688 # d6f8 <_read+0x162>
    69b0:	4390                	lw	a2,0(a5)
    69b2:	43d4                	lw	a3,4(a5)
    69b4:	478d                	li	a5,3
    69b6:	8522                	mv	a0,s0
    69b8:	85a6                	mv	a1,s1
    69ba:	c43e                	sw	a5,8(sp)
    69bc:	00007797          	auipc	a5,0x7
    69c0:	f0478793          	addi	a5,a5,-252 # d8c0 <atanlo+0x40>
    69c4:	cc22                	sw	s0,24(sp)
    69c6:	ce26                	sw	s1,28(sp)
    69c8:	c63e                	sw	a5,12(sp)
    69ca:	d402                	sw	zero,40(sp)
    69cc:	c84a                	sw	s2,16(sp)
    69ce:	ca4e                	sw	s3,20(sp)
    69d0:	143030ef          	jal	ra,a312 <__muldf3>
    69d4:	842a                	mv	s0,a0
    69d6:	84ae                	mv	s1,a1
    69d8:	060a1463          	bnez	s4,6a40 <pow+0x27e>
    69dc:	00007797          	auipc	a5,0x7
    69e0:	ecc78793          	addi	a5,a5,-308 # d8a8 <atanlo+0x28>
    69e4:	4398                	lw	a4,0(a5)
    69e6:	43dc                	lw	a5,4(a5)
    69e8:	4601                	li	a2,0
    69ea:	4681                	li	a3,0
    69ec:	854a                	mv	a0,s2
    69ee:	85ce                	mv	a1,s3
    69f0:	d03a                	sw	a4,32(sp)
    69f2:	d23e                	sw	a5,36(sp)
    69f4:	069030ef          	jal	ra,a25c <__ledf2>
    69f8:	06054863          	bltz	a0,6a68 <pow+0x2a6>
    69fc:	0028                	addi	a0,sp,8
    69fe:	39e020ef          	jal	ra,8d9c <matherr>
    6a02:	f00519e3          	bnez	a0,6914 <pow+0x152>
    6a06:	029050ef          	jal	ra,c22e <__errno>
    6a0a:	02200793          	li	a5,34
    6a0e:	c11c                	sw	a5,0(a0)
    6a10:	b711                	j	6914 <pow+0x152>
    6a12:	00007697          	auipc	a3,0x7
    6a16:	e8e68693          	addi	a3,a3,-370 # d8a0 <atanlo+0x20>
    6a1a:	4290                	lw	a2,0(a3)
    6a1c:	42d4                	lw	a3,4(a3)
    6a1e:	4709                	li	a4,2
    6a20:	d032                	sw	a2,32(sp)
    6a22:	d236                	sw	a3,36(sp)
    6a24:	eee793e3          	bne	a5,a4,690a <pow+0x148>
    6a28:	007050ef          	jal	ra,c22e <__errno>
    6a2c:	02100793          	li	a5,33
    6a30:	c11c                	sw	a5,0(a0)
    6a32:	b5cd                	j	6914 <pow+0x152>
    6a34:	7fa050ef          	jal	ra,c22e <__errno>
    6a38:	02100793          	li	a5,33
    6a3c:	c11c                	sw	a5,0(a0)
    6a3e:	b735                	j	696a <pow+0x1a8>
    6a40:	00007797          	auipc	a5,0x7
    6a44:	e7878793          	addi	a5,a5,-392 # d8b8 <atanlo+0x38>
    6a48:	4398                	lw	a4,0(a5)
    6a4a:	43dc                	lw	a5,4(a5)
    6a4c:	4601                	li	a2,0
    6a4e:	4681                	li	a3,0
    6a50:	854a                	mv	a0,s2
    6a52:	85ce                	mv	a1,s3
    6a54:	d03a                	sw	a4,32(sp)
    6a56:	d23e                	sw	a5,36(sp)
    6a58:	005030ef          	jal	ra,a25c <__ledf2>
    6a5c:	02054a63          	bltz	a0,6a90 <pow+0x2ce>
    6a60:	4789                	li	a5,2
    6a62:	fafa02e3          	beq	s4,a5,6a06 <pow+0x244>
    6a66:	bf59                	j	69fc <pow+0x23a>
    6a68:	8522                	mv	a0,s0
    6a6a:	85a6                	mv	a1,s1
    6a6c:	342020ef          	jal	ra,8dae <rint>
    6a70:	8622                	mv	a2,s0
    6a72:	86a6                	mv	a3,s1
    6a74:	6d0030ef          	jal	ra,a144 <__eqdf2>
    6a78:	c915                	beqz	a0,6aac <pow+0x2ea>
    6a7a:	00007797          	auipc	a5,0x7
    6a7e:	e3678793          	addi	a5,a5,-458 # d8b0 <atanlo+0x30>
    6a82:	4398                	lw	a4,0(a5)
    6a84:	43dc                	lw	a5,4(a5)
    6a86:	000baa03          	lw	s4,0(s7)
    6a8a:	d03a                	sw	a4,32(sp)
    6a8c:	d23e                	sw	a5,36(sp)
    6a8e:	bfc9                	j	6a60 <pow+0x29e>
    6a90:	8522                	mv	a0,s0
    6a92:	85a6                	mv	a1,s1
    6a94:	31a020ef          	jal	ra,8dae <rint>
    6a98:	8622                	mv	a2,s0
    6a9a:	86a6                	mv	a3,s1
    6a9c:	6a8030ef          	jal	ra,a144 <__eqdf2>
    6aa0:	c511                	beqz	a0,6aac <pow+0x2ea>
    6aa2:	00007797          	auipc	a5,0x7
    6aa6:	dfe78793          	addi	a5,a5,-514 # d8a0 <atanlo+0x20>
    6aaa:	bfe1                	j	6a82 <pow+0x2c0>
    6aac:	000baa03          	lw	s4,0(s7)
    6ab0:	bf45                	j	6a60 <pow+0x29e>
    6ab2:	4785                	li	a5,1
    6ab4:	c43e                	sw	a5,8(sp)
    6ab6:	00007797          	auipc	a5,0x7
    6aba:	e0a78793          	addi	a5,a5,-502 # d8c0 <atanlo+0x40>
    6abe:	c63e                	sw	a5,12(sp)
    6ac0:	d402                	sw	zero,40(sp)
    6ac2:	c84a                	sw	s2,16(sp)
    6ac4:	ca4e                	sw	s3,20(sp)
    6ac6:	cc22                	sw	s0,24(sp)
    6ac8:	ce26                	sw	s1,28(sp)
    6aca:	e20a0ee3          	beqz	s4,6906 <pow+0x144>
    6ace:	4601                	li	a2,0
    6ad0:	4681                	li	a3,0
    6ad2:	8532                	mv	a0,a2
    6ad4:	85b6                	mv	a1,a3
    6ad6:	0ba030ef          	jal	ra,9b90 <__divdf3>
    6ada:	d02a                	sw	a0,32(sp)
    6adc:	d22e                	sw	a1,36(sp)
    6ade:	4789                	li	a5,2
    6ae0:	f4fa04e3          	beq	s4,a5,6a28 <pow+0x266>
    6ae4:	b51d                	j	690a <pow+0x148>

00006ae6 <sqrt>:
    6ae6:	715d                	addi	sp,sp,-80
    6ae8:	c4a2                	sw	s0,72(sp)
    6aea:	c2a6                	sw	s1,68(sp)
    6aec:	c0ca                	sw	s2,64(sp)
    6aee:	de52                	sw	s4,60(sp)
    6af0:	dc56                	sw	s5,56(sp)
    6af2:	c686                	sw	ra,76(sp)
    6af4:	842a                	mv	s0,a0
    6af6:	84ae                	mv	s1,a1
    6af8:	1ca010ef          	jal	ra,7cc2 <__ieee754_sqrt>
    6afc:	81818793          	addi	a5,gp,-2024 # 20000098 <__fdlib_version>
    6b00:	0007a903          	lw	s2,0(a5)
    6b04:	57fd                	li	a5,-1
    6b06:	8a2a                	mv	s4,a0
    6b08:	8aae                	mv	s5,a1
    6b0a:	02f90163          	beq	s2,a5,6b2c <sqrt+0x46>
    6b0e:	8622                	mv	a2,s0
    6b10:	86a6                	mv	a3,s1
    6b12:	8522                	mv	a0,s0
    6b14:	85a6                	mv	a1,s1
    6b16:	3f2040ef          	jal	ra,af08 <__unorddf2>
    6b1a:	e909                	bnez	a0,6b2c <sqrt+0x46>
    6b1c:	4601                	li	a2,0
    6b1e:	4681                	li	a3,0
    6b20:	8522                	mv	a0,s0
    6b22:	85a6                	mv	a1,s1
    6b24:	738030ef          	jal	ra,a25c <__ledf2>
    6b28:	00054c63          	bltz	a0,6b40 <sqrt+0x5a>
    6b2c:	40b6                	lw	ra,76(sp)
    6b2e:	4426                	lw	s0,72(sp)
    6b30:	8552                	mv	a0,s4
    6b32:	85d6                	mv	a1,s5
    6b34:	4496                	lw	s1,68(sp)
    6b36:	4906                	lw	s2,64(sp)
    6b38:	5a72                	lw	s4,60(sp)
    6b3a:	5ae2                	lw	s5,56(sp)
    6b3c:	6161                	addi	sp,sp,80
    6b3e:	8082                	ret
    6b40:	4785                	li	a5,1
    6b42:	c43e                	sw	a5,8(sp)
    6b44:	00007797          	auipc	a5,0x7
    6b48:	d8078793          	addi	a5,a5,-640 # d8c4 <atanlo+0x44>
    6b4c:	c63e                	sw	a5,12(sp)
    6b4e:	d402                	sw	zero,40(sp)
    6b50:	cc22                	sw	s0,24(sp)
    6b52:	ce26                	sw	s1,28(sp)
    6b54:	c822                	sw	s0,16(sp)
    6b56:	ca26                	sw	s1,20(sp)
    6b58:	02090763          	beqz	s2,6b86 <sqrt+0xa0>
    6b5c:	4601                	li	a2,0
    6b5e:	4681                	li	a3,0
    6b60:	8532                	mv	a0,a2
    6b62:	85b6                	mv	a1,a3
    6b64:	02c030ef          	jal	ra,9b90 <__divdf3>
    6b68:	d02a                	sw	a0,32(sp)
    6b6a:	d22e                	sw	a1,36(sp)
    6b6c:	4789                	li	a5,2
    6b6e:	00f91e63          	bne	s2,a5,6b8a <sqrt+0xa4>
    6b72:	6bc050ef          	jal	ra,c22e <__errno>
    6b76:	02100793          	li	a5,33
    6b7a:	c11c                	sw	a5,0(a0)
    6b7c:	57a2                	lw	a5,40(sp)
    6b7e:	ef81                	bnez	a5,6b96 <sqrt+0xb0>
    6b80:	5a02                	lw	s4,32(sp)
    6b82:	5a92                	lw	s5,36(sp)
    6b84:	b765                	j	6b2c <sqrt+0x46>
    6b86:	d002                	sw	zero,32(sp)
    6b88:	d202                	sw	zero,36(sp)
    6b8a:	0028                	addi	a0,sp,8
    6b8c:	210020ef          	jal	ra,8d9c <matherr>
    6b90:	d16d                	beqz	a0,6b72 <sqrt+0x8c>
    6b92:	57a2                	lw	a5,40(sp)
    6b94:	d7f5                	beqz	a5,6b80 <sqrt+0x9a>
    6b96:	698050ef          	jal	ra,c22e <__errno>
    6b9a:	57a2                	lw	a5,40(sp)
    6b9c:	c11c                	sw	a5,0(a0)
    6b9e:	b7cd                	j	6b80 <sqrt+0x9a>

00006ba0 <__ieee754_atan2>:
    6ba0:	40c007b3          	neg	a5,a2
    6ba4:	80000737          	lui	a4,0x80000
    6ba8:	fff74713          	not	a4,a4
    6bac:	8fd1                	or	a5,a5,a2
    6bae:	1141                	addi	sp,sp,-16
    6bb0:	00d77e33          	and	t3,a4,a3
    6bb4:	83fd                	srli	a5,a5,0x1f
    6bb6:	c606                	sw	ra,12(sp)
    6bb8:	c422                	sw	s0,8(sp)
    6bba:	01c7e7b3          	or	a5,a5,t3
    6bbe:	7ff00337          	lui	t1,0x7ff00
    6bc2:	88aa                	mv	a7,a0
    6bc4:	882e                	mv	a6,a1
    6bc6:	04f36763          	bltu	t1,a5,6c14 <__ieee754_atan2+0x74>
    6bca:	40a007b3          	neg	a5,a0
    6bce:	8fc9                	or	a5,a5,a0
    6bd0:	8f6d                	and	a4,a4,a1
    6bd2:	83fd                	srli	a5,a5,0x1f
    6bd4:	8fd9                	or	a5,a5,a4
    6bd6:	8f2e                	mv	t5,a1
    6bd8:	02f36e63          	bltu	t1,a5,6c14 <__ieee754_atan2+0x74>
    6bdc:	c01007b7          	lui	a5,0xc0100
    6be0:	97b6                	add	a5,a5,a3
    6be2:	8fd1                	or	a5,a5,a2
    6be4:	c7f1                	beqz	a5,6cb0 <__ieee754_atan2+0x110>
    6be6:	41e6d413          	srai	s0,a3,0x1e
    6bea:	00247593          	andi	a1,s0,2
    6bee:	00a767b3          	or	a5,a4,a0
    6bf2:	01f85413          	srli	s0,a6,0x1f
    6bf6:	8c4d                	or	s0,s0,a1
    6bf8:	eb85                	bnez	a5,6c28 <__ieee754_atan2+0x88>
    6bfa:	4789                	li	a5,2
    6bfc:	0af40f63          	beq	s0,a5,6cba <__ieee754_atan2+0x11a>
    6c00:	478d                	li	a5,3
    6c02:	0af41263          	bne	s0,a5,6ca6 <__ieee754_atan2+0x106>
    6c06:	00007797          	auipc	a5,0x7
    6c0a:	cd278793          	addi	a5,a5,-814 # d8d8 <atanlo+0x58>
    6c0e:	4388                	lw	a0,0(a5)
    6c10:	43cc                	lw	a1,4(a5)
    6c12:	a039                	j	6c20 <__ieee754_atan2+0x80>
    6c14:	8532                	mv	a0,a2
    6c16:	85b6                	mv	a1,a3
    6c18:	8646                	mv	a2,a7
    6c1a:	86c2                	mv	a3,a6
    6c1c:	045020ef          	jal	ra,9460 <__adddf3>
    6c20:	40b2                	lw	ra,12(sp)
    6c22:	4422                	lw	s0,8(sp)
    6c24:	0141                	addi	sp,sp,16
    6c26:	8082                	ret
    6c28:	00ce67b3          	or	a5,t3,a2
    6c2c:	c7a5                	beqz	a5,6c94 <__ieee754_atan2+0xf4>
    6c2e:	0a6e0463          	beq	t3,t1,6cd6 <__ieee754_atan2+0x136>
    6c32:	06670163          	beq	a4,t1,6c94 <__ieee754_atan2+0xf4>
    6c36:	41c70733          	sub	a4,a4,t3
    6c3a:	8751                	srai	a4,a4,0x14
    6c3c:	03c00793          	li	a5,60
    6c40:	08e7c463          	blt	a5,a4,6cc8 <__ieee754_atan2+0x128>
    6c44:	0006d863          	bgez	a3,6c54 <__ieee754_atan2+0xb4>
    6c48:	fc400793          	li	a5,-60
    6c4c:	4501                	li	a0,0
    6c4e:	4581                	li	a1,0
    6c50:	00f74a63          	blt	a4,a5,6c64 <__ieee754_atan2+0xc4>
    6c54:	8546                	mv	a0,a7
    6c56:	85c2                	mv	a1,a6
    6c58:	739020ef          	jal	ra,9b90 <__divdf3>
    6c5c:	acbff0ef          	jal	ra,6726 <fabs>
    6c60:	efaff0ef          	jal	ra,635a <atan>
    6c64:	4785                	li	a5,1
    6c66:	0cf40063          	beq	s0,a5,6d26 <__ieee754_atan2+0x186>
    6c6a:	4789                	li	a5,2
    6c6c:	08f40a63          	beq	s0,a5,6d00 <__ieee754_atan2+0x160>
    6c70:	d845                	beqz	s0,6c20 <__ieee754_atan2+0x80>
    6c72:	00007797          	auipc	a5,0x7
    6c76:	c9678793          	addi	a5,a5,-874 # d908 <atanlo+0x88>
    6c7a:	4390                	lw	a2,0(a5)
    6c7c:	43d4                	lw	a3,4(a5)
    6c7e:	34d030ef          	jal	ra,a7ca <__subdf3>
    6c82:	00007797          	auipc	a5,0x7
    6c86:	c4e78793          	addi	a5,a5,-946 # d8d0 <atanlo+0x50>
    6c8a:	4390                	lw	a2,0(a5)
    6c8c:	43d4                	lw	a3,4(a5)
    6c8e:	33d030ef          	jal	ra,a7ca <__subdf3>
    6c92:	b779                	j	6c20 <__ieee754_atan2+0x80>
    6c94:	040f4f63          	bltz	t5,6cf2 <__ieee754_atan2+0x152>
    6c98:	00007797          	auipc	a5,0x7
    6c9c:	b4078793          	addi	a5,a5,-1216 # d7d8 <_read+0x242>
    6ca0:	4388                	lw	a0,0(a5)
    6ca2:	43cc                	lw	a1,4(a5)
    6ca4:	bfb5                	j	6c20 <__ieee754_atan2+0x80>
    6ca6:	40b2                	lw	ra,12(sp)
    6ca8:	4422                	lw	s0,8(sp)
    6caa:	85c2                	mv	a1,a6
    6cac:	0141                	addi	sp,sp,16
    6cae:	8082                	ret
    6cb0:	4422                	lw	s0,8(sp)
    6cb2:	40b2                	lw	ra,12(sp)
    6cb4:	0141                	addi	sp,sp,16
    6cb6:	ea4ff06f          	j	635a <atan>
    6cba:	00007797          	auipc	a5,0x7
    6cbe:	c1678793          	addi	a5,a5,-1002 # d8d0 <atanlo+0x50>
    6cc2:	4388                	lw	a0,0(a5)
    6cc4:	43cc                	lw	a1,4(a5)
    6cc6:	bfa9                	j	6c20 <__ieee754_atan2+0x80>
    6cc8:	00007797          	auipc	a5,0x7
    6ccc:	b1078793          	addi	a5,a5,-1264 # d7d8 <_read+0x242>
    6cd0:	4388                	lw	a0,0(a5)
    6cd2:	43cc                	lw	a1,4(a5)
    6cd4:	bf41                	j	6c64 <__ieee754_atan2+0xc4>
    6cd6:	4789                	li	a5,2
    6cd8:	05c70b63          	beq	a4,t3,6d2e <__ieee754_atan2+0x18e>
    6cdc:	fcf40fe3          	beq	s0,a5,6cba <__ieee754_atan2+0x11a>
    6ce0:	478d                	li	a5,3
    6ce2:	f2f402e3          	beq	s0,a5,6c06 <__ieee754_atan2+0x66>
    6ce6:	4785                	li	a5,1
    6ce8:	06f40263          	beq	s0,a5,6d4c <__ieee754_atan2+0x1ac>
    6cec:	4501                	li	a0,0
    6cee:	4581                	li	a1,0
    6cf0:	bf05                	j	6c20 <__ieee754_atan2+0x80>
    6cf2:	00007797          	auipc	a5,0x7
    6cf6:	aee78793          	addi	a5,a5,-1298 # d7e0 <_read+0x24a>
    6cfa:	4388                	lw	a0,0(a5)
    6cfc:	43cc                	lw	a1,4(a5)
    6cfe:	b70d                	j	6c20 <__ieee754_atan2+0x80>
    6d00:	00007797          	auipc	a5,0x7
    6d04:	c0878793          	addi	a5,a5,-1016 # d908 <atanlo+0x88>
    6d08:	4390                	lw	a2,0(a5)
    6d0a:	43d4                	lw	a3,4(a5)
    6d0c:	2bf030ef          	jal	ra,a7ca <__subdf3>
    6d10:	00007797          	auipc	a5,0x7
    6d14:	bc078793          	addi	a5,a5,-1088 # d8d0 <atanlo+0x50>
    6d18:	862a                	mv	a2,a0
    6d1a:	86ae                	mv	a3,a1
    6d1c:	4388                	lw	a0,0(a5)
    6d1e:	43cc                	lw	a1,4(a5)
    6d20:	2ab030ef          	jal	ra,a7ca <__subdf3>
    6d24:	bdf5                	j	6c20 <__ieee754_atan2+0x80>
    6d26:	800007b7          	lui	a5,0x80000
    6d2a:	8dbd                	xor	a1,a1,a5
    6d2c:	bdd5                	j	6c20 <__ieee754_atan2+0x80>
    6d2e:	04f40463          	beq	s0,a5,6d76 <__ieee754_atan2+0x1d6>
    6d32:	478d                	li	a5,3
    6d34:	02f40a63          	beq	s0,a5,6d68 <__ieee754_atan2+0x1c8>
    6d38:	4785                	li	a5,1
    6d3a:	02f40063          	beq	s0,a5,6d5a <__ieee754_atan2+0x1ba>
    6d3e:	00007797          	auipc	a5,0x7
    6d42:	bba78793          	addi	a5,a5,-1094 # d8f8 <atanlo+0x78>
    6d46:	4388                	lw	a0,0(a5)
    6d48:	43cc                	lw	a1,4(a5)
    6d4a:	bdd9                	j	6c20 <__ieee754_atan2+0x80>
    6d4c:	00007797          	auipc	a5,0x7
    6d50:	b9478793          	addi	a5,a5,-1132 # d8e0 <atanlo+0x60>
    6d54:	4388                	lw	a0,0(a5)
    6d56:	43cc                	lw	a1,4(a5)
    6d58:	b5e1                	j	6c20 <__ieee754_atan2+0x80>
    6d5a:	00007797          	auipc	a5,0x7
    6d5e:	ba678793          	addi	a5,a5,-1114 # d900 <atanlo+0x80>
    6d62:	4388                	lw	a0,0(a5)
    6d64:	43cc                	lw	a1,4(a5)
    6d66:	bd6d                	j	6c20 <__ieee754_atan2+0x80>
    6d68:	00007797          	auipc	a5,0x7
    6d6c:	b8878793          	addi	a5,a5,-1144 # d8f0 <atanlo+0x70>
    6d70:	4388                	lw	a0,0(a5)
    6d72:	43cc                	lw	a1,4(a5)
    6d74:	b575                	j	6c20 <__ieee754_atan2+0x80>
    6d76:	00007797          	auipc	a5,0x7
    6d7a:	b7278793          	addi	a5,a5,-1166 # d8e8 <atanlo+0x68>
    6d7e:	4388                	lw	a0,0(a5)
    6d80:	43cc                	lw	a1,4(a5)
    6d82:	bd79                	j	6c20 <__ieee754_atan2+0x80>

00006d84 <__ieee754_pow>:
    6d84:	80000837          	lui	a6,0x80000
    6d88:	7119                	addi	sp,sp,-128
    6d8a:	fff84813          	not	a6,a6
    6d8e:	d8ca                	sw	s2,112(sp)
    6d90:	0106f933          	and	s2,a3,a6
    6d94:	de86                	sw	ra,124(sp)
    6d96:	dca2                	sw	s0,120(sp)
    6d98:	daa6                	sw	s1,116(sp)
    6d9a:	d6ce                	sw	s3,108(sp)
    6d9c:	d4d2                	sw	s4,104(sp)
    6d9e:	d2d6                	sw	s5,100(sp)
    6da0:	d0da                	sw	s6,96(sp)
    6da2:	cede                	sw	s7,92(sp)
    6da4:	cce2                	sw	s8,88(sp)
    6da6:	cae6                	sw	s9,84(sp)
    6da8:	c8ea                	sw	s10,80(sp)
    6daa:	c6ee                	sw	s11,76(sp)
    6dac:	00c967b3          	or	a5,s2,a2
    6db0:	c7dd                	beqz	a5,6e5e <__ieee754_pow+0xda>
    6db2:	00b87433          	and	s0,a6,a1
    6db6:	7ff007b7          	lui	a5,0x7ff00
    6dba:	8aae                	mv	s5,a1
    6dbc:	8a2a                	mv	s4,a0
    6dbe:	0287db63          	bge	a5,s0,6df4 <__ieee754_pow+0x70>
    6dc2:	c0100837          	lui	a6,0xc0100
    6dc6:	9822                	add	a6,a6,s0
    6dc8:	00a86833          	or	a6,a6,a0
    6dcc:	3ff005b7          	lui	a1,0x3ff00
    6dd0:	4501                	li	a0,0
    6dd2:	08081d63          	bnez	a6,6e6c <__ieee754_pow+0xe8>
    6dd6:	50f6                	lw	ra,124(sp)
    6dd8:	5466                	lw	s0,120(sp)
    6dda:	54d6                	lw	s1,116(sp)
    6ddc:	5946                	lw	s2,112(sp)
    6dde:	59b6                	lw	s3,108(sp)
    6de0:	5a26                	lw	s4,104(sp)
    6de2:	5a96                	lw	s5,100(sp)
    6de4:	5b06                	lw	s6,96(sp)
    6de6:	4bf6                	lw	s7,92(sp)
    6de8:	4c66                	lw	s8,88(sp)
    6dea:	4cd6                	lw	s9,84(sp)
    6dec:	4d46                	lw	s10,80(sp)
    6dee:	4db6                	lw	s11,76(sp)
    6df0:	6109                	addi	sp,sp,128
    6df2:	8082                	ret
    6df4:	06f40963          	beq	s0,a5,6e66 <__ieee754_pow+0xe2>
    6df8:	fd27c5e3          	blt	a5,s2,6dc2 <__ieee754_pow+0x3e>
    6dfc:	7ff007b7          	lui	a5,0x7ff00
    6e00:	1af90f63          	beq	s2,a5,6fbe <__ieee754_pow+0x23a>
    6e04:	84ae                	mv	s1,a1
    6e06:	89aa                	mv	s3,a0
    6e08:	8cb2                	mv	s9,a2
    6e0a:	8db6                	mv	s11,a3
    6e0c:	4d01                	li	s10,0
    6e0e:	080ac363          	bltz	s5,6e94 <__ieee754_pow+0x110>
    6e12:	0c0c9063          	bnez	s9,6ed2 <__ieee754_pow+0x14e>
    6e16:	7ff006b7          	lui	a3,0x7ff00
    6e1a:	14d90163          	beq	s2,a3,6f5c <__ieee754_pow+0x1d8>
    6e1e:	3ff006b7          	lui	a3,0x3ff00
    6e22:	14d90f63          	beq	s2,a3,6f80 <__ieee754_pow+0x1fc>
    6e26:	400006b7          	lui	a3,0x40000
    6e2a:	18dd84e3          	beq	s11,a3,77b2 <__ieee754_pow+0xa2e>
    6e2e:	3fe006b7          	lui	a3,0x3fe00
    6e32:	0add9063          	bne	s11,a3,6ed2 <__ieee754_pow+0x14e>
    6e36:	080ace63          	bltz	s5,6ed2 <__ieee754_pow+0x14e>
    6e3a:	5466                	lw	s0,120(sp)
    6e3c:	50f6                	lw	ra,124(sp)
    6e3e:	5946                	lw	s2,112(sp)
    6e40:	5a26                	lw	s4,104(sp)
    6e42:	5a96                	lw	s5,100(sp)
    6e44:	5b06                	lw	s6,96(sp)
    6e46:	4bf6                	lw	s7,92(sp)
    6e48:	4c66                	lw	s8,88(sp)
    6e4a:	4cd6                	lw	s9,84(sp)
    6e4c:	4d46                	lw	s10,80(sp)
    6e4e:	4db6                	lw	s11,76(sp)
    6e50:	854e                	mv	a0,s3
    6e52:	85a6                	mv	a1,s1
    6e54:	59b6                	lw	s3,108(sp)
    6e56:	54d6                	lw	s1,116(sp)
    6e58:	6109                	addi	sp,sp,128
    6e5a:	6690006f          	j	7cc2 <__ieee754_sqrt>
    6e5e:	4501                	li	a0,0
    6e60:	3ff005b7          	lui	a1,0x3ff00
    6e64:	bf8d                	j	6dd6 <__ieee754_pow+0x52>
    6e66:	e119                	bnez	a0,6e6c <__ieee754_pow+0xe8>
    6e68:	f9245ae3          	bge	s0,s2,6dfc <__ieee754_pow+0x78>
    6e6c:	5466                	lw	s0,120(sp)
    6e6e:	50f6                	lw	ra,124(sp)
    6e70:	54d6                	lw	s1,116(sp)
    6e72:	5946                	lw	s2,112(sp)
    6e74:	59b6                	lw	s3,108(sp)
    6e76:	5a26                	lw	s4,104(sp)
    6e78:	5a96                	lw	s5,100(sp)
    6e7a:	5b06                	lw	s6,96(sp)
    6e7c:	4bf6                	lw	s7,92(sp)
    6e7e:	4c66                	lw	s8,88(sp)
    6e80:	4cd6                	lw	s9,84(sp)
    6e82:	4d46                	lw	s10,80(sp)
    6e84:	4db6                	lw	s11,76(sp)
    6e86:	00006517          	auipc	a0,0x6
    6e8a:	77650513          	addi	a0,a0,1910 # d5fc <_read+0x66>
    6e8e:	6109                	addi	sp,sp,128
    6e90:	7110106f          	j	8da0 <nan>
    6e94:	434006b7          	lui	a3,0x43400
    6e98:	12d95663          	bge	s2,a3,6fc4 <__ieee754_pow+0x240>
    6e9c:	3ff006b7          	lui	a3,0x3ff00
    6ea0:	02d94763          	blt	s2,a3,6ece <__ieee754_pow+0x14a>
    6ea4:	41495693          	srai	a3,s2,0x14
    6ea8:	c0168693          	addi	a3,a3,-1023 # 3feffc01 <__freertos_irq_stack_top+0x1fefac01>
    6eac:	4651                	li	a2,20
    6eae:	10d65ae3          	bge	a2,a3,77c2 <__ieee754_pow+0xa3e>
    6eb2:	03400613          	li	a2,52
    6eb6:	40d606b3          	sub	a3,a2,a3
    6eba:	00dcd633          	srl	a2,s9,a3
    6ebe:	00d616b3          	sll	a3,a2,a3
    6ec2:	01969663          	bne	a3,s9,6ece <__ieee754_pow+0x14a>
    6ec6:	8a05                	andi	a2,a2,1
    6ec8:	4309                	li	t1,2
    6eca:	40c30d33          	sub	s10,t1,a2
    6ece:	f40c88e3          	beqz	s9,6e1e <__ieee754_pow+0x9a>
    6ed2:	854e                	mv	a0,s3
    6ed4:	85a6                	mv	a1,s1
    6ed6:	851ff0ef          	jal	ra,6726 <fabs>
    6eda:	040a0563          	beqz	s4,6f24 <__ieee754_pow+0x1a0>
    6ede:	01f4de13          	srli	t3,s1,0x1f
    6ee2:	1e7d                	addi	t3,t3,-1
    6ee4:	01cd66b3          	or	a3,s10,t3
    6ee8:	c2e5                	beqz	a3,6fc8 <__ieee754_pow+0x244>
    6eea:	41e006b7          	lui	a3,0x41e00
    6eee:	0f26d863          	bge	a3,s2,6fde <__ieee754_pow+0x25a>
    6ef2:	43f006b7          	lui	a3,0x43f00
    6ef6:	7b26d963          	bge	a3,s2,76a8 <__ieee754_pow+0x924>
    6efa:	3ff00737          	lui	a4,0x3ff00
    6efe:	0ae45063          	bge	s0,a4,6f9e <__ieee754_pow+0x21a>
    6f02:	060ddc63          	bgez	s11,6f7a <__ieee754_pow+0x1f6>
    6f06:	00007797          	auipc	a5,0x7
    6f0a:	8e278793          	addi	a5,a5,-1822 # d7e8 <_read+0x252>
    6f0e:	4390                	lw	a2,0(a5)
    6f10:	43d4                	lw	a3,4(a5)
    6f12:	8532                	mv	a0,a2
    6f14:	85b6                	mv	a1,a3
    6f16:	3fc030ef          	jal	ra,a312 <__muldf3>
    6f1a:	bd75                	j	6dd6 <__ieee754_pow+0x52>
    6f1c:	80bff0ef          	jal	ra,6726 <fabs>
    6f20:	0a0a1463          	bnez	s4,6fc8 <__ieee754_pow+0x244>
    6f24:	c801                	beqz	s0,6f34 <__ieee754_pow+0x1b0>
    6f26:	00249693          	slli	a3,s1,0x2
    6f2a:	8289                	srli	a3,a3,0x2
    6f2c:	3ff00637          	lui	a2,0x3ff00
    6f30:	fac697e3          	bne	a3,a2,6ede <__ieee754_pow+0x15a>
    6f34:	060dc863          	bltz	s11,6fa4 <__ieee754_pow+0x220>
    6f38:	e80adfe3          	bgez	s5,6dd6 <__ieee754_pow+0x52>
    6f3c:	c01007b7          	lui	a5,0xc0100
    6f40:	97a2                	add	a5,a5,s0
    6f42:	01a7e7b3          	or	a5,a5,s10
    6f46:	0a079ce3          	bnez	a5,77fe <__ieee754_pow+0xa7a>
    6f4a:	862a                	mv	a2,a0
    6f4c:	86ae                	mv	a3,a1
    6f4e:	07d030ef          	jal	ra,a7ca <__subdf3>
    6f52:	862a                	mv	a2,a0
    6f54:	86ae                	mv	a3,a1
    6f56:	43b020ef          	jal	ra,9b90 <__divdf3>
    6f5a:	bdb5                	j	6dd6 <__ieee754_pow+0x52>
    6f5c:	c0100537          	lui	a0,0xc0100
    6f60:	9522                	add	a0,a0,s0
    6f62:	01356533          	or	a0,a0,s3
    6f66:	ee050ce3          	beqz	a0,6e5e <__ieee754_pow+0xda>
    6f6a:	3ff00737          	lui	a4,0x3ff00
    6f6e:	70e44f63          	blt	s0,a4,768c <__ieee754_pow+0x908>
    6f72:	85ee                	mv	a1,s11
    6f74:	4501                	li	a0,0
    6f76:	e60dd0e3          	bgez	s11,6dd6 <__ieee754_pow+0x52>
    6f7a:	4501                	li	a0,0
    6f7c:	4581                	li	a1,0
    6f7e:	bda1                	j	6dd6 <__ieee754_pow+0x52>
    6f80:	854e                	mv	a0,s3
    6f82:	85a6                	mv	a1,s1
    6f84:	e40dd9e3          	bgez	s11,6dd6 <__ieee754_pow+0x52>
    6f88:	00006797          	auipc	a5,0x6
    6f8c:	7e078793          	addi	a5,a5,2016 # d768 <_read+0x1d2>
    6f90:	4388                	lw	a0,0(a5)
    6f92:	43cc                	lw	a1,4(a5)
    6f94:	864e                	mv	a2,s3
    6f96:	86a6                	mv	a3,s1
    6f98:	3f9020ef          	jal	ra,9b90 <__divdf3>
    6f9c:	bd2d                	j	6dd6 <__ieee754_pow+0x52>
    6f9e:	f7b044e3          	bgtz	s11,6f06 <__ieee754_pow+0x182>
    6fa2:	bfe1                	j	6f7a <__ieee754_pow+0x1f6>
    6fa4:	00006717          	auipc	a4,0x6
    6fa8:	7c470713          	addi	a4,a4,1988 # d768 <_read+0x1d2>
    6fac:	8caa                	mv	s9,a0
    6fae:	87ae                	mv	a5,a1
    6fb0:	4308                	lw	a0,0(a4)
    6fb2:	434c                	lw	a1,4(a4)
    6fb4:	8666                	mv	a2,s9
    6fb6:	86be                	mv	a3,a5
    6fb8:	3d9020ef          	jal	ra,9b90 <__divdf3>
    6fbc:	bfb5                	j	6f38 <__ieee754_pow+0x1b4>
    6fbe:	e40603e3          	beqz	a2,6e04 <__ieee754_pow+0x80>
    6fc2:	b501                	j	6dc2 <__ieee754_pow+0x3e>
    6fc4:	4d09                	li	s10,2
    6fc6:	b5b1                	j	6e12 <__ieee754_pow+0x8e>
    6fc8:	864e                	mv	a2,s3
    6fca:	86a6                	mv	a3,s1
    6fcc:	854e                	mv	a0,s3
    6fce:	85a6                	mv	a1,s1
    6fd0:	7fa030ef          	jal	ra,a7ca <__subdf3>
    6fd4:	862a                	mv	a2,a0
    6fd6:	86ae                	mv	a3,a1
    6fd8:	3b9020ef          	jal	ra,9b90 <__divdf3>
    6fdc:	bbed                	j	6dd6 <__ieee754_pow+0x52>
    6fde:	7ff006b7          	lui	a3,0x7ff00
    6fe2:	8cf5                	and	s1,s1,a3
    6fe4:	4601                	li	a2,0
    6fe6:	ec91                	bnez	s1,7002 <__ieee754_pow+0x27e>
    6fe8:	00007697          	auipc	a3,0x7
    6fec:	96068693          	addi	a3,a3,-1696 # d948 <atanlo+0xc8>
    6ff0:	4290                	lw	a2,0(a3)
    6ff2:	42d4                	lw	a3,4(a3)
    6ff4:	c472                	sw	t3,8(sp)
    6ff6:	31c030ef          	jal	ra,a312 <__muldf3>
    6ffa:	4e22                	lw	t3,8(sp)
    6ffc:	842e                	mv	s0,a1
    6ffe:	fcb00613          	li	a2,-53
    7002:	001005b7          	lui	a1,0x100
    7006:	41445e93          	srai	t4,s0,0x14
    700a:	fff58813          	addi	a6,a1,-1 # fffff <_data_lma+0xf2063>
    700e:	0003a6b7          	lui	a3,0x3a
    7012:	c01e8e93          	addi	t4,t4,-1023
    7016:	01047833          	and	a6,s0,a6
    701a:	3ff00c37          	lui	s8,0x3ff00
    701e:	88e68693          	addi	a3,a3,-1906 # 3988e <_data_lma+0x2b8f2>
    7022:	9eb2                	add	t4,t4,a2
    7024:	01886c33          	or	s8,a6,s8
    7028:	6706db63          	bge	a3,a6,769e <__ieee754_pow+0x91a>
    702c:	000bb6b7          	lui	a3,0xbb
    7030:	67968693          	addi	a3,a3,1657 # bb679 <_data_lma+0xad6dd>
    7034:	7d06dd63          	bge	a3,a6,780e <__ieee754_pow+0xa8a>
    7038:	00006a97          	auipc	s5,0x6
    703c:	730a8a93          	addi	s5,s5,1840 # d768 <_read+0x1d2>
    7040:	0e85                	addi	t4,t4,1
    7042:	40bc0c33          	sub	s8,s8,a1
    7046:	000aa783          	lw	a5,0(s5)
    704a:	004aa803          	lw	a6,4(s5)
    704e:	c802                	sw	zero,16(sp)
    7050:	ca02                	sw	zero,20(sp)
    7052:	dc02                	sw	zero,56(sp)
    7054:	de02                	sw	zero,60(sp)
    7056:	4981                	li	s3,0
    7058:	c43e                	sw	a5,8(sp)
    705a:	c642                	sw	a6,12(sp)
    705c:	4422                	lw	s0,8(sp)
    705e:	44b2                	lw	s1,12(sp)
    7060:	85e2                	mv	a1,s8
    7062:	8622                	mv	a2,s0
    7064:	86a6                	mv	a3,s1
    7066:	da76                	sw	t4,52(sp)
    7068:	d872                	sw	t3,48(sp)
    706a:	892a                	mv	s2,a0
    706c:	75e030ef          	jal	ra,a7ca <__subdf3>
    7070:	8b2a                	mv	s6,a0
    7072:	8bae                	mv	s7,a1
    7074:	8622                	mv	a2,s0
    7076:	86a6                	mv	a3,s1
    7078:	854a                	mv	a0,s2
    707a:	85e2                	mv	a1,s8
    707c:	c422                	sw	s0,8(sp)
    707e:	c626                	sw	s1,12(sp)
    7080:	3e0020ef          	jal	ra,9460 <__adddf3>
    7084:	862a                	mv	a2,a0
    7086:	86ae                	mv	a3,a1
    7088:	000aa503          	lw	a0,0(s5)
    708c:	004aa583          	lw	a1,4(s5)
    7090:	4481                	li	s1,0
    7092:	2ff020ef          	jal	ra,9b90 <__divdf3>
    7096:	862a                	mv	a2,a0
    7098:	86ae                	mv	a3,a1
    709a:	cc2a                	sw	a0,24(sp)
    709c:	ce2e                	sw	a1,28(sp)
    709e:	855a                	mv	a0,s6
    70a0:	85de                	mv	a1,s7
    70a2:	270030ef          	jal	ra,a312 <__muldf3>
    70a6:	401c5f13          	srai	t5,s8,0x1
    70aa:	200006b7          	lui	a3,0x20000
    70ae:	00df6f33          	or	t5,t5,a3
    70b2:	000806b7          	lui	a3,0x80
    70b6:	9f36                	add	t5,t5,a3
    70b8:	99fa                	add	s3,s3,t5
    70ba:	8a2a                	mv	s4,a0
    70bc:	86ce                	mv	a3,s3
    70be:	4601                	li	a2,0
    70c0:	8526                	mv	a0,s1
    70c2:	842e                	mv	s0,a1
    70c4:	24e030ef          	jal	ra,a312 <__muldf3>
    70c8:	862a                	mv	a2,a0
    70ca:	86ae                	mv	a3,a1
    70cc:	855a                	mv	a0,s6
    70ce:	85de                	mv	a1,s7
    70d0:	6fa030ef          	jal	ra,a7ca <__subdf3>
    70d4:	4622                	lw	a2,8(sp)
    70d6:	46b2                	lw	a3,12(sp)
    70d8:	8b2a                	mv	s6,a0
    70da:	8bae                	mv	s7,a1
    70dc:	4501                	li	a0,0
    70de:	85ce                	mv	a1,s3
    70e0:	6ea030ef          	jal	ra,a7ca <__subdf3>
    70e4:	862a                	mv	a2,a0
    70e6:	86ae                	mv	a3,a1
    70e8:	854a                	mv	a0,s2
    70ea:	85e2                	mv	a1,s8
    70ec:	6de030ef          	jal	ra,a7ca <__subdf3>
    70f0:	8626                	mv	a2,s1
    70f2:	86a2                	mv	a3,s0
    70f4:	21e030ef          	jal	ra,a312 <__muldf3>
    70f8:	862a                	mv	a2,a0
    70fa:	86ae                	mv	a3,a1
    70fc:	855a                	mv	a0,s6
    70fe:	85de                	mv	a1,s7
    7100:	6ca030ef          	jal	ra,a7ca <__subdf3>
    7104:	4862                	lw	a6,24(sp)
    7106:	48f2                	lw	a7,28(sp)
    7108:	00007b97          	auipc	s7,0x7
    710c:	878b8b93          	addi	s7,s7,-1928 # d980 <atanlo+0x100>
    7110:	8642                	mv	a2,a6
    7112:	86c6                	mv	a3,a7
    7114:	1fe030ef          	jal	ra,a312 <__muldf3>
    7118:	8652                	mv	a2,s4
    711a:	86a2                	mv	a3,s0
    711c:	c42a                	sw	a0,8(sp)
    711e:	c62e                	sw	a1,12(sp)
    7120:	8552                	mv	a0,s4
    7122:	85a2                	mv	a1,s0
    7124:	1ee030ef          	jal	ra,a312 <__muldf3>
    7128:	00007697          	auipc	a3,0x7
    712c:	82868693          	addi	a3,a3,-2008 # d950 <atanlo+0xd0>
    7130:	4290                	lw	a2,0(a3)
    7132:	42d4                	lw	a3,4(a3)
    7134:	892a                	mv	s2,a0
    7136:	89ae                	mv	s3,a1
    7138:	1da030ef          	jal	ra,a312 <__muldf3>
    713c:	00007697          	auipc	a3,0x7
    7140:	81c68693          	addi	a3,a3,-2020 # d958 <atanlo+0xd8>
    7144:	4290                	lw	a2,0(a3)
    7146:	42d4                	lw	a3,4(a3)
    7148:	4b01                	li	s6,0
    714a:	4c01                	li	s8,0
    714c:	314020ef          	jal	ra,9460 <__adddf3>
    7150:	864a                	mv	a2,s2
    7152:	86ce                	mv	a3,s3
    7154:	1be030ef          	jal	ra,a312 <__muldf3>
    7158:	00007697          	auipc	a3,0x7
    715c:	80868693          	addi	a3,a3,-2040 # d960 <atanlo+0xe0>
    7160:	4290                	lw	a2,0(a3)
    7162:	42d4                	lw	a3,4(a3)
    7164:	2fc020ef          	jal	ra,9460 <__adddf3>
    7168:	864a                	mv	a2,s2
    716a:	86ce                	mv	a3,s3
    716c:	1a6030ef          	jal	ra,a312 <__muldf3>
    7170:	00006697          	auipc	a3,0x6
    7174:	7f868693          	addi	a3,a3,2040 # d968 <atanlo+0xe8>
    7178:	4290                	lw	a2,0(a3)
    717a:	42d4                	lw	a3,4(a3)
    717c:	2e4020ef          	jal	ra,9460 <__adddf3>
    7180:	864a                	mv	a2,s2
    7182:	86ce                	mv	a3,s3
    7184:	18e030ef          	jal	ra,a312 <__muldf3>
    7188:	00006697          	auipc	a3,0x6
    718c:	7e868693          	addi	a3,a3,2024 # d970 <atanlo+0xf0>
    7190:	4290                	lw	a2,0(a3)
    7192:	42d4                	lw	a3,4(a3)
    7194:	2cc020ef          	jal	ra,9460 <__adddf3>
    7198:	864a                	mv	a2,s2
    719a:	86ce                	mv	a3,s3
    719c:	176030ef          	jal	ra,a312 <__muldf3>
    71a0:	00006697          	auipc	a3,0x6
    71a4:	7d868693          	addi	a3,a3,2008 # d978 <atanlo+0xf8>
    71a8:	4290                	lw	a2,0(a3)
    71aa:	42d4                	lw	a3,4(a3)
    71ac:	2b4020ef          	jal	ra,9460 <__adddf3>
    71b0:	864a                	mv	a2,s2
    71b2:	86ce                	mv	a3,s3
    71b4:	cc2a                	sw	a0,24(sp)
    71b6:	ce2e                	sw	a1,28(sp)
    71b8:	854a                	mv	a0,s2
    71ba:	85ce                	mv	a1,s3
    71bc:	156030ef          	jal	ra,a312 <__muldf3>
    71c0:	4762                	lw	a4,24(sp)
    71c2:	47f2                	lw	a5,28(sp)
    71c4:	862a                	mv	a2,a0
    71c6:	86ae                	mv	a3,a1
    71c8:	853a                	mv	a0,a4
    71ca:	85be                	mv	a1,a5
    71cc:	146030ef          	jal	ra,a312 <__muldf3>
    71d0:	892a                	mv	s2,a0
    71d2:	89ae                	mv	s3,a1
    71d4:	8626                	mv	a2,s1
    71d6:	86a2                	mv	a3,s0
    71d8:	8552                	mv	a0,s4
    71da:	85a2                	mv	a1,s0
    71dc:	284020ef          	jal	ra,9460 <__adddf3>
    71e0:	4622                	lw	a2,8(sp)
    71e2:	46b2                	lw	a3,12(sp)
    71e4:	12e030ef          	jal	ra,a312 <__muldf3>
    71e8:	864a                	mv	a2,s2
    71ea:	86ce                	mv	a3,s3
    71ec:	274020ef          	jal	ra,9460 <__adddf3>
    71f0:	892a                	mv	s2,a0
    71f2:	89ae                	mv	s3,a1
    71f4:	8626                	mv	a2,s1
    71f6:	86a2                	mv	a3,s0
    71f8:	8526                	mv	a0,s1
    71fa:	85a2                	mv	a1,s0
    71fc:	116030ef          	jal	ra,a312 <__muldf3>
    7200:	000ba603          	lw	a2,0(s7)
    7204:	004ba683          	lw	a3,4(s7)
    7208:	d42a                	sw	a0,40(sp)
    720a:	d62e                	sw	a1,44(sp)
    720c:	254020ef          	jal	ra,9460 <__adddf3>
    7210:	864a                	mv	a2,s2
    7212:	86ce                	mv	a3,s3
    7214:	cc4a                	sw	s2,24(sp)
    7216:	ce4e                	sw	s3,28(sp)
    7218:	248020ef          	jal	ra,9460 <__adddf3>
    721c:	892e                	mv	s2,a1
    721e:	865a                	mv	a2,s6
    7220:	86ae                	mv	a3,a1
    7222:	8526                	mv	a0,s1
    7224:	85a2                	mv	a1,s0
    7226:	0ec030ef          	jal	ra,a312 <__muldf3>
    722a:	000ba603          	lw	a2,0(s7)
    722e:	004ba683          	lw	a3,4(s7)
    7232:	d02a                	sw	a0,32(sp)
    7234:	d22e                	sw	a1,36(sp)
    7236:	855a                	mv	a0,s6
    7238:	85ca                	mv	a1,s2
    723a:	590030ef          	jal	ra,a7ca <__subdf3>
    723e:	5f22                	lw	t5,40(sp)
    7240:	5fb2                	lw	t6,44(sp)
    7242:	867a                	mv	a2,t5
    7244:	86fe                	mv	a3,t6
    7246:	584030ef          	jal	ra,a7ca <__subdf3>
    724a:	862a                	mv	a2,a0
    724c:	86ae                	mv	a3,a1
    724e:	4562                	lw	a0,24(sp)
    7250:	45f2                	lw	a1,28(sp)
    7252:	578030ef          	jal	ra,a7ca <__subdf3>
    7256:	8652                	mv	a2,s4
    7258:	86a2                	mv	a3,s0
    725a:	0b8030ef          	jal	ra,a312 <__muldf3>
    725e:	842a                	mv	s0,a0
    7260:	84ae                	mv	s1,a1
    7262:	4522                	lw	a0,8(sp)
    7264:	45b2                	lw	a1,12(sp)
    7266:	865a                	mv	a2,s6
    7268:	86ca                	mv	a3,s2
    726a:	0a8030ef          	jal	ra,a312 <__muldf3>
    726e:	862a                	mv	a2,a0
    7270:	86ae                	mv	a3,a1
    7272:	8522                	mv	a0,s0
    7274:	85a6                	mv	a1,s1
    7276:	1ea020ef          	jal	ra,9460 <__adddf3>
    727a:	5b02                	lw	s6,32(sp)
    727c:	5b92                	lw	s7,36(sp)
    727e:	842a                	mv	s0,a0
    7280:	84ae                	mv	s1,a1
    7282:	862a                	mv	a2,a0
    7284:	86ae                	mv	a3,a1
    7286:	855a                	mv	a0,s6
    7288:	85de                	mv	a1,s7
    728a:	1d6020ef          	jal	ra,9460 <__adddf3>
    728e:	00006697          	auipc	a3,0x6
    7292:	6fa68693          	addi	a3,a3,1786 # d988 <atanlo+0x108>
    7296:	4290                	lw	a2,0(a3)
    7298:	42d4                	lw	a3,4(a3)
    729a:	8562                	mv	a0,s8
    729c:	8a2e                	mv	s4,a1
    729e:	074030ef          	jal	ra,a312 <__muldf3>
    72a2:	892a                	mv	s2,a0
    72a4:	89ae                	mv	s3,a1
    72a6:	865a                	mv	a2,s6
    72a8:	86de                	mv	a3,s7
    72aa:	8562                	mv	a0,s8
    72ac:	85d2                	mv	a1,s4
    72ae:	51c030ef          	jal	ra,a7ca <__subdf3>
    72b2:	862a                	mv	a2,a0
    72b4:	86ae                	mv	a3,a1
    72b6:	8522                	mv	a0,s0
    72b8:	85a6                	mv	a1,s1
    72ba:	510030ef          	jal	ra,a7ca <__subdf3>
    72be:	00006697          	auipc	a3,0x6
    72c2:	6d268693          	addi	a3,a3,1746 # d990 <atanlo+0x110>
    72c6:	4290                	lw	a2,0(a3)
    72c8:	42d4                	lw	a3,4(a3)
    72ca:	048030ef          	jal	ra,a312 <__muldf3>
    72ce:	00006697          	auipc	a3,0x6
    72d2:	6ca68693          	addi	a3,a3,1738 # d998 <atanlo+0x118>
    72d6:	4290                	lw	a2,0(a3)
    72d8:	42d4                	lw	a3,4(a3)
    72da:	842a                	mv	s0,a0
    72dc:	84ae                	mv	s1,a1
    72de:	8562                	mv	a0,s8
    72e0:	85d2                	mv	a1,s4
    72e2:	030030ef          	jal	ra,a312 <__muldf3>
    72e6:	862a                	mv	a2,a0
    72e8:	86ae                	mv	a3,a1
    72ea:	8522                	mv	a0,s0
    72ec:	85a6                	mv	a1,s1
    72ee:	172020ef          	jal	ra,9460 <__adddf3>
    72f2:	5662                	lw	a2,56(sp)
    72f4:	56f2                	lw	a3,60(sp)
    72f6:	16a020ef          	jal	ra,9460 <__adddf3>
    72fa:	5ed2                	lw	t4,52(sp)
    72fc:	8b2a                	mv	s6,a0
    72fe:	8bae                	mv	s7,a1
    7300:	8576                	mv	a0,t4
    7302:	4ab030ef          	jal	ra,afac <__floatsidf>
    7306:	842a                	mv	s0,a0
    7308:	84ae                	mv	s1,a1
    730a:	865a                	mv	a2,s6
    730c:	86de                	mv	a3,s7
    730e:	854a                	mv	a0,s2
    7310:	85ce                	mv	a1,s3
    7312:	14e020ef          	jal	ra,9460 <__adddf3>
    7316:	4642                	lw	a2,16(sp)
    7318:	46d2                	lw	a3,20(sp)
    731a:	146020ef          	jal	ra,9460 <__adddf3>
    731e:	8622                	mv	a2,s0
    7320:	86a6                	mv	a3,s1
    7322:	13e020ef          	jal	ra,9460 <__adddf3>
    7326:	4601                	li	a2,0
    7328:	8532                	mv	a0,a2
    732a:	86a6                	mv	a3,s1
    732c:	8622                	mv	a2,s0
    732e:	84ae                	mv	s1,a1
    7330:	842a                	mv	s0,a0
    7332:	498030ef          	jal	ra,a7ca <__subdf3>
    7336:	4642                	lw	a2,16(sp)
    7338:	46d2                	lw	a3,20(sp)
    733a:	490030ef          	jal	ra,a7ca <__subdf3>
    733e:	864a                	mv	a2,s2
    7340:	86ce                	mv	a3,s3
    7342:	488030ef          	jal	ra,a7ca <__subdf3>
    7346:	862a                	mv	a2,a0
    7348:	86ae                	mv	a3,a1
    734a:	855a                	mv	a0,s6
    734c:	85de                	mv	a1,s7
    734e:	47c030ef          	jal	ra,a7ca <__subdf3>
    7352:	5e42                	lw	t3,48(sp)
    7354:	892a                	mv	s2,a0
    7356:	89ae                	mv	s3,a1
    7358:	fffd0313          	addi	t1,s10,-1 # 7fffffff <__freertos_irq_stack_top+0x5fffafff>
    735c:	01c36e33          	or	t3,t1,t3
    7360:	300e1f63          	bnez	t3,767e <__ieee754_pow+0x8fa>
    7364:	00006697          	auipc	a3,0x6
    7368:	49c68693          	addi	a3,a3,1180 # d800 <_read+0x26a>
    736c:	429c                	lw	a5,0(a3)
    736e:	0046a803          	lw	a6,4(a3)
    7372:	c43e                	sw	a5,8(sp)
    7374:	c642                	sw	a6,12(sp)
    7376:	4c01                	li	s8,0
    7378:	8662                	mv	a2,s8
    737a:	86ee                	mv	a3,s11
    737c:	8566                	mv	a0,s9
    737e:	85ee                	mv	a1,s11
    7380:	44a030ef          	jal	ra,a7ca <__subdf3>
    7384:	8622                	mv	a2,s0
    7386:	86a6                	mv	a3,s1
    7388:	78b020ef          	jal	ra,a312 <__muldf3>
    738c:	8b2a                	mv	s6,a0
    738e:	8bae                	mv	s7,a1
    7390:	8666                	mv	a2,s9
    7392:	86ee                	mv	a3,s11
    7394:	854a                	mv	a0,s2
    7396:	85ce                	mv	a1,s3
    7398:	77b020ef          	jal	ra,a312 <__muldf3>
    739c:	862a                	mv	a2,a0
    739e:	86ae                	mv	a3,a1
    73a0:	855a                	mv	a0,s6
    73a2:	85de                	mv	a1,s7
    73a4:	0bc020ef          	jal	ra,9460 <__adddf3>
    73a8:	892a                	mv	s2,a0
    73aa:	89ae                	mv	s3,a1
    73ac:	8662                	mv	a2,s8
    73ae:	86ee                	mv	a3,s11
    73b0:	8522                	mv	a0,s0
    73b2:	85a6                	mv	a1,s1
    73b4:	75f020ef          	jal	ra,a312 <__muldf3>
    73b8:	862a                	mv	a2,a0
    73ba:	86ae                	mv	a3,a1
    73bc:	842a                	mv	s0,a0
    73be:	84ae                	mv	s1,a1
    73c0:	854a                	mv	a0,s2
    73c2:	85ce                	mv	a1,s3
    73c4:	09c020ef          	jal	ra,9460 <__adddf3>
    73c8:	409007b7          	lui	a5,0x40900
    73cc:	8a2a                	mv	s4,a0
    73ce:	8b2e                	mv	s6,a1
    73d0:	8bae                	mv	s7,a1
    73d2:	24f5cc63          	blt	a1,a5,762a <__ieee754_pow+0x8a6>
    73d6:	40f587b3          	sub	a5,a1,a5
    73da:	8fc9                	or	a5,a5,a0
    73dc:	40079c63          	bnez	a5,77f4 <__ieee754_pow+0xa70>
    73e0:	00006797          	auipc	a5,0x6
    73e4:	5c078793          	addi	a5,a5,1472 # d9a0 <atanlo+0x120>
    73e8:	4390                	lw	a2,0(a5)
    73ea:	43d4                	lw	a3,4(a5)
    73ec:	854a                	mv	a0,s2
    73ee:	85ce                	mv	a1,s3
    73f0:	070020ef          	jal	ra,9460 <__adddf3>
    73f4:	8d2a                	mv	s10,a0
    73f6:	8dae                	mv	s11,a1
    73f8:	8622                	mv	a2,s0
    73fa:	86a6                	mv	a3,s1
    73fc:	8552                	mv	a0,s4
    73fe:	85da                	mv	a1,s6
    7400:	3ca030ef          	jal	ra,a7ca <__subdf3>
    7404:	862a                	mv	a2,a0
    7406:	86ae                	mv	a3,a1
    7408:	856a                	mv	a0,s10
    740a:	85ee                	mv	a1,s11
    740c:	5a3020ef          	jal	ra,a1ae <__gedf2>
    7410:	3ea04263          	bgtz	a0,77f4 <__ieee754_pow+0xa70>
    7414:	414bd793          	srai	a5,s7,0x14
    7418:	7ff7f793          	andi	a5,a5,2047
    741c:	00100537          	lui	a0,0x100
    7420:	c0278793          	addi	a5,a5,-1022
    7424:	40f557b3          	sra	a5,a0,a5
    7428:	97de                	add	a5,a5,s7
    742a:	4147d713          	srai	a4,a5,0x14
    742e:	7ff77713          	andi	a4,a4,2047
    7432:	c0170713          	addi	a4,a4,-1023
    7436:	fff50a13          	addi	s4,a0,-1 # fffff <_data_lma+0xf2063>
    743a:	40ea55b3          	sra	a1,s4,a4
    743e:	fff5c593          	not	a1,a1
    7442:	8dfd                	and	a1,a1,a5
    7444:	0147fa33          	and	s4,a5,s4
    7448:	47d1                	li	a5,20
    744a:	00aa6a33          	or	s4,s4,a0
    744e:	40e78733          	sub	a4,a5,a4
    7452:	4601                	li	a2,0
    7454:	86ae                	mv	a3,a1
    7456:	40ea5a33          	sra	s4,s4,a4
    745a:	000bd463          	bgez	s7,7462 <__ieee754_pow+0x6de>
    745e:	41400a33          	neg	s4,s4
    7462:	8522                	mv	a0,s0
    7464:	85a6                	mv	a1,s1
    7466:	364030ef          	jal	ra,a7ca <__subdf3>
    746a:	862a                	mv	a2,a0
    746c:	86ae                	mv	a3,a1
    746e:	842a                	mv	s0,a0
    7470:	84ae                	mv	s1,a1
    7472:	854a                	mv	a0,s2
    7474:	85ce                	mv	a1,s3
    7476:	7eb010ef          	jal	ra,9460 <__adddf3>
    747a:	8b2e                	mv	s6,a1
    747c:	014a1d93          	slli	s11,s4,0x14
    7480:	00006717          	auipc	a4,0x6
    7484:	53070713          	addi	a4,a4,1328 # d9b0 <atanlo+0x130>
    7488:	4310                	lw	a2,0(a4)
    748a:	4354                	lw	a3,4(a4)
    748c:	4c01                	li	s8,0
    748e:	8562                	mv	a0,s8
    7490:	85da                	mv	a1,s6
    7492:	681020ef          	jal	ra,a312 <__muldf3>
    7496:	8d5a                	mv	s10,s6
    7498:	8bae                	mv	s7,a1
    749a:	8b2a                	mv	s6,a0
    749c:	8622                	mv	a2,s0
    749e:	86a6                	mv	a3,s1
    74a0:	8562                	mv	a0,s8
    74a2:	85ea                	mv	a1,s10
    74a4:	326030ef          	jal	ra,a7ca <__subdf3>
    74a8:	862a                	mv	a2,a0
    74aa:	86ae                	mv	a3,a1
    74ac:	854a                	mv	a0,s2
    74ae:	85ce                	mv	a1,s3
    74b0:	31a030ef          	jal	ra,a7ca <__subdf3>
    74b4:	00006717          	auipc	a4,0x6
    74b8:	50470713          	addi	a4,a4,1284 # d9b8 <atanlo+0x138>
    74bc:	4310                	lw	a2,0(a4)
    74be:	4354                	lw	a3,4(a4)
    74c0:	653020ef          	jal	ra,a312 <__muldf3>
    74c4:	00006717          	auipc	a4,0x6
    74c8:	4fc70713          	addi	a4,a4,1276 # d9c0 <atanlo+0x140>
    74cc:	4310                	lw	a2,0(a4)
    74ce:	4354                	lw	a3,4(a4)
    74d0:	842a                	mv	s0,a0
    74d2:	84ae                	mv	s1,a1
    74d4:	8562                	mv	a0,s8
    74d6:	85ea                	mv	a1,s10
    74d8:	63b020ef          	jal	ra,a312 <__muldf3>
    74dc:	862a                	mv	a2,a0
    74de:	86ae                	mv	a3,a1
    74e0:	8522                	mv	a0,s0
    74e2:	85a6                	mv	a1,s1
    74e4:	77d010ef          	jal	ra,9460 <__adddf3>
    74e8:	892a                	mv	s2,a0
    74ea:	89ae                	mv	s3,a1
    74ec:	862a                	mv	a2,a0
    74ee:	86ae                	mv	a3,a1
    74f0:	855a                	mv	a0,s6
    74f2:	85de                	mv	a1,s7
    74f4:	76d010ef          	jal	ra,9460 <__adddf3>
    74f8:	865a                	mv	a2,s6
    74fa:	86de                	mv	a3,s7
    74fc:	842a                	mv	s0,a0
    74fe:	84ae                	mv	s1,a1
    7500:	2ca030ef          	jal	ra,a7ca <__subdf3>
    7504:	862a                	mv	a2,a0
    7506:	86ae                	mv	a3,a1
    7508:	854a                	mv	a0,s2
    750a:	85ce                	mv	a1,s3
    750c:	2be030ef          	jal	ra,a7ca <__subdf3>
    7510:	8b2a                	mv	s6,a0
    7512:	8bae                	mv	s7,a1
    7514:	8622                	mv	a2,s0
    7516:	86a6                	mv	a3,s1
    7518:	8522                	mv	a0,s0
    751a:	85a6                	mv	a1,s1
    751c:	5f7020ef          	jal	ra,a312 <__muldf3>
    7520:	00006797          	auipc	a5,0x6
    7524:	4a878793          	addi	a5,a5,1192 # d9c8 <atanlo+0x148>
    7528:	4390                	lw	a2,0(a5)
    752a:	43d4                	lw	a3,4(a5)
    752c:	892a                	mv	s2,a0
    752e:	89ae                	mv	s3,a1
    7530:	5e3020ef          	jal	ra,a312 <__muldf3>
    7534:	00006797          	auipc	a5,0x6
    7538:	49c78793          	addi	a5,a5,1180 # d9d0 <atanlo+0x150>
    753c:	4390                	lw	a2,0(a5)
    753e:	43d4                	lw	a3,4(a5)
    7540:	28a030ef          	jal	ra,a7ca <__subdf3>
    7544:	864a                	mv	a2,s2
    7546:	86ce                	mv	a3,s3
    7548:	5cb020ef          	jal	ra,a312 <__muldf3>
    754c:	00006797          	auipc	a5,0x6
    7550:	48c78793          	addi	a5,a5,1164 # d9d8 <atanlo+0x158>
    7554:	4390                	lw	a2,0(a5)
    7556:	43d4                	lw	a3,4(a5)
    7558:	709010ef          	jal	ra,9460 <__adddf3>
    755c:	864a                	mv	a2,s2
    755e:	86ce                	mv	a3,s3
    7560:	5b3020ef          	jal	ra,a312 <__muldf3>
    7564:	00006797          	auipc	a5,0x6
    7568:	47c78793          	addi	a5,a5,1148 # d9e0 <atanlo+0x160>
    756c:	4390                	lw	a2,0(a5)
    756e:	43d4                	lw	a3,4(a5)
    7570:	25a030ef          	jal	ra,a7ca <__subdf3>
    7574:	864a                	mv	a2,s2
    7576:	86ce                	mv	a3,s3
    7578:	59b020ef          	jal	ra,a312 <__muldf3>
    757c:	00006797          	auipc	a5,0x6
    7580:	46c78793          	addi	a5,a5,1132 # d9e8 <atanlo+0x168>
    7584:	4390                	lw	a2,0(a5)
    7586:	43d4                	lw	a3,4(a5)
    7588:	6d9010ef          	jal	ra,9460 <__adddf3>
    758c:	864a                	mv	a2,s2
    758e:	86ce                	mv	a3,s3
    7590:	583020ef          	jal	ra,a312 <__muldf3>
    7594:	862a                	mv	a2,a0
    7596:	86ae                	mv	a3,a1
    7598:	8522                	mv	a0,s0
    759a:	85a6                	mv	a1,s1
    759c:	22e030ef          	jal	ra,a7ca <__subdf3>
    75a0:	862a                	mv	a2,a0
    75a2:	86ae                	mv	a3,a1
    75a4:	8c2a                	mv	s8,a0
    75a6:	8cae                	mv	s9,a1
    75a8:	8522                	mv	a0,s0
    75aa:	85a6                	mv	a1,s1
    75ac:	567020ef          	jal	ra,a312 <__muldf3>
    75b0:	00006697          	auipc	a3,0x6
    75b4:	24068693          	addi	a3,a3,576 # d7f0 <_read+0x25a>
    75b8:	4290                	lw	a2,0(a3)
    75ba:	42d4                	lw	a3,4(a3)
    75bc:	892a                	mv	s2,a0
    75be:	89ae                	mv	s3,a1
    75c0:	8562                	mv	a0,s8
    75c2:	85e6                	mv	a1,s9
    75c4:	206030ef          	jal	ra,a7ca <__subdf3>
    75c8:	862a                	mv	a2,a0
    75ca:	86ae                	mv	a3,a1
    75cc:	854a                	mv	a0,s2
    75ce:	85ce                	mv	a1,s3
    75d0:	5c0020ef          	jal	ra,9b90 <__divdf3>
    75d4:	892a                	mv	s2,a0
    75d6:	89ae                	mv	s3,a1
    75d8:	865a                	mv	a2,s6
    75da:	86de                	mv	a3,s7
    75dc:	8522                	mv	a0,s0
    75de:	85a6                	mv	a1,s1
    75e0:	533020ef          	jal	ra,a312 <__muldf3>
    75e4:	865a                	mv	a2,s6
    75e6:	86de                	mv	a3,s7
    75e8:	679010ef          	jal	ra,9460 <__adddf3>
    75ec:	862a                	mv	a2,a0
    75ee:	86ae                	mv	a3,a1
    75f0:	854a                	mv	a0,s2
    75f2:	85ce                	mv	a1,s3
    75f4:	1d6030ef          	jal	ra,a7ca <__subdf3>
    75f8:	8622                	mv	a2,s0
    75fa:	86a6                	mv	a3,s1
    75fc:	1ce030ef          	jal	ra,a7ca <__subdf3>
    7600:	86ae                	mv	a3,a1
    7602:	862a                	mv	a2,a0
    7604:	004aa583          	lw	a1,4(s5)
    7608:	000aa503          	lw	a0,0(s5)
    760c:	1be030ef          	jal	ra,a7ca <__subdf3>
    7610:	00bd87b3          	add	a5,s11,a1
    7614:	4147d693          	srai	a3,a5,0x14
    7618:	22d05e63          	blez	a3,7854 <__ieee754_pow+0xad0>
    761c:	85be                	mv	a1,a5
    761e:	4622                	lw	a2,8(sp)
    7620:	46b2                	lw	a3,12(sp)
    7622:	4f1020ef          	jal	ra,a312 <__muldf3>
    7626:	fb0ff06f          	j	6dd6 <__ieee754_pow+0x52>
    762a:	00159793          	slli	a5,a1,0x1
    762e:	4090d6b7          	lui	a3,0x4090d
    7632:	8385                	srli	a5,a5,0x1
    7634:	bff68693          	addi	a3,a3,-1025 # 4090cbff <__freertos_irq_stack_top+0x20907bff>
    7638:	1af6d663          	bge	a3,a5,77e4 <__ieee754_pow+0xa60>
    763c:	3f6f37b7          	lui	a5,0x3f6f3
    7640:	40078793          	addi	a5,a5,1024 # 3f6f3400 <__freertos_irq_stack_top+0x1f6ee400>
    7644:	97ae                	add	a5,a5,a1
    7646:	8fc9                	or	a5,a5,a0
    7648:	eb99                	bnez	a5,765e <__ieee754_pow+0x8da>
    764a:	8622                	mv	a2,s0
    764c:	86a6                	mv	a3,s1
    764e:	17c030ef          	jal	ra,a7ca <__subdf3>
    7652:	864a                	mv	a2,s2
    7654:	86ce                	mv	a3,s3
    7656:	359020ef          	jal	ra,a1ae <__gedf2>
    765a:	da054de3          	bltz	a0,7414 <__ieee754_pow+0x690>
    765e:	00006417          	auipc	s0,0x6
    7662:	34a40413          	addi	s0,s0,842 # d9a8 <atanlo+0x128>
    7666:	4010                	lw	a2,0(s0)
    7668:	4054                	lw	a3,4(s0)
    766a:	4522                	lw	a0,8(sp)
    766c:	45b2                	lw	a1,12(sp)
    766e:	4a5020ef          	jal	ra,a312 <__muldf3>
    7672:	4010                	lw	a2,0(s0)
    7674:	4054                	lw	a3,4(s0)
    7676:	49d020ef          	jal	ra,a312 <__muldf3>
    767a:	f5cff06f          	j	6dd6 <__ieee754_pow+0x52>
    767e:	000aa783          	lw	a5,0(s5)
    7682:	004aa803          	lw	a6,4(s5)
    7686:	c43e                	sw	a5,8(sp)
    7688:	c642                	sw	a6,12(sp)
    768a:	b1f5                	j	7376 <__ieee754_pow+0x5f2>
    768c:	8e0dd7e3          	bgez	s11,6f7a <__ieee754_pow+0x1f6>
    7690:	800005b7          	lui	a1,0x80000
    7694:	4501                	li	a0,0
    7696:	01b5c5b3          	xor	a1,a1,s11
    769a:	f3cff06f          	j	6dd6 <__ieee754_pow+0x52>
    769e:	00006a97          	auipc	s5,0x6
    76a2:	0caa8a93          	addi	s5,s5,202 # d768 <_read+0x1d2>
    76a6:	b245                	j	7046 <__ieee754_pow+0x2c2>
    76a8:	3ff006b7          	lui	a3,0x3ff00
    76ac:	ffe68613          	addi	a2,a3,-2 # 3feffffe <__freertos_irq_stack_top+0x1fefaffe>
    76b0:	848659e3          	bge	a2,s0,6f02 <__ieee754_pow+0x17e>
    76b4:	8e86c5e3          	blt	a3,s0,6f9e <__ieee754_pow+0x21a>
    76b8:	00006a97          	auipc	s5,0x6
    76bc:	0b0a8a93          	addi	s5,s5,176 # d768 <_read+0x1d2>
    76c0:	000aa603          	lw	a2,0(s5)
    76c4:	004aa683          	lw	a3,4(s5)
    76c8:	c872                	sw	t3,16(sp)
    76ca:	100030ef          	jal	ra,a7ca <__subdf3>
    76ce:	00006697          	auipc	a3,0x6
    76d2:	25268693          	addi	a3,a3,594 # d920 <atanlo+0xa0>
    76d6:	4290                	lw	a2,0(a3)
    76d8:	42d4                	lw	a3,4(a3)
    76da:	842a                	mv	s0,a0
    76dc:	84ae                	mv	s1,a1
    76de:	435020ef          	jal	ra,a312 <__muldf3>
    76e2:	00006697          	auipc	a3,0x6
    76e6:	24668693          	addi	a3,a3,582 # d928 <atanlo+0xa8>
    76ea:	4290                	lw	a2,0(a3)
    76ec:	42d4                	lw	a3,4(a3)
    76ee:	892a                	mv	s2,a0
    76f0:	89ae                	mv	s3,a1
    76f2:	8522                	mv	a0,s0
    76f4:	85a6                	mv	a1,s1
    76f6:	41d020ef          	jal	ra,a312 <__muldf3>
    76fa:	00006697          	auipc	a3,0x6
    76fe:	23668693          	addi	a3,a3,566 # d930 <atanlo+0xb0>
    7702:	4290                	lw	a2,0(a3)
    7704:	42d4                	lw	a3,4(a3)
    7706:	c42a                	sw	a0,8(sp)
    7708:	c62e                	sw	a1,12(sp)
    770a:	8522                	mv	a0,s0
    770c:	85a6                	mv	a1,s1
    770e:	405020ef          	jal	ra,a312 <__muldf3>
    7712:	86ae                	mv	a3,a1
    7714:	00006597          	auipc	a1,0x6
    7718:	22458593          	addi	a1,a1,548 # d938 <atanlo+0xb8>
    771c:	862a                	mv	a2,a0
    771e:	4188                	lw	a0,0(a1)
    7720:	41cc                	lw	a1,4(a1)
    7722:	0a8030ef          	jal	ra,a7ca <__subdf3>
    7726:	8622                	mv	a2,s0
    7728:	86a6                	mv	a3,s1
    772a:	3e9020ef          	jal	ra,a312 <__muldf3>
    772e:	86ae                	mv	a3,a1
    7730:	00006597          	auipc	a1,0x6
    7734:	fc858593          	addi	a1,a1,-56 # d6f8 <_read+0x162>
    7738:	862a                	mv	a2,a0
    773a:	4188                	lw	a0,0(a1)
    773c:	41cc                	lw	a1,4(a1)
    773e:	08c030ef          	jal	ra,a7ca <__subdf3>
    7742:	8b2a                	mv	s6,a0
    7744:	8bae                	mv	s7,a1
    7746:	8622                	mv	a2,s0
    7748:	86a6                	mv	a3,s1
    774a:	8522                	mv	a0,s0
    774c:	85a6                	mv	a1,s1
    774e:	3c5020ef          	jal	ra,a312 <__muldf3>
    7752:	862a                	mv	a2,a0
    7754:	86ae                	mv	a3,a1
    7756:	855a                	mv	a0,s6
    7758:	85de                	mv	a1,s7
    775a:	3b9020ef          	jal	ra,a312 <__muldf3>
    775e:	00006697          	auipc	a3,0x6
    7762:	1e268693          	addi	a3,a3,482 # d940 <atanlo+0xc0>
    7766:	4290                	lw	a2,0(a3)
    7768:	42d4                	lw	a3,4(a3)
    776a:	3a9020ef          	jal	ra,a312 <__muldf3>
    776e:	4722                	lw	a4,8(sp)
    7770:	47b2                	lw	a5,12(sp)
    7772:	862a                	mv	a2,a0
    7774:	86ae                	mv	a3,a1
    7776:	853a                	mv	a0,a4
    7778:	85be                	mv	a1,a5
    777a:	050030ef          	jal	ra,a7ca <__subdf3>
    777e:	862a                	mv	a2,a0
    7780:	86ae                	mv	a3,a1
    7782:	8b2a                	mv	s6,a0
    7784:	8bae                	mv	s7,a1
    7786:	854a                	mv	a0,s2
    7788:	85ce                	mv	a1,s3
    778a:	4d7010ef          	jal	ra,9460 <__adddf3>
    778e:	4601                	li	a2,0
    7790:	86ce                	mv	a3,s3
    7792:	8532                	mv	a0,a2
    7794:	8432                	mv	s0,a2
    7796:	864a                	mv	a2,s2
    7798:	84ae                	mv	s1,a1
    779a:	030030ef          	jal	ra,a7ca <__subdf3>
    779e:	862a                	mv	a2,a0
    77a0:	86ae                	mv	a3,a1
    77a2:	855a                	mv	a0,s6
    77a4:	85de                	mv	a1,s7
    77a6:	024030ef          	jal	ra,a7ca <__subdf3>
    77aa:	892a                	mv	s2,a0
    77ac:	89ae                	mv	s3,a1
    77ae:	4e42                	lw	t3,16(sp)
    77b0:	b665                	j	7358 <__ieee754_pow+0x5d4>
    77b2:	864e                	mv	a2,s3
    77b4:	854e                	mv	a0,s3
    77b6:	86a6                	mv	a3,s1
    77b8:	85a6                	mv	a1,s1
    77ba:	359020ef          	jal	ra,a312 <__muldf3>
    77be:	e18ff06f          	j	6dd6 <__ieee754_pow+0x52>
    77c2:	f40c9d63          	bnez	s9,6f1c <__ieee754_pow+0x198>
    77c6:	40d606b3          	sub	a3,a2,a3
    77ca:	40d95633          	sra	a2,s2,a3
    77ce:	00d616b3          	sll	a3,a2,a3
    77d2:	8d66                	mv	s10,s9
    77d4:	e5269563          	bne	a3,s2,6e1e <__ieee754_pow+0x9a>
    77d8:	8a05                	andi	a2,a2,1
    77da:	4309                	li	t1,2
    77dc:	40c30d33          	sub	s10,t1,a2
    77e0:	e3eff06f          	j	6e1e <__ieee754_pow+0x9a>
    77e4:	3fe00737          	lui	a4,0x3fe00
    77e8:	4d81                	li	s11,0
    77ea:	4a01                	li	s4,0
    77ec:	c8f75ae3          	bge	a4,a5,7480 <__ieee754_pow+0x6fc>
    77f0:	87d1                	srai	a5,a5,0x14
    77f2:	b12d                	j	741c <__ieee754_pow+0x698>
    77f4:	00006417          	auipc	s0,0x6
    77f8:	ff440413          	addi	s0,s0,-12 # d7e8 <_read+0x252>
    77fc:	b5ad                	j	7666 <__ieee754_pow+0x8e2>
    77fe:	4785                	li	a5,1
    7800:	dcfd1b63          	bne	s10,a5,6dd6 <__ieee754_pow+0x52>
    7804:	800007b7          	lui	a5,0x80000
    7808:	8dbd                	xor	a1,a1,a5
    780a:	dccff06f          	j	6dd6 <__ieee754_pow+0x52>
    780e:	00006697          	auipc	a3,0x6
    7812:	10268693          	addi	a3,a3,258 # d910 <atanlo+0x90>
    7816:	429c                	lw	a5,0(a3)
    7818:	0046a803          	lw	a6,4(a3)
    781c:	00006697          	auipc	a3,0x6
    7820:	0fc68693          	addi	a3,a3,252 # d918 <atanlo+0x98>
    7824:	c83e                	sw	a5,16(sp)
    7826:	ca42                	sw	a6,20(sp)
    7828:	429c                	lw	a5,0(a3)
    782a:	0046a803          	lw	a6,4(a3)
    782e:	00006697          	auipc	a3,0x6
    7832:	fca68693          	addi	a3,a3,-54 # d7f8 <_read+0x262>
    7836:	dc3e                	sw	a5,56(sp)
    7838:	de42                	sw	a6,60(sp)
    783a:	429c                	lw	a5,0(a3)
    783c:	0046a803          	lw	a6,4(a3)
    7840:	000409b7          	lui	s3,0x40
    7844:	c43e                	sw	a5,8(sp)
    7846:	c642                	sw	a6,12(sp)
    7848:	00006a97          	auipc	s5,0x6
    784c:	f20a8a93          	addi	s5,s5,-224 # d768 <_read+0x1d2>
    7850:	80dff06f          	j	705c <__ieee754_pow+0x2d8>
    7854:	8652                	mv	a2,s4
    7856:	6de010ef          	jal	ra,8f34 <scalbn>
    785a:	b3d1                	j	761e <__ieee754_pow+0x89a>

0000785c <__ieee754_rem_pio2>:
    785c:	7159                	addi	sp,sp,-112
    785e:	d4a2                	sw	s0,104(sp)
    7860:	3fe92737          	lui	a4,0x3fe92
    7864:	00159413          	slli	s0,a1,0x1
    7868:	d686                	sw	ra,108(sp)
    786a:	d2a6                	sw	s1,100(sp)
    786c:	d0ca                	sw	s2,96(sp)
    786e:	cece                	sw	s3,92(sp)
    7870:	ccd2                	sw	s4,88(sp)
    7872:	cad6                	sw	s5,84(sp)
    7874:	c8da                	sw	s6,80(sp)
    7876:	c6de                	sw	s7,76(sp)
    7878:	c4e2                	sw	s8,72(sp)
    787a:	c2e6                	sw	s9,68(sp)
    787c:	c0ea                	sw	s10,64(sp)
    787e:	de6e                	sw	s11,60(sp)
    7880:	8005                	srli	s0,s0,0x1
    7882:	1fb70713          	addi	a4,a4,507 # 3fe921fb <__freertos_irq_stack_top+0x1fe8d1fb>
    7886:	14875c63          	bge	a4,s0,79de <__ieee754_rem_pio2+0x182>
    788a:	4002e737          	lui	a4,0x4002e
    788e:	97b70713          	addi	a4,a4,-1669 # 4002d97b <__freertos_irq_stack_top+0x2002897b>
    7892:	89b2                	mv	s3,a2
    7894:	06874f63          	blt	a4,s0,7912 <__ieee754_rem_pio2+0xb6>
    7898:	00006797          	auipc	a5,0x6
    789c:	15878793          	addi	a5,a5,344 # d9f0 <atanlo+0x170>
    78a0:	4390                	lw	a2,0(a5)
    78a2:	43d4                	lw	a3,4(a5)
    78a4:	3ab05763          	blez	a1,7c52 <__ieee754_rem_pio2+0x3f6>
    78a8:	723020ef          	jal	ra,a7ca <__subdf3>
    78ac:	3ff927b7          	lui	a5,0x3ff92
    78b0:	1fb78793          	addi	a5,a5,507 # 3ff921fb <__freertos_irq_stack_top+0x1ff8d1fb>
    78b4:	8a2a                	mv	s4,a0
    78b6:	8aae                	mv	s5,a1
    78b8:	14f40963          	beq	s0,a5,7a0a <__ieee754_rem_pio2+0x1ae>
    78bc:	00006417          	auipc	s0,0x6
    78c0:	13c40413          	addi	s0,s0,316 # d9f8 <atanlo+0x178>
    78c4:	4010                	lw	a2,0(s0)
    78c6:	4054                	lw	a3,4(s0)
    78c8:	4485                	li	s1,1
    78ca:	701020ef          	jal	ra,a7ca <__subdf3>
    78ce:	862a                	mv	a2,a0
    78d0:	86ae                	mv	a3,a1
    78d2:	00a9a023          	sw	a0,0(s3) # 40000 <_data_lma+0x32064>
    78d6:	00b9a223          	sw	a1,4(s3)
    78da:	8552                	mv	a0,s4
    78dc:	85d6                	mv	a1,s5
    78de:	6ed020ef          	jal	ra,a7ca <__subdf3>
    78e2:	4010                	lw	a2,0(s0)
    78e4:	4054                	lw	a3,4(s0)
    78e6:	6e5020ef          	jal	ra,a7ca <__subdf3>
    78ea:	00a9a423          	sw	a0,8(s3)
    78ee:	00b9a623          	sw	a1,12(s3)
    78f2:	50b6                	lw	ra,108(sp)
    78f4:	5426                	lw	s0,104(sp)
    78f6:	8526                	mv	a0,s1
    78f8:	5906                	lw	s2,96(sp)
    78fa:	5496                	lw	s1,100(sp)
    78fc:	49f6                	lw	s3,92(sp)
    78fe:	4a66                	lw	s4,88(sp)
    7900:	4ad6                	lw	s5,84(sp)
    7902:	4b46                	lw	s6,80(sp)
    7904:	4bb6                	lw	s7,76(sp)
    7906:	4c26                	lw	s8,72(sp)
    7908:	4c96                	lw	s9,68(sp)
    790a:	4d06                	lw	s10,64(sp)
    790c:	5df2                	lw	s11,60(sp)
    790e:	6165                	addi	sp,sp,112
    7910:	8082                	ret
    7912:	41392737          	lui	a4,0x41392
    7916:	1fb70713          	addi	a4,a4,507 # 413921fb <__freertos_irq_stack_top+0x2138d1fb>
    791a:	892e                	mv	s2,a1
    791c:	10875963          	bge	a4,s0,7a2e <__ieee754_rem_pio2+0x1d2>
    7920:	7ff00737          	lui	a4,0x7ff00
    7924:	0ce45563          	bge	s0,a4,79ee <__ieee754_rem_pio2+0x192>
    7928:	41445a13          	srai	s4,s0,0x14
    792c:	beaa0a13          	addi	s4,s4,-1046
    7930:	014a1793          	slli	a5,s4,0x14
    7934:	8c1d                	sub	s0,s0,a5
    7936:	85a2                	mv	a1,s0
    7938:	84aa                	mv	s1,a0
    793a:	60a030ef          	jal	ra,af44 <__fixdfsi>
    793e:	66e030ef          	jal	ra,afac <__floatsidf>
    7942:	872a                	mv	a4,a0
    7944:	87ae                	mv	a5,a1
    7946:	863a                	mv	a2,a4
    7948:	86be                	mv	a3,a5
    794a:	8526                	mv	a0,s1
    794c:	85a2                	mv	a1,s0
    794e:	cc3a                	sw	a4,24(sp)
    7950:	ce3e                	sw	a5,28(sp)
    7952:	00006497          	auipc	s1,0x6
    7956:	0d648493          	addi	s1,s1,214 # da28 <atanlo+0x1a8>
    795a:	671020ef          	jal	ra,a7ca <__subdf3>
    795e:	4090                	lw	a2,0(s1)
    7960:	40d4                	lw	a3,4(s1)
    7962:	1b1020ef          	jal	ra,a312 <__muldf3>
    7966:	8bae                	mv	s7,a1
    7968:	8b2a                	mv	s6,a0
    796a:	5da030ef          	jal	ra,af44 <__fixdfsi>
    796e:	842a                	mv	s0,a0
    7970:	63c030ef          	jal	ra,afac <__floatsidf>
    7974:	872a                	mv	a4,a0
    7976:	87ae                	mv	a5,a1
    7978:	862a                	mv	a2,a0
    797a:	86ae                	mv	a3,a1
    797c:	855a                	mv	a0,s6
    797e:	85de                	mv	a1,s7
    7980:	d03a                	sw	a4,32(sp)
    7982:	d23e                	sw	a5,36(sp)
    7984:	647020ef          	jal	ra,a7ca <__subdf3>
    7988:	4090                	lw	a2,0(s1)
    798a:	40d4                	lw	a3,4(s1)
    798c:	187020ef          	jal	ra,a312 <__muldf3>
    7990:	4681                	li	a3,0
    7992:	4601                	li	a2,0
    7994:	d42a                	sw	a0,40(sp)
    7996:	d62e                	sw	a1,44(sp)
    7998:	7ac020ef          	jal	ra,a144 <__eqdf2>
    799c:	008036b3          	snez	a3,s0
    79a0:	0685                	addi	a3,a3,1
    79a2:	22051863          	bnez	a0,7bd2 <__ieee754_rem_pio2+0x376>
    79a6:	00006797          	auipc	a5,0x6
    79aa:	10a78793          	addi	a5,a5,266 # dab0 <two_over_pi>
    79ae:	4709                	li	a4,2
    79b0:	8652                	mv	a2,s4
    79b2:	85ce                	mv	a1,s3
    79b4:	0828                	addi	a0,sp,24
    79b6:	79a000ef          	jal	ra,8150 <__kernel_rem_pio2>
    79ba:	84aa                	mv	s1,a0
    79bc:	f2095be3          	bgez	s2,78f2 <__ieee754_rem_pio2+0x96>
    79c0:	0049a703          	lw	a4,4(s3)
    79c4:	00c9a783          	lw	a5,12(s3)
    79c8:	800006b7          	lui	a3,0x80000
    79cc:	8f35                	xor	a4,a4,a3
    79ce:	8fb5                	xor	a5,a5,a3
    79d0:	00e9a223          	sw	a4,4(s3)
    79d4:	00f9a623          	sw	a5,12(s3)
    79d8:	40a004b3          	neg	s1,a0
    79dc:	bf19                	j	78f2 <__ieee754_rem_pio2+0x96>
    79de:	c208                	sw	a0,0(a2)
    79e0:	c24c                	sw	a1,4(a2)
    79e2:	00062423          	sw	zero,8(a2) # 3ff00008 <__freertos_irq_stack_top+0x1fefb008>
    79e6:	00062623          	sw	zero,12(a2)
    79ea:	4481                	li	s1,0
    79ec:	b719                	j	78f2 <__ieee754_rem_pio2+0x96>
    79ee:	862a                	mv	a2,a0
    79f0:	86ae                	mv	a3,a1
    79f2:	5d9020ef          	jal	ra,a7ca <__subdf3>
    79f6:	00a9a423          	sw	a0,8(s3)
    79fa:	00b9a623          	sw	a1,12(s3)
    79fe:	00a9a023          	sw	a0,0(s3)
    7a02:	00b9a223          	sw	a1,4(s3)
    7a06:	4481                	li	s1,0
    7a08:	b5ed                	j	78f2 <__ieee754_rem_pio2+0x96>
    7a0a:	00006797          	auipc	a5,0x6
    7a0e:	ff678793          	addi	a5,a5,-10 # da00 <atanlo+0x180>
    7a12:	4390                	lw	a2,0(a5)
    7a14:	43d4                	lw	a3,4(a5)
    7a16:	00006417          	auipc	s0,0x6
    7a1a:	ff240413          	addi	s0,s0,-14 # da08 <atanlo+0x188>
    7a1e:	4485                	li	s1,1
    7a20:	5ab020ef          	jal	ra,a7ca <__subdf3>
    7a24:	8a2a                	mv	s4,a0
    7a26:	8aae                	mv	s5,a1
    7a28:	4010                	lw	a2,0(s0)
    7a2a:	4054                	lw	a3,4(s0)
    7a2c:	bd79                	j	78ca <__ieee754_rem_pio2+0x6e>
    7a2e:	cf9fe0ef          	jal	ra,6726 <fabs>
    7a32:	00006797          	auipc	a5,0x6
    7a36:	fde78793          	addi	a5,a5,-34 # da10 <atanlo+0x190>
    7a3a:	4390                	lw	a2,0(a5)
    7a3c:	43d4                	lw	a3,4(a5)
    7a3e:	8a2a                	mv	s4,a0
    7a40:	8aae                	mv	s5,a1
    7a42:	0d1020ef          	jal	ra,a312 <__muldf3>
    7a46:	00006797          	auipc	a5,0x6
    7a4a:	cb278793          	addi	a5,a5,-846 # d6f8 <_read+0x162>
    7a4e:	4390                	lw	a2,0(a5)
    7a50:	43d4                	lw	a3,4(a5)
    7a52:	20f010ef          	jal	ra,9460 <__adddf3>
    7a56:	4ee030ef          	jal	ra,af44 <__fixdfsi>
    7a5a:	84aa                	mv	s1,a0
    7a5c:	550030ef          	jal	ra,afac <__floatsidf>
    7a60:	00006797          	auipc	a5,0x6
    7a64:	f9078793          	addi	a5,a5,-112 # d9f0 <atanlo+0x170>
    7a68:	4390                	lw	a2,0(a5)
    7a6a:	43d4                	lw	a3,4(a5)
    7a6c:	8b2a                	mv	s6,a0
    7a6e:	8bae                	mv	s7,a1
    7a70:	0a3020ef          	jal	ra,a312 <__muldf3>
    7a74:	862a                	mv	a2,a0
    7a76:	86ae                	mv	a3,a1
    7a78:	8552                	mv	a0,s4
    7a7a:	85d6                	mv	a1,s5
    7a7c:	54f020ef          	jal	ra,a7ca <__subdf3>
    7a80:	00006797          	auipc	a5,0x6
    7a84:	f7878793          	addi	a5,a5,-136 # d9f8 <atanlo+0x178>
    7a88:	4390                	lw	a2,0(a5)
    7a8a:	43d4                	lw	a3,4(a5)
    7a8c:	8d2a                	mv	s10,a0
    7a8e:	8cae                	mv	s9,a1
    7a90:	855a                	mv	a0,s6
    7a92:	85de                	mv	a1,s7
    7a94:	07f020ef          	jal	ra,a312 <__muldf3>
    7a98:	8a2a                	mv	s4,a0
    7a9a:	8aae                	mv	s5,a1
    7a9c:	47fd                	li	a5,31
    7a9e:	856a                	mv	a0,s10
    7aa0:	85e6                	mv	a1,s9
    7aa2:	8652                	mv	a2,s4
    7aa4:	86d6                	mv	a3,s5
    7aa6:	0297c763          	blt	a5,s1,7ad4 <__ieee754_rem_pio2+0x278>
    7aaa:	521020ef          	jal	ra,a7ca <__subdf3>
    7aae:	fff48793          	addi	a5,s1,-1
    7ab2:	00279713          	slli	a4,a5,0x2
    7ab6:	00006797          	auipc	a5,0x6
    7aba:	f7a78793          	addi	a5,a5,-134 # da30 <npio2_hw>
    7abe:	97ba                	add	a5,a5,a4
    7ac0:	439c                	lw	a5,0(a5)
    7ac2:	8daa                	mv	s11,a0
    7ac4:	8c2e                	mv	s8,a1
    7ac6:	00878b63          	beq	a5,s0,7adc <__ieee754_rem_pio2+0x280>
    7aca:	00a9a023          	sw	a0,0(s3)
    7ace:	00b9a223          	sw	a1,4(s3)
    7ad2:	a025                	j	7afa <__ieee754_rem_pio2+0x29e>
    7ad4:	4f7020ef          	jal	ra,a7ca <__subdf3>
    7ad8:	8daa                	mv	s11,a0
    7ada:	8c2e                	mv	s8,a1
    7adc:	014c5793          	srli	a5,s8,0x14
    7ae0:	41445813          	srai	a6,s0,0x14
    7ae4:	7ff7f793          	andi	a5,a5,2047
    7ae8:	40f807b3          	sub	a5,a6,a5
    7aec:	46c1                	li	a3,16
    7aee:	04f6c663          	blt	a3,a5,7b3a <__ieee754_rem_pio2+0x2de>
    7af2:	01b9a023          	sw	s11,0(s3)
    7af6:	0189a223          	sw	s8,4(s3)
    7afa:	866e                	mv	a2,s11
    7afc:	86e2                	mv	a3,s8
    7afe:	856a                	mv	a0,s10
    7b00:	85e6                	mv	a1,s9
    7b02:	4c9020ef          	jal	ra,a7ca <__subdf3>
    7b06:	8652                	mv	a2,s4
    7b08:	86d6                	mv	a3,s5
    7b0a:	4c1020ef          	jal	ra,a7ca <__subdf3>
    7b0e:	00a9a423          	sw	a0,8(s3)
    7b12:	00b9a623          	sw	a1,12(s3)
    7b16:	dc095ee3          	bgez	s2,78f2 <__ieee754_rem_pio2+0x96>
    7b1a:	800007b7          	lui	a5,0x80000
    7b1e:	0187cc33          	xor	s8,a5,s8
    7b22:	8dbd                	xor	a1,a1,a5
    7b24:	01b9a023          	sw	s11,0(s3)
    7b28:	0189a223          	sw	s8,4(s3)
    7b2c:	00a9a423          	sw	a0,8(s3)
    7b30:	00b9a623          	sw	a1,12(s3)
    7b34:	409004b3          	neg	s1,s1
    7b38:	bb6d                	j	78f2 <__ieee754_rem_pio2+0x96>
    7b3a:	00006797          	auipc	a5,0x6
    7b3e:	ec678793          	addi	a5,a5,-314 # da00 <atanlo+0x180>
    7b42:	4390                	lw	a2,0(a5)
    7b44:	43d4                	lw	a3,4(a5)
    7b46:	855a                	mv	a0,s6
    7b48:	85de                	mv	a1,s7
    7b4a:	c442                	sw	a6,8(sp)
    7b4c:	7c6020ef          	jal	ra,a312 <__muldf3>
    7b50:	8a2a                	mv	s4,a0
    7b52:	8aae                	mv	s5,a1
    7b54:	862a                	mv	a2,a0
    7b56:	86ae                	mv	a3,a1
    7b58:	856a                	mv	a0,s10
    7b5a:	85e6                	mv	a1,s9
    7b5c:	46f020ef          	jal	ra,a7ca <__subdf3>
    7b60:	8c2e                	mv	s8,a1
    7b62:	862a                	mv	a2,a0
    7b64:	86ae                	mv	a3,a1
    7b66:	842a                	mv	s0,a0
    7b68:	c62e                	sw	a1,12(sp)
    7b6a:	856a                	mv	a0,s10
    7b6c:	85e6                	mv	a1,s9
    7b6e:	45d020ef          	jal	ra,a7ca <__subdf3>
    7b72:	8652                	mv	a2,s4
    7b74:	86d6                	mv	a3,s5
    7b76:	455020ef          	jal	ra,a7ca <__subdf3>
    7b7a:	00006797          	auipc	a5,0x6
    7b7e:	e8e78793          	addi	a5,a5,-370 # da08 <atanlo+0x188>
    7b82:	4390                	lw	a2,0(a5)
    7b84:	43d4                	lw	a3,4(a5)
    7b86:	8a2a                	mv	s4,a0
    7b88:	8aae                	mv	s5,a1
    7b8a:	855a                	mv	a0,s6
    7b8c:	85de                	mv	a1,s7
    7b8e:	784020ef          	jal	ra,a312 <__muldf3>
    7b92:	8652                	mv	a2,s4
    7b94:	86d6                	mv	a3,s5
    7b96:	435020ef          	jal	ra,a7ca <__subdf3>
    7b9a:	862a                	mv	a2,a0
    7b9c:	86ae                	mv	a3,a1
    7b9e:	8a2a                	mv	s4,a0
    7ba0:	8aae                	mv	s5,a1
    7ba2:	8522                	mv	a0,s0
    7ba4:	85e2                	mv	a1,s8
    7ba6:	425020ef          	jal	ra,a7ca <__subdf3>
    7baa:	4822                	lw	a6,8(sp)
    7bac:	0145d793          	srli	a5,a1,0x14
    7bb0:	7ff7f793          	andi	a5,a5,2047
    7bb4:	40f80833          	sub	a6,a6,a5
    7bb8:	03100793          	li	a5,49
    7bbc:	8ce2                	mv	s9,s8
    7bbe:	8daa                	mv	s11,a0
    7bc0:	8c2e                	mv	s8,a1
    7bc2:	0107ca63          	blt	a5,a6,7bd6 <__ieee754_rem_pio2+0x37a>
    7bc6:	00a9a023          	sw	a0,0(s3)
    7bca:	00b9a223          	sw	a1,4(s3)
    7bce:	8d22                	mv	s10,s0
    7bd0:	b72d                	j	7afa <__ieee754_rem_pio2+0x29e>
    7bd2:	468d                	li	a3,3
    7bd4:	bbc9                	j	79a6 <__ieee754_rem_pio2+0x14a>
    7bd6:	00006797          	auipc	a5,0x6
    7bda:	e4278793          	addi	a5,a5,-446 # da18 <atanlo+0x198>
    7bde:	4390                	lw	a2,0(a5)
    7be0:	43d4                	lw	a3,4(a5)
    7be2:	855a                	mv	a0,s6
    7be4:	85de                	mv	a1,s7
    7be6:	72c020ef          	jal	ra,a312 <__muldf3>
    7bea:	4c32                	lw	s8,12(sp)
    7bec:	8a2a                	mv	s4,a0
    7bee:	8aae                	mv	s5,a1
    7bf0:	862a                	mv	a2,a0
    7bf2:	86ae                	mv	a3,a1
    7bf4:	8522                	mv	a0,s0
    7bf6:	85e2                	mv	a1,s8
    7bf8:	3d3020ef          	jal	ra,a7ca <__subdf3>
    7bfc:	862a                	mv	a2,a0
    7bfe:	86ae                	mv	a3,a1
    7c00:	8d2a                	mv	s10,a0
    7c02:	8cae                	mv	s9,a1
    7c04:	8522                	mv	a0,s0
    7c06:	85e2                	mv	a1,s8
    7c08:	3c3020ef          	jal	ra,a7ca <__subdf3>
    7c0c:	8652                	mv	a2,s4
    7c0e:	86d6                	mv	a3,s5
    7c10:	3bb020ef          	jal	ra,a7ca <__subdf3>
    7c14:	00006797          	auipc	a5,0x6
    7c18:	e0c78793          	addi	a5,a5,-500 # da20 <atanlo+0x1a0>
    7c1c:	4390                	lw	a2,0(a5)
    7c1e:	43d4                	lw	a3,4(a5)
    7c20:	8a2a                	mv	s4,a0
    7c22:	8aae                	mv	s5,a1
    7c24:	855a                	mv	a0,s6
    7c26:	85de                	mv	a1,s7
    7c28:	6ea020ef          	jal	ra,a312 <__muldf3>
    7c2c:	8652                	mv	a2,s4
    7c2e:	86d6                	mv	a3,s5
    7c30:	39b020ef          	jal	ra,a7ca <__subdf3>
    7c34:	862a                	mv	a2,a0
    7c36:	86ae                	mv	a3,a1
    7c38:	8a2a                	mv	s4,a0
    7c3a:	8aae                	mv	s5,a1
    7c3c:	856a                	mv	a0,s10
    7c3e:	85e6                	mv	a1,s9
    7c40:	38b020ef          	jal	ra,a7ca <__subdf3>
    7c44:	8daa                	mv	s11,a0
    7c46:	8c2e                	mv	s8,a1
    7c48:	00a9a023          	sw	a0,0(s3)
    7c4c:	00b9a223          	sw	a1,4(s3)
    7c50:	b56d                	j	7afa <__ieee754_rem_pio2+0x29e>
    7c52:	00f010ef          	jal	ra,9460 <__adddf3>
    7c56:	3ff927b7          	lui	a5,0x3ff92
    7c5a:	1fb78793          	addi	a5,a5,507 # 3ff921fb <__freertos_irq_stack_top+0x1ff8d1fb>
    7c5e:	8a2a                	mv	s4,a0
    7c60:	8aae                	mv	s5,a1
    7c62:	02f40e63          	beq	s0,a5,7c9e <__ieee754_rem_pio2+0x442>
    7c66:	00006417          	auipc	s0,0x6
    7c6a:	d9240413          	addi	s0,s0,-622 # d9f8 <atanlo+0x178>
    7c6e:	4010                	lw	a2,0(s0)
    7c70:	4054                	lw	a3,4(s0)
    7c72:	54fd                	li	s1,-1
    7c74:	7ec010ef          	jal	ra,9460 <__adddf3>
    7c78:	862a                	mv	a2,a0
    7c7a:	86ae                	mv	a3,a1
    7c7c:	00a9a023          	sw	a0,0(s3)
    7c80:	00b9a223          	sw	a1,4(s3)
    7c84:	8552                	mv	a0,s4
    7c86:	85d6                	mv	a1,s5
    7c88:	343020ef          	jal	ra,a7ca <__subdf3>
    7c8c:	4010                	lw	a2,0(s0)
    7c8e:	4054                	lw	a3,4(s0)
    7c90:	7d0010ef          	jal	ra,9460 <__adddf3>
    7c94:	00a9a423          	sw	a0,8(s3)
    7c98:	00b9a623          	sw	a1,12(s3)
    7c9c:	b999                	j	78f2 <__ieee754_rem_pio2+0x96>
    7c9e:	00006797          	auipc	a5,0x6
    7ca2:	d6278793          	addi	a5,a5,-670 # da00 <atanlo+0x180>
    7ca6:	4390                	lw	a2,0(a5)
    7ca8:	43d4                	lw	a3,4(a5)
    7caa:	00006417          	auipc	s0,0x6
    7cae:	d5e40413          	addi	s0,s0,-674 # da08 <atanlo+0x188>
    7cb2:	54fd                	li	s1,-1
    7cb4:	7ac010ef          	jal	ra,9460 <__adddf3>
    7cb8:	8a2a                	mv	s4,a0
    7cba:	8aae                	mv	s5,a1
    7cbc:	4010                	lw	a2,0(s0)
    7cbe:	4054                	lw	a3,4(s0)
    7cc0:	bf55                	j	7c74 <__ieee754_rem_pio2+0x418>

00007cc2 <__ieee754_sqrt>:
    7cc2:	1141                	addi	sp,sp,-16
    7cc4:	7ff00737          	lui	a4,0x7ff00
    7cc8:	c422                	sw	s0,8(sp)
    7cca:	c226                	sw	s1,4(sp)
    7ccc:	c606                	sw	ra,12(sp)
    7cce:	00b77833          	and	a6,a4,a1
    7cd2:	842e                	mv	s0,a1
    7cd4:	84aa                	mv	s1,a0
    7cd6:	16e80d63          	beq	a6,a4,7e50 <__ieee754_sqrt+0x18e>
    7cda:	87ae                	mv	a5,a1
    7cdc:	86aa                	mv	a3,a0
    7cde:	0eb05f63          	blez	a1,7ddc <__ieee754_sqrt+0x11a>
    7ce2:	4145de13          	srai	t3,a1,0x14
    7ce6:	1a0e0163          	beqz	t3,7e88 <__ieee754_sqrt+0x1c6>
    7cea:	00100737          	lui	a4,0x100
    7cee:	fff70613          	addi	a2,a4,-1 # fffff <_data_lma+0xf2063>
    7cf2:	8ff1                	and	a5,a5,a2
    7cf4:	8fd9                	or	a5,a5,a4
    7cf6:	c01e0e13          	addi	t3,t3,-1023
    7cfa:	00179713          	slli	a4,a5,0x1
    7cfe:	001e7613          	andi	a2,t3,1
    7d02:	01f6d793          	srli	a5,a3,0x1f
    7d06:	97ba                	add	a5,a5,a4
    7d08:	00169713          	slli	a4,a3,0x1
    7d0c:	c611                	beqz	a2,7d18 <__ieee754_sqrt+0x56>
    7d0e:	837d                	srli	a4,a4,0x1f
    7d10:	0786                	slli	a5,a5,0x1
    7d12:	97ba                	add	a5,a5,a4
    7d14:	00269713          	slli	a4,a3,0x2
    7d18:	401e5e13          	srai	t3,t3,0x1
    7d1c:	45d9                	li	a1,22
    7d1e:	4e81                	li	t4,0
    7d20:	4681                	li	a3,0
    7d22:	00200637          	lui	a2,0x200
    7d26:	00c68533          	add	a0,a3,a2
    7d2a:	01f75813          	srli	a6,a4,0x1f
    7d2e:	15fd                	addi	a1,a1,-1
    7d30:	00a7c663          	blt	a5,a0,7d3c <__ieee754_sqrt+0x7a>
    7d34:	8f89                	sub	a5,a5,a0
    7d36:	00c506b3          	add	a3,a0,a2
    7d3a:	9eb2                	add	t4,t4,a2
    7d3c:	0786                	slli	a5,a5,0x1
    7d3e:	97c2                	add	a5,a5,a6
    7d40:	0706                	slli	a4,a4,0x1
    7d42:	8205                	srli	a2,a2,0x1
    7d44:	f1ed                	bnez	a1,7d26 <__ieee754_sqrt+0x64>
    7d46:	02000513          	li	a0,32
    7d4a:	4301                	li	t1,0
    7d4c:	4881                	li	a7,0
    7d4e:	80000637          	lui	a2,0x80000
    7d52:	a819                	j	7d68 <__ieee754_sqrt+0xa6>
    7d54:	0ed78563          	beq	a5,a3,7e3e <__ieee754_sqrt+0x17c>
    7d58:	01f75593          	srli	a1,a4,0x1f
    7d5c:	0786                	slli	a5,a5,0x1
    7d5e:	157d                	addi	a0,a0,-1
    7d60:	97ae                	add	a5,a5,a1
    7d62:	0706                	slli	a4,a4,0x1
    7d64:	8205                	srli	a2,a2,0x1
    7d66:	c90d                	beqz	a0,7d98 <__ieee754_sqrt+0xd6>
    7d68:	011605b3          	add	a1,a2,a7
    7d6c:	fef6d4e3          	bge	a3,a5,7d54 <__ieee754_sqrt+0x92>
    7d70:	00c588b3          	add	a7,a1,a2
    7d74:	8836                	mv	a6,a3
    7d76:	0a05ce63          	bltz	a1,7e32 <__ieee754_sqrt+0x170>
    7d7a:	8f95                	sub	a5,a5,a3
    7d7c:	00b736b3          	sltu	a3,a4,a1
    7d80:	8f95                	sub	a5,a5,a3
    7d82:	8f0d                	sub	a4,a4,a1
    7d84:	01f75593          	srli	a1,a4,0x1f
    7d88:	0786                	slli	a5,a5,0x1
    7d8a:	157d                	addi	a0,a0,-1
    7d8c:	9332                	add	t1,t1,a2
    7d8e:	86c2                	mv	a3,a6
    7d90:	97ae                	add	a5,a5,a1
    7d92:	0706                	slli	a4,a4,0x1
    7d94:	8205                	srli	a2,a2,0x1
    7d96:	f969                	bnez	a0,7d68 <__ieee754_sqrt+0xa6>
    7d98:	8fd9                	or	a5,a5,a4
    7d9a:	00135493          	srli	s1,t1,0x1
    7d9e:	cb89                	beqz	a5,7db0 <__ieee754_sqrt+0xee>
    7da0:	00130493          	addi	s1,t1,1 # 7ff00001 <__freertos_irq_stack_top+0x5fefb001>
    7da4:	57fd                	li	a5,-1
    7da6:	8085                	srli	s1,s1,0x1
    7da8:	00f31463          	bne	t1,a5,7db0 <__ieee754_sqrt+0xee>
    7dac:	0e85                	addi	t4,t4,1
    7dae:	4481                	li	s1,0
    7db0:	401ed713          	srai	a4,t4,0x1
    7db4:	3fe00437          	lui	s0,0x3fe00
    7db8:	001efe93          	andi	t4,t4,1
    7dbc:	943a                	add	s0,s0,a4
    7dbe:	000e8563          	beqz	t4,7dc8 <__ieee754_sqrt+0x106>
    7dc2:	800007b7          	lui	a5,0x80000
    7dc6:	8cdd                	or	s1,s1,a5
    7dc8:	014e1713          	slli	a4,t3,0x14
    7dcc:	9722                	add	a4,a4,s0
    7dce:	40b2                	lw	ra,12(sp)
    7dd0:	4422                	lw	s0,8(sp)
    7dd2:	8526                	mv	a0,s1
    7dd4:	85ba                	mv	a1,a4
    7dd6:	4492                	lw	s1,4(sp)
    7dd8:	0141                	addi	sp,sp,16
    7dda:	8082                	ret
    7ddc:	00159713          	slli	a4,a1,0x1
    7de0:	8305                	srli	a4,a4,0x1
    7de2:	00a76833          	or	a6,a4,a0
    7de6:	872e                	mv	a4,a1
    7de8:	fe0803e3          	beqz	a6,7dce <__ieee754_sqrt+0x10c>
    7dec:	e1d9                	bnez	a1,7e72 <__ieee754_sqrt+0x1b0>
    7dee:	00b6d593          	srli	a1,a3,0xb
    7df2:	17ad                	addi	a5,a5,-21
    7df4:	872e                	mv	a4,a1
    7df6:	06d6                	slli	a3,a3,0x15
    7df8:	d9fd                	beqz	a1,7dee <__ieee754_sqrt+0x12c>
    7dfa:	0145d613          	srli	a2,a1,0x14
    7dfe:	ea41                	bnez	a2,7e8e <__ieee754_sqrt+0x1cc>
    7e00:	4601                	li	a2,0
    7e02:	a011                	j	7e06 <__ieee754_sqrt+0x144>
    7e04:	862a                	mv	a2,a0
    7e06:	0706                	slli	a4,a4,0x1
    7e08:	00b71593          	slli	a1,a4,0xb
    7e0c:	00160513          	addi	a0,a2,1 # 80000001 <__freertos_irq_stack_top+0x5fffb001>
    7e10:	fe05dae3          	bgez	a1,7e04 <__ieee754_sqrt+0x142>
    7e14:	02000893          	li	a7,32
    7e18:	8836                	mv	a6,a3
    7e1a:	40a888b3          	sub	a7,a7,a0
    7e1e:	85ba                	mv	a1,a4
    7e20:	00a696b3          	sll	a3,a3,a0
    7e24:	01185733          	srl	a4,a6,a7
    7e28:	40c78e33          	sub	t3,a5,a2
    7e2c:	00b767b3          	or	a5,a4,a1
    7e30:	bd6d                	j	7cea <__ieee754_sqrt+0x28>
    7e32:	fff8c813          	not	a6,a7
    7e36:	01f85813          	srli	a6,a6,0x1f
    7e3a:	9836                	add	a6,a6,a3
    7e3c:	bf3d                	j	7d7a <__ieee754_sqrt+0xb8>
    7e3e:	f0b76de3          	bltu	a4,a1,7d58 <__ieee754_sqrt+0x96>
    7e42:	00c588b3          	add	a7,a1,a2
    7e46:	fe05c6e3          	bltz	a1,7e32 <__ieee754_sqrt+0x170>
    7e4a:	883e                	mv	a6,a5
    7e4c:	4781                	li	a5,0
    7e4e:	bf15                	j	7d82 <__ieee754_sqrt+0xc0>
    7e50:	862a                	mv	a2,a0
    7e52:	86ae                	mv	a3,a1
    7e54:	4be020ef          	jal	ra,a312 <__muldf3>
    7e58:	8626                	mv	a2,s1
    7e5a:	86a2                	mv	a3,s0
    7e5c:	604010ef          	jal	ra,9460 <__adddf3>
    7e60:	40b2                	lw	ra,12(sp)
    7e62:	4422                	lw	s0,8(sp)
    7e64:	84aa                	mv	s1,a0
    7e66:	872e                	mv	a4,a1
    7e68:	8526                	mv	a0,s1
    7e6a:	85ba                	mv	a1,a4
    7e6c:	4492                	lw	s1,4(sp)
    7e6e:	0141                	addi	sp,sp,16
    7e70:	8082                	ret
    7e72:	862a                	mv	a2,a0
    7e74:	86ae                	mv	a3,a1
    7e76:	155020ef          	jal	ra,a7ca <__subdf3>
    7e7a:	862a                	mv	a2,a0
    7e7c:	86ae                	mv	a3,a1
    7e7e:	513010ef          	jal	ra,9b90 <__divdf3>
    7e82:	84aa                	mv	s1,a0
    7e84:	872e                	mv	a4,a1
    7e86:	b7a1                	j	7dce <__ieee754_sqrt+0x10c>
    7e88:	872e                	mv	a4,a1
    7e8a:	4781                	li	a5,0
    7e8c:	bf95                	j	7e00 <__ieee754_sqrt+0x13e>
    7e8e:	8836                	mv	a6,a3
    7e90:	02000893          	li	a7,32
    7e94:	567d                	li	a2,-1
    7e96:	b779                	j	7e24 <__ieee754_sqrt+0x162>

00007e98 <__kernel_cos>:
    7e98:	7139                	addi	sp,sp,-64
    7e9a:	d05a                	sw	s6,32(sp)
    7e9c:	00159b13          	slli	s6,a1,0x1
    7ea0:	d84a                	sw	s2,48(sp)
    7ea2:	d64e                	sw	s3,44(sp)
    7ea4:	cc62                	sw	s8,24(sp)
    7ea6:	ca66                	sw	s9,20(sp)
    7ea8:	de06                	sw	ra,60(sp)
    7eaa:	dc22                	sw	s0,56(sp)
    7eac:	da26                	sw	s1,52(sp)
    7eae:	d452                	sw	s4,40(sp)
    7eb0:	d256                	sw	s5,36(sp)
    7eb2:	ce5e                	sw	s7,28(sp)
    7eb4:	c86a                	sw	s10,16(sp)
    7eb6:	c66e                	sw	s11,12(sp)
    7eb8:	001b5b13          	srli	s6,s6,0x1
    7ebc:	3e4007b7          	lui	a5,0x3e400
    7ec0:	8c2e                	mv	s8,a1
    7ec2:	8caa                	mv	s9,a0
    7ec4:	8932                	mv	s2,a2
    7ec6:	89b6                	mv	s3,a3
    7ec8:	10fb5563          	bge	s6,a5,7fd2 <__kernel_cos+0x13a>
    7ecc:	078030ef          	jal	ra,af44 <__fixdfsi>
    7ed0:	26050963          	beqz	a0,8142 <__kernel_cos+0x2aa>
    7ed4:	8666                	mv	a2,s9
    7ed6:	86e2                	mv	a3,s8
    7ed8:	8566                	mv	a0,s9
    7eda:	85e2                	mv	a1,s8
    7edc:	436020ef          	jal	ra,a312 <__muldf3>
    7ee0:	00006797          	auipc	a5,0x6
    7ee4:	ce878793          	addi	a5,a5,-792 # dbc8 <two_over_pi+0x118>
    7ee8:	4390                	lw	a2,0(a5)
    7eea:	43d4                	lw	a3,4(a5)
    7eec:	842a                	mv	s0,a0
    7eee:	84ae                	mv	s1,a1
    7ef0:	422020ef          	jal	ra,a312 <__muldf3>
    7ef4:	00006797          	auipc	a5,0x6
    7ef8:	cdc78793          	addi	a5,a5,-804 # dbd0 <two_over_pi+0x120>
    7efc:	4390                	lw	a2,0(a5)
    7efe:	43d4                	lw	a3,4(a5)
    7f00:	560010ef          	jal	ra,9460 <__adddf3>
    7f04:	8622                	mv	a2,s0
    7f06:	86a6                	mv	a3,s1
    7f08:	40a020ef          	jal	ra,a312 <__muldf3>
    7f0c:	00006797          	auipc	a5,0x6
    7f10:	ccc78793          	addi	a5,a5,-820 # dbd8 <two_over_pi+0x128>
    7f14:	4390                	lw	a2,0(a5)
    7f16:	43d4                	lw	a3,4(a5)
    7f18:	0b3020ef          	jal	ra,a7ca <__subdf3>
    7f1c:	8622                	mv	a2,s0
    7f1e:	86a6                	mv	a3,s1
    7f20:	3f2020ef          	jal	ra,a312 <__muldf3>
    7f24:	00006797          	auipc	a5,0x6
    7f28:	cbc78793          	addi	a5,a5,-836 # dbe0 <two_over_pi+0x130>
    7f2c:	4390                	lw	a2,0(a5)
    7f2e:	43d4                	lw	a3,4(a5)
    7f30:	530010ef          	jal	ra,9460 <__adddf3>
    7f34:	8622                	mv	a2,s0
    7f36:	86a6                	mv	a3,s1
    7f38:	3da020ef          	jal	ra,a312 <__muldf3>
    7f3c:	00006797          	auipc	a5,0x6
    7f40:	cac78793          	addi	a5,a5,-852 # dbe8 <two_over_pi+0x138>
    7f44:	4390                	lw	a2,0(a5)
    7f46:	43d4                	lw	a3,4(a5)
    7f48:	083020ef          	jal	ra,a7ca <__subdf3>
    7f4c:	8622                	mv	a2,s0
    7f4e:	86a6                	mv	a3,s1
    7f50:	3c2020ef          	jal	ra,a312 <__muldf3>
    7f54:	00006797          	auipc	a5,0x6
    7f58:	c9c78793          	addi	a5,a5,-868 # dbf0 <two_over_pi+0x140>
    7f5c:	4390                	lw	a2,0(a5)
    7f5e:	43d4                	lw	a3,4(a5)
    7f60:	500010ef          	jal	ra,9460 <__adddf3>
    7f64:	8622                	mv	a2,s0
    7f66:	86a6                	mv	a3,s1
    7f68:	3aa020ef          	jal	ra,a312 <__muldf3>
    7f6c:	8a2a                	mv	s4,a0
    7f6e:	8aae                	mv	s5,a1
    7f70:	00005797          	auipc	a5,0x5
    7f74:	78878793          	addi	a5,a5,1928 # d6f8 <_read+0x162>
    7f78:	4390                	lw	a2,0(a5)
    7f7a:	43d4                	lw	a3,4(a5)
    7f7c:	8522                	mv	a0,s0
    7f7e:	85a6                	mv	a1,s1
    7f80:	392020ef          	jal	ra,a312 <__muldf3>
    7f84:	8b2a                	mv	s6,a0
    7f86:	8bae                	mv	s7,a1
    7f88:	8652                	mv	a2,s4
    7f8a:	86d6                	mv	a3,s5
    7f8c:	8522                	mv	a0,s0
    7f8e:	85a6                	mv	a1,s1
    7f90:	382020ef          	jal	ra,a312 <__muldf3>
    7f94:	842a                	mv	s0,a0
    7f96:	84ae                	mv	s1,a1
    7f98:	864a                	mv	a2,s2
    7f9a:	86ce                	mv	a3,s3
    7f9c:	8566                	mv	a0,s9
    7f9e:	85e2                	mv	a1,s8
    7fa0:	372020ef          	jal	ra,a312 <__muldf3>
    7fa4:	862a                	mv	a2,a0
    7fa6:	86ae                	mv	a3,a1
    7fa8:	8522                	mv	a0,s0
    7faa:	85a6                	mv	a1,s1
    7fac:	01f020ef          	jal	ra,a7ca <__subdf3>
    7fb0:	862a                	mv	a2,a0
    7fb2:	86ae                	mv	a3,a1
    7fb4:	855a                	mv	a0,s6
    7fb6:	85de                	mv	a1,s7
    7fb8:	013020ef          	jal	ra,a7ca <__subdf3>
    7fbc:	00005797          	auipc	a5,0x5
    7fc0:	7ac78793          	addi	a5,a5,1964 # d768 <_read+0x1d2>
    7fc4:	862a                	mv	a2,a0
    7fc6:	86ae                	mv	a3,a1
    7fc8:	4388                	lw	a0,0(a5)
    7fca:	43cc                	lw	a1,4(a5)
    7fcc:	7fe020ef          	jal	ra,a7ca <__subdf3>
    7fd0:	aa0d                	j	8102 <__kernel_cos+0x26a>
    7fd2:	862a                	mv	a2,a0
    7fd4:	86ae                	mv	a3,a1
    7fd6:	33c020ef          	jal	ra,a312 <__muldf3>
    7fda:	00006797          	auipc	a5,0x6
    7fde:	bee78793          	addi	a5,a5,-1042 # dbc8 <two_over_pi+0x118>
    7fe2:	4390                	lw	a2,0(a5)
    7fe4:	43d4                	lw	a3,4(a5)
    7fe6:	842a                	mv	s0,a0
    7fe8:	84ae                	mv	s1,a1
    7fea:	328020ef          	jal	ra,a312 <__muldf3>
    7fee:	00006797          	auipc	a5,0x6
    7ff2:	be278793          	addi	a5,a5,-1054 # dbd0 <two_over_pi+0x120>
    7ff6:	4390                	lw	a2,0(a5)
    7ff8:	43d4                	lw	a3,4(a5)
    7ffa:	466010ef          	jal	ra,9460 <__adddf3>
    7ffe:	8622                	mv	a2,s0
    8000:	86a6                	mv	a3,s1
    8002:	310020ef          	jal	ra,a312 <__muldf3>
    8006:	00006797          	auipc	a5,0x6
    800a:	bd278793          	addi	a5,a5,-1070 # dbd8 <two_over_pi+0x128>
    800e:	4390                	lw	a2,0(a5)
    8010:	43d4                	lw	a3,4(a5)
    8012:	7b8020ef          	jal	ra,a7ca <__subdf3>
    8016:	8622                	mv	a2,s0
    8018:	86a6                	mv	a3,s1
    801a:	2f8020ef          	jal	ra,a312 <__muldf3>
    801e:	00006797          	auipc	a5,0x6
    8022:	bc278793          	addi	a5,a5,-1086 # dbe0 <two_over_pi+0x130>
    8026:	4390                	lw	a2,0(a5)
    8028:	43d4                	lw	a3,4(a5)
    802a:	436010ef          	jal	ra,9460 <__adddf3>
    802e:	8622                	mv	a2,s0
    8030:	86a6                	mv	a3,s1
    8032:	2e0020ef          	jal	ra,a312 <__muldf3>
    8036:	00006797          	auipc	a5,0x6
    803a:	bb278793          	addi	a5,a5,-1102 # dbe8 <two_over_pi+0x138>
    803e:	4390                	lw	a2,0(a5)
    8040:	43d4                	lw	a3,4(a5)
    8042:	788020ef          	jal	ra,a7ca <__subdf3>
    8046:	8622                	mv	a2,s0
    8048:	86a6                	mv	a3,s1
    804a:	2c8020ef          	jal	ra,a312 <__muldf3>
    804e:	00006797          	auipc	a5,0x6
    8052:	ba278793          	addi	a5,a5,-1118 # dbf0 <two_over_pi+0x140>
    8056:	4390                	lw	a2,0(a5)
    8058:	43d4                	lw	a3,4(a5)
    805a:	406010ef          	jal	ra,9460 <__adddf3>
    805e:	8622                	mv	a2,s0
    8060:	86a6                	mv	a3,s1
    8062:	2b0020ef          	jal	ra,a312 <__muldf3>
    8066:	3fd337b7          	lui	a5,0x3fd33
    806a:	33278793          	addi	a5,a5,818 # 3fd33332 <__freertos_irq_stack_top+0x1fd2e332>
    806e:	8a2a                	mv	s4,a0
    8070:	8aae                	mv	s5,a1
    8072:	ef67dfe3          	bge	a5,s6,7f70 <__kernel_cos+0xd8>
    8076:	3fe907b7          	lui	a5,0x3fe90
    807a:	0b67c363          	blt	a5,s6,8120 <__kernel_cos+0x288>
    807e:	00005717          	auipc	a4,0x5
    8082:	6ea70713          	addi	a4,a4,1770 # d768 <_read+0x1d2>
    8086:	ffe007b7          	lui	a5,0xffe00
    808a:	4308                	lw	a0,0(a4)
    808c:	434c                	lw	a1,4(a4)
    808e:	9b3e                	add	s6,s6,a5
    8090:	4781                	li	a5,0
    8092:	86da                	mv	a3,s6
    8094:	863e                	mv	a2,a5
    8096:	8d3e                	mv	s10,a5
    8098:	732020ef          	jal	ra,a7ca <__subdf3>
    809c:	8dda                	mv	s11,s6
    809e:	8bae                	mv	s7,a1
    80a0:	8b2a                	mv	s6,a0
    80a2:	00005797          	auipc	a5,0x5
    80a6:	65678793          	addi	a5,a5,1622 # d6f8 <_read+0x162>
    80aa:	4390                	lw	a2,0(a5)
    80ac:	43d4                	lw	a3,4(a5)
    80ae:	8522                	mv	a0,s0
    80b0:	85a6                	mv	a1,s1
    80b2:	260020ef          	jal	ra,a312 <__muldf3>
    80b6:	866a                	mv	a2,s10
    80b8:	86ee                	mv	a3,s11
    80ba:	710020ef          	jal	ra,a7ca <__subdf3>
    80be:	8d2a                	mv	s10,a0
    80c0:	8dae                	mv	s11,a1
    80c2:	8652                	mv	a2,s4
    80c4:	86d6                	mv	a3,s5
    80c6:	8522                	mv	a0,s0
    80c8:	85a6                	mv	a1,s1
    80ca:	248020ef          	jal	ra,a312 <__muldf3>
    80ce:	842a                	mv	s0,a0
    80d0:	84ae                	mv	s1,a1
    80d2:	864a                	mv	a2,s2
    80d4:	86ce                	mv	a3,s3
    80d6:	8566                	mv	a0,s9
    80d8:	85e2                	mv	a1,s8
    80da:	238020ef          	jal	ra,a312 <__muldf3>
    80de:	862a                	mv	a2,a0
    80e0:	86ae                	mv	a3,a1
    80e2:	8522                	mv	a0,s0
    80e4:	85a6                	mv	a1,s1
    80e6:	6e4020ef          	jal	ra,a7ca <__subdf3>
    80ea:	862a                	mv	a2,a0
    80ec:	86ae                	mv	a3,a1
    80ee:	856a                	mv	a0,s10
    80f0:	85ee                	mv	a1,s11
    80f2:	6d8020ef          	jal	ra,a7ca <__subdf3>
    80f6:	862a                	mv	a2,a0
    80f8:	86ae                	mv	a3,a1
    80fa:	855a                	mv	a0,s6
    80fc:	85de                	mv	a1,s7
    80fe:	6cc020ef          	jal	ra,a7ca <__subdf3>
    8102:	50f2                	lw	ra,60(sp)
    8104:	5462                	lw	s0,56(sp)
    8106:	54d2                	lw	s1,52(sp)
    8108:	5942                	lw	s2,48(sp)
    810a:	59b2                	lw	s3,44(sp)
    810c:	5a22                	lw	s4,40(sp)
    810e:	5a92                	lw	s5,36(sp)
    8110:	5b02                	lw	s6,32(sp)
    8112:	4bf2                	lw	s7,28(sp)
    8114:	4c62                	lw	s8,24(sp)
    8116:	4cd2                	lw	s9,20(sp)
    8118:	4d42                	lw	s10,16(sp)
    811a:	4db2                	lw	s11,12(sp)
    811c:	6121                	addi	sp,sp,64
    811e:	8082                	ret
    8120:	00006797          	auipc	a5,0x6
    8124:	a9878793          	addi	a5,a5,-1384 # dbb8 <two_over_pi+0x108>
    8128:	0007ab03          	lw	s6,0(a5)
    812c:	0047ab83          	lw	s7,4(a5)
    8130:	00006797          	auipc	a5,0x6
    8134:	a9078793          	addi	a5,a5,-1392 # dbc0 <two_over_pi+0x110>
    8138:	0007ad03          	lw	s10,0(a5)
    813c:	0047ad83          	lw	s11,4(a5)
    8140:	b78d                	j	80a2 <__kernel_cos+0x20a>
    8142:	00005797          	auipc	a5,0x5
    8146:	62678793          	addi	a5,a5,1574 # d768 <_read+0x1d2>
    814a:	4388                	lw	a0,0(a5)
    814c:	43cc                	lw	a1,4(a5)
    814e:	bf55                	j	8102 <__kernel_cos+0x26a>

00008150 <__kernel_rem_pio2>:
    8150:	d5010113          	addi	sp,sp,-688
    8154:	29312e23          	sw	s3,668(sp)
    8158:	89b6                	mv	s3,a3
    815a:	00271813          	slli	a6,a4,0x2
    815e:	dc3a                	sw	a4,56(sp)
    8160:	d43e                	sw	a5,40(sp)
    8162:	00006717          	auipc	a4,0x6
    8166:	af670713          	addi	a4,a4,-1290 # dc58 <init_jk>
    816a:	fff98793          	addi	a5,s3,-1
    816e:	27b12e23          	sw	s11,636(sp)
    8172:	9742                	add	a4,a4,a6
    8174:	2a112623          	sw	ra,684(sp)
    8178:	2a812423          	sw	s0,680(sp)
    817c:	2a912223          	sw	s1,676(sp)
    8180:	2b212023          	sw	s2,672(sp)
    8184:	29412c23          	sw	s4,664(sp)
    8188:	29512a23          	sw	s5,660(sp)
    818c:	29612823          	sw	s6,656(sp)
    8190:	29712623          	sw	s7,652(sp)
    8194:	29812423          	sw	s8,648(sp)
    8198:	29912223          	sw	s9,644(sp)
    819c:	29a12023          	sw	s10,640(sp)
    81a0:	56b1                	li	a3,-20
    81a2:	d22a                	sw	a0,36(sp)
    81a4:	da2e                	sw	a1,52(sp)
    81a6:	c83e                	sw	a5,16(sp)
    81a8:	00072d83          	lw	s11,0(a4)
    81ac:	00d644e3          	blt	a2,a3,89b4 <__kernel_rem_pio2+0x864>
    81b0:	ffd60713          	addi	a4,a2,-3
    81b4:	47e1                	li	a5,24
    81b6:	02f747b3          	div	a5,a4,a5
    81ba:	d03e                	sw	a5,32(sp)
    81bc:	0785                	addi	a5,a5,1
    81be:	00279713          	slli	a4,a5,0x2
    81c2:	8f99                	sub	a5,a5,a4
    81c4:	078e                	slli	a5,a5,0x3
    81c6:	5582                	lw	a1,32(sp)
    81c8:	fff98693          	addi	a3,s3,-1
    81cc:	00dd8733          	add	a4,s11,a3
    81d0:	97b2                	add	a5,a5,a2
    81d2:	40d58433          	sub	s0,a1,a3
    81d6:	00170913          	addi	s2,a4,1
    81da:	ca3e                	sw	a5,20(sp)
    81dc:	0904                	addi	s1,sp,144
    81de:	9922                	add	s2,s2,s0
    81e0:	02074363          	bltz	a4,8206 <__kernel_rem_pio2+0xb6>
    81e4:	5a22                	lw	s4,40(sp)
    81e6:	00241793          	slli	a5,s0,0x2
    81ea:	97d2                	add	a5,a5,s4
    81ec:	4501                	li	a0,0
    81ee:	4581                	li	a1,0
    81f0:	00044563          	bltz	s0,81fa <__kernel_rem_pio2+0xaa>
    81f4:	4388                	lw	a0,0(a5)
    81f6:	5b7020ef          	jal	ra,afac <__floatsidf>
    81fa:	c088                	sw	a0,0(s1)
    81fc:	c0cc                	sw	a1,4(s1)
    81fe:	0405                	addi	s0,s0,1
    8200:	04a1                	addi	s1,s1,8
    8202:	ff2412e3          	bne	s0,s2,81e6 <__kernel_rem_pio2+0x96>
    8206:	060dc463          	bltz	s11,826e <__kernel_rem_pio2+0x11e>
    820a:	4bc2                	lw	s7,16(sp)
    820c:	5d12                	lw	s10,36(sp)
    820e:	091c                	addi	a5,sp,144
    8210:	003b9913          	slli	s2,s7,0x3
    8214:	00890413          	addi	s0,s2,8
    8218:	003d9a13          	slli	s4,s11,0x3
    821c:	993e                	add	s2,s2,a5
    821e:	0bbc                	addi	a5,sp,472
    8220:	0b84                	addi	s1,sp,464
    8222:	9a3e                	add	s4,s4,a5
    8224:	946a                	add	s0,s0,s10
    8226:	8b4a                	mv	s6,s2
    8228:	8aea                	mv	s5,s10
    822a:	4c01                	li	s8,0
    822c:	4c81                	li	s9,0
    822e:	020bc863          	bltz	s7,825e <__kernel_rem_pio2+0x10e>
    8232:	000b2603          	lw	a2,0(s6)
    8236:	004b2683          	lw	a3,4(s6)
    823a:	000aa503          	lw	a0,0(s5)
    823e:	004aa583          	lw	a1,4(s5)
    8242:	0aa1                	addi	s5,s5,8
    8244:	1b61                	addi	s6,s6,-8
    8246:	0cc020ef          	jal	ra,a312 <__muldf3>
    824a:	862a                	mv	a2,a0
    824c:	86ae                	mv	a3,a1
    824e:	8562                	mv	a0,s8
    8250:	85e6                	mv	a1,s9
    8252:	20e010ef          	jal	ra,9460 <__adddf3>
    8256:	8c2a                	mv	s8,a0
    8258:	8cae                	mv	s9,a1
    825a:	fc8a9ce3          	bne	s5,s0,8232 <__kernel_rem_pio2+0xe2>
    825e:	0184a023          	sw	s8,0(s1)
    8262:	0194a223          	sw	s9,4(s1)
    8266:	04a1                	addi	s1,s1,8
    8268:	0921                	addi	s2,s2,8
    826a:	fb449ee3          	bne	s1,s4,8226 <__kernel_rem_pio2+0xd6>
    826e:	002d9713          	slli	a4,s11,0x2
    8272:	1870                	addi	a2,sp,60
    8274:	ff870693          	addi	a3,a4,-8
    8278:	00e60c33          	add	s8,a2,a4
    827c:	0098                	addi	a4,sp,64
    827e:	9736                	add	a4,a4,a3
    8280:	d83a                	sw	a4,48(sp)
    8282:	5712                	lw	a4,36(sp)
    8284:	00399413          	slli	s0,s3,0x3
    8288:	fffd8793          	addi	a5,s11,-1
    828c:	943a                	add	s0,s0,a4
    828e:	20000737          	lui	a4,0x20000
    8292:	177d                	addi	a4,a4,-1
    8294:	cc3a                	sw	a4,24(sp)
    8296:	00800737          	lui	a4,0x800
    829a:	177d                	addi	a4,a4,-1
    829c:	078a                	slli	a5,a5,0x2
    829e:	de3a                	sw	a4,60(sp)
    82a0:	1c98                	addi	a4,sp,624
    82a2:	97ba                	add	a5,a5,a4
    82a4:	84ee                	mv	s1,s11
    82a6:	1d010d13          	addi	s10,sp,464
    82aa:	d63e                	sw	a5,44(sp)
    82ac:	ce6e                	sw	s11,28(sp)
    82ae:	00349793          	slli	a5,s1,0x3
    82b2:	1c98                	addi	a4,sp,624
    82b4:	97ba                	add	a5,a5,a4
    82b6:	f607aa03          	lw	s4,-160(a5)
    82ba:	f647aa83          	lw	s5,-156(a5)
    82be:	08905663          	blez	s1,834a <__kernel_rem_pio2+0x1fa>
    82c2:	47e2                	lw	a5,24(sp)
    82c4:	04010993          	addi	s3,sp,64
    82c8:	00f48933          	add	s2,s1,a5
    82cc:	00006797          	auipc	a5,0x6
    82d0:	97478793          	addi	a5,a5,-1676 # dc40 <PIo2+0x48>
    82d4:	0047a803          	lw	a6,4(a5)
    82d8:	439c                	lw	a5,0(a5)
    82da:	090e                	slli	s2,s2,0x3
    82dc:	c242                	sw	a6,4(sp)
    82de:	c03e                	sw	a5,0(sp)
    82e0:	00005797          	auipc	a5,0x5
    82e4:	74878793          	addi	a5,a5,1864 # da28 <atanlo+0x1a8>
    82e8:	0047a803          	lw	a6,4(a5)
    82ec:	439c                	lw	a5,0(a5)
    82ee:	996a                	add	s2,s2,s10
    82f0:	c642                	sw	a6,12(sp)
    82f2:	c43e                	sw	a5,8(sp)
    82f4:	a011                	j	82f8 <__kernel_rem_pio2+0x1a8>
    82f6:	893e                	mv	s2,a5
    82f8:	4602                	lw	a2,0(sp)
    82fa:	4692                	lw	a3,4(sp)
    82fc:	8552                	mv	a0,s4
    82fe:	85d6                	mv	a1,s5
    8300:	012020ef          	jal	ra,a312 <__muldf3>
    8304:	441020ef          	jal	ra,af44 <__fixdfsi>
    8308:	4a5020ef          	jal	ra,afac <__floatsidf>
    830c:	4622                	lw	a2,8(sp)
    830e:	46b2                	lw	a3,12(sp)
    8310:	8b2a                	mv	s6,a0
    8312:	8bae                	mv	s7,a1
    8314:	7ff010ef          	jal	ra,a312 <__muldf3>
    8318:	862a                	mv	a2,a0
    831a:	86ae                	mv	a3,a1
    831c:	8552                	mv	a0,s4
    831e:	85d6                	mv	a1,s5
    8320:	4aa020ef          	jal	ra,a7ca <__subdf3>
    8324:	421020ef          	jal	ra,af44 <__fixdfsi>
    8328:	00092603          	lw	a2,0(s2)
    832c:	00492683          	lw	a3,4(s2)
    8330:	00a9a023          	sw	a0,0(s3)
    8334:	85de                	mv	a1,s7
    8336:	855a                	mv	a0,s6
    8338:	128010ef          	jal	ra,9460 <__adddf3>
    833c:	8a2a                	mv	s4,a0
    833e:	8aae                	mv	s5,a1
    8340:	ff890793          	addi	a5,s2,-8
    8344:	0991                	addi	s3,s3,4
    8346:	fb2d18e3          	bne	s10,s2,82f6 <__kernel_rem_pio2+0x1a6>
    834a:	4b52                	lw	s6,20(sp)
    834c:	85d6                	mv	a1,s5
    834e:	8552                	mv	a0,s4
    8350:	865a                	mv	a2,s6
    8352:	3e3000ef          	jal	ra,8f34 <scalbn>
    8356:	00006797          	auipc	a5,0x6
    835a:	8f278793          	addi	a5,a5,-1806 # dc48 <PIo2+0x50>
    835e:	4390                	lw	a2,0(a5)
    8360:	43d4                	lw	a3,4(a5)
    8362:	892a                	mv	s2,a0
    8364:	89ae                	mv	s3,a1
    8366:	7ad010ef          	jal	ra,a312 <__muldf3>
    836a:	0e1000ef          	jal	ra,8c4a <floor>
    836e:	00006797          	auipc	a5,0x6
    8372:	8e278793          	addi	a5,a5,-1822 # dc50 <PIo2+0x58>
    8376:	4390                	lw	a2,0(a5)
    8378:	43d4                	lw	a3,4(a5)
    837a:	799010ef          	jal	ra,a312 <__muldf3>
    837e:	862a                	mv	a2,a0
    8380:	86ae                	mv	a3,a1
    8382:	854a                	mv	a0,s2
    8384:	85ce                	mv	a1,s3
    8386:	444020ef          	jal	ra,a7ca <__subdf3>
    838a:	89ae                	mv	s3,a1
    838c:	892a                	mv	s2,a0
    838e:	3b7020ef          	jal	ra,af44 <__fixdfsi>
    8392:	8aaa                	mv	s5,a0
    8394:	419020ef          	jal	ra,afac <__floatsidf>
    8398:	862a                	mv	a2,a0
    839a:	86ae                	mv	a3,a1
    839c:	854a                	mv	a0,s2
    839e:	85ce                	mv	a1,s3
    83a0:	42a020ef          	jal	ra,a7ca <__subdf3>
    83a4:	892a                	mv	s2,a0
    83a6:	89ae                	mv	s3,a1
    83a8:	13605763          	blez	s6,84d6 <__kernel_rem_pio2+0x386>
    83ac:	fff48793          	addi	a5,s1,-1
    83b0:	1c98                	addi	a4,sp,624
    83b2:	078a                	slli	a5,a5,0x2
    83b4:	97ba                	add	a5,a5,a4
    83b6:	dd07aa03          	lw	s4,-560(a5)
    83ba:	4761                	li	a4,24
    83bc:	41670733          	sub	a4,a4,s6
    83c0:	40ea56b3          	sra	a3,s4,a4
    83c4:	00e69733          	sll	a4,a3,a4
    83c8:	40ea0733          	sub	a4,s4,a4
    83cc:	4a5d                	li	s4,23
    83ce:	416a0a33          	sub	s4,s4,s6
    83d2:	dce7a823          	sw	a4,-560(a5)
    83d6:	41475a33          	sra	s4,a4,s4
    83da:	9ab6                	add	s5,s5,a3
    83dc:	11404b63          	bgtz	s4,84f2 <__kernel_rem_pio2+0x3a2>
    83e0:	4601                	li	a2,0
    83e2:	4681                	li	a3,0
    83e4:	854a                	mv	a0,s2
    83e6:	85ce                	mv	a1,s3
    83e8:	55d010ef          	jal	ra,a144 <__eqdf2>
    83ec:	1a051863          	bnez	a0,859c <__kernel_rem_pio2+0x44c>
    83f0:	47f2                	lw	a5,28(sp)
    83f2:	fff48613          	addi	a2,s1,-1
    83f6:	00f64f63          	blt	a2,a5,8414 <__kernel_rem_pio2+0x2c4>
    83fa:	00249793          	slli	a5,s1,0x2
    83fe:	0098                	addi	a4,sp,64
    8400:	17f1                	addi	a5,a5,-4
    8402:	97ba                	add	a5,a5,a4
    8404:	4701                	li	a4,0
    8406:	4394                	lw	a3,0(a5)
    8408:	17f1                	addi	a5,a5,-4
    840a:	8f55                	or	a4,a4,a3
    840c:	ff879de3          	bne	a5,s8,8406 <__kernel_rem_pio2+0x2b6>
    8410:	28071d63          	bnez	a4,86aa <__kernel_rem_pio2+0x55a>
    8414:	57b2                	lw	a5,44(sp)
    8416:	dd07a783          	lw	a5,-560(a5)
    841a:	28079363          	bnez	a5,86a0 <__kernel_rem_pio2+0x550>
    841e:	57c2                	lw	a5,48(sp)
    8420:	4705                	li	a4,1
    8422:	17f1                	addi	a5,a5,-4
    8424:	43d4                	lw	a3,4(a5)
    8426:	0705                	addi	a4,a4,1
    8428:	deed                	beqz	a3,8422 <__kernel_rem_pio2+0x2d2>
    842a:	00148793          	addi	a5,s1,1
    842e:	8abe                	mv	s5,a5
    8430:	94ba                	add	s1,s1,a4
    8432:	4742                	lw	a4,16(sp)
    8434:	5d92                	lw	s11,36(sp)
    8436:	c062                	sw	s8,0(sp)
    8438:	00f70933          	add	s2,a4,a5
    843c:	5702                	lw	a4,32(sp)
    843e:	00f70a33          	add	s4,a4,a5
    8442:	4762                	lw	a4,24(sp)
    8444:	078e                	slli	a5,a5,0x3
    8446:	0a0a                	slli	s4,s4,0x2
    8448:	993a                	add	s2,s2,a4
    844a:	5722                	lw	a4,40(sp)
    844c:	090e                	slli	s2,s2,0x3
    844e:	00fd09b3          	add	s3,s10,a5
    8452:	091c                	addi	a5,sp,144
    8454:	9a3a                	add	s4,s4,a4
    8456:	993e                	add	s2,s2,a5
    8458:	000a2503          	lw	a0,0(s4)
    845c:	351020ef          	jal	ra,afac <__floatsidf>
    8460:	47c2                	lw	a5,16(sp)
    8462:	00a92423          	sw	a0,8(s2)
    8466:	00b92623          	sw	a1,12(s2)
    846a:	0407c963          	bltz	a5,84bc <__kernel_rem_pio2+0x36c>
    846e:	8bca                	mv	s7,s2
    8470:	8b6e                	mv	s6,s11
    8472:	4c01                	li	s8,0
    8474:	4c81                	li	s9,0
    8476:	a031                	j	8482 <__kernel_rem_pio2+0x332>
    8478:	000ba503          	lw	a0,0(s7)
    847c:	004ba583          	lw	a1,4(s7)
    8480:	1be1                	addi	s7,s7,-8
    8482:	000b2603          	lw	a2,0(s6)
    8486:	004b2683          	lw	a3,4(s6)
    848a:	0b21                	addi	s6,s6,8
    848c:	687010ef          	jal	ra,a312 <__muldf3>
    8490:	862a                	mv	a2,a0
    8492:	86ae                	mv	a3,a1
    8494:	8562                	mv	a0,s8
    8496:	85e6                	mv	a1,s9
    8498:	7c9000ef          	jal	ra,9460 <__adddf3>
    849c:	8c2a                	mv	s8,a0
    849e:	8cae                	mv	s9,a1
    84a0:	fc8b1ce3          	bne	s6,s0,8478 <__kernel_rem_pio2+0x328>
    84a4:	0189a023          	sw	s8,0(s3)
    84a8:	0199a223          	sw	s9,4(s3)
    84ac:	0a85                	addi	s5,s5,1
    84ae:	0a11                	addi	s4,s4,4
    84b0:	09a1                	addi	s3,s3,8
    84b2:	0921                	addi	s2,s2,8
    84b4:	fb54d2e3          	bge	s1,s5,8458 <__kernel_rem_pio2+0x308>
    84b8:	4c02                	lw	s8,0(sp)
    84ba:	bbd5                	j	82ae <__kernel_rem_pio2+0x15e>
    84bc:	4c01                	li	s8,0
    84be:	4c81                	li	s9,0
    84c0:	0189a023          	sw	s8,0(s3)
    84c4:	0199a223          	sw	s9,4(s3)
    84c8:	0a85                	addi	s5,s5,1
    84ca:	0a11                	addi	s4,s4,4
    84cc:	09a1                	addi	s3,s3,8
    84ce:	0921                	addi	s2,s2,8
    84d0:	f954d4e3          	bge	s1,s5,8458 <__kernel_rem_pio2+0x308>
    84d4:	b7d5                	j	84b8 <__kernel_rem_pio2+0x368>
    84d6:	47d2                	lw	a5,20(sp)
    84d8:	18079863          	bnez	a5,8668 <__kernel_rem_pio2+0x518>
    84dc:	fff48793          	addi	a5,s1,-1
    84e0:	078a                	slli	a5,a5,0x2
    84e2:	1c98                	addi	a4,sp,624
    84e4:	97ba                	add	a5,a5,a4
    84e6:	dd07aa03          	lw	s4,-560(a5)
    84ea:	417a5a13          	srai	s4,s4,0x17
    84ee:	ef4059e3          	blez	s4,83e0 <__kernel_rem_pio2+0x290>
    84f2:	0a85                	addi	s5,s5,1
    84f4:	4c905463          	blez	s1,89bc <__kernel_rem_pio2+0x86c>
    84f8:	4806                	lw	a6,64(sp)
    84fa:	4785                	li	a5,1
    84fc:	12081563          	bnez	a6,8626 <__kernel_rem_pio2+0x4d6>
    8500:	00f48e63          	beq	s1,a5,851c <__kernel_rem_pio2+0x3cc>
    8504:	00d4                	addi	a3,sp,68
    8506:	4705                	li	a4,1
    8508:	0006a803          	lw	a6,0(a3) # 80000000 <__freertos_irq_stack_top+0x5fffb000>
    850c:	00170793          	addi	a5,a4,1 # 800001 <_data_lma+0x7f2065>
    8510:	0691                	addi	a3,a3,4
    8512:	10081b63          	bnez	a6,8628 <__kernel_rem_pio2+0x4d8>
    8516:	873e                	mv	a4,a5
    8518:	fef498e3          	bne	s1,a5,8508 <__kernel_rem_pio2+0x3b8>
    851c:	4752                	lw	a4,20(sp)
    851e:	02e05363          	blez	a4,8544 <__kernel_rem_pio2+0x3f4>
    8522:	4785                	li	a5,1
    8524:	46f70c63          	beq	a4,a5,899c <__kernel_rem_pio2+0x84c>
    8528:	4789                	li	a5,2
    852a:	00f71d63          	bne	a4,a5,8544 <__kernel_rem_pio2+0x3f4>
    852e:	fff48793          	addi	a5,s1,-1
    8532:	1c98                	addi	a4,sp,624
    8534:	078a                	slli	a5,a5,0x2
    8536:	97ba                	add	a5,a5,a4
    8538:	dd07a703          	lw	a4,-560(a5)
    853c:	072a                	slli	a4,a4,0xa
    853e:	8329                	srli	a4,a4,0xa
    8540:	dce7a823          	sw	a4,-560(a5)
    8544:	4789                	li	a5,2
    8546:	e8fa1de3          	bne	s4,a5,83e0 <__kernel_rem_pio2+0x290>
    854a:	00005797          	auipc	a5,0x5
    854e:	21e78793          	addi	a5,a5,542 # d768 <_read+0x1d2>
    8552:	4388                	lw	a0,0(a5)
    8554:	43cc                	lw	a1,4(a5)
    8556:	864a                	mv	a2,s2
    8558:	86ce                	mv	a3,s3
    855a:	c042                	sw	a6,0(sp)
    855c:	26e020ef          	jal	ra,a7ca <__subdf3>
    8560:	4802                	lw	a6,0(sp)
    8562:	892a                	mv	s2,a0
    8564:	89ae                	mv	s3,a1
    8566:	e6080de3          	beqz	a6,83e0 <__kernel_rem_pio2+0x290>
    856a:	00005797          	auipc	a5,0x5
    856e:	1fe78793          	addi	a5,a5,510 # d768 <_read+0x1d2>
    8572:	4388                	lw	a0,0(a5)
    8574:	43cc                	lw	a1,4(a5)
    8576:	4652                	lw	a2,20(sp)
    8578:	1bd000ef          	jal	ra,8f34 <scalbn>
    857c:	862a                	mv	a2,a0
    857e:	86ae                	mv	a3,a1
    8580:	854a                	mv	a0,s2
    8582:	85ce                	mv	a1,s3
    8584:	246020ef          	jal	ra,a7ca <__subdf3>
    8588:	892a                	mv	s2,a0
    858a:	89ae                	mv	s3,a1
    858c:	4601                	li	a2,0
    858e:	4681                	li	a3,0
    8590:	854a                	mv	a0,s2
    8592:	85ce                	mv	a1,s3
    8594:	3b1010ef          	jal	ra,a144 <__eqdf2>
    8598:	e4050ce3          	beqz	a0,83f0 <__kernel_rem_pio2+0x2a0>
    859c:	4d52                	lw	s10,20(sp)
    859e:	854a                	mv	a0,s2
    85a0:	85ce                	mv	a1,s3
    85a2:	41a00633          	neg	a2,s10
    85a6:	4df2                	lw	s11,28(sp)
    85a8:	18d000ef          	jal	ra,8f34 <scalbn>
    85ac:	00005797          	auipc	a5,0x5
    85b0:	47c78793          	addi	a5,a5,1148 # da28 <atanlo+0x1a8>
    85b4:	0007a903          	lw	s2,0(a5)
    85b8:	0047a983          	lw	s3,4(a5)
    85bc:	8c2a                	mv	s8,a0
    85be:	864a                	mv	a2,s2
    85c0:	86ce                	mv	a3,s3
    85c2:	8cae                	mv	s9,a1
    85c4:	3eb010ef          	jal	ra,a1ae <__gedf2>
    85c8:	46054763          	bltz	a0,8a36 <__kernel_rem_pio2+0x8e6>
    85cc:	00005717          	auipc	a4,0x5
    85d0:	67470713          	addi	a4,a4,1652 # dc40 <PIo2+0x48>
    85d4:	4310                	lw	a2,0(a4)
    85d6:	4354                	lw	a3,4(a4)
    85d8:	8562                	mv	a0,s8
    85da:	85e6                	mv	a1,s9
    85dc:	537010ef          	jal	ra,a312 <__muldf3>
    85e0:	165020ef          	jal	ra,af44 <__fixdfsi>
    85e4:	1c9c                	addi	a5,sp,624
    85e6:	00249413          	slli	s0,s1,0x2
    85ea:	943e                	add	s0,s0,a5
    85ec:	8baa                	mv	s7,a0
    85ee:	1bf020ef          	jal	ra,afac <__floatsidf>
    85f2:	864a                	mv	a2,s2
    85f4:	86ce                	mv	a3,s3
    85f6:	51d010ef          	jal	ra,a312 <__muldf3>
    85fa:	862a                	mv	a2,a0
    85fc:	86ae                	mv	a3,a1
    85fe:	8562                	mv	a0,s8
    8600:	85e6                	mv	a1,s9
    8602:	1c8020ef          	jal	ra,a7ca <__subdf3>
    8606:	13f020ef          	jal	ra,af44 <__fixdfsi>
    860a:	00148b13          	addi	s6,s1,1
    860e:	1c98                	addi	a4,sp,624
    8610:	002b1793          	slli	a5,s6,0x2
    8614:	97ba                	add	a5,a5,a4
    8616:	dca42823          	sw	a0,-560(s0) # 3fdffdd0 <__freertos_irq_stack_top+0x1fdfadd0>
    861a:	018d0713          	addi	a4,s10,24
    861e:	ca3a                	sw	a4,20(sp)
    8620:	dd77a823          	sw	s7,-560(a5)
    8624:	a855                	j	86d8 <__kernel_rem_pio2+0x588>
    8626:	4701                	li	a4,0
    8628:	070a                	slli	a4,a4,0x2
    862a:	01000637          	lui	a2,0x1000
    862e:	1c94                	addi	a3,sp,624
    8630:	9736                	add	a4,a4,a3
    8632:	41060833          	sub	a6,a2,a6
    8636:	dd072823          	sw	a6,-560(a4)
    863a:	0297d563          	bge	a5,s1,8664 <__kernel_rem_pio2+0x514>
    863e:	078a                	slli	a5,a5,0x2
    8640:	00f68733          	add	a4,a3,a5
    8644:	008c                	addi	a1,sp,64
    8646:	00249693          	slli	a3,s1,0x2
    864a:	dd072703          	lw	a4,-560(a4)
    864e:	97ae                	add	a5,a5,a1
    8650:	96ae                	add	a3,a3,a1
    8652:	167d                	addi	a2,a2,-1
    8654:	a011                	j	8658 <__kernel_rem_pio2+0x508>
    8656:	4398                	lw	a4,0(a5)
    8658:	40e60733          	sub	a4,a2,a4
    865c:	c398                	sw	a4,0(a5)
    865e:	0791                	addi	a5,a5,4
    8660:	fed79be3          	bne	a5,a3,8656 <__kernel_rem_pio2+0x506>
    8664:	4805                	li	a6,1
    8666:	bd5d                	j	851c <__kernel_rem_pio2+0x3cc>
    8668:	00005797          	auipc	a5,0x5
    866c:	09078793          	addi	a5,a5,144 # d6f8 <_read+0x162>
    8670:	4390                	lw	a2,0(a5)
    8672:	43d4                	lw	a3,4(a5)
    8674:	4a01                	li	s4,0
    8676:	339010ef          	jal	ra,a1ae <__gedf2>
    867a:	d60543e3          	bltz	a0,83e0 <__kernel_rem_pio2+0x290>
    867e:	0a85                	addi	s5,s5,1
    8680:	4a09                	li	s4,2
    8682:	e6904be3          	bgtz	s1,84f8 <__kernel_rem_pio2+0x3a8>
    8686:	00005797          	auipc	a5,0x5
    868a:	0e278793          	addi	a5,a5,226 # d768 <_read+0x1d2>
    868e:	4388                	lw	a0,0(a5)
    8690:	43cc                	lw	a1,4(a5)
    8692:	864a                	mv	a2,s2
    8694:	86ce                	mv	a3,s3
    8696:	134020ef          	jal	ra,a7ca <__subdf3>
    869a:	892a                	mv	s2,a0
    869c:	89ae                	mv	s3,a1
    869e:	b389                	j	83e0 <__kernel_rem_pio2+0x290>
    86a0:	00148793          	addi	a5,s1,1
    86a4:	8abe                	mv	s5,a5
    86a6:	84be                	mv	s1,a5
    86a8:	b369                	j	8432 <__kernel_rem_pio2+0x2e2>
    86aa:	1c98                	addi	a4,sp,624
    86ac:	00261793          	slli	a5,a2,0x2
    86b0:	97ba                	add	a5,a5,a4
    86b2:	4752                	lw	a4,20(sp)
    86b4:	dd07a783          	lw	a5,-560(a5)
    86b8:	4df2                	lw	s11,28(sp)
    86ba:	1721                	addi	a4,a4,-24
    86bc:	ca3a                	sw	a4,20(sp)
    86be:	8b32                	mv	s6,a2
    86c0:	ef81                	bnez	a5,86d8 <__kernel_rem_pio2+0x588>
    86c2:	00249793          	slli	a5,s1,0x2
    86c6:	17e1                	addi	a5,a5,-8
    86c8:	0094                	addi	a3,sp,64
    86ca:	97b6                	add	a5,a5,a3
    86cc:	17f1                	addi	a5,a5,-4
    86ce:	43d4                	lw	a3,4(a5)
    86d0:	1b7d                	addi	s6,s6,-1
    86d2:	1721                	addi	a4,a4,-24
    86d4:	dee5                	beqz	a3,86cc <__kernel_rem_pio2+0x57c>
    86d6:	ca3a                	sw	a4,20(sp)
    86d8:	00005797          	auipc	a5,0x5
    86dc:	09078793          	addi	a5,a5,144 # d768 <_read+0x1d2>
    86e0:	4388                	lw	a0,0(a5)
    86e2:	43cc                	lw	a1,4(a5)
    86e4:	4652                	lw	a2,20(sp)
    86e6:	04f000ef          	jal	ra,8f34 <scalbn>
    86ea:	842a                	mv	s0,a0
    86ec:	84ae                	mv	s1,a1
    86ee:	380b4763          	bltz	s6,8a7c <__kernel_rem_pio2+0x92c>
    86f2:	003b1793          	slli	a5,s6,0x3
    86f6:	873e                	mv	a4,a5
    86f8:	0b94                	addi	a3,sp,464
    86fa:	00e68bb3          	add	s7,a3,a4
    86fe:	c43e                	sw	a5,8(sp)
    8700:	00005717          	auipc	a4,0x5
    8704:	54070713          	addi	a4,a4,1344 # dc40 <PIo2+0x48>
    8708:	002b1793          	slli	a5,s6,0x2
    870c:	0094                	addi	a3,sp,64
    870e:	00f68cb3          	add	s9,a3,a5
    8712:	8c5e                	mv	s8,s7
    8714:	00072903          	lw	s2,0(a4)
    8718:	00472983          	lw	s3,4(a4)
    871c:	a011                	j	8720 <__kernel_rem_pio2+0x5d0>
    871e:	8cbe                	mv	s9,a5
    8720:	000ca503          	lw	a0,0(s9) # ffff8000 <__freertos_irq_stack_top+0xdfff3000>
    8724:	1c61                	addi	s8,s8,-8
    8726:	087020ef          	jal	ra,afac <__floatsidf>
    872a:	8622                	mv	a2,s0
    872c:	86a6                	mv	a3,s1
    872e:	3e5010ef          	jal	ra,a312 <__muldf3>
    8732:	00ac2423          	sw	a0,8(s8) # 3ff00008 <__freertos_irq_stack_top+0x1fefb008>
    8736:	00bc2623          	sw	a1,12(s8)
    873a:	8522                	mv	a0,s0
    873c:	85a6                	mv	a1,s1
    873e:	864a                	mv	a2,s2
    8740:	86ce                	mv	a3,s3
    8742:	3d1010ef          	jal	ra,a312 <__muldf3>
    8746:	0098                	addi	a4,sp,64
    8748:	842a                	mv	s0,a0
    874a:	84ae                	mv	s1,a1
    874c:	ffcc8793          	addi	a5,s9,-4
    8750:	fd9717e3          	bne	a4,s9,871e <__kernel_rem_pio2+0x5ce>
    8754:	1a1c                	addi	a5,sp,304
    8756:	c03e                	sw	a5,0(sp)
    8758:	8cee                	mv	s9,s11
    875a:	84be                	mv	s1,a5
    875c:	4401                	li	s0,0
    875e:	060cc863          	bltz	s9,87ce <__kernel_rem_pio2+0x67e>
    8762:	00005797          	auipc	a5,0x5
    8766:	4d678793          	addi	a5,a5,1238 # dc38 <PIo2+0x40>
    876a:	00005c17          	auipc	s8,0x5
    876e:	48ec0c13          	addi	s8,s8,1166 # dbf8 <PIo2>
    8772:	89de                	mv	s3,s7
    8774:	4388                	lw	a0,0(a5)
    8776:	43cc                	lw	a1,4(a5)
    8778:	4d01                	li	s10,0
    877a:	4d81                	li	s11,0
    877c:	4901                	li	s2,0
    877e:	a809                	j	8790 <__kernel_rem_pio2+0x640>
    8780:	0c21                	addi	s8,s8,8
    8782:	09a1                	addi	s3,s3,8
    8784:	03244763          	blt	s0,s2,87b2 <__kernel_rem_pio2+0x662>
    8788:	000c2503          	lw	a0,0(s8)
    878c:	004c2583          	lw	a1,4(s8)
    8790:	0009a603          	lw	a2,0(s3)
    8794:	0049a683          	lw	a3,4(s3)
    8798:	0905                	addi	s2,s2,1
    879a:	379010ef          	jal	ra,a312 <__muldf3>
    879e:	862a                	mv	a2,a0
    87a0:	86ae                	mv	a3,a1
    87a2:	856a                	mv	a0,s10
    87a4:	85ee                	mv	a1,s11
    87a6:	4bb000ef          	jal	ra,9460 <__adddf3>
    87aa:	8d2a                	mv	s10,a0
    87ac:	8dae                	mv	s11,a1
    87ae:	fd2cd9e3          	bge	s9,s2,8780 <__kernel_rem_pio2+0x630>
    87b2:	01a4a023          	sw	s10,0(s1)
    87b6:	01b4a223          	sw	s11,4(s1)
    87ba:	0b98                	addi	a4,sp,464
    87bc:	0405                	addi	s0,s0,1
    87be:	04a1                	addi	s1,s1,8
    87c0:	ff8b8793          	addi	a5,s7,-8
    87c4:	03770263          	beq	a4,s7,87e8 <__kernel_rem_pio2+0x698>
    87c8:	8bbe                	mv	s7,a5
    87ca:	f80cdce3          	bgez	s9,8762 <__kernel_rem_pio2+0x612>
    87ce:	4d01                	li	s10,0
    87d0:	4d81                	li	s11,0
    87d2:	01a4a023          	sw	s10,0(s1)
    87d6:	01b4a223          	sw	s11,4(s1)
    87da:	0b98                	addi	a4,sp,464
    87dc:	0405                	addi	s0,s0,1
    87de:	04a1                	addi	s1,s1,8
    87e0:	ff8b8793          	addi	a5,s7,-8
    87e4:	ff7712e3          	bne	a4,s7,87c8 <__kernel_rem_pio2+0x678>
    87e8:	5762                	lw	a4,56(sp)
    87ea:	4789                	li	a5,2
    87ec:	08e7c763          	blt	a5,a4,887a <__kernel_rem_pio2+0x72a>
    87f0:	1ce04863          	bgtz	a4,89c0 <__kernel_rem_pio2+0x870>
    87f4:	e721                	bnez	a4,883c <__kernel_rem_pio2+0x6ec>
    87f6:	47a2                	lw	a5,8(sp)
    87f8:	4402                	lw	s0,0(sp)
    87fa:	4501                	li	a0,0
    87fc:	4581                	li	a1,0
    87fe:	00f40cb3          	add	s9,s0,a5
    8802:	000ca603          	lw	a2,0(s9)
    8806:	004ca683          	lw	a3,4(s9)
    880a:	457000ef          	jal	ra,9460 <__adddf3>
    880e:	ff8c8793          	addi	a5,s9,-8
    8812:	01940d63          	beq	s0,s9,882c <__kernel_rem_pio2+0x6dc>
    8816:	8cbe                	mv	s9,a5
    8818:	000ca603          	lw	a2,0(s9)
    881c:	004ca683          	lw	a3,4(s9)
    8820:	441000ef          	jal	ra,9460 <__adddf3>
    8824:	ff8c8793          	addi	a5,s9,-8
    8828:	ff9417e3          	bne	s0,s9,8816 <__kernel_rem_pio2+0x6c6>
    882c:	000a0563          	beqz	s4,8836 <__kernel_rem_pio2+0x6e6>
    8830:	800007b7          	lui	a5,0x80000
    8834:	8dbd                	xor	a1,a1,a5
    8836:	56d2                	lw	a3,52(sp)
    8838:	c288                	sw	a0,0(a3)
    883a:	c2cc                	sw	a1,4(a3)
    883c:	2ac12083          	lw	ra,684(sp)
    8840:	2a812403          	lw	s0,680(sp)
    8844:	007af513          	andi	a0,s5,7
    8848:	2a412483          	lw	s1,676(sp)
    884c:	2a012903          	lw	s2,672(sp)
    8850:	29c12983          	lw	s3,668(sp)
    8854:	29812a03          	lw	s4,664(sp)
    8858:	29412a83          	lw	s5,660(sp)
    885c:	29012b03          	lw	s6,656(sp)
    8860:	28c12b83          	lw	s7,652(sp)
    8864:	28812c03          	lw	s8,648(sp)
    8868:	28412c83          	lw	s9,644(sp)
    886c:	28012d03          	lw	s10,640(sp)
    8870:	27c12d83          	lw	s11,636(sp)
    8874:	2b010113          	addi	sp,sp,688
    8878:	8082                	ret
    887a:	5762                	lw	a4,56(sp)
    887c:	478d                	li	a5,3
    887e:	faf71fe3          	bne	a4,a5,883c <__kernel_rem_pio2+0x6ec>
    8882:	21605d63          	blez	s6,8a9c <__kernel_rem_pio2+0x94c>
    8886:	003b1b93          	slli	s7,s6,0x3
    888a:	1c9c                	addi	a5,sp,624
    888c:	97de                	add	a5,a5,s7
    888e:	13010993          	addi	s3,sp,304
    8892:	ff8b8413          	addi	s0,s7,-8
    8896:	c04e                	sw	s3,0(sp)
    8898:	ec07ad83          	lw	s11,-320(a5) # 7ffffec0 <__freertos_irq_stack_top+0x5fffaec0>
    889c:	ec47ad03          	lw	s10,-316(a5)
    88a0:	944e                	add	s0,s0,s3
    88a2:	a011                	j	88a6 <__kernel_rem_pio2+0x756>
    88a4:	843e                	mv	s0,a5
    88a6:	00042c03          	lw	s8,0(s0)
    88aa:	00442c83          	lw	s9,4(s0)
    88ae:	866e                	mv	a2,s11
    88b0:	86ea                	mv	a3,s10
    88b2:	8562                	mv	a0,s8
    88b4:	85e6                	mv	a1,s9
    88b6:	3ab000ef          	jal	ra,9460 <__adddf3>
    88ba:	892a                	mv	s2,a0
    88bc:	84ae                	mv	s1,a1
    88be:	862a                	mv	a2,a0
    88c0:	86ae                	mv	a3,a1
    88c2:	8562                	mv	a0,s8
    88c4:	85e6                	mv	a1,s9
    88c6:	705010ef          	jal	ra,a7ca <__subdf3>
    88ca:	866e                	mv	a2,s11
    88cc:	86ea                	mv	a3,s10
    88ce:	393000ef          	jal	ra,9460 <__adddf3>
    88d2:	c408                	sw	a0,8(s0)
    88d4:	c44c                	sw	a1,12(s0)
    88d6:	01242023          	sw	s2,0(s0)
    88da:	c044                	sw	s1,4(s0)
    88dc:	ff840793          	addi	a5,s0,-8
    88e0:	8dca                	mv	s11,s2
    88e2:	8d26                	mv	s10,s1
    88e4:	fc8990e3          	bne	s3,s0,88a4 <__kernel_rem_pio2+0x754>
    88e8:	4785                	li	a5,1
    88ea:	1b67d963          	bge	a5,s6,8a9c <__kernel_rem_pio2+0x94c>
    88ee:	003b1413          	slli	s0,s6,0x3
    88f2:	4b02                	lw	s6,0(sp)
    88f4:	1c9c                	addi	a5,sp,624
    88f6:	9bbe                	add	s7,s7,a5
    88f8:	1461                	addi	s0,s0,-8
    88fa:	ec0bad03          	lw	s10,-320(s7)
    88fe:	008b04b3          	add	s1,s6,s0
    8902:	ec4bab83          	lw	s7,-316(s7)
    8906:	a011                	j	890a <__kernel_rem_pio2+0x7ba>
    8908:	84be                	mv	s1,a5
    890a:	0004ac03          	lw	s8,0(s1)
    890e:	0044ac83          	lw	s9,4(s1)
    8912:	866a                	mv	a2,s10
    8914:	86de                	mv	a3,s7
    8916:	8562                	mv	a0,s8
    8918:	85e6                	mv	a1,s9
    891a:	347000ef          	jal	ra,9460 <__adddf3>
    891e:	89aa                	mv	s3,a0
    8920:	892e                	mv	s2,a1
    8922:	862a                	mv	a2,a0
    8924:	86ae                	mv	a3,a1
    8926:	8562                	mv	a0,s8
    8928:	85e6                	mv	a1,s9
    892a:	6a1010ef          	jal	ra,a7ca <__subdf3>
    892e:	866a                	mv	a2,s10
    8930:	86de                	mv	a3,s7
    8932:	32f000ef          	jal	ra,9460 <__adddf3>
    8936:	c488                	sw	a0,8(s1)
    8938:	c4cc                	sw	a1,12(s1)
    893a:	0134a023          	sw	s3,0(s1)
    893e:	0124a223          	sw	s2,4(s1)
    8942:	ff848793          	addi	a5,s1,-8
    8946:	8d4e                	mv	s10,s3
    8948:	8bca                	mv	s7,s2
    894a:	fafb1fe3          	bne	s6,a5,8908 <__kernel_rem_pio2+0x7b8>
    894e:	4782                	lw	a5,0(sp)
    8950:	0421                	addi	s0,s0,8
    8952:	4501                	li	a0,0
    8954:	00878933          	add	s2,a5,s0
    8958:	4581                	li	a1,0
    895a:	00092603          	lw	a2,0(s2)
    895e:	00492683          	lw	a3,4(s2)
    8962:	1961                	addi	s2,s2,-8
    8964:	2fd000ef          	jal	ra,9460 <__adddf3>
    8968:	ff2499e3          	bne	s1,s2,895a <__kernel_rem_pio2+0x80a>
    896c:	13012803          	lw	a6,304(sp)
    8970:	13412703          	lw	a4,308(sp)
    8974:	13812603          	lw	a2,312(sp)
    8978:	13c12783          	lw	a5,316(sp)
    897c:	0c0a1963          	bnez	s4,8a4e <__kernel_rem_pio2+0x8fe>
    8980:	88be                	mv	a7,a5
    8982:	57d2                	lw	a5,52(sp)
    8984:	8342                	mv	t1,a6
    8986:	8832                	mv	a6,a2
    8988:	0067a023          	sw	t1,0(a5)
    898c:	c3d8                	sw	a4,4(a5)
    898e:	0107a423          	sw	a6,8(a5)
    8992:	0117a623          	sw	a7,12(a5)
    8996:	cb88                	sw	a0,16(a5)
    8998:	cbcc                	sw	a1,20(a5)
    899a:	b54d                	j	883c <__kernel_rem_pio2+0x6ec>
    899c:	fff48793          	addi	a5,s1,-1
    89a0:	1c98                	addi	a4,sp,624
    89a2:	078a                	slli	a5,a5,0x2
    89a4:	97ba                	add	a5,a5,a4
    89a6:	dd07a703          	lw	a4,-560(a5)
    89aa:	56f2                	lw	a3,60(sp)
    89ac:	8f75                	and	a4,a4,a3
    89ae:	dce7a823          	sw	a4,-560(a5)
    89b2:	be49                	j	8544 <__kernel_rem_pio2+0x3f4>
    89b4:	57a1                	li	a5,-24
    89b6:	d002                	sw	zero,32(sp)
    89b8:	80fff06f          	j	81c6 <__kernel_rem_pio2+0x76>
    89bc:	4801                	li	a6,0
    89be:	beb9                	j	851c <__kernel_rem_pio2+0x3cc>
    89c0:	4702                	lw	a4,0(sp)
    89c2:	47a2                	lw	a5,8(sp)
    89c4:	4401                	li	s0,0
    89c6:	4481                	li	s1,0
    89c8:	00f70cb3          	add	s9,a4,a5
    89cc:	87a2                	mv	a5,s0
    89ce:	843a                	mv	s0,a4
    89d0:	a011                	j	89d4 <__kernel_rem_pio2+0x884>
    89d2:	8cba                	mv	s9,a4
    89d4:	000ca603          	lw	a2,0(s9)
    89d8:	004ca683          	lw	a3,4(s9)
    89dc:	8526                	mv	a0,s1
    89de:	85be                	mv	a1,a5
    89e0:	281000ef          	jal	ra,9460 <__adddf3>
    89e4:	ff8c8713          	addi	a4,s9,-8
    89e8:	84aa                	mv	s1,a0
    89ea:	87ae                	mv	a5,a1
    89ec:	ff9413e3          	bne	s0,s9,89d2 <__kernel_rem_pio2+0x882>
    89f0:	842e                	mv	s0,a1
    89f2:	13012503          	lw	a0,304(sp)
    89f6:	13412583          	lw	a1,308(sp)
    89fa:	8626                	mv	a2,s1
    89fc:	86a2                	mv	a3,s0
    89fe:	5cd010ef          	jal	ra,a7ca <__subdf3>
    8a02:	060a1463          	bnez	s4,8a6a <__kernel_rem_pio2+0x91a>
    8a06:	56d2                	lw	a3,52(sp)
    8a08:	c284                	sw	s1,0(a3)
    8a0a:	c2c0                	sw	s0,4(a3)
    8a0c:	03605163          	blez	s6,8a2e <__kernel_rem_pio2+0x8de>
    8a10:	1a24                	addi	s1,sp,312
    8a12:	4405                	li	s0,1
    8a14:	4090                	lw	a2,0(s1)
    8a16:	40d4                	lw	a3,4(s1)
    8a18:	0405                	addi	s0,s0,1
    8a1a:	04a1                	addi	s1,s1,8
    8a1c:	245000ef          	jal	ra,9460 <__adddf3>
    8a20:	fe8b5ae3          	bge	s6,s0,8a14 <__kernel_rem_pio2+0x8c4>
    8a24:	000a0563          	beqz	s4,8a2e <__kernel_rem_pio2+0x8de>
    8a28:	800007b7          	lui	a5,0x80000
    8a2c:	8dbd                	xor	a1,a1,a5
    8a2e:	56d2                	lw	a3,52(sp)
    8a30:	c688                	sw	a0,8(a3)
    8a32:	c6cc                	sw	a1,12(a3)
    8a34:	b521                	j	883c <__kernel_rem_pio2+0x6ec>
    8a36:	1c9c                	addi	a5,sp,624
    8a38:	00249413          	slli	s0,s1,0x2
    8a3c:	8562                	mv	a0,s8
    8a3e:	85e6                	mv	a1,s9
    8a40:	943e                	add	s0,s0,a5
    8a42:	502020ef          	jal	ra,af44 <__fixdfsi>
    8a46:	dca42823          	sw	a0,-560(s0)
    8a4a:	8b26                	mv	s6,s1
    8a4c:	b171                	j	86d8 <__kernel_rem_pio2+0x588>
    8a4e:	800006b7          	lui	a3,0x80000
    8a52:	8f35                	xor	a4,a4,a3
    8a54:	8fb5                	xor	a5,a5,a3
    8a56:	8ead                	xor	a3,a3,a1
    8a58:	55d2                	lw	a1,52(sp)
    8a5a:	0105a023          	sw	a6,0(a1)
    8a5e:	c1d8                	sw	a4,4(a1)
    8a60:	c590                	sw	a2,8(a1)
    8a62:	c5dc                	sw	a5,12(a1)
    8a64:	c988                	sw	a0,16(a1)
    8a66:	c9d4                	sw	a3,20(a1)
    8a68:	bbd1                	j	883c <__kernel_rem_pio2+0x6ec>
    8a6a:	800007b7          	lui	a5,0x80000
    8a6e:	8c3d                	xor	s0,s0,a5
    8a70:	57d2                	lw	a5,52(sp)
    8a72:	c384                	sw	s1,0(a5)
    8a74:	c3c0                	sw	s0,4(a5)
    8a76:	f9604de3          	bgtz	s6,8a10 <__kernel_rem_pio2+0x8c0>
    8a7a:	b77d                	j	8a28 <__kernel_rem_pio2+0x8d8>
    8a7c:	5762                	lw	a4,56(sp)
    8a7e:	4789                	li	a5,2
    8a80:	dee7cde3          	blt	a5,a4,887a <__kernel_rem_pio2+0x72a>
    8a84:	00e04963          	bgtz	a4,8a96 <__kernel_rem_pio2+0x946>
    8a88:	4501                	li	a0,0
    8a8a:	4581                	li	a1,0
    8a8c:	da0718e3          	bnez	a4,883c <__kernel_rem_pio2+0x6ec>
    8a90:	da0a03e3          	beqz	s4,8836 <__kernel_rem_pio2+0x6e6>
    8a94:	bb71                	j	8830 <__kernel_rem_pio2+0x6e0>
    8a96:	4481                	li	s1,0
    8a98:	4401                	li	s0,0
    8a9a:	bfa1                	j	89f2 <__kernel_rem_pio2+0x8a2>
    8a9c:	4501                	li	a0,0
    8a9e:	4581                	li	a1,0
    8aa0:	b5f1                	j	896c <__kernel_rem_pio2+0x81c>

00008aa2 <__kernel_sin>:
    8aa2:	7139                	addi	sp,sp,-64
    8aa4:	00159793          	slli	a5,a1,0x1
    8aa8:	dc22                	sw	s0,56(sp)
    8aaa:	da26                	sw	s1,52(sp)
    8aac:	d452                	sw	s4,40(sp)
    8aae:	d256                	sw	s5,36(sp)
    8ab0:	cc62                	sw	s8,24(sp)
    8ab2:	de06                	sw	ra,60(sp)
    8ab4:	d84a                	sw	s2,48(sp)
    8ab6:	d64e                	sw	s3,44(sp)
    8ab8:	d05a                	sw	s6,32(sp)
    8aba:	ce5e                	sw	s7,28(sp)
    8abc:	ca66                	sw	s9,20(sp)
    8abe:	c86a                	sw	s10,16(sp)
    8ac0:	c66e                	sw	s11,12(sp)
    8ac2:	8385                	srli	a5,a5,0x1
    8ac4:	3e400837          	lui	a6,0x3e400
    8ac8:	842e                	mv	s0,a1
    8aca:	84aa                	mv	s1,a0
    8acc:	8a32                	mv	s4,a2
    8ace:	8ab6                	mv	s5,a3
    8ad0:	8c3a                	mv	s8,a4
    8ad2:	0107d763          	bge	a5,a6,8ae0 <__kernel_sin+0x3e>
    8ad6:	46e020ef          	jal	ra,af44 <__fixdfsi>
    8ada:	8726                	mv	a4,s1
    8adc:	87a2                	mv	a5,s0
    8ade:	c179                	beqz	a0,8ba4 <__kernel_sin+0x102>
    8ae0:	8626                	mv	a2,s1
    8ae2:	86a2                	mv	a3,s0
    8ae4:	8526                	mv	a0,s1
    8ae6:	85a2                	mv	a1,s0
    8ae8:	02b010ef          	jal	ra,a312 <__muldf3>
    8aec:	892a                	mv	s2,a0
    8aee:	89ae                	mv	s3,a1
    8af0:	862a                	mv	a2,a0
    8af2:	86ae                	mv	a3,a1
    8af4:	8526                	mv	a0,s1
    8af6:	85a2                	mv	a1,s0
    8af8:	01b010ef          	jal	ra,a312 <__muldf3>
    8afc:	00005797          	auipc	a5,0x5
    8b00:	16c78793          	addi	a5,a5,364 # dc68 <init_jk+0x10>
    8b04:	4390                	lw	a2,0(a5)
    8b06:	43d4                	lw	a3,4(a5)
    8b08:	8b2a                	mv	s6,a0
    8b0a:	8bae                	mv	s7,a1
    8b0c:	854a                	mv	a0,s2
    8b0e:	85ce                	mv	a1,s3
    8b10:	003010ef          	jal	ra,a312 <__muldf3>
    8b14:	00005797          	auipc	a5,0x5
    8b18:	15c78793          	addi	a5,a5,348 # dc70 <init_jk+0x18>
    8b1c:	4390                	lw	a2,0(a5)
    8b1e:	43d4                	lw	a3,4(a5)
    8b20:	4ab010ef          	jal	ra,a7ca <__subdf3>
    8b24:	864a                	mv	a2,s2
    8b26:	86ce                	mv	a3,s3
    8b28:	7ea010ef          	jal	ra,a312 <__muldf3>
    8b2c:	00005797          	auipc	a5,0x5
    8b30:	14c78793          	addi	a5,a5,332 # dc78 <init_jk+0x20>
    8b34:	4390                	lw	a2,0(a5)
    8b36:	43d4                	lw	a3,4(a5)
    8b38:	129000ef          	jal	ra,9460 <__adddf3>
    8b3c:	864a                	mv	a2,s2
    8b3e:	86ce                	mv	a3,s3
    8b40:	7d2010ef          	jal	ra,a312 <__muldf3>
    8b44:	00005797          	auipc	a5,0x5
    8b48:	13c78793          	addi	a5,a5,316 # dc80 <init_jk+0x28>
    8b4c:	4390                	lw	a2,0(a5)
    8b4e:	43d4                	lw	a3,4(a5)
    8b50:	47b010ef          	jal	ra,a7ca <__subdf3>
    8b54:	864a                	mv	a2,s2
    8b56:	86ce                	mv	a3,s3
    8b58:	7ba010ef          	jal	ra,a312 <__muldf3>
    8b5c:	00005797          	auipc	a5,0x5
    8b60:	12c78793          	addi	a5,a5,300 # dc88 <init_jk+0x30>
    8b64:	4390                	lw	a2,0(a5)
    8b66:	43d4                	lw	a3,4(a5)
    8b68:	0f9000ef          	jal	ra,9460 <__adddf3>
    8b6c:	8d2a                	mv	s10,a0
    8b6e:	8dae                	mv	s11,a1
    8b70:	040c1b63          	bnez	s8,8bc6 <__kernel_sin+0x124>
    8b74:	862a                	mv	a2,a0
    8b76:	86ae                	mv	a3,a1
    8b78:	854a                	mv	a0,s2
    8b7a:	85ce                	mv	a1,s3
    8b7c:	796010ef          	jal	ra,a312 <__muldf3>
    8b80:	00005797          	auipc	a5,0x5
    8b84:	11078793          	addi	a5,a5,272 # dc90 <init_jk+0x38>
    8b88:	4390                	lw	a2,0(a5)
    8b8a:	43d4                	lw	a3,4(a5)
    8b8c:	43f010ef          	jal	ra,a7ca <__subdf3>
    8b90:	865a                	mv	a2,s6
    8b92:	86de                	mv	a3,s7
    8b94:	77e010ef          	jal	ra,a312 <__muldf3>
    8b98:	8626                	mv	a2,s1
    8b9a:	86a2                	mv	a3,s0
    8b9c:	0c5000ef          	jal	ra,9460 <__adddf3>
    8ba0:	872a                	mv	a4,a0
    8ba2:	87ae                	mv	a5,a1
    8ba4:	50f2                	lw	ra,60(sp)
    8ba6:	5462                	lw	s0,56(sp)
    8ba8:	54d2                	lw	s1,52(sp)
    8baa:	5942                	lw	s2,48(sp)
    8bac:	59b2                	lw	s3,44(sp)
    8bae:	5a22                	lw	s4,40(sp)
    8bb0:	5a92                	lw	s5,36(sp)
    8bb2:	5b02                	lw	s6,32(sp)
    8bb4:	4bf2                	lw	s7,28(sp)
    8bb6:	4c62                	lw	s8,24(sp)
    8bb8:	4cd2                	lw	s9,20(sp)
    8bba:	4d42                	lw	s10,16(sp)
    8bbc:	4db2                	lw	s11,12(sp)
    8bbe:	853a                	mv	a0,a4
    8bc0:	85be                	mv	a1,a5
    8bc2:	6121                	addi	sp,sp,64
    8bc4:	8082                	ret
    8bc6:	00005797          	auipc	a5,0x5
    8bca:	b3278793          	addi	a5,a5,-1230 # d6f8 <_read+0x162>
    8bce:	4390                	lw	a2,0(a5)
    8bd0:	43d4                	lw	a3,4(a5)
    8bd2:	8552                	mv	a0,s4
    8bd4:	85d6                	mv	a1,s5
    8bd6:	73c010ef          	jal	ra,a312 <__muldf3>
    8bda:	8c2a                	mv	s8,a0
    8bdc:	8cae                	mv	s9,a1
    8bde:	866a                	mv	a2,s10
    8be0:	86ee                	mv	a3,s11
    8be2:	855a                	mv	a0,s6
    8be4:	85de                	mv	a1,s7
    8be6:	72c010ef          	jal	ra,a312 <__muldf3>
    8bea:	862a                	mv	a2,a0
    8bec:	86ae                	mv	a3,a1
    8bee:	8562                	mv	a0,s8
    8bf0:	85e6                	mv	a1,s9
    8bf2:	3d9010ef          	jal	ra,a7ca <__subdf3>
    8bf6:	864a                	mv	a2,s2
    8bf8:	86ce                	mv	a3,s3
    8bfa:	718010ef          	jal	ra,a312 <__muldf3>
    8bfe:	8652                	mv	a2,s4
    8c00:	86d6                	mv	a3,s5
    8c02:	3c9010ef          	jal	ra,a7ca <__subdf3>
    8c06:	00005797          	auipc	a5,0x5
    8c0a:	08a78793          	addi	a5,a5,138 # dc90 <init_jk+0x38>
    8c0e:	4390                	lw	a2,0(a5)
    8c10:	43d4                	lw	a3,4(a5)
    8c12:	892a                	mv	s2,a0
    8c14:	89ae                	mv	s3,a1
    8c16:	855a                	mv	a0,s6
    8c18:	85de                	mv	a1,s7
    8c1a:	6f8010ef          	jal	ra,a312 <__muldf3>
    8c1e:	862a                	mv	a2,a0
    8c20:	86ae                	mv	a3,a1
    8c22:	854a                	mv	a0,s2
    8c24:	85ce                	mv	a1,s3
    8c26:	03b000ef          	jal	ra,9460 <__adddf3>
    8c2a:	862a                	mv	a2,a0
    8c2c:	86ae                	mv	a3,a1
    8c2e:	8526                	mv	a0,s1
    8c30:	85a2                	mv	a1,s0
    8c32:	399010ef          	jal	ra,a7ca <__subdf3>
    8c36:	872a                	mv	a4,a0
    8c38:	87ae                	mv	a5,a1
    8c3a:	b7ad                	j	8ba4 <__kernel_sin+0x102>

00008c3c <finite>:
    8c3c:	0586                	slli	a1,a1,0x1
    8c3e:	8185                	srli	a1,a1,0x1
    8c40:	80100537          	lui	a0,0x80100
    8c44:	952e                	add	a0,a0,a1
    8c46:	817d                	srli	a0,a0,0x1f
    8c48:	8082                	ret

00008c4a <floor>:
    8c4a:	4145d793          	srai	a5,a1,0x14
    8c4e:	1101                	addi	sp,sp,-32
    8c50:	7ff7f793          	andi	a5,a5,2047
    8c54:	cc22                	sw	s0,24(sp)
    8c56:	ca26                	sw	s1,20(sp)
    8c58:	c84a                	sw	s2,16(sp)
    8c5a:	c64e                	sw	s3,12(sp)
    8c5c:	c452                	sw	s4,8(sp)
    8c5e:	ce06                	sw	ra,28(sp)
    8c60:	c256                	sw	s5,4(sp)
    8c62:	c05a                	sw	s6,0(sp)
    8c64:	c0178493          	addi	s1,a5,-1023
    8c68:	474d                	li	a4,19
    8c6a:	842e                	mv	s0,a1
    8c6c:	89aa                	mv	s3,a0
    8c6e:	892e                	mv	s2,a1
    8c70:	8a2a                	mv	s4,a0
    8c72:	08974963          	blt	a4,s1,8d04 <floor+0xba>
    8c76:	0604c563          	bltz	s1,8ce0 <floor+0x96>
    8c7a:	00100b37          	lui	s6,0x100
    8c7e:	fffb0a93          	addi	s5,s6,-1 # fffff <_data_lma+0xf2063>
    8c82:	409adab3          	sra	s5,s5,s1
    8c86:	00baf7b3          	and	a5,s5,a1
    8c8a:	8fc9                	or	a5,a5,a0
    8c8c:	86aa                	mv	a3,a0
    8c8e:	872e                	mv	a4,a1
    8c90:	cf85                	beqz	a5,8cc8 <floor+0x7e>
    8c92:	00005797          	auipc	a5,0x5
    8c96:	b5678793          	addi	a5,a5,-1194 # d7e8 <_read+0x252>
    8c9a:	4390                	lw	a2,0(a5)
    8c9c:	43d4                	lw	a3,4(a5)
    8c9e:	7c2000ef          	jal	ra,9460 <__adddf3>
    8ca2:	4601                	li	a2,0
    8ca4:	4681                	li	a3,0
    8ca6:	508010ef          	jal	ra,a1ae <__gedf2>
    8caa:	00a05d63          	blez	a0,8cc4 <floor+0x7a>
    8cae:	00045663          	bgez	s0,8cba <floor+0x70>
    8cb2:	409b54b3          	sra	s1,s6,s1
    8cb6:	00848933          	add	s2,s1,s0
    8cba:	fffaca93          	not	s5,s5
    8cbe:	01597933          	and	s2,s2,s5
    8cc2:	4a01                	li	s4,0
    8cc4:	86d2                	mv	a3,s4
    8cc6:	874a                	mv	a4,s2
    8cc8:	40f2                	lw	ra,28(sp)
    8cca:	4462                	lw	s0,24(sp)
    8ccc:	44d2                	lw	s1,20(sp)
    8cce:	4942                	lw	s2,16(sp)
    8cd0:	49b2                	lw	s3,12(sp)
    8cd2:	4a22                	lw	s4,8(sp)
    8cd4:	4a92                	lw	s5,4(sp)
    8cd6:	4b02                	lw	s6,0(sp)
    8cd8:	8536                	mv	a0,a3
    8cda:	85ba                	mv	a1,a4
    8cdc:	6105                	addi	sp,sp,32
    8cde:	8082                	ret
    8ce0:	00005797          	auipc	a5,0x5
    8ce4:	b0878793          	addi	a5,a5,-1272 # d7e8 <_read+0x252>
    8ce8:	4390                	lw	a2,0(a5)
    8cea:	43d4                	lw	a3,4(a5)
    8cec:	2f95                	jal	9460 <__adddf3>
    8cee:	4601                	li	a2,0
    8cf0:	4681                	li	a3,0
    8cf2:	4bc010ef          	jal	ra,a1ae <__gedf2>
    8cf6:	fca057e3          	blez	a0,8cc4 <floor+0x7a>
    8cfa:	06044363          	bltz	s0,8d60 <floor+0x116>
    8cfe:	4a01                	li	s4,0
    8d00:	4901                	li	s2,0
    8d02:	b7c9                	j	8cc4 <floor+0x7a>
    8d04:	03300713          	li	a4,51
    8d08:	00975e63          	bge	a4,s1,8d24 <floor+0xda>
    8d0c:	40000793          	li	a5,1024
    8d10:	86aa                	mv	a3,a0
    8d12:	872e                	mv	a4,a1
    8d14:	faf49ae3          	bne	s1,a5,8cc8 <floor+0x7e>
    8d18:	86ae                	mv	a3,a1
    8d1a:	862a                	mv	a2,a0
    8d1c:	2791                	jal	9460 <__adddf3>
    8d1e:	86aa                	mv	a3,a0
    8d20:	872e                	mv	a4,a1
    8d22:	b75d                	j	8cc8 <floor+0x7e>
    8d24:	bed78793          	addi	a5,a5,-1043
    8d28:	5afd                	li	s5,-1
    8d2a:	00fadab3          	srl	s5,s5,a5
    8d2e:	00aaf7b3          	and	a5,s5,a0
    8d32:	86aa                	mv	a3,a0
    8d34:	872e                	mv	a4,a1
    8d36:	dbc9                	beqz	a5,8cc8 <floor+0x7e>
    8d38:	00005797          	auipc	a5,0x5
    8d3c:	ab078793          	addi	a5,a5,-1360 # d7e8 <_read+0x252>
    8d40:	4390                	lw	a2,0(a5)
    8d42:	43d4                	lw	a3,4(a5)
    8d44:	2f31                	jal	9460 <__adddf3>
    8d46:	4601                	li	a2,0
    8d48:	4681                	li	a3,0
    8d4a:	464010ef          	jal	ra,a1ae <__gedf2>
    8d4e:	f6a05be3          	blez	a0,8cc4 <floor+0x7a>
    8d52:	02044063          	bltz	s0,8d72 <floor+0x128>
    8d56:	fffac793          	not	a5,s5
    8d5a:	00fa7a33          	and	s4,s4,a5
    8d5e:	b79d                	j	8cc4 <floor+0x7a>
    8d60:	0406                	slli	s0,s0,0x1
    8d62:	8005                	srli	s0,s0,0x1
    8d64:	01346433          	or	s0,s0,s3
    8d68:	4a01                	li	s4,0
    8d6a:	dc29                	beqz	s0,8cc4 <floor+0x7a>
    8d6c:	bff00937          	lui	s2,0xbff00
    8d70:	bf91                	j	8cc4 <floor+0x7a>
    8d72:	47d1                	li	a5,20
    8d74:	00f48f63          	beq	s1,a5,8d92 <floor+0x148>
    8d78:	03400793          	li	a5,52
    8d7c:	8f85                	sub	a5,a5,s1
    8d7e:	4485                	li	s1,1
    8d80:	00f494b3          	sll	s1,s1,a5
    8d84:	99a6                	add	s3,s3,s1
    8d86:	0149f963          	bgeu	s3,s4,8d98 <floor+0x14e>
    8d8a:	00140913          	addi	s2,s0,1
    8d8e:	8a4e                	mv	s4,s3
    8d90:	b7d9                	j	8d56 <floor+0x10c>
    8d92:	00140913          	addi	s2,s0,1
    8d96:	b7c1                	j	8d56 <floor+0x10c>
    8d98:	8a4e                	mv	s4,s3
    8d9a:	bf75                	j	8d56 <floor+0x10c>

00008d9c <matherr>:
    8d9c:	4501                	li	a0,0
    8d9e:	8082                	ret

00008da0 <nan>:
    8da0:	00005797          	auipc	a5,0x5
    8da4:	ef878793          	addi	a5,a5,-264 # dc98 <init_jk+0x40>
    8da8:	4388                	lw	a0,0(a5)
    8daa:	43cc                	lw	a1,4(a5)
    8dac:	8082                	ret

00008dae <rint>:
    8dae:	4145d713          	srai	a4,a1,0x14
    8db2:	7179                	addi	sp,sp,-48
    8db4:	7ff77713          	andi	a4,a4,2047
    8db8:	d422                	sw	s0,40(sp)
    8dba:	d606                	sw	ra,44(sp)
    8dbc:	d226                	sw	s1,36(sp)
    8dbe:	d04a                	sw	s2,32(sp)
    8dc0:	ce4e                	sw	s3,28(sp)
    8dc2:	c0170613          	addi	a2,a4,-1023
    8dc6:	48cd                	li	a7,19
    8dc8:	87ae                	mv	a5,a1
    8dca:	86aa                	mv	a3,a0
    8dcc:	8e2e                	mv	t3,a1
    8dce:	01f5d413          	srli	s0,a1,0x1f
    8dd2:	10c8c663          	blt	a7,a2,8ede <rint+0x130>
    8dd6:	08064a63          	bltz	a2,8e6a <rint+0xbc>
    8dda:	001005b7          	lui	a1,0x100
    8dde:	15fd                	addi	a1,a1,-1
    8de0:	40c5d5b3          	sra	a1,a1,a2
    8de4:	00f5f533          	and	a0,a1,a5
    8de8:	8d55                	or	a0,a0,a3
    8dea:	88b6                	mv	a7,a3
    8dec:	833e                	mv	t1,a5
    8dee:	c52d                	beqz	a0,8e58 <rint+0xaa>
    8df0:	8185                	srli	a1,a1,0x1
    8df2:	00f5f833          	and	a6,a1,a5
    8df6:	00d86833          	or	a6,a6,a3
    8dfa:	02080563          	beqz	a6,8e24 <rint+0x76>
    8dfe:	bee70693          	addi	a3,a4,-1042
    8e02:	00040e37          	lui	t3,0x40
    8e06:	0016b693          	seqz	a3,a3
    8e0a:	fff5c593          	not	a1,a1
    8e0e:	80000837          	lui	a6,0x80000
    8e12:	40d006b3          	neg	a3,a3
    8e16:	8fed                	and	a5,a5,a1
    8e18:	40ce5633          	sra	a2,t3,a2
    8e1c:	00d87833          	and	a6,a6,a3
    8e20:	00c7ee33          	or	t3,a5,a2
    8e24:	00005797          	auipc	a5,0x5
    8e28:	e7c78793          	addi	a5,a5,-388 # dca0 <TWO52>
    8e2c:	00341313          	slli	t1,s0,0x3
    8e30:	933e                	add	t1,t1,a5
    8e32:	00032403          	lw	s0,0(t1)
    8e36:	00432483          	lw	s1,4(t1)
    8e3a:	8642                	mv	a2,a6
    8e3c:	86f2                	mv	a3,t3
    8e3e:	8522                	mv	a0,s0
    8e40:	85a6                	mv	a1,s1
    8e42:	2d39                	jal	9460 <__adddf3>
    8e44:	c42a                	sw	a0,8(sp)
    8e46:	c62e                	sw	a1,12(sp)
    8e48:	4522                	lw	a0,8(sp)
    8e4a:	45b2                	lw	a1,12(sp)
    8e4c:	8622                	mv	a2,s0
    8e4e:	86a6                	mv	a3,s1
    8e50:	17b010ef          	jal	ra,a7ca <__subdf3>
    8e54:	88aa                	mv	a7,a0
    8e56:	832e                	mv	t1,a1
    8e58:	50b2                	lw	ra,44(sp)
    8e5a:	5422                	lw	s0,40(sp)
    8e5c:	5492                	lw	s1,36(sp)
    8e5e:	5902                	lw	s2,32(sp)
    8e60:	49f2                	lw	s3,28(sp)
    8e62:	8546                	mv	a0,a7
    8e64:	859a                	mv	a1,t1
    8e66:	6145                	addi	sp,sp,48
    8e68:	8082                	ret
    8e6a:	800004b7          	lui	s1,0x80000
    8e6e:	fff4c493          	not	s1,s1
    8e72:	00b4f733          	and	a4,s1,a1
    8e76:	8f49                	or	a4,a4,a0
    8e78:	88aa                	mv	a7,a0
    8e7a:	832e                	mv	t1,a1
    8e7c:	df71                	beqz	a4,8e58 <rint+0xaa>
    8e7e:	00c59793          	slli	a5,a1,0xc
    8e82:	83b1                	srli	a5,a5,0xc
    8e84:	00a7e733          	or	a4,a5,a0
    8e88:	40e007b3          	neg	a5,a4
    8e8c:	8fd9                	or	a5,a5,a4
    8e8e:	00005697          	auipc	a3,0x5
    8e92:	e1268693          	addi	a3,a3,-494 # dca0 <TWO52>
    8e96:	00341713          	slli	a4,s0,0x3
    8e9a:	96ba                	add	a3,a3,a4
    8e9c:	83b1                	srli	a5,a5,0xc
    8e9e:	0006a903          	lw	s2,0(a3)
    8ea2:	0046a983          	lw	s3,4(a3)
    8ea6:	7701                	lui	a4,0xfffe0
    8ea8:	00080337          	lui	t1,0x80
    8eac:	8f6d                	and	a4,a4,a1
    8eae:	0067f333          	and	t1,a5,t1
    8eb2:	00e36333          	or	t1,t1,a4
    8eb6:	869a                	mv	a3,t1
    8eb8:	862a                	mv	a2,a0
    8eba:	85ce                	mv	a1,s3
    8ebc:	854a                	mv	a0,s2
    8ebe:	234d                	jal	9460 <__adddf3>
    8ec0:	c42a                	sw	a0,8(sp)
    8ec2:	c62e                	sw	a1,12(sp)
    8ec4:	4522                	lw	a0,8(sp)
    8ec6:	45b2                	lw	a1,12(sp)
    8ec8:	864a                	mv	a2,s2
    8eca:	86ce                	mv	a3,s3
    8ecc:	0ff010ef          	jal	ra,a7ca <__subdf3>
    8ed0:	8ced                	and	s1,s1,a1
    8ed2:	01f41313          	slli	t1,s0,0x1f
    8ed6:	0064e333          	or	t1,s1,t1
    8eda:	88aa                	mv	a7,a0
    8edc:	bfb5                	j	8e58 <rint+0xaa>
    8ede:	03300893          	li	a7,51
    8ee2:	00c8de63          	bge	a7,a2,8efe <rint+0x150>
    8ee6:	40000713          	li	a4,1024
    8eea:	88aa                	mv	a7,a0
    8eec:	832e                	mv	t1,a1
    8eee:	f6e615e3          	bne	a2,a4,8e58 <rint+0xaa>
    8ef2:	862a                	mv	a2,a0
    8ef4:	86f2                	mv	a3,t3
    8ef6:	23ad                	jal	9460 <__adddf3>
    8ef8:	88aa                	mv	a7,a0
    8efa:	832e                	mv	t1,a1
    8efc:	bfb1                	j	8e58 <rint+0xaa>
    8efe:	bed70713          	addi	a4,a4,-1043 # fffdfbed <__freertos_irq_stack_top+0xdffdabed>
    8f02:	567d                	li	a2,-1
    8f04:	00e65633          	srl	a2,a2,a4
    8f08:	00a675b3          	and	a1,a2,a0
    8f0c:	88aa                	mv	a7,a0
    8f0e:	833e                	mv	t1,a5
    8f10:	d5a1                	beqz	a1,8e58 <rint+0xaa>
    8f12:	8205                	srli	a2,a2,0x1
    8f14:	00a677b3          	and	a5,a2,a0
    8f18:	882a                	mv	a6,a0
    8f1a:	f00785e3          	beqz	a5,8e24 <rint+0x76>
    8f1e:	40000837          	lui	a6,0x40000
    8f22:	fff64613          	not	a2,a2
    8f26:	00a676b3          	and	a3,a2,a0
    8f2a:	40e85733          	sra	a4,a6,a4
    8f2e:	00e6e833          	or	a6,a3,a4
    8f32:	bdcd                	j	8e24 <rint+0x76>

00008f34 <scalbn>:
    8f34:	1141                	addi	sp,sp,-16
    8f36:	4145d793          	srai	a5,a1,0x14
    8f3a:	c422                	sw	s0,8(sp)
    8f3c:	c606                	sw	ra,12(sp)
    8f3e:	c226                	sw	s1,4(sp)
    8f40:	7ff7f793          	andi	a5,a5,2047
    8f44:	872e                	mv	a4,a1
    8f46:	86aa                	mv	a3,a0
    8f48:	8432                	mv	s0,a2
    8f4a:	e7c1                	bnez	a5,8fd2 <scalbn+0x9e>
    8f4c:	00159793          	slli	a5,a1,0x1
    8f50:	8385                	srli	a5,a5,0x1
    8f52:	8fc9                	or	a5,a5,a0
    8f54:	cba5                	beqz	a5,8fc4 <scalbn+0x90>
    8f56:	00005797          	auipc	a5,0x5
    8f5a:	d5a78793          	addi	a5,a5,-678 # dcb0 <TWO52+0x10>
    8f5e:	43d4                	lw	a3,4(a5)
    8f60:	4390                	lw	a2,0(a5)
    8f62:	3b0010ef          	jal	ra,a312 <__muldf3>
    8f66:	77d1                	lui	a5,0xffff4
    8f68:	cb078793          	addi	a5,a5,-848 # ffff3cb0 <__freertos_irq_stack_top+0xdffeecb0>
    8f6c:	86aa                	mv	a3,a0
    8f6e:	872e                	mv	a4,a1
    8f70:	0ef44063          	blt	s0,a5,9050 <scalbn+0x11c>
    8f74:	4145d793          	srai	a5,a1,0x14
    8f78:	7ff7f793          	andi	a5,a5,2047
    8f7c:	862e                	mv	a2,a1
    8f7e:	fca78793          	addi	a5,a5,-54
    8f82:	97a2                	add	a5,a5,s0
    8f84:	7fe00593          	li	a1,2046
    8f88:	0af5c263          	blt	a1,a5,902c <scalbn+0xf8>
    8f8c:	0af04563          	bgtz	a5,9036 <scalbn+0x102>
    8f90:	fcb00593          	li	a1,-53
    8f94:	06b7d063          	bge	a5,a1,8ff4 <scalbn+0xc0>
    8f98:	67b1                	lui	a5,0xc
    8f9a:	35078793          	addi	a5,a5,848 # c350 <_free_r+0x50>
    8f9e:	0887c763          	blt	a5,s0,902c <scalbn+0xf8>
    8fa2:	00005797          	auipc	a5,0x5
    8fa6:	a0678793          	addi	a5,a5,-1530 # d9a8 <atanlo+0x128>
    8faa:	4380                	lw	s0,0(a5)
    8fac:	43c4                	lw	s1,4(a5)
    8fae:	8636                	mv	a2,a3
    8fb0:	8522                	mv	a0,s0
    8fb2:	86ba                	mv	a3,a4
    8fb4:	85a6                	mv	a1,s1
    8fb6:	2875                	jal	9072 <copysign>
    8fb8:	86a6                	mv	a3,s1
    8fba:	8622                	mv	a2,s0
    8fbc:	356010ef          	jal	ra,a312 <__muldf3>
    8fc0:	86aa                	mv	a3,a0
    8fc2:	872e                	mv	a4,a1
    8fc4:	40b2                	lw	ra,12(sp)
    8fc6:	4422                	lw	s0,8(sp)
    8fc8:	4492                	lw	s1,4(sp)
    8fca:	8536                	mv	a0,a3
    8fcc:	85ba                	mv	a1,a4
    8fce:	0141                	addi	sp,sp,16
    8fd0:	8082                	ret
    8fd2:	7ff00813          	li	a6,2047
    8fd6:	862e                	mv	a2,a1
    8fd8:	fb0795e3          	bne	a5,a6,8f82 <scalbn+0x4e>
    8fdc:	86ae                	mv	a3,a1
    8fde:	862a                	mv	a2,a0
    8fe0:	2141                	jal	9460 <__adddf3>
    8fe2:	40b2                	lw	ra,12(sp)
    8fe4:	4422                	lw	s0,8(sp)
    8fe6:	86aa                	mv	a3,a0
    8fe8:	872e                	mv	a4,a1
    8fea:	4492                	lw	s1,4(sp)
    8fec:	8536                	mv	a0,a3
    8fee:	85ba                	mv	a1,a4
    8ff0:	0141                	addi	sp,sp,16
    8ff2:	8082                	ret
    8ff4:	80100737          	lui	a4,0x80100
    8ff8:	177d                	addi	a4,a4,-1
    8ffa:	03678793          	addi	a5,a5,54
    8ffe:	8e79                	and	a2,a2,a4
    9000:	07d2                	slli	a5,a5,0x14
    9002:	00005717          	auipc	a4,0x5
    9006:	cb670713          	addi	a4,a4,-842 # dcb8 <TWO52+0x18>
    900a:	85b6                	mv	a1,a3
    900c:	8fd1                	or	a5,a5,a2
    900e:	4354                	lw	a3,4(a4)
    9010:	4310                	lw	a2,0(a4)
    9012:	852e                	mv	a0,a1
    9014:	85be                	mv	a1,a5
    9016:	2fc010ef          	jal	ra,a312 <__muldf3>
    901a:	40b2                	lw	ra,12(sp)
    901c:	4422                	lw	s0,8(sp)
    901e:	86aa                	mv	a3,a0
    9020:	872e                	mv	a4,a1
    9022:	4492                	lw	s1,4(sp)
    9024:	8536                	mv	a0,a3
    9026:	85ba                	mv	a1,a4
    9028:	0141                	addi	sp,sp,16
    902a:	8082                	ret
    902c:	00004797          	auipc	a5,0x4
    9030:	7bc78793          	addi	a5,a5,1980 # d7e8 <_read+0x252>
    9034:	bf9d                	j	8faa <scalbn+0x76>
    9036:	80100737          	lui	a4,0x80100
    903a:	40b2                	lw	ra,12(sp)
    903c:	4422                	lw	s0,8(sp)
    903e:	177d                	addi	a4,a4,-1
    9040:	8f71                	and	a4,a4,a2
    9042:	07d2                	slli	a5,a5,0x14
    9044:	8f5d                	or	a4,a4,a5
    9046:	4492                	lw	s1,4(sp)
    9048:	8536                	mv	a0,a3
    904a:	85ba                	mv	a1,a4
    904c:	0141                	addi	sp,sp,16
    904e:	8082                	ret
    9050:	00005797          	auipc	a5,0x5
    9054:	95878793          	addi	a5,a5,-1704 # d9a8 <atanlo+0x128>
    9058:	43d4                	lw	a3,4(a5)
    905a:	4390                	lw	a2,0(a5)
    905c:	2b6010ef          	jal	ra,a312 <__muldf3>
    9060:	40b2                	lw	ra,12(sp)
    9062:	4422                	lw	s0,8(sp)
    9064:	86aa                	mv	a3,a0
    9066:	872e                	mv	a4,a1
    9068:	4492                	lw	s1,4(sp)
    906a:	8536                	mv	a0,a3
    906c:	85ba                	mv	a1,a4
    906e:	0141                	addi	sp,sp,16
    9070:	8082                	ret

00009072 <copysign>:
    9072:	80000737          	lui	a4,0x80000
    9076:	fff74793          	not	a5,a4
    907a:	8ef9                	and	a3,a3,a4
    907c:	8fed                	and	a5,a5,a1
    907e:	872a                	mv	a4,a0
    9080:	8fd5                	or	a5,a5,a3
    9082:	853a                	mv	a0,a4
    9084:	85be                	mv	a1,a5
    9086:	8082                	ret

00009088 <__divdi3>:
    9088:	4801                	li	a6,0
    908a:	0e05c663          	bltz	a1,9176 <__divdi3+0xee>
    908e:	0006db63          	bgez	a3,90a4 <__divdi3+0x1c>
    9092:	40c00633          	neg	a2,a2
    9096:	00c037b3          	snez	a5,a2
    909a:	40d006b3          	neg	a3,a3
    909e:	fff84813          	not	a6,a6
    90a2:	8e9d                	sub	a3,a3,a5
    90a4:	87b6                	mv	a5,a3
    90a6:	8332                	mv	t1,a2
    90a8:	8eaa                	mv	t4,a0
    90aa:	88ae                	mv	a7,a1
    90ac:	18069163          	bnez	a3,922e <__divdi3+0x1a6>
    90b0:	0cc5fc63          	bgeu	a1,a2,9188 <__divdi3+0x100>
    90b4:	6741                	lui	a4,0x10
    90b6:	1ee66163          	bltu	a2,a4,9298 <__divdi3+0x210>
    90ba:	010007b7          	lui	a5,0x1000
    90be:	36f66563          	bltu	a2,a5,9428 <__divdi3+0x3a0>
    90c2:	01865693          	srli	a3,a2,0x18
    90c6:	47e1                	li	a5,24
    90c8:	00005717          	auipc	a4,0x5
    90cc:	d3870713          	addi	a4,a4,-712 # de00 <__clz_tab>
    90d0:	9736                	add	a4,a4,a3
    90d2:	00074703          	lbu	a4,0(a4)
    90d6:	97ba                	add	a5,a5,a4
    90d8:	02000713          	li	a4,32
    90dc:	8f1d                	sub	a4,a4,a5
    90de:	cb19                	beqz	a4,90f4 <__divdi3+0x6c>
    90e0:	00e595b3          	sll	a1,a1,a4
    90e4:	00f557b3          	srl	a5,a0,a5
    90e8:	00e61333          	sll	t1,a2,a4
    90ec:	00b7e8b3          	or	a7,a5,a1
    90f0:	00e51eb3          	sll	t4,a0,a4
    90f4:	01035613          	srli	a2,t1,0x10
    90f8:	02c8d7b3          	divu	a5,a7,a2
    90fc:	01031693          	slli	a3,t1,0x10
    9100:	82c1                	srli	a3,a3,0x10
    9102:	010ed713          	srli	a4,t4,0x10
    9106:	02c8f5b3          	remu	a1,a7,a2
    910a:	02f68533          	mul	a0,a3,a5
    910e:	05c2                	slli	a1,a1,0x10
    9110:	00e5e8b3          	or	a7,a1,a4
    9114:	00a8fa63          	bgeu	a7,a0,9128 <__divdi3+0xa0>
    9118:	989a                	add	a7,a7,t1
    911a:	fff78713          	addi	a4,a5,-1 # ffffff <_data_lma+0xff2063>
    911e:	0068e463          	bltu	a7,t1,9126 <__divdi3+0x9e>
    9122:	32a8e963          	bltu	a7,a0,9454 <__divdi3+0x3cc>
    9126:	87ba                	mv	a5,a4
    9128:	40a888b3          	sub	a7,a7,a0
    912c:	02c8d5b3          	divu	a1,a7,a2
    9130:	0ec2                	slli	t4,t4,0x10
    9132:	010ede93          	srli	t4,t4,0x10
    9136:	02c8f8b3          	remu	a7,a7,a2
    913a:	02b686b3          	mul	a3,a3,a1
    913e:	08c2                	slli	a7,a7,0x10
    9140:	01d8e8b3          	or	a7,a7,t4
    9144:	00d8fb63          	bgeu	a7,a3,915a <__divdi3+0xd2>
    9148:	989a                	add	a7,a7,t1
    914a:	fff58713          	addi	a4,a1,-1 # fffff <_data_lma+0xf2063>
    914e:	0068e563          	bltu	a7,t1,9158 <__divdi3+0xd0>
    9152:	15f9                	addi	a1,a1,-2
    9154:	00d8e363          	bltu	a7,a3,915a <__divdi3+0xd2>
    9158:	85ba                	mv	a1,a4
    915a:	01079513          	slli	a0,a5,0x10
    915e:	8d4d                	or	a0,a0,a1
    9160:	4581                	li	a1,0
    9162:	00080963          	beqz	a6,9174 <__divdi3+0xec>
    9166:	40a00533          	neg	a0,a0
    916a:	00a037b3          	snez	a5,a0
    916e:	40b005b3          	neg	a1,a1
    9172:	8d9d                	sub	a1,a1,a5
    9174:	8082                	ret
    9176:	40a00533          	neg	a0,a0
    917a:	00a037b3          	snez	a5,a0
    917e:	40b005b3          	neg	a1,a1
    9182:	8d9d                	sub	a1,a1,a5
    9184:	587d                	li	a6,-1
    9186:	b721                	j	908e <__divdi3+0x6>
    9188:	e601                	bnez	a2,9190 <__divdi3+0x108>
    918a:	4305                	li	t1,1
    918c:	02d35333          	divu	t1,t1,a3
    9190:	6741                	lui	a4,0x10
    9192:	0ee36a63          	bltu	t1,a4,9286 <__divdi3+0x1fe>
    9196:	010007b7          	lui	a5,0x1000
    919a:	28f36b63          	bltu	t1,a5,9430 <__divdi3+0x3a8>
    919e:	01835693          	srli	a3,t1,0x18
    91a2:	47e1                	li	a5,24
    91a4:	00005717          	auipc	a4,0x5
    91a8:	c5c70713          	addi	a4,a4,-932 # de00 <__clz_tab>
    91ac:	9736                	add	a4,a4,a3
    91ae:	00074703          	lbu	a4,0(a4)
    91b2:	97ba                	add	a5,a5,a4
    91b4:	02000713          	li	a4,32
    91b8:	8f1d                	sub	a4,a4,a5
    91ba:	eb65                	bnez	a4,92aa <__divdi3+0x222>
    91bc:	01031893          	slli	a7,t1,0x10
    91c0:	406586b3          	sub	a3,a1,t1
    91c4:	01035f13          	srli	t5,t1,0x10
    91c8:	0108d893          	srli	a7,a7,0x10
    91cc:	4585                	li	a1,1
    91ce:	010ed713          	srli	a4,t4,0x10
    91d2:	03e6d7b3          	divu	a5,a3,t5
    91d6:	03e6f6b3          	remu	a3,a3,t5
    91da:	03178633          	mul	a2,a5,a7
    91de:	06c2                	slli	a3,a3,0x10
    91e0:	8f55                	or	a4,a4,a3
    91e2:	00c77a63          	bgeu	a4,a2,91f6 <__divdi3+0x16e>
    91e6:	971a                	add	a4,a4,t1
    91e8:	fff78693          	addi	a3,a5,-1 # ffffff <_data_lma+0xff2063>
    91ec:	00676463          	bltu	a4,t1,91f4 <__divdi3+0x16c>
    91f0:	26c76563          	bltu	a4,a2,945a <__divdi3+0x3d2>
    91f4:	87b6                	mv	a5,a3
    91f6:	8f11                	sub	a4,a4,a2
    91f8:	03e756b3          	divu	a3,a4,t5
    91fc:	0ec2                	slli	t4,t4,0x10
    91fe:	010ede93          	srli	t4,t4,0x10
    9202:	03e77733          	remu	a4,a4,t5
    9206:	031688b3          	mul	a7,a3,a7
    920a:	0742                	slli	a4,a4,0x10
    920c:	01d76733          	or	a4,a4,t4
    9210:	01177b63          	bgeu	a4,a7,9226 <__divdi3+0x19e>
    9214:	971a                	add	a4,a4,t1
    9216:	fff68613          	addi	a2,a3,-1
    921a:	00676563          	bltu	a4,t1,9224 <__divdi3+0x19c>
    921e:	16f9                	addi	a3,a3,-2
    9220:	01176363          	bltu	a4,a7,9226 <__divdi3+0x19e>
    9224:	86b2                	mv	a3,a2
    9226:	01079513          	slli	a0,a5,0x10
    922a:	8d55                	or	a0,a0,a3
    922c:	bf1d                	j	9162 <__divdi3+0xda>
    922e:	04d5e163          	bltu	a1,a3,9270 <__divdi3+0x1e8>
    9232:	67c1                	lui	a5,0x10
    9234:	04f6e163          	bltu	a3,a5,9276 <__divdi3+0x1ee>
    9238:	010007b7          	lui	a5,0x1000
    923c:	1ef6e263          	bltu	a3,a5,9420 <__divdi3+0x398>
    9240:	0186d893          	srli	a7,a3,0x18
    9244:	4761                	li	a4,24
    9246:	00005797          	auipc	a5,0x5
    924a:	bba78793          	addi	a5,a5,-1094 # de00 <__clz_tab>
    924e:	97c6                	add	a5,a5,a7
    9250:	0007c303          	lbu	t1,0(a5)
    9254:	02000793          	li	a5,32
    9258:	933a                	add	t1,t1,a4
    925a:	406787b3          	sub	a5,a5,t1
    925e:	ebe9                	bnez	a5,9330 <__divdi3+0x2a8>
    9260:	1cb6ec63          	bltu	a3,a1,9438 <__divdi3+0x3b0>
    9264:	00c53533          	sltu	a0,a0,a2
    9268:	00154513          	xori	a0,a0,1
    926c:	4581                	li	a1,0
    926e:	bdd5                	j	9162 <__divdi3+0xda>
    9270:	4581                	li	a1,0
    9272:	4501                	li	a0,0
    9274:	b5fd                	j	9162 <__divdi3+0xda>
    9276:	0ff00793          	li	a5,255
    927a:	1cd7f263          	bgeu	a5,a3,943e <__divdi3+0x3b6>
    927e:	0086d893          	srli	a7,a3,0x8
    9282:	4721                	li	a4,8
    9284:	b7c9                	j	9246 <__divdi3+0x1be>
    9286:	0ff00713          	li	a4,255
    928a:	869a                	mv	a3,t1
    928c:	f0677ce3          	bgeu	a4,t1,91a4 <__divdi3+0x11c>
    9290:	00835693          	srli	a3,t1,0x8
    9294:	47a1                	li	a5,8
    9296:	b739                	j	91a4 <__divdi3+0x11c>
    9298:	0ff00713          	li	a4,255
    929c:	86b2                	mv	a3,a2
    929e:	e2c775e3          	bgeu	a4,a2,90c8 <__divdi3+0x40>
    92a2:	00865693          	srli	a3,a2,0x8
    92a6:	47a1                	li	a5,8
    92a8:	b505                	j	90c8 <__divdi3+0x40>
    92aa:	00e31333          	sll	t1,t1,a4
    92ae:	00f5d633          	srl	a2,a1,a5
    92b2:	01035f13          	srli	t5,t1,0x10
    92b6:	03e65e33          	divu	t3,a2,t5
    92ba:	00e596b3          	sll	a3,a1,a4
    92be:	00f557b3          	srl	a5,a0,a5
    92c2:	8edd                	or	a3,a3,a5
    92c4:	01031893          	slli	a7,t1,0x10
    92c8:	0108d893          	srli	a7,a7,0x10
    92cc:	00e51eb3          	sll	t4,a0,a4
    92d0:	0106d593          	srli	a1,a3,0x10
    92d4:	03e677b3          	remu	a5,a2,t5
    92d8:	03c88733          	mul	a4,a7,t3
    92dc:	07c2                	slli	a5,a5,0x10
    92de:	8fcd                	or	a5,a5,a1
    92e0:	00e7fb63          	bgeu	a5,a4,92f6 <__divdi3+0x26e>
    92e4:	979a                	add	a5,a5,t1
    92e6:	fffe0613          	addi	a2,t3,-1 # 3ffff <_data_lma+0x32063>
    92ea:	1667e363          	bltu	a5,t1,9450 <__divdi3+0x3c8>
    92ee:	16e7f163          	bgeu	a5,a4,9450 <__divdi3+0x3c8>
    92f2:	1e79                	addi	t3,t3,-2
    92f4:	979a                	add	a5,a5,t1
    92f6:	8f99                	sub	a5,a5,a4
    92f8:	03e7d633          	divu	a2,a5,t5
    92fc:	01069713          	slli	a4,a3,0x10
    9300:	8341                	srli	a4,a4,0x10
    9302:	03e7f7b3          	remu	a5,a5,t5
    9306:	02c88533          	mul	a0,a7,a2
    930a:	01079693          	slli	a3,a5,0x10
    930e:	8ed9                	or	a3,a3,a4
    9310:	00a6fb63          	bgeu	a3,a0,9326 <__divdi3+0x29e>
    9314:	969a                	add	a3,a3,t1
    9316:	fff60793          	addi	a5,a2,-1 # ffffff <_data_lma+0xff2063>
    931a:	1266e763          	bltu	a3,t1,9448 <__divdi3+0x3c0>
    931e:	12a6f563          	bgeu	a3,a0,9448 <__divdi3+0x3c0>
    9322:	1679                	addi	a2,a2,-2
    9324:	969a                	add	a3,a3,t1
    9326:	010e1593          	slli	a1,t3,0x10
    932a:	8e89                	sub	a3,a3,a0
    932c:	8dd1                	or	a1,a1,a2
    932e:	b545                	j	91ce <__divdi3+0x146>
    9330:	00665733          	srl	a4,a2,t1
    9334:	00f696b3          	sll	a3,a3,a5
    9338:	8ed9                	or	a3,a3,a4
    933a:	0065d8b3          	srl	a7,a1,t1
    933e:	0106df13          	srli	t5,a3,0x10
    9342:	03e8deb3          	divu	t4,a7,t5
    9346:	01069e13          	slli	t3,a3,0x10
    934a:	00655333          	srl	t1,a0,t1
    934e:	010e5e13          	srli	t3,t3,0x10
    9352:	00f595b3          	sll	a1,a1,a5
    9356:	00b365b3          	or	a1,t1,a1
    935a:	0105d713          	srli	a4,a1,0x10
    935e:	00f61633          	sll	a2,a2,a5
    9362:	03e8f8b3          	remu	a7,a7,t5
    9366:	03de0333          	mul	t1,t3,t4
    936a:	08c2                	slli	a7,a7,0x10
    936c:	00e8e733          	or	a4,a7,a4
    9370:	00677b63          	bgeu	a4,t1,9386 <__divdi3+0x2fe>
    9374:	9736                	add	a4,a4,a3
    9376:	fffe8893          	addi	a7,t4,-1
    937a:	0cd76963          	bltu	a4,a3,944c <__divdi3+0x3c4>
    937e:	0c677763          	bgeu	a4,t1,944c <__divdi3+0x3c4>
    9382:	1ef9                	addi	t4,t4,-2
    9384:	9736                	add	a4,a4,a3
    9386:	40670733          	sub	a4,a4,t1
    938a:	03e75333          	divu	t1,a4,t5
    938e:	05c2                	slli	a1,a1,0x10
    9390:	81c1                	srli	a1,a1,0x10
    9392:	03e77733          	remu	a4,a4,t5
    9396:	026e08b3          	mul	a7,t3,t1
    939a:	0742                	slli	a4,a4,0x10
    939c:	8dd9                	or	a1,a1,a4
    939e:	0115fb63          	bgeu	a1,a7,93b4 <__divdi3+0x32c>
    93a2:	95b6                	add	a1,a1,a3
    93a4:	fff30713          	addi	a4,t1,-1 # 7ffff <_data_lma+0x72063>
    93a8:	08d5ee63          	bltu	a1,a3,9444 <__divdi3+0x3bc>
    93ac:	0915fc63          	bgeu	a1,a7,9444 <__divdi3+0x3bc>
    93b0:	1379                	addi	t1,t1,-2
    93b2:	95b6                	add	a1,a1,a3
    93b4:	0ec2                	slli	t4,t4,0x10
    93b6:	6f41                	lui	t5,0x10
    93b8:	006eeeb3          	or	t4,t4,t1
    93bc:	ffff0713          	addi	a4,t5,-1 # ffff <_data_lma+0x2063>
    93c0:	00eef6b3          	and	a3,t4,a4
    93c4:	010ed313          	srli	t1,t4,0x10
    93c8:	8f71                	and	a4,a4,a2
    93ca:	8241                	srli	a2,a2,0x10
    93cc:	02e68e33          	mul	t3,a3,a4
    93d0:	411585b3          	sub	a1,a1,a7
    93d4:	02c686b3          	mul	a3,a3,a2
    93d8:	010e5893          	srli	a7,t3,0x10
    93dc:	02e30733          	mul	a4,t1,a4
    93e0:	96ba                	add	a3,a3,a4
    93e2:	96c6                	add	a3,a3,a7
    93e4:	02c30633          	mul	a2,t1,a2
    93e8:	00e6f363          	bgeu	a3,a4,93ee <__divdi3+0x366>
    93ec:	967a                	add	a2,a2,t5
    93ee:	0106d313          	srli	t1,a3,0x10
    93f2:	961a                	add	a2,a2,t1
    93f4:	02c5e263          	bltu	a1,a2,9418 <__divdi3+0x390>
    93f8:	00c58563          	beq	a1,a2,9402 <__divdi3+0x37a>
    93fc:	8576                	mv	a0,t4
    93fe:	4581                	li	a1,0
    9400:	b38d                	j	9162 <__divdi3+0xda>
    9402:	6741                	lui	a4,0x10
    9404:	177d                	addi	a4,a4,-1
    9406:	8ef9                	and	a3,a3,a4
    9408:	06c2                	slli	a3,a3,0x10
    940a:	00ee7e33          	and	t3,t3,a4
    940e:	00f517b3          	sll	a5,a0,a5
    9412:	96f2                	add	a3,a3,t3
    9414:	fed7f4e3          	bgeu	a5,a3,93fc <__divdi3+0x374>
    9418:	fffe8513          	addi	a0,t4,-1
    941c:	4581                	li	a1,0
    941e:	b391                	j	9162 <__divdi3+0xda>
    9420:	0106d893          	srli	a7,a3,0x10
    9424:	4741                	li	a4,16
    9426:	b505                	j	9246 <__divdi3+0x1be>
    9428:	01065693          	srli	a3,a2,0x10
    942c:	47c1                	li	a5,16
    942e:	b969                	j	90c8 <__divdi3+0x40>
    9430:	01035693          	srli	a3,t1,0x10
    9434:	47c1                	li	a5,16
    9436:	b3bd                	j	91a4 <__divdi3+0x11c>
    9438:	4581                	li	a1,0
    943a:	4505                	li	a0,1
    943c:	b31d                	j	9162 <__divdi3+0xda>
    943e:	88b6                	mv	a7,a3
    9440:	4701                	li	a4,0
    9442:	b511                	j	9246 <__divdi3+0x1be>
    9444:	833a                	mv	t1,a4
    9446:	b7bd                	j	93b4 <__divdi3+0x32c>
    9448:	863e                	mv	a2,a5
    944a:	bdf1                	j	9326 <__divdi3+0x29e>
    944c:	8ec6                	mv	t4,a7
    944e:	bf25                	j	9386 <__divdi3+0x2fe>
    9450:	8e32                	mv	t3,a2
    9452:	b555                	j	92f6 <__divdi3+0x26e>
    9454:	17f9                	addi	a5,a5,-2
    9456:	989a                	add	a7,a7,t1
    9458:	b9c1                	j	9128 <__divdi3+0xa0>
    945a:	17f9                	addi	a5,a5,-2
    945c:	971a                	add	a4,a4,t1
    945e:	bb61                	j	91f6 <__divdi3+0x16e>

00009460 <__adddf3>:
    9460:	00100837          	lui	a6,0x100
    9464:	1101                	addi	sp,sp,-32
    9466:	187d                	addi	a6,a6,-1
    9468:	00b87733          	and	a4,a6,a1
    946c:	ca26                	sw	s1,20(sp)
    946e:	00d87833          	and	a6,a6,a3
    9472:	0145d493          	srli	s1,a1,0x14
    9476:	0146d313          	srli	t1,a3,0x14
    947a:	00371e13          	slli	t3,a4,0x3
    947e:	c64e                	sw	s3,12(sp)
    9480:	01d55713          	srli	a4,a0,0x1d
    9484:	080e                	slli	a6,a6,0x3
    9486:	01d65793          	srli	a5,a2,0x1d
    948a:	7ff4f493          	andi	s1,s1,2047
    948e:	7ff37313          	andi	t1,t1,2047
    9492:	ce06                	sw	ra,28(sp)
    9494:	cc22                	sw	s0,24(sp)
    9496:	c84a                	sw	s2,16(sp)
    9498:	01f5d993          	srli	s3,a1,0x1f
    949c:	01f6de93          	srli	t4,a3,0x1f
    94a0:	01c76733          	or	a4,a4,t3
    94a4:	00351f13          	slli	t5,a0,0x3
    94a8:	0107e833          	or	a6,a5,a6
    94ac:	00361f93          	slli	t6,a2,0x3
    94b0:	40648e33          	sub	t3,s1,t1
    94b4:	19d98063          	beq	s3,t4,9634 <__adddf3+0x1d4>
    94b8:	13c05663          	blez	t3,95e4 <__adddf3+0x184>
    94bc:	1c030463          	beqz	t1,9684 <__adddf3+0x224>
    94c0:	008006b7          	lui	a3,0x800
    94c4:	7ff00793          	li	a5,2047
    94c8:	00d86833          	or	a6,a6,a3
    94cc:	36f48f63          	beq	s1,a5,984a <__adddf3+0x3ea>
    94d0:	03800793          	li	a5,56
    94d4:	35c7c063          	blt	a5,t3,9814 <__adddf3+0x3b4>
    94d8:	47fd                	li	a5,31
    94da:	47c7cd63          	blt	a5,t3,9954 <__adddf3+0x4f4>
    94de:	02000513          	li	a0,32
    94e2:	41c50533          	sub	a0,a0,t3
    94e6:	01cfd7b3          	srl	a5,t6,t3
    94ea:	00a816b3          	sll	a3,a6,a0
    94ee:	00af9933          	sll	s2,t6,a0
    94f2:	8edd                	or	a3,a3,a5
    94f4:	01203933          	snez	s2,s2
    94f8:	01c857b3          	srl	a5,a6,t3
    94fc:	0126e933          	or	s2,a3,s2
    9500:	8f1d                	sub	a4,a4,a5
    9502:	412f0933          	sub	s2,t5,s2
    9506:	012f37b3          	sltu	a5,t5,s2
    950a:	40f70633          	sub	a2,a4,a5
    950e:	00861793          	slli	a5,a2,0x8
    9512:	2407d463          	bgez	a5,975a <__adddf3+0x2fa>
    9516:	00800737          	lui	a4,0x800
    951a:	177d                	addi	a4,a4,-1
    951c:	00e67433          	and	s0,a2,a4
    9520:	2c040c63          	beqz	s0,97f8 <__adddf3+0x398>
    9524:	8522                	mv	a0,s0
    9526:	493020ef          	jal	ra,c1b8 <__clzsi2>
    952a:	ff850713          	addi	a4,a0,-8 # 800ffff8 <__freertos_irq_stack_top+0x600faff8>
    952e:	02000793          	li	a5,32
    9532:	8f99                	sub	a5,a5,a4
    9534:	00f957b3          	srl	a5,s2,a5
    9538:	00e41633          	sll	a2,s0,a4
    953c:	8fd1                	or	a5,a5,a2
    953e:	00e91933          	sll	s2,s2,a4
    9542:	2a974163          	blt	a4,s1,97e4 <__adddf3+0x384>
    9546:	40970533          	sub	a0,a4,s1
    954a:	00150613          	addi	a2,a0,1
    954e:	477d                	li	a4,31
    9550:	38c74d63          	blt	a4,a2,98ea <__adddf3+0x48a>
    9554:	02000713          	li	a4,32
    9558:	8f11                	sub	a4,a4,a2
    955a:	00c956b3          	srl	a3,s2,a2
    955e:	00e91933          	sll	s2,s2,a4
    9562:	00e79733          	sll	a4,a5,a4
    9566:	8f55                	or	a4,a4,a3
    9568:	01203933          	snez	s2,s2
    956c:	01276933          	or	s2,a4,s2
    9570:	00c7d633          	srl	a2,a5,a2
    9574:	4481                	li	s1,0
    9576:	00797793          	andi	a5,s2,7
    957a:	cf81                	beqz	a5,9592 <__adddf3+0x132>
    957c:	00f97713          	andi	a4,s2,15
    9580:	4791                	li	a5,4
    9582:	00f70863          	beq	a4,a5,9592 <__adddf3+0x132>
    9586:	00490713          	addi	a4,s2,4 # bff00004 <__freertos_irq_stack_top+0x9fefb004>
    958a:	01273933          	sltu	s2,a4,s2
    958e:	964a                	add	a2,a2,s2
    9590:	893a                	mv	s2,a4
    9592:	00861793          	slli	a5,a2,0x8
    9596:	1c07d663          	bgez	a5,9762 <__adddf3+0x302>
    959a:	00148513          	addi	a0,s1,1 # 80000001 <__freertos_irq_stack_top+0x5fffb001>
    959e:	7ff00793          	li	a5,2047
    95a2:	85ce                	mv	a1,s3
    95a4:	20f50463          	beq	a0,a5,97ac <__adddf3+0x34c>
    95a8:	ff8007b7          	lui	a5,0xff800
    95ac:	17fd                	addi	a5,a5,-1
    95ae:	8ff1                	and	a5,a5,a2
    95b0:	01d79893          	slli	a7,a5,0x1d
    95b4:	00395913          	srli	s2,s2,0x3
    95b8:	07a6                	slli	a5,a5,0x9
    95ba:	0128e8b3          	or	a7,a7,s2
    95be:	83b1                	srli	a5,a5,0xc
    95c0:	7ff57513          	andi	a0,a0,2047
    95c4:	00c79693          	slli	a3,a5,0xc
    95c8:	0552                	slli	a0,a0,0x14
    95ca:	40f2                	lw	ra,28(sp)
    95cc:	4462                	lw	s0,24(sp)
    95ce:	82b1                	srli	a3,a3,0xc
    95d0:	05fe                	slli	a1,a1,0x1f
    95d2:	8ec9                	or	a3,a3,a0
    95d4:	8ecd                	or	a3,a3,a1
    95d6:	44d2                	lw	s1,20(sp)
    95d8:	4942                	lw	s2,16(sp)
    95da:	49b2                	lw	s3,12(sp)
    95dc:	8546                	mv	a0,a7
    95de:	85b6                	mv	a1,a3
    95e0:	6105                	addi	sp,sp,32
    95e2:	8082                	ret
    95e4:	0a0e1e63          	bnez	t3,96a0 <__adddf3+0x240>
    95e8:	00148313          	addi	t1,s1,1
    95ec:	7fe37313          	andi	t1,t1,2046
    95f0:	22031763          	bnez	t1,981e <__adddf3+0x3be>
    95f4:	01e767b3          	or	a5,a4,t5
    95f8:	01f868b3          	or	a7,a6,t6
    95fc:	1a049d63          	bnez	s1,97b6 <__adddf3+0x356>
    9600:	40078763          	beqz	a5,9a0e <__adddf3+0x5ae>
    9604:	44088663          	beqz	a7,9a50 <__adddf3+0x5f0>
    9608:	41ff0933          	sub	s2,t5,t6
    960c:	410707b3          	sub	a5,a4,a6
    9610:	012f3633          	sltu	a2,t5,s2
    9614:	40c78633          	sub	a2,a5,a2
    9618:	00861793          	slli	a5,a2,0x8
    961c:	4c07d663          	bgez	a5,9ae8 <__adddf3+0x688>
    9620:	41ef8933          	sub	s2,t6,t5
    9624:	40e807b3          	sub	a5,a6,a4
    9628:	012fb633          	sltu	a2,t6,s2
    962c:	40c78633          	sub	a2,a5,a2
    9630:	89f6                	mv	s3,t4
    9632:	b791                	j	9576 <__adddf3+0x116>
    9634:	0fc05063          	blez	t3,9714 <__adddf3+0x2b4>
    9638:	0c030063          	beqz	t1,96f8 <__adddf3+0x298>
    963c:	008006b7          	lui	a3,0x800
    9640:	7ff00793          	li	a5,2047
    9644:	00d86833          	or	a6,a6,a3
    9648:	3af48a63          	beq	s1,a5,99fc <__adddf3+0x59c>
    964c:	03800793          	li	a5,56
    9650:	13c7cb63          	blt	a5,t3,9786 <__adddf3+0x326>
    9654:	47fd                	li	a5,31
    9656:	35c7df63          	bge	a5,t3,99b4 <__adddf3+0x554>
    965a:	fe0e0913          	addi	s2,t3,-32
    965e:	02000793          	li	a5,32
    9662:	012856b3          	srl	a3,a6,s2
    9666:	00fe0a63          	beq	t3,a5,967a <__adddf3+0x21a>
    966a:	04000913          	li	s2,64
    966e:	41c90933          	sub	s2,s2,t3
    9672:	01281933          	sll	s2,a6,s2
    9676:	012fefb3          	or	t6,t6,s2
    967a:	01f03933          	snez	s2,t6
    967e:	00d96933          	or	s2,s2,a3
    9682:	a231                	j	978e <__adddf3+0x32e>
    9684:	01f867b3          	or	a5,a6,t6
    9688:	1c078a63          	beqz	a5,985c <__adddf3+0x3fc>
    968c:	fffe0793          	addi	a5,t3,-1
    9690:	38078c63          	beqz	a5,9a28 <__adddf3+0x5c8>
    9694:	7ff00693          	li	a3,2047
    9698:	1ade0963          	beq	t3,a3,984a <__adddf3+0x3ea>
    969c:	8e3e                	mv	t3,a5
    969e:	bd0d                	j	94d0 <__adddf3+0x70>
    96a0:	409305b3          	sub	a1,t1,s1
    96a4:	22049163          	bnez	s1,98c6 <__adddf3+0x466>
    96a8:	01e767b3          	or	a5,a4,t5
    96ac:	32078763          	beqz	a5,99da <__adddf3+0x57a>
    96b0:	fff58793          	addi	a5,a1,-1
    96b4:	44078163          	beqz	a5,9af6 <__adddf3+0x696>
    96b8:	7ff00693          	li	a3,2047
    96bc:	20d58c63          	beq	a1,a3,98d4 <__adddf3+0x474>
    96c0:	85be                	mv	a1,a5
    96c2:	03800793          	li	a5,56
    96c6:	2ab7cc63          	blt	a5,a1,997e <__adddf3+0x51e>
    96ca:	47fd                	li	a5,31
    96cc:	3cb7cf63          	blt	a5,a1,9aaa <__adddf3+0x64a>
    96d0:	02000793          	li	a5,32
    96d4:	8f8d                	sub	a5,a5,a1
    96d6:	00f71933          	sll	s2,a4,a5
    96da:	00bf56b3          	srl	a3,t5,a1
    96de:	00ff17b3          	sll	a5,t5,a5
    96e2:	00d96933          	or	s2,s2,a3
    96e6:	00f037b3          	snez	a5,a5
    96ea:	00b75733          	srl	a4,a4,a1
    96ee:	00f96933          	or	s2,s2,a5
    96f2:	40e80833          	sub	a6,a6,a4
    96f6:	ac41                	j	9986 <__adddf3+0x526>
    96f8:	01f867b3          	or	a5,a6,t6
    96fc:	34078063          	beqz	a5,9a3c <__adddf3+0x5dc>
    9700:	fffe0793          	addi	a5,t3,-1
    9704:	20078a63          	beqz	a5,9918 <__adddf3+0x4b8>
    9708:	7ff00693          	li	a3,2047
    970c:	2ede0863          	beq	t3,a3,99fc <__adddf3+0x59c>
    9710:	8e3e                	mv	t3,a5
    9712:	bf2d                	j	964c <__adddf3+0x1ec>
    9714:	140e1e63          	bnez	t3,9870 <__adddf3+0x410>
    9718:	00148693          	addi	a3,s1,1
    971c:	7fe6f793          	andi	a5,a3,2046
    9720:	34079163          	bnez	a5,9a62 <__adddf3+0x602>
    9724:	01e767b3          	or	a5,a4,t5
    9728:	2c049563          	bnez	s1,99f2 <__adddf3+0x592>
    972c:	3e078063          	beqz	a5,9b0c <__adddf3+0x6ac>
    9730:	01f867b3          	or	a5,a6,t6
    9734:	30078e63          	beqz	a5,9a50 <__adddf3+0x5f0>
    9738:	01ff0933          	add	s2,t5,t6
    973c:	010707b3          	add	a5,a4,a6
    9740:	01e93f33          	sltu	t5,s2,t5
    9744:	01e78633          	add	a2,a5,t5
    9748:	00861793          	slli	a5,a2,0x8
    974c:	0007d763          	bgez	a5,975a <__adddf3+0x2fa>
    9750:	ff8007b7          	lui	a5,0xff800
    9754:	17fd                	addi	a5,a5,-1
    9756:	8e7d                	and	a2,a2,a5
    9758:	4485                	li	s1,1
    975a:	00797793          	andi	a5,s2,7
    975e:	e0079fe3          	bnez	a5,957c <__adddf3+0x11c>
    9762:	01d61793          	slli	a5,a2,0x1d
    9766:	00395893          	srli	a7,s2,0x3
    976a:	00f8e8b3          	or	a7,a7,a5
    976e:	00365793          	srli	a5,a2,0x3
    9772:	7ff00713          	li	a4,2047
    9776:	04e48d63          	beq	s1,a4,97d0 <__adddf3+0x370>
    977a:	07b2                	slli	a5,a5,0xc
    977c:	83b1                	srli	a5,a5,0xc
    977e:	7ff4f513          	andi	a0,s1,2047
    9782:	85ce                	mv	a1,s3
    9784:	b581                	j	95c4 <__adddf3+0x164>
    9786:	01f86933          	or	s2,a6,t6
    978a:	01203933          	snez	s2,s2
    978e:	997a                	add	s2,s2,t5
    9790:	01e937b3          	sltu	a5,s2,t5
    9794:	00e78633          	add	a2,a5,a4
    9798:	00861793          	slli	a5,a2,0x8
    979c:	fa07dfe3          	bgez	a5,975a <__adddf3+0x2fa>
    97a0:	0485                	addi	s1,s1,1
    97a2:	7ff00793          	li	a5,2047
    97a6:	18f49663          	bne	s1,a5,9932 <__adddf3+0x4d2>
    97aa:	85ce                	mv	a1,s3
    97ac:	7ff00513          	li	a0,2047
    97b0:	4781                	li	a5,0
    97b2:	4881                	li	a7,0
    97b4:	bd01                	j	95c4 <__adddf3+0x164>
    97b6:	ebc1                	bnez	a5,9846 <__adddf3+0x3e6>
    97b8:	3a088463          	beqz	a7,9b60 <__adddf3+0x700>
    97bc:	00361693          	slli	a3,a2,0x3
    97c0:	01d81793          	slli	a5,a6,0x1d
    97c4:	828d                	srli	a3,a3,0x3
    97c6:	00d7e8b3          	or	a7,a5,a3
    97ca:	89f6                	mv	s3,t4
    97cc:	00385793          	srli	a5,a6,0x3
    97d0:	00f8e7b3          	or	a5,a7,a5
    97d4:	dbf9                	beqz	a5,97aa <__adddf3+0x34a>
    97d6:	4581                	li	a1,0
    97d8:	7ff00513          	li	a0,2047
    97dc:	000807b7          	lui	a5,0x80
    97e0:	4881                	li	a7,0
    97e2:	b3cd                	j	95c4 <__adddf3+0x164>
    97e4:	ff800637          	lui	a2,0xff800
    97e8:	167d                	addi	a2,a2,-1
    97ea:	8e7d                	and	a2,a2,a5
    97ec:	00797793          	andi	a5,s2,7
    97f0:	8c99                	sub	s1,s1,a4
    97f2:	d80795e3          	bnez	a5,957c <__adddf3+0x11c>
    97f6:	b7b5                	j	9762 <__adddf3+0x302>
    97f8:	854a                	mv	a0,s2
    97fa:	1bf020ef          	jal	ra,c1b8 <__clzsi2>
    97fe:	01850713          	addi	a4,a0,24
    9802:	47fd                	li	a5,31
    9804:	d2e7d5e3          	bge	a5,a4,952e <__adddf3+0xce>
    9808:	ff850613          	addi	a2,a0,-8
    980c:	00c917b3          	sll	a5,s2,a2
    9810:	4901                	li	s2,0
    9812:	bb05                	j	9542 <__adddf3+0xe2>
    9814:	01f86933          	or	s2,a6,t6
    9818:	01203933          	snez	s2,s2
    981c:	b1dd                	j	9502 <__adddf3+0xa2>
    981e:	41ff0933          	sub	s2,t5,t6
    9822:	41070633          	sub	a2,a4,a6
    9826:	012f3433          	sltu	s0,t5,s2
    982a:	40860433          	sub	s0,a2,s0
    982e:	00841793          	slli	a5,s0,0x8
    9832:	2407cd63          	bltz	a5,9a8c <__adddf3+0x62c>
    9836:	008968b3          	or	a7,s2,s0
    983a:	ce0893e3          	bnez	a7,9520 <__adddf3+0xc0>
    983e:	4781                	li	a5,0
    9840:	4981                	li	s3,0
    9842:	4481                	li	s1,0
    9844:	bf1d                	j	977a <__adddf3+0x31a>
    9846:	f80898e3          	bnez	a7,97d6 <__adddf3+0x376>
    984a:	050e                	slli	a0,a0,0x3
    984c:	01d71793          	slli	a5,a4,0x1d
    9850:	810d                	srli	a0,a0,0x3
    9852:	00a7e8b3          	or	a7,a5,a0
    9856:	00375793          	srli	a5,a4,0x3
    985a:	bf9d                	j	97d0 <__adddf3+0x370>
    985c:	050e                	slli	a0,a0,0x3
    985e:	01d71793          	slli	a5,a4,0x1d
    9862:	810d                	srli	a0,a0,0x3
    9864:	00a7e8b3          	or	a7,a5,a0
    9868:	84f2                	mv	s1,t3
    986a:	00375793          	srli	a5,a4,0x3
    986e:	b711                	j	9772 <__adddf3+0x312>
    9870:	40930533          	sub	a0,t1,s1
    9874:	12048263          	beqz	s1,9998 <__adddf3+0x538>
    9878:	008006b7          	lui	a3,0x800
    987c:	7ff00793          	li	a5,2047
    9880:	8f55                	or	a4,a4,a3
    9882:	2ef30d63          	beq	t1,a5,9b7c <__adddf3+0x71c>
    9886:	03800793          	li	a5,56
    988a:	20a7cb63          	blt	a5,a0,9aa0 <__adddf3+0x640>
    988e:	47fd                	li	a5,31
    9890:	2aa7c363          	blt	a5,a0,9b36 <__adddf3+0x6d6>
    9894:	02000793          	li	a5,32
    9898:	8f89                	sub	a5,a5,a0
    989a:	00f71933          	sll	s2,a4,a5
    989e:	00af56b3          	srl	a3,t5,a0
    98a2:	00ff17b3          	sll	a5,t5,a5
    98a6:	00d96933          	or	s2,s2,a3
    98aa:	00f037b3          	snez	a5,a5
    98ae:	00a75733          	srl	a4,a4,a0
    98b2:	00f96933          	or	s2,s2,a5
    98b6:	983a                	add	a6,a6,a4
    98b8:	997e                	add	s2,s2,t6
    98ba:	01f937b3          	sltu	a5,s2,t6
    98be:	01078633          	add	a2,a5,a6
    98c2:	849a                	mv	s1,t1
    98c4:	bdd1                	j	9798 <__adddf3+0x338>
    98c6:	008006b7          	lui	a3,0x800
    98ca:	7ff00793          	li	a5,2047
    98ce:	8f55                	or	a4,a4,a3
    98d0:	def319e3          	bne	t1,a5,96c2 <__adddf3+0x262>
    98d4:	00361793          	slli	a5,a2,0x3
    98d8:	838d                	srli	a5,a5,0x3
    98da:	01d81893          	slli	a7,a6,0x1d
    98de:	0117e8b3          	or	a7,a5,a7
    98e2:	89f6                	mv	s3,t4
    98e4:	00385793          	srli	a5,a6,0x3
    98e8:	b5e5                	j	97d0 <__adddf3+0x370>
    98ea:	fe150713          	addi	a4,a0,-31
    98ee:	02000693          	li	a3,32
    98f2:	00e7d733          	srl	a4,a5,a4
    98f6:	00d60a63          	beq	a2,a3,990a <__adddf3+0x4aa>
    98fa:	04000693          	li	a3,64
    98fe:	40c68633          	sub	a2,a3,a2
    9902:	00c79633          	sll	a2,a5,a2
    9906:	00c96933          	or	s2,s2,a2
    990a:	01203933          	snez	s2,s2
    990e:	00e96933          	or	s2,s2,a4
    9912:	4601                	li	a2,0
    9914:	4481                	li	s1,0
    9916:	b591                	j	975a <__adddf3+0x2fa>
    9918:	01ff0933          	add	s2,t5,t6
    991c:	010707b3          	add	a5,a4,a6
    9920:	01e93633          	sltu	a2,s2,t5
    9924:	963e                	add	a2,a2,a5
    9926:	00861793          	slli	a5,a2,0x8
    992a:	4485                	li	s1,1
    992c:	e207d7e3          	bgez	a5,975a <__adddf3+0x2fa>
    9930:	4489                	li	s1,2
    9932:	ff8007b7          	lui	a5,0xff800
    9936:	17fd                	addi	a5,a5,-1
    9938:	8ff1                	and	a5,a5,a2
    993a:	00195713          	srli	a4,s2,0x1
    993e:	00197913          	andi	s2,s2,1
    9942:	01276933          	or	s2,a4,s2
    9946:	01f79893          	slli	a7,a5,0x1f
    994a:	0128e933          	or	s2,a7,s2
    994e:	0017d613          	srli	a2,a5,0x1
    9952:	b115                	j	9576 <__adddf3+0x116>
    9954:	fe0e0913          	addi	s2,t3,-32
    9958:	02000793          	li	a5,32
    995c:	012856b3          	srl	a3,a6,s2
    9960:	00fe0a63          	beq	t3,a5,9974 <__adddf3+0x514>
    9964:	04000913          	li	s2,64
    9968:	41c90933          	sub	s2,s2,t3
    996c:	01281933          	sll	s2,a6,s2
    9970:	012fefb3          	or	t6,t6,s2
    9974:	01f03933          	snez	s2,t6
    9978:	00d96933          	or	s2,s2,a3
    997c:	b659                	j	9502 <__adddf3+0xa2>
    997e:	01e76933          	or	s2,a4,t5
    9982:	01203933          	snez	s2,s2
    9986:	412f8933          	sub	s2,t6,s2
    998a:	012fb7b3          	sltu	a5,t6,s2
    998e:	40f80633          	sub	a2,a6,a5
    9992:	849a                	mv	s1,t1
    9994:	89f6                	mv	s3,t4
    9996:	bea5                	j	950e <__adddf3+0xae>
    9998:	01e767b3          	or	a5,a4,t5
    999c:	18078263          	beqz	a5,9b20 <__adddf3+0x6c0>
    99a0:	fff50793          	addi	a5,a0,-1
    99a4:	1c078463          	beqz	a5,9b6c <__adddf3+0x70c>
    99a8:	7ff00693          	li	a3,2047
    99ac:	12d50463          	beq	a0,a3,9ad4 <__adddf3+0x674>
    99b0:	853e                	mv	a0,a5
    99b2:	bdd1                	j	9886 <__adddf3+0x426>
    99b4:	02000793          	li	a5,32
    99b8:	41c787b3          	sub	a5,a5,t3
    99bc:	00f816b3          	sll	a3,a6,a5
    99c0:	00ff9933          	sll	s2,t6,a5
    99c4:	01cfd633          	srl	a2,t6,t3
    99c8:	8ed1                	or	a3,a3,a2
    99ca:	01203933          	snez	s2,s2
    99ce:	01c857b3          	srl	a5,a6,t3
    99d2:	0126e933          	or	s2,a3,s2
    99d6:	973e                	add	a4,a4,a5
    99d8:	bb5d                	j	978e <__adddf3+0x32e>
    99da:	00361793          	slli	a5,a2,0x3
    99de:	838d                	srli	a5,a5,0x3
    99e0:	01d81893          	slli	a7,a6,0x1d
    99e4:	0117e8b3          	or	a7,a5,a7
    99e8:	84ae                	mv	s1,a1
    99ea:	00385793          	srli	a5,a6,0x3
    99ee:	89f6                	mv	s3,t4
    99f0:	b349                	j	9772 <__adddf3+0x312>
    99f2:	c3ed                	beqz	a5,9ad4 <__adddf3+0x674>
    99f4:	01f86933          	or	s2,a6,t6
    99f8:	dc091fe3          	bnez	s2,97d6 <__adddf3+0x376>
    99fc:	050e                	slli	a0,a0,0x3
    99fe:	01d71793          	slli	a5,a4,0x1d
    9a02:	810d                	srli	a0,a0,0x3
    9a04:	00f568b3          	or	a7,a0,a5
    9a08:	00375793          	srli	a5,a4,0x3
    9a0c:	b3d1                	j	97d0 <__adddf3+0x370>
    9a0e:	0e088163          	beqz	a7,9af0 <__adddf3+0x690>
    9a12:	00361693          	slli	a3,a2,0x3
    9a16:	01d81793          	slli	a5,a6,0x1d
    9a1a:	828d                	srli	a3,a3,0x3
    9a1c:	00d7e8b3          	or	a7,a5,a3
    9a20:	89f6                	mv	s3,t4
    9a22:	00385793          	srli	a5,a6,0x3
    9a26:	bb91                	j	977a <__adddf3+0x31a>
    9a28:	41ff0933          	sub	s2,t5,t6
    9a2c:	410707b3          	sub	a5,a4,a6
    9a30:	012f3f33          	sltu	t5,t5,s2
    9a34:	41e78633          	sub	a2,a5,t5
    9a38:	4485                	li	s1,1
    9a3a:	bcd1                	j	950e <__adddf3+0xae>
    9a3c:	050e                	slli	a0,a0,0x3
    9a3e:	01d71793          	slli	a5,a4,0x1d
    9a42:	810d                	srli	a0,a0,0x3
    9a44:	00f568b3          	or	a7,a0,a5
    9a48:	84f2                	mv	s1,t3
    9a4a:	00375793          	srli	a5,a4,0x3
    9a4e:	b315                	j	9772 <__adddf3+0x312>
    9a50:	050e                	slli	a0,a0,0x3
    9a52:	01d71793          	slli	a5,a4,0x1d
    9a56:	810d                	srli	a0,a0,0x3
    9a58:	00a7e8b3          	or	a7,a5,a0
    9a5c:	00375793          	srli	a5,a4,0x3
    9a60:	bb29                	j	977a <__adddf3+0x31a>
    9a62:	7ff00793          	li	a5,2047
    9a66:	d4f682e3          	beq	a3,a5,97aa <__adddf3+0x34a>
    9a6a:	01ff0933          	add	s2,t5,t6
    9a6e:	01e93633          	sltu	a2,s2,t5
    9a72:	010707b3          	add	a5,a4,a6
    9a76:	97b2                	add	a5,a5,a2
    9a78:	01f79893          	slli	a7,a5,0x1f
    9a7c:	00195913          	srli	s2,s2,0x1
    9a80:	0128e933          	or	s2,a7,s2
    9a84:	0017d613          	srli	a2,a5,0x1
    9a88:	84b6                	mv	s1,a3
    9a8a:	b9c1                	j	975a <__adddf3+0x2fa>
    9a8c:	41ef8933          	sub	s2,t6,t5
    9a90:	40e80733          	sub	a4,a6,a4
    9a94:	012fb633          	sltu	a2,t6,s2
    9a98:	40c70433          	sub	s0,a4,a2
    9a9c:	89f6                	mv	s3,t4
    9a9e:	b449                	j	9520 <__adddf3+0xc0>
    9aa0:	01e76933          	or	s2,a4,t5
    9aa4:	01203933          	snez	s2,s2
    9aa8:	bd01                	j	98b8 <__adddf3+0x458>
    9aaa:	fe058793          	addi	a5,a1,-32
    9aae:	02000693          	li	a3,32
    9ab2:	00f757b3          	srl	a5,a4,a5
    9ab6:	00d58a63          	beq	a1,a3,9aca <__adddf3+0x66a>
    9aba:	04000693          	li	a3,64
    9abe:	40b685b3          	sub	a1,a3,a1
    9ac2:	00b71733          	sll	a4,a4,a1
    9ac6:	00ef6f33          	or	t5,t5,a4
    9aca:	01e03933          	snez	s2,t5
    9ace:	00f96933          	or	s2,s2,a5
    9ad2:	bd55                	j	9986 <__adddf3+0x526>
    9ad4:	00361793          	slli	a5,a2,0x3
    9ad8:	838d                	srli	a5,a5,0x3
    9ada:	01d81893          	slli	a7,a6,0x1d
    9ade:	0117e8b3          	or	a7,a5,a7
    9ae2:	00385793          	srli	a5,a6,0x3
    9ae6:	b1ed                	j	97d0 <__adddf3+0x370>
    9ae8:	00c968b3          	or	a7,s2,a2
    9aec:	c60897e3          	bnez	a7,975a <__adddf3+0x2fa>
    9af0:	4781                	li	a5,0
    9af2:	4981                	li	s3,0
    9af4:	b159                	j	977a <__adddf3+0x31a>
    9af6:	41ef8933          	sub	s2,t6,t5
    9afa:	40e807b3          	sub	a5,a6,a4
    9afe:	012fb633          	sltu	a2,t6,s2
    9b02:	40c78633          	sub	a2,a5,a2
    9b06:	89f6                	mv	s3,t4
    9b08:	4485                	li	s1,1
    9b0a:	b411                	j	950e <__adddf3+0xae>
    9b0c:	00361693          	slli	a3,a2,0x3
    9b10:	01d81793          	slli	a5,a6,0x1d
    9b14:	828d                	srli	a3,a3,0x3
    9b16:	00d7e8b3          	or	a7,a5,a3
    9b1a:	00385793          	srli	a5,a6,0x3
    9b1e:	b9b1                	j	977a <__adddf3+0x31a>
    9b20:	00361693          	slli	a3,a2,0x3
    9b24:	01d81793          	slli	a5,a6,0x1d
    9b28:	828d                	srli	a3,a3,0x3
    9b2a:	00d7e8b3          	or	a7,a5,a3
    9b2e:	84aa                	mv	s1,a0
    9b30:	00385793          	srli	a5,a6,0x3
    9b34:	b93d                	j	9772 <__adddf3+0x312>
    9b36:	fe050793          	addi	a5,a0,-32
    9b3a:	02000693          	li	a3,32
    9b3e:	00f757b3          	srl	a5,a4,a5
    9b42:	00d50a63          	beq	a0,a3,9b56 <__adddf3+0x6f6>
    9b46:	04000693          	li	a3,64
    9b4a:	40a68533          	sub	a0,a3,a0
    9b4e:	00a71733          	sll	a4,a4,a0
    9b52:	00ef6f33          	or	t5,t5,a4
    9b56:	01e03933          	snez	s2,t5
    9b5a:	00f96933          	or	s2,s2,a5
    9b5e:	bba9                	j	98b8 <__adddf3+0x458>
    9b60:	4581                	li	a1,0
    9b62:	7ff00513          	li	a0,2047
    9b66:	000807b7          	lui	a5,0x80
    9b6a:	bca9                	j	95c4 <__adddf3+0x164>
    9b6c:	01ff0933          	add	s2,t5,t6
    9b70:	010707b3          	add	a5,a4,a6
    9b74:	01f93633          	sltu	a2,s2,t6
    9b78:	963e                	add	a2,a2,a5
    9b7a:	b375                	j	9926 <__adddf3+0x4c6>
    9b7c:	00361693          	slli	a3,a2,0x3
    9b80:	01d81793          	slli	a5,a6,0x1d
    9b84:	828d                	srli	a3,a3,0x3
    9b86:	00d7e8b3          	or	a7,a5,a3
    9b8a:	00385793          	srli	a5,a6,0x3
    9b8e:	b189                	j	97d0 <__adddf3+0x370>

00009b90 <__divdf3>:
    9b90:	7139                	addi	sp,sp,-64
    9b92:	0145d793          	srli	a5,a1,0x14
    9b96:	dc22                	sw	s0,56(sp)
    9b98:	d84a                	sw	s2,48(sp)
    9b9a:	d256                	sw	s5,36(sp)
    9b9c:	892a                	mv	s2,a0
    9b9e:	00c59413          	slli	s0,a1,0xc
    9ba2:	de06                	sw	ra,60(sp)
    9ba4:	da26                	sw	s1,52(sp)
    9ba6:	d64e                	sw	s3,44(sp)
    9ba8:	d452                	sw	s4,40(sp)
    9baa:	d05a                	sw	s6,32(sp)
    9bac:	ce5e                	sw	s7,28(sp)
    9bae:	7ff7f513          	andi	a0,a5,2047
    9bb2:	8031                	srli	s0,s0,0xc
    9bb4:	01f5da93          	srli	s5,a1,0x1f
    9bb8:	10050b63          	beqz	a0,9cce <__divdf3+0x13e>
    9bbc:	7ff00793          	li	a5,2047
    9bc0:	14f50b63          	beq	a0,a5,9d16 <__divdf3+0x186>
    9bc4:	01d95a13          	srli	s4,s2,0x1d
    9bc8:	040e                	slli	s0,s0,0x3
    9bca:	008a6433          	or	s0,s4,s0
    9bce:	00800a37          	lui	s4,0x800
    9bd2:	01446a33          	or	s4,s0,s4
    9bd6:	00391b13          	slli	s6,s2,0x3
    9bda:	c0150493          	addi	s1,a0,-1023
    9bde:	4401                	li	s0,0
    9be0:	4b81                	li	s7,0
    9be2:	0146d813          	srli	a6,a3,0x14
    9be6:	00c69913          	slli	s2,a3,0xc
    9bea:	7ff87813          	andi	a6,a6,2047
    9bee:	88b2                	mv	a7,a2
    9bf0:	00c95913          	srli	s2,s2,0xc
    9bf4:	01f6d993          	srli	s3,a3,0x1f
    9bf8:	08080e63          	beqz	a6,9c94 <__divdf3+0x104>
    9bfc:	7ff00793          	li	a5,2047
    9c00:	04f80063          	beq	a6,a5,9c40 <__divdf3+0xb0>
    9c04:	01d65713          	srli	a4,a2,0x1d
    9c08:	090e                	slli	s2,s2,0x3
    9c0a:	01276933          	or	s2,a4,s2
    9c0e:	c0180813          	addi	a6,a6,-1023 # ffc01 <_data_lma+0xf1c65>
    9c12:	008007b7          	lui	a5,0x800
    9c16:	00f96733          	or	a4,s2,a5
    9c1a:	00361893          	slli	a7,a2,0x3
    9c1e:	410484b3          	sub	s1,s1,a6
    9c22:	4581                	li	a1,0
    9c24:	47bd                	li	a5,15
    9c26:	013ac833          	xor	a6,s5,s3
    9c2a:	1a87e463          	bltu	a5,s0,9dd2 <__divdf3+0x242>
    9c2e:	00004797          	auipc	a5,0x4
    9c32:	09278793          	addi	a5,a5,146 # dcc0 <TWO52+0x20>
    9c36:	040a                	slli	s0,s0,0x2
    9c38:	943e                	add	s0,s0,a5
    9c3a:	4010                	lw	a2,0(s0)
    9c3c:	963e                	add	a2,a2,a5
    9c3e:	8602                	jr	a2
    9c40:	00c96733          	or	a4,s2,a2
    9c44:	80148493          	addi	s1,s1,-2047
    9c48:	10071263          	bnez	a4,9d4c <__divdf3+0x1bc>
    9c4c:	00246413          	ori	s0,s0,2
    9c50:	4881                	li	a7,0
    9c52:	4589                	li	a1,2
    9c54:	bfc1                	j	9c24 <__divdf3+0x94>
    9c56:	7ff00613          	li	a2,2047
    9c5a:	4781                	li	a5,0
    9c5c:	4701                	li	a4,0
    9c5e:	07b2                	slli	a5,a5,0xc
    9c60:	50f2                	lw	ra,60(sp)
    9c62:	5462                	lw	s0,56(sp)
    9c64:	0652                	slli	a2,a2,0x14
    9c66:	83b1                	srli	a5,a5,0xc
    9c68:	087e                	slli	a6,a6,0x1f
    9c6a:	8fd1                	or	a5,a5,a2
    9c6c:	0107e7b3          	or	a5,a5,a6
    9c70:	54d2                	lw	s1,52(sp)
    9c72:	5942                	lw	s2,48(sp)
    9c74:	59b2                	lw	s3,44(sp)
    9c76:	5a22                	lw	s4,40(sp)
    9c78:	5a92                	lw	s5,36(sp)
    9c7a:	5b02                	lw	s6,32(sp)
    9c7c:	4bf2                	lw	s7,28(sp)
    9c7e:	853a                	mv	a0,a4
    9c80:	85be                	mv	a1,a5
    9c82:	6121                	addi	sp,sp,64
    9c84:	8082                	ret
    9c86:	4801                	li	a6,0
    9c88:	7ff00613          	li	a2,2047
    9c8c:	000807b7          	lui	a5,0x80
    9c90:	4701                	li	a4,0
    9c92:	b7f1                	j	9c5e <__divdf3+0xce>
    9c94:	00c96733          	or	a4,s2,a2
    9c98:	c74d                	beqz	a4,9d42 <__divdf3+0x1b2>
    9c9a:	30090863          	beqz	s2,9faa <__divdf3+0x41a>
    9c9e:	854a                	mv	a0,s2
    9ca0:	c432                	sw	a2,8(sp)
    9ca2:	516020ef          	jal	ra,c1b8 <__clzsi2>
    9ca6:	4622                	lw	a2,8(sp)
    9ca8:	ff550713          	addi	a4,a0,-11
    9cac:	47f5                	li	a5,29
    9cae:	ff850693          	addi	a3,a0,-8
    9cb2:	8f99                	sub	a5,a5,a4
    9cb4:	00d91933          	sll	s2,s2,a3
    9cb8:	00f657b3          	srl	a5,a2,a5
    9cbc:	0127e733          	or	a4,a5,s2
    9cc0:	00d618b3          	sll	a7,a2,a3
    9cc4:	9526                	add	a0,a0,s1
    9cc6:	3f350493          	addi	s1,a0,1011
    9cca:	4581                	li	a1,0
    9ccc:	bfa1                	j	9c24 <__divdf3+0x94>
    9cce:	01246a33          	or	s4,s0,s2
    9cd2:	060a0363          	beqz	s4,9d38 <__divdf3+0x1a8>
    9cd6:	c636                	sw	a3,12(sp)
    9cd8:	c432                	sw	a2,8(sp)
    9cda:	2a040663          	beqz	s0,9f86 <__divdf3+0x3f6>
    9cde:	8522                	mv	a0,s0
    9ce0:	4d8020ef          	jal	ra,c1b8 <__clzsi2>
    9ce4:	4622                	lw	a2,8(sp)
    9ce6:	46b2                	lw	a3,12(sp)
    9ce8:	84aa                	mv	s1,a0
    9cea:	ff550713          	addi	a4,a0,-11
    9cee:	4a75                	li	s4,29
    9cf0:	ff848b13          	addi	s6,s1,-8
    9cf4:	40ea0a33          	sub	s4,s4,a4
    9cf8:	01641433          	sll	s0,s0,s6
    9cfc:	01495a33          	srl	s4,s2,s4
    9d00:	008a6a33          	or	s4,s4,s0
    9d04:	01691b33          	sll	s6,s2,s6
    9d08:	c0d00513          	li	a0,-1011
    9d0c:	409504b3          	sub	s1,a0,s1
    9d10:	4401                	li	s0,0
    9d12:	4b81                	li	s7,0
    9d14:	b5f9                	j	9be2 <__divdf3+0x52>
    9d16:	01246a33          	or	s4,s0,s2
    9d1a:	000a1863          	bnez	s4,9d2a <__divdf3+0x19a>
    9d1e:	4421                	li	s0,8
    9d20:	4b01                	li	s6,0
    9d22:	7ff00493          	li	s1,2047
    9d26:	4b89                	li	s7,2
    9d28:	bd6d                	j	9be2 <__divdf3+0x52>
    9d2a:	8a22                	mv	s4,s0
    9d2c:	8b4a                	mv	s6,s2
    9d2e:	4431                	li	s0,12
    9d30:	7ff00493          	li	s1,2047
    9d34:	4b8d                	li	s7,3
    9d36:	b575                	j	9be2 <__divdf3+0x52>
    9d38:	4411                	li	s0,4
    9d3a:	4b01                	li	s6,0
    9d3c:	4481                	li	s1,0
    9d3e:	4b85                	li	s7,1
    9d40:	b54d                	j	9be2 <__divdf3+0x52>
    9d42:	00146413          	ori	s0,s0,1
    9d46:	4881                	li	a7,0
    9d48:	4585                	li	a1,1
    9d4a:	bde9                	j	9c24 <__divdf3+0x94>
    9d4c:	00346413          	ori	s0,s0,3
    9d50:	874a                	mv	a4,s2
    9d52:	458d                	li	a1,3
    9d54:	bdc1                	j	9c24 <__divdf3+0x94>
    9d56:	2e050a63          	beqz	a0,a04a <__divdf3+0x4ba>
    9d5a:	4785                	li	a5,1
    9d5c:	8f89                	sub	a5,a5,a0
    9d5e:	03800693          	li	a3,56
    9d62:	32f6dd63          	bge	a3,a5,a09c <__divdf3+0x50c>
    9d66:	4601                	li	a2,0
    9d68:	4781                	li	a5,0
    9d6a:	4701                	li	a4,0
    9d6c:	bdcd                	j	9c5e <__divdf3+0xce>
    9d6e:	86ce                	mv	a3,s3
    9d70:	4789                	li	a5,2
    9d72:	3af58d63          	beq	a1,a5,a12c <__divdf3+0x59c>
    9d76:	478d                	li	a5,3
    9d78:	f0f587e3          	beq	a1,a5,9c86 <__divdf3+0xf6>
    9d7c:	4785                	li	a5,1
    9d7e:	8836                	mv	a6,a3
    9d80:	fef583e3          	beq	a1,a5,9d66 <__divdf3+0x1d6>
    9d84:	3ff48513          	addi	a0,s1,1023
    9d88:	fca057e3          	blez	a0,9d56 <__divdf3+0x1c6>
    9d8c:	0078f793          	andi	a5,a7,7
    9d90:	28079663          	bnez	a5,a01c <__divdf3+0x48c>
    9d94:	0038d693          	srli	a3,a7,0x3
    9d98:	00771793          	slli	a5,a4,0x7
    9d9c:	0007d863          	bgez	a5,9dac <__divdf3+0x21c>
    9da0:	ff0007b7          	lui	a5,0xff000
    9da4:	17fd                	addi	a5,a5,-1
    9da6:	8f7d                	and	a4,a4,a5
    9da8:	40048513          	addi	a0,s1,1024
    9dac:	7fe00793          	li	a5,2046
    9db0:	eaa7c3e3          	blt	a5,a0,9c56 <__divdf3+0xc6>
    9db4:	01d71613          	slli	a2,a4,0x1d
    9db8:	00971793          	slli	a5,a4,0x9
    9dbc:	83b1                	srli	a5,a5,0xc
    9dbe:	00d66733          	or	a4,a2,a3
    9dc2:	7ff57613          	andi	a2,a0,2047
    9dc6:	bd61                	j	9c5e <__divdf3+0xce>
    9dc8:	86d6                	mv	a3,s5
    9dca:	8752                	mv	a4,s4
    9dcc:	88da                	mv	a7,s6
    9dce:	85de                	mv	a1,s7
    9dd0:	b745                	j	9d70 <__divdf3+0x1e0>
    9dd2:	23476163          	bltu	a4,s4,9ff4 <__divdf3+0x464>
    9dd6:	20ea0d63          	beq	s4,a4,9ff0 <__divdf3+0x460>
    9dda:	86da                	mv	a3,s6
    9ddc:	14fd                	addi	s1,s1,-1
    9dde:	8452                	mv	s0,s4
    9de0:	4b01                	li	s6,0
    9de2:	00871793          	slli	a5,a4,0x8
    9de6:	0188d313          	srli	t1,a7,0x18
    9dea:	00f36333          	or	t1,t1,a5
    9dee:	01035e93          	srli	t4,t1,0x10
    9df2:	03d457b3          	divu	a5,s0,t4
    9df6:	01031f13          	slli	t5,t1,0x10
    9dfa:	010f5f13          	srli	t5,t5,0x10
    9dfe:	0106d593          	srli	a1,a3,0x10
    9e02:	00889e13          	slli	t3,a7,0x8
    9e06:	03d47433          	remu	s0,s0,t4
    9e0a:	02ff0733          	mul	a4,t5,a5
    9e0e:	0442                	slli	s0,s0,0x10
    9e10:	8dc1                	or	a1,a1,s0
    9e12:	00e5fb63          	bgeu	a1,a4,9e28 <__divdf3+0x298>
    9e16:	959a                	add	a1,a1,t1
    9e18:	fff78613          	addi	a2,a5,-1 # feffffff <__freertos_irq_stack_top+0xdeffafff>
    9e1c:	2665ee63          	bltu	a1,t1,a098 <__divdf3+0x508>
    9e20:	26e5fc63          	bgeu	a1,a4,a098 <__divdf3+0x508>
    9e24:	17f9                	addi	a5,a5,-2
    9e26:	959a                	add	a1,a1,t1
    9e28:	8d99                	sub	a1,a1,a4
    9e2a:	03d5d733          	divu	a4,a1,t4
    9e2e:	06c2                	slli	a3,a3,0x10
    9e30:	82c1                	srli	a3,a3,0x10
    9e32:	03d5f5b3          	remu	a1,a1,t4
    9e36:	02ef0633          	mul	a2,t5,a4
    9e3a:	05c2                	slli	a1,a1,0x10
    9e3c:	8dd5                	or	a1,a1,a3
    9e3e:	00c5fb63          	bgeu	a1,a2,9e54 <__divdf3+0x2c4>
    9e42:	959a                	add	a1,a1,t1
    9e44:	fff70693          	addi	a3,a4,-1 # 7fffff <_data_lma+0x7f2063>
    9e48:	2465e663          	bltu	a1,t1,a094 <__divdf3+0x504>
    9e4c:	24c5f463          	bgeu	a1,a2,a094 <__divdf3+0x504>
    9e50:	1779                	addi	a4,a4,-2
    9e52:	959a                	add	a1,a1,t1
    9e54:	07c2                	slli	a5,a5,0x10
    9e56:	6441                	lui	s0,0x10
    9e58:	8f5d                	or	a4,a4,a5
    9e5a:	fff40793          	addi	a5,s0,-1 # ffff <_data_lma+0x2063>
    9e5e:	00f77533          	and	a0,a4,a5
    9e62:	01075893          	srli	a7,a4,0x10
    9e66:	010e5f93          	srli	t6,t3,0x10
    9e6a:	00fe77b3          	and	a5,t3,a5
    9e6e:	02f502b3          	mul	t0,a0,a5
    9e72:	40c586b3          	sub	a3,a1,a2
    9e76:	02f883b3          	mul	t2,a7,a5
    9e7a:	0102d593          	srli	a1,t0,0x10
    9e7e:	02af8633          	mul	a2,t6,a0
    9e82:	961e                	add	a2,a2,t2
    9e84:	962e                	add	a2,a2,a1
    9e86:	03f88533          	mul	a0,a7,t6
    9e8a:	00767363          	bgeu	a2,t2,9e90 <__divdf3+0x300>
    9e8e:	9522                	add	a0,a0,s0
    9e90:	68c1                	lui	a7,0x10
    9e92:	18fd                	addi	a7,a7,-1
    9e94:	01065593          	srli	a1,a2,0x10
    9e98:	01167633          	and	a2,a2,a7
    9e9c:	0642                	slli	a2,a2,0x10
    9e9e:	0112f8b3          	and	a7,t0,a7
    9ea2:	95aa                	add	a1,a1,a0
    9ea4:	9646                	add	a2,a2,a7
    9ea6:	12b6e663          	bltu	a3,a1,9fd2 <__divdf3+0x442>
    9eaa:	12b68263          	beq	a3,a1,9fce <__divdf3+0x43e>
    9eae:	40cb0633          	sub	a2,s6,a2
    9eb2:	8e8d                	sub	a3,a3,a1
    9eb4:	00cb3b33          	sltu	s6,s6,a2
    9eb8:	41668b33          	sub	s6,a3,s6
    9ebc:	3ff48513          	addi	a0,s1,1023
    9ec0:	17630c63          	beq	t1,s6,a038 <__divdf3+0x4a8>
    9ec4:	03db58b3          	divu	a7,s6,t4
    9ec8:	01065593          	srli	a1,a2,0x10
    9ecc:	03db7b33          	remu	s6,s6,t4
    9ed0:	031f06b3          	mul	a3,t5,a7
    9ed4:	0b42                	slli	s6,s6,0x10
    9ed6:	0165eb33          	or	s6,a1,s6
    9eda:	00db7b63          	bgeu	s6,a3,9ef0 <__divdf3+0x360>
    9ede:	9b1a                	add	s6,s6,t1
    9ee0:	fff88593          	addi	a1,a7,-1 # ffff <_data_lma+0x2063>
    9ee4:	206b6d63          	bltu	s6,t1,a0fe <__divdf3+0x56e>
    9ee8:	20db7b63          	bgeu	s6,a3,a0fe <__divdf3+0x56e>
    9eec:	18f9                	addi	a7,a7,-2
    9eee:	9b1a                	add	s6,s6,t1
    9ef0:	40db0b33          	sub	s6,s6,a3
    9ef4:	03db56b3          	divu	a3,s6,t4
    9ef8:	0642                	slli	a2,a2,0x10
    9efa:	8241                	srli	a2,a2,0x10
    9efc:	03db7b33          	remu	s6,s6,t4
    9f00:	02df0f33          	mul	t5,t5,a3
    9f04:	0b42                	slli	s6,s6,0x10
    9f06:	01666633          	or	a2,a2,s6
    9f0a:	01e67b63          	bgeu	a2,t5,9f20 <__divdf3+0x390>
    9f0e:	961a                	add	a2,a2,t1
    9f10:	fff68593          	addi	a1,a3,-1 # 7fffff <_data_lma+0x7f2063>
    9f14:	1e666763          	bltu	a2,t1,a102 <__divdf3+0x572>
    9f18:	1fe67563          	bgeu	a2,t5,a102 <__divdf3+0x572>
    9f1c:	16f9                	addi	a3,a3,-2
    9f1e:	961a                	add	a2,a2,t1
    9f20:	08c2                	slli	a7,a7,0x10
    9f22:	00d8e8b3          	or	a7,a7,a3
    9f26:	01089593          	slli	a1,a7,0x10
    9f2a:	0108d293          	srli	t0,a7,0x10
    9f2e:	81c1                	srli	a1,a1,0x10
    9f30:	02f58eb3          	mul	t4,a1,a5
    9f34:	41e60633          	sub	a2,a2,t5
    9f38:	02bf85b3          	mul	a1,t6,a1
    9f3c:	010ed693          	srli	a3,t4,0x10
    9f40:	02f287b3          	mul	a5,t0,a5
    9f44:	95be                	add	a1,a1,a5
    9f46:	96ae                	add	a3,a3,a1
    9f48:	025f8fb3          	mul	t6,t6,t0
    9f4c:	00f6f463          	bgeu	a3,a5,9f54 <__divdf3+0x3c4>
    9f50:	67c1                	lui	a5,0x10
    9f52:	9fbe                	add	t6,t6,a5
    9f54:	65c1                	lui	a1,0x10
    9f56:	15fd                	addi	a1,a1,-1
    9f58:	0106d793          	srli	a5,a3,0x10
    9f5c:	8eed                	and	a3,a3,a1
    9f5e:	06c2                	slli	a3,a3,0x10
    9f60:	00befeb3          	and	t4,t4,a1
    9f64:	9fbe                	add	t6,t6,a5
    9f66:	96f6                	add	a3,a3,t4
    9f68:	09f67f63          	bgeu	a2,t6,a006 <__divdf3+0x476>
    9f6c:	961a                	add	a2,a2,t1
    9f6e:	fff88793          	addi	a5,a7,-1
    9f72:	1a666963          	bltu	a2,t1,a124 <__divdf3+0x594>
    9f76:	19f66863          	bltu	a2,t6,a106 <__divdf3+0x576>
    9f7a:	1bf60f63          	beq	a2,t6,a138 <__divdf3+0x5a8>
    9f7e:	88be                	mv	a7,a5
    9f80:	0018e893          	ori	a7,a7,1
    9f84:	b511                	j	9d88 <__divdf3+0x1f8>
    9f86:	854a                	mv	a0,s2
    9f88:	230020ef          	jal	ra,c1b8 <__clzsi2>
    9f8c:	01550713          	addi	a4,a0,21
    9f90:	45f1                	li	a1,28
    9f92:	02050493          	addi	s1,a0,32
    9f96:	4622                	lw	a2,8(sp)
    9f98:	46b2                	lw	a3,12(sp)
    9f9a:	d4e5dae3          	bge	a1,a4,9cee <__divdf3+0x15e>
    9f9e:	ff850413          	addi	s0,a0,-8
    9fa2:	00891a33          	sll	s4,s2,s0
    9fa6:	4b01                	li	s6,0
    9fa8:	b385                	j	9d08 <__divdf3+0x178>
    9faa:	8532                	mv	a0,a2
    9fac:	c432                	sw	a2,8(sp)
    9fae:	20a020ef          	jal	ra,c1b8 <__clzsi2>
    9fb2:	01550713          	addi	a4,a0,21
    9fb6:	46f1                	li	a3,28
    9fb8:	87aa                	mv	a5,a0
    9fba:	4622                	lw	a2,8(sp)
    9fbc:	02050513          	addi	a0,a0,32
    9fc0:	cee6d6e3          	bge	a3,a4,9cac <__divdf3+0x11c>
    9fc4:	17e1                	addi	a5,a5,-8
    9fc6:	00f61733          	sll	a4,a2,a5
    9fca:	4881                	li	a7,0
    9fcc:	b9e5                	j	9cc4 <__divdf3+0x134>
    9fce:	eecb70e3          	bgeu	s6,a2,9eae <__divdf3+0x31e>
    9fd2:	9b72                	add	s6,s6,t3
    9fd4:	01cb3533          	sltu	a0,s6,t3
    9fd8:	951a                	add	a0,a0,t1
    9fda:	96aa                	add	a3,a3,a0
    9fdc:	fff70513          	addi	a0,a4,-1
    9fe0:	02d37863          	bgeu	t1,a3,a010 <__divdf3+0x480>
    9fe4:	10b6e663          	bltu	a3,a1,a0f0 <__divdf3+0x560>
    9fe8:	10d58263          	beq	a1,a3,a0ec <__divdf3+0x55c>
    9fec:	872a                	mv	a4,a0
    9fee:	b5c1                	j	9eae <__divdf3+0x31e>
    9ff0:	df1b65e3          	bltu	s6,a7,9dda <__divdf3+0x24a>
    9ff4:	001b5593          	srli	a1,s6,0x1
    9ff8:	01fa1693          	slli	a3,s4,0x1f
    9ffc:	001a5413          	srli	s0,s4,0x1
    a000:	8ecd                	or	a3,a3,a1
    a002:	0b7e                	slli	s6,s6,0x1f
    a004:	bbf9                	j	9de2 <__divdf3+0x252>
    a006:	f7f61de3          	bne	a2,t6,9f80 <__divdf3+0x3f0>
    a00a:	d6068fe3          	beqz	a3,9d88 <__divdf3+0x1f8>
    a00e:	bfb9                	j	9f6c <__divdf3+0x3dc>
    a010:	fcd31ee3          	bne	t1,a3,9fec <__divdf3+0x45c>
    a014:	fdcb78e3          	bgeu	s6,t3,9fe4 <__divdf3+0x454>
    a018:	872a                	mv	a4,a0
    a01a:	bd51                	j	9eae <__divdf3+0x31e>
    a01c:	00f8f793          	andi	a5,a7,15
    a020:	4691                	li	a3,4
    a022:	d6d789e3          	beq	a5,a3,9d94 <__divdf3+0x204>
    a026:	ffc8b793          	sltiu	a5,a7,-4
    a02a:	00488693          	addi	a3,a7,4
    a02e:	0017c793          	xori	a5,a5,1
    a032:	828d                	srli	a3,a3,0x3
    a034:	973e                	add	a4,a4,a5
    a036:	b38d                	j	9d98 <__divdf3+0x208>
    a038:	4681                	li	a3,0
    a03a:	4785                	li	a5,1
    a03c:	fea04ce3          	bgtz	a0,a034 <__divdf3+0x4a4>
    a040:	58fd                	li	a7,-1
    a042:	d0051ce3          	bnez	a0,9d5a <__divdf3+0x1ca>
    a046:	c0100493          	li	s1,-1023
    a04a:	4785                	li	a5,1
    a04c:	41e48513          	addi	a0,s1,1054
    a050:	00a716b3          	sll	a3,a4,a0
    a054:	00f8d633          	srl	a2,a7,a5
    a058:	00a89533          	sll	a0,a7,a0
    a05c:	8ed1                	or	a3,a3,a2
    a05e:	00a03533          	snez	a0,a0
    a062:	8ec9                	or	a3,a3,a0
    a064:	0076f613          	andi	a2,a3,7
    a068:	00f75733          	srl	a4,a4,a5
    a06c:	ce01                	beqz	a2,a084 <__divdf3+0x4f4>
    a06e:	00f6f793          	andi	a5,a3,15
    a072:	4611                	li	a2,4
    a074:	00c78863          	beq	a5,a2,a084 <__divdf3+0x4f4>
    a078:	00468793          	addi	a5,a3,4
    a07c:	00d7b6b3          	sltu	a3,a5,a3
    a080:	9736                	add	a4,a4,a3
    a082:	86be                	mv	a3,a5
    a084:	00871793          	slli	a5,a4,0x8
    a088:	0407d863          	bgez	a5,a0d8 <__divdf3+0x548>
    a08c:	4605                	li	a2,1
    a08e:	4781                	li	a5,0
    a090:	4701                	li	a4,0
    a092:	b6f1                	j	9c5e <__divdf3+0xce>
    a094:	8736                	mv	a4,a3
    a096:	bb7d                	j	9e54 <__divdf3+0x2c4>
    a098:	87b2                	mv	a5,a2
    a09a:	b379                	j	9e28 <__divdf3+0x298>
    a09c:	46fd                	li	a3,31
    a09e:	faf6d7e3          	bge	a3,a5,a04c <__divdf3+0x4bc>
    a0a2:	5605                	li	a2,-31
    a0a4:	8e09                	sub	a2,a2,a0
    a0a6:	02000693          	li	a3,32
    a0aa:	00c75633          	srl	a2,a4,a2
    a0ae:	00d78863          	beq	a5,a3,a0be <__divdf3+0x52e>
    a0b2:	43e48793          	addi	a5,s1,1086
    a0b6:	00f717b3          	sll	a5,a4,a5
    a0ba:	00f8e8b3          	or	a7,a7,a5
    a0be:	011036b3          	snez	a3,a7
    a0c2:	8ed1                	or	a3,a3,a2
    a0c4:	0076f613          	andi	a2,a3,7
    a0c8:	4781                	li	a5,0
    a0ca:	ce01                	beqz	a2,a0e2 <__divdf3+0x552>
    a0cc:	00f6f793          	andi	a5,a3,15
    a0d0:	4611                	li	a2,4
    a0d2:	4701                	li	a4,0
    a0d4:	fac792e3          	bne	a5,a2,a078 <__divdf3+0x4e8>
    a0d8:	00971793          	slli	a5,a4,0x9
    a0dc:	01d71613          	slli	a2,a4,0x1d
    a0e0:	83b1                	srli	a5,a5,0xc
    a0e2:	0036d713          	srli	a4,a3,0x3
    a0e6:	8f51                	or	a4,a4,a2
    a0e8:	4601                	li	a2,0
    a0ea:	be95                	j	9c5e <__divdf3+0xce>
    a0ec:	f0cb70e3          	bgeu	s6,a2,9fec <__divdf3+0x45c>
    a0f0:	9b72                	add	s6,s6,t3
    a0f2:	01cb3533          	sltu	a0,s6,t3
    a0f6:	951a                	add	a0,a0,t1
    a0f8:	1779                	addi	a4,a4,-2
    a0fa:	96aa                	add	a3,a3,a0
    a0fc:	bb4d                	j	9eae <__divdf3+0x31e>
    a0fe:	88ae                	mv	a7,a1
    a100:	bbc5                	j	9ef0 <__divdf3+0x360>
    a102:	86ae                	mv	a3,a1
    a104:	bd31                	j	9f20 <__divdf3+0x390>
    a106:	001e1793          	slli	a5,t3,0x1
    a10a:	01c7be33          	sltu	t3,a5,t3
    a10e:	9372                	add	t1,t1,t3
    a110:	961a                	add	a2,a2,t1
    a112:	18f9                	addi	a7,a7,-2
    a114:	8e3e                	mv	t3,a5
    a116:	e7f615e3          	bne	a2,t6,9f80 <__divdf3+0x3f0>
    a11a:	c6de07e3          	beq	t3,a3,9d88 <__divdf3+0x1f8>
    a11e:	0018e893          	ori	a7,a7,1
    a122:	b19d                	j	9d88 <__divdf3+0x1f8>
    a124:	88be                	mv	a7,a5
    a126:	fff60ae3          	beq	a2,t6,a11a <__divdf3+0x58a>
    a12a:	bd99                	j	9f80 <__divdf3+0x3f0>
    a12c:	8836                	mv	a6,a3
    a12e:	7ff00613          	li	a2,2047
    a132:	4781                	li	a5,0
    a134:	4701                	li	a4,0
    a136:	b625                	j	9c5e <__divdf3+0xce>
    a138:	fcde67e3          	bltu	t3,a3,a106 <__divdf3+0x576>
    a13c:	88be                	mv	a7,a5
    a13e:	fede10e3          	bne	t3,a3,a11e <__divdf3+0x58e>
    a142:	b199                	j	9d88 <__divdf3+0x1f8>

0000a144 <__eqdf2>:
    a144:	0145d713          	srli	a4,a1,0x14
    a148:	001007b7          	lui	a5,0x100
    a14c:	17fd                	addi	a5,a5,-1
    a14e:	0146d813          	srli	a6,a3,0x14
    a152:	7ff77713          	andi	a4,a4,2047
    a156:	7ff00893          	li	a7,2047
    a15a:	00b7fe33          	and	t3,a5,a1
    a15e:	8eaa                	mv	t4,a0
    a160:	8ff5                	and	a5,a5,a3
    a162:	81fd                	srli	a1,a1,0x1f
    a164:	8f32                	mv	t5,a2
    a166:	7ff87813          	andi	a6,a6,2047
    a16a:	82fd                	srli	a3,a3,0x1f
    a16c:	01170b63          	beq	a4,a7,a182 <__eqdf2+0x3e>
    a170:	4305                	li	t1,1
    a172:	01180663          	beq	a6,a7,a17e <__eqdf2+0x3a>
    a176:	01071463          	bne	a4,a6,a17e <__eqdf2+0x3a>
    a17a:	00fe0d63          	beq	t3,a5,a194 <__eqdf2+0x50>
    a17e:	851a                	mv	a0,t1
    a180:	8082                	ret
    a182:	00ae68b3          	or	a7,t3,a0
    a186:	4305                	li	t1,1
    a188:	fe089be3          	bnez	a7,a17e <__eqdf2+0x3a>
    a18c:	fee819e3          	bne	a6,a4,a17e <__eqdf2+0x3a>
    a190:	8fd1                	or	a5,a5,a2
    a192:	f7f5                	bnez	a5,a17e <__eqdf2+0x3a>
    a194:	4305                	li	t1,1
    a196:	ffee94e3          	bne	t4,t5,a17e <__eqdf2+0x3a>
    a19a:	4301                	li	t1,0
    a19c:	fed581e3          	beq	a1,a3,a17e <__eqdf2+0x3a>
    a1a0:	4305                	li	t1,1
    a1a2:	ff71                	bnez	a4,a17e <__eqdf2+0x3a>
    a1a4:	00ae6533          	or	a0,t3,a0
    a1a8:	00a03333          	snez	t1,a0
    a1ac:	bfc9                	j	a17e <__eqdf2+0x3a>

0000a1ae <__gedf2>:
    a1ae:	0145d713          	srli	a4,a1,0x14
    a1b2:	001007b7          	lui	a5,0x100
    a1b6:	17fd                	addi	a5,a5,-1
    a1b8:	0146d813          	srli	a6,a3,0x14
    a1bc:	7ff77713          	andi	a4,a4,2047
    a1c0:	7ff00893          	li	a7,2047
    a1c4:	00b7f333          	and	t1,a5,a1
    a1c8:	8e2a                	mv	t3,a0
    a1ca:	8ff5                	and	a5,a5,a3
    a1cc:	81fd                	srli	a1,a1,0x1f
    a1ce:	8eb2                	mv	t4,a2
    a1d0:	7ff87813          	andi	a6,a6,2047
    a1d4:	82fd                	srli	a3,a3,0x1f
    a1d6:	03170863          	beq	a4,a7,a206 <__gedf2+0x58>
    a1da:	03180063          	beq	a6,a7,a1fa <__gedf2+0x4c>
    a1de:	eb0d                	bnez	a4,a210 <__gedf2+0x62>
    a1e0:	00a368b3          	or	a7,t1,a0
    a1e4:	00081463          	bnez	a6,a1ec <__gedf2+0x3e>
    a1e8:	8e5d                	or	a2,a2,a5
    a1ea:	ca29                	beqz	a2,a23c <__gedf2+0x8e>
    a1ec:	04088563          	beqz	a7,a236 <__gedf2+0x88>
    a1f0:	02d58863          	beq	a1,a3,a220 <__gedf2+0x72>
    a1f4:	4505                	li	a0,1
    a1f6:	ed95                	bnez	a1,a232 <__gedf2+0x84>
    a1f8:	8082                	ret
    a1fa:	00c7e8b3          	or	a7,a5,a2
    a1fe:	fe0880e3          	beqz	a7,a1de <__gedf2+0x30>
    a202:	5579                	li	a0,-2
    a204:	8082                	ret
    a206:	00a36533          	or	a0,t1,a0
    a20a:	fd65                	bnez	a0,a202 <__gedf2+0x54>
    a20c:	02e80c63          	beq	a6,a4,a244 <__gedf2+0x96>
    a210:	00081463          	bnez	a6,a218 <__gedf2+0x6a>
    a214:	8e5d                	or	a2,a2,a5
    a216:	de79                	beqz	a2,a1f4 <__gedf2+0x46>
    a218:	fcd59ee3          	bne	a1,a3,a1f4 <__gedf2+0x46>
    a21c:	fce84ce3          	blt	a6,a4,a1f4 <__gedf2+0x46>
    a220:	01074863          	blt	a4,a6,a230 <__gedf2+0x82>
    a224:	fc67e8e3          	bltu	a5,t1,a1f4 <__gedf2+0x46>
    a228:	02f30363          	beq	t1,a5,a24e <__gedf2+0xa0>
    a22c:	00f37f63          	bgeu	t1,a5,a24a <__gedf2+0x9c>
    a230:	e581                	bnez	a1,a238 <__gedf2+0x8a>
    a232:	557d                	li	a0,-1
    a234:	8082                	ret
    a236:	def5                	beqz	a3,a232 <__gedf2+0x84>
    a238:	4505                	li	a0,1
    a23a:	8082                	ret
    a23c:	4501                	li	a0,0
    a23e:	fa089be3          	bnez	a7,a1f4 <__gedf2+0x46>
    a242:	8082                	ret
    a244:	8e5d                	or	a2,a2,a5
    a246:	da69                	beqz	a2,a218 <__gedf2+0x6a>
    a248:	bf6d                	j	a202 <__gedf2+0x54>
    a24a:	4501                	li	a0,0
    a24c:	8082                	ret
    a24e:	fbcee3e3          	bltu	t4,t3,a1f4 <__gedf2+0x46>
    a252:	4501                	li	a0,0
    a254:	fbde72e3          	bgeu	t3,t4,a1f8 <__gedf2+0x4a>
    a258:	f1e5                	bnez	a1,a238 <__gedf2+0x8a>
    a25a:	bfe1                	j	a232 <__gedf2+0x84>

0000a25c <__ledf2>:
    a25c:	0145d713          	srli	a4,a1,0x14
    a260:	001007b7          	lui	a5,0x100
    a264:	17fd                	addi	a5,a5,-1
    a266:	0146d813          	srli	a6,a3,0x14
    a26a:	7ff77713          	andi	a4,a4,2047
    a26e:	7ff00893          	li	a7,2047
    a272:	00b7fe33          	and	t3,a5,a1
    a276:	8eaa                	mv	t4,a0
    a278:	8ff5                	and	a5,a5,a3
    a27a:	81fd                	srli	a1,a1,0x1f
    a27c:	8f32                	mv	t5,a2
    a27e:	7ff87813          	andi	a6,a6,2047
    a282:	82fd                	srli	a3,a3,0x1f
    a284:	03170e63          	beq	a4,a7,a2c0 <__ledf2+0x64>
    a288:	01180d63          	beq	a6,a7,a2a2 <__ledf2+0x46>
    a28c:	e329                	bnez	a4,a2ce <__ledf2+0x72>
    a28e:	00ae68b3          	or	a7,t3,a0
    a292:	00081f63          	bnez	a6,a2b0 <__ledf2+0x54>
    a296:	8e5d                	or	a2,a2,a5
    a298:	ee01                	bnez	a2,a2b0 <__ledf2+0x54>
    a29a:	4301                	li	t1,0
    a29c:	04088c63          	beqz	a7,a2f4 <__ledf2+0x98>
    a2a0:	a821                	j	a2b8 <__ledf2+0x5c>
    a2a2:	00c7e8b3          	or	a7,a5,a2
    a2a6:	4309                	li	t1,2
    a2a8:	04089663          	bnez	a7,a2f4 <__ledf2+0x98>
    a2ac:	d36d                	beqz	a4,a28e <__ledf2+0x32>
    a2ae:	a005                	j	a2ce <__ledf2+0x72>
    a2b0:	04088463          	beqz	a7,a2f8 <__ledf2+0x9c>
    a2b4:	02d58563          	beq	a1,a3,a2de <__ledf2+0x82>
    a2b8:	4305                	li	t1,1
    a2ba:	cd8d                	beqz	a1,a2f4 <__ledf2+0x98>
    a2bc:	537d                	li	t1,-1
    a2be:	a81d                	j	a2f4 <__ledf2+0x98>
    a2c0:	00ae68b3          	or	a7,t3,a0
    a2c4:	4309                	li	t1,2
    a2c6:	02089763          	bnez	a7,a2f4 <__ledf2+0x98>
    a2ca:	02e80a63          	beq	a6,a4,a2fe <__ledf2+0xa2>
    a2ce:	00081463          	bnez	a6,a2d6 <__ledf2+0x7a>
    a2d2:	8e5d                	or	a2,a2,a5
    a2d4:	d275                	beqz	a2,a2b8 <__ledf2+0x5c>
    a2d6:	fed591e3          	bne	a1,a3,a2b8 <__ledf2+0x5c>
    a2da:	fce84fe3          	blt	a6,a4,a2b8 <__ledf2+0x5c>
    a2de:	01074963          	blt	a4,a6,a2f0 <__ledf2+0x94>
    a2e2:	fdc7ebe3          	bltu	a5,t3,a2b8 <__ledf2+0x5c>
    a2e6:	00fe0f63          	beq	t3,a5,a304 <__ledf2+0xa8>
    a2ea:	4301                	li	t1,0
    a2ec:	00fe7463          	bgeu	t3,a5,a2f4 <__ledf2+0x98>
    a2f0:	d5f1                	beqz	a1,a2bc <__ledf2+0x60>
    a2f2:	4305                	li	t1,1
    a2f4:	851a                	mv	a0,t1
    a2f6:	8082                	ret
    a2f8:	feed                	bnez	a3,a2f2 <__ledf2+0x96>
    a2fa:	537d                	li	t1,-1
    a2fc:	bfe5                	j	a2f4 <__ledf2+0x98>
    a2fe:	8e5d                	or	a2,a2,a5
    a300:	da79                	beqz	a2,a2d6 <__ledf2+0x7a>
    a302:	bfcd                	j	a2f4 <__ledf2+0x98>
    a304:	fbdf6ae3          	bltu	t5,t4,a2b8 <__ledf2+0x5c>
    a308:	4301                	li	t1,0
    a30a:	ffeef5e3          	bgeu	t4,t5,a2f4 <__ledf2+0x98>
    a30e:	f1f5                	bnez	a1,a2f2 <__ledf2+0x96>
    a310:	b775                	j	a2bc <__ledf2+0x60>

0000a312 <__muldf3>:
    a312:	7139                	addi	sp,sp,-64
    a314:	d84a                	sw	s2,48(sp)
    a316:	0145d913          	srli	s2,a1,0x14
    a31a:	d64e                	sw	s3,44(sp)
    a31c:	d452                	sw	s4,40(sp)
    a31e:	d256                	sw	s5,36(sp)
    a320:	00c59993          	slli	s3,a1,0xc
    a324:	de06                	sw	ra,60(sp)
    a326:	dc22                	sw	s0,56(sp)
    a328:	da26                	sw	s1,52(sp)
    a32a:	d05a                	sw	s6,32(sp)
    a32c:	ce5e                	sw	s7,28(sp)
    a32e:	7ff97913          	andi	s2,s2,2047
    a332:	8a2a                	mv	s4,a0
    a334:	00c9d993          	srli	s3,s3,0xc
    a338:	01f5da93          	srli	s5,a1,0x1f
    a33c:	0e090d63          	beqz	s2,a436 <__muldf3+0x124>
    a340:	7ff00793          	li	a5,2047
    a344:	18f90663          	beq	s2,a5,a4d0 <__muldf3+0x1be>
    a348:	01d55413          	srli	s0,a0,0x1d
    a34c:	098e                	slli	s3,s3,0x3
    a34e:	013469b3          	or	s3,s0,s3
    a352:	00800437          	lui	s0,0x800
    a356:	0089e433          	or	s0,s3,s0
    a35a:	00351493          	slli	s1,a0,0x3
    a35e:	c0190913          	addi	s2,s2,-1023
    a362:	4981                	li	s3,0
    a364:	4b81                	li	s7,0
    a366:	0146d713          	srli	a4,a3,0x14
    a36a:	00c69a13          	slli	s4,a3,0xc
    a36e:	7ff77713          	andi	a4,a4,2047
    a372:	85b2                	mv	a1,a2
    a374:	00ca5a13          	srli	s4,s4,0xc
    a378:	01f6db13          	srli	s6,a3,0x1f
    a37c:	10070b63          	beqz	a4,a492 <__muldf3+0x180>
    a380:	7ff00793          	li	a5,2047
    a384:	04f70363          	beq	a4,a5,a3ca <__muldf3+0xb8>
    a388:	01d65793          	srli	a5,a2,0x1d
    a38c:	0a0e                	slli	s4,s4,0x3
    a38e:	0147ea33          	or	s4,a5,s4
    a392:	c0170713          	addi	a4,a4,-1023
    a396:	008007b7          	lui	a5,0x800
    a39a:	00fa67b3          	or	a5,s4,a5
    a39e:	00361593          	slli	a1,a2,0x3
    a3a2:	993a                	add	s2,s2,a4
    a3a4:	4881                	li	a7,0
    a3a6:	016ac733          	xor	a4,s5,s6
    a3aa:	46bd                	li	a3,15
    a3ac:	853a                	mv	a0,a4
    a3ae:	00190813          	addi	a6,s2,1
    a3b2:	1736e863          	bltu	a3,s3,a522 <__muldf3+0x210>
    a3b6:	00004617          	auipc	a2,0x4
    a3ba:	94a60613          	addi	a2,a2,-1718 # dd00 <TWO52+0x60>
    a3be:	098a                	slli	s3,s3,0x2
    a3c0:	99b2                	add	s3,s3,a2
    a3c2:	0009a683          	lw	a3,0(s3)
    a3c6:	96b2                	add	a3,a3,a2
    a3c8:	8682                	jr	a3
    a3ca:	00ca67b3          	or	a5,s4,a2
    a3ce:	7ff90913          	addi	s2,s2,2047
    a3d2:	12079963          	bnez	a5,a504 <__muldf3+0x1f2>
    a3d6:	0029e993          	ori	s3,s3,2
    a3da:	4581                	li	a1,0
    a3dc:	4889                	li	a7,2
    a3de:	b7e1                	j	a3a6 <__muldf3+0x94>
    a3e0:	4701                	li	a4,0
    a3e2:	7ff00793          	li	a5,2047
    a3e6:	00080437          	lui	s0,0x80
    a3ea:	4481                	li	s1,0
    a3ec:	0432                	slli	s0,s0,0xc
    a3ee:	07d2                	slli	a5,a5,0x14
    a3f0:	8031                	srli	s0,s0,0xc
    a3f2:	077e                	slli	a4,a4,0x1f
    a3f4:	8c5d                	or	s0,s0,a5
    a3f6:	8c59                	or	s0,s0,a4
    a3f8:	85a2                	mv	a1,s0
    a3fa:	50f2                	lw	ra,60(sp)
    a3fc:	5462                	lw	s0,56(sp)
    a3fe:	8526                	mv	a0,s1
    a400:	5942                	lw	s2,48(sp)
    a402:	54d2                	lw	s1,52(sp)
    a404:	59b2                	lw	s3,44(sp)
    a406:	5a22                	lw	s4,40(sp)
    a408:	5a92                	lw	s5,36(sp)
    a40a:	5b02                	lw	s6,32(sp)
    a40c:	4bf2                	lw	s7,28(sp)
    a40e:	6121                	addi	sp,sp,64
    a410:	8082                	ret
    a412:	855a                	mv	a0,s6
    a414:	843e                	mv	s0,a5
    a416:	84ae                	mv	s1,a1
    a418:	8bc6                	mv	s7,a7
    a41a:	4789                	li	a5,2
    a41c:	0efb8d63          	beq	s7,a5,a516 <__muldf3+0x204>
    a420:	478d                	li	a5,3
    a422:	fafb8fe3          	beq	s7,a5,a3e0 <__muldf3+0xce>
    a426:	4785                	li	a5,1
    a428:	872a                	mv	a4,a0
    a42a:	38fb9e63          	bne	s7,a5,a7c6 <__muldf3+0x4b4>
    a42e:	4781                	li	a5,0
    a430:	4401                	li	s0,0
    a432:	4481                	li	s1,0
    a434:	bf65                	j	a3ec <__muldf3+0xda>
    a436:	00a9e433          	or	s0,s3,a0
    a43a:	c061                	beqz	s0,a4fa <__muldf3+0x1e8>
    a43c:	c636                	sw	a3,12(sp)
    a43e:	c432                	sw	a2,8(sp)
    a440:	2a098c63          	beqz	s3,a6f8 <__muldf3+0x3e6>
    a444:	854e                	mv	a0,s3
    a446:	573010ef          	jal	ra,c1b8 <__clzsi2>
    a44a:	4622                	lw	a2,8(sp)
    a44c:	46b2                	lw	a3,12(sp)
    a44e:	87aa                	mv	a5,a0
    a450:	ff550713          	addi	a4,a0,-11
    a454:	4475                	li	s0,29
    a456:	ff878493          	addi	s1,a5,-8 # 7ffff8 <_data_lma+0x7f205c>
    a45a:	8c19                	sub	s0,s0,a4
    a45c:	009999b3          	sll	s3,s3,s1
    a460:	008a5433          	srl	s0,s4,s0
    a464:	01346433          	or	s0,s0,s3
    a468:	009a14b3          	sll	s1,s4,s1
    a46c:	0146d713          	srli	a4,a3,0x14
    a470:	c0d00913          	li	s2,-1011
    a474:	00c69a13          	slli	s4,a3,0xc
    a478:	7ff77713          	andi	a4,a4,2047
    a47c:	40f90933          	sub	s2,s2,a5
    a480:	4981                	li	s3,0
    a482:	4b81                	li	s7,0
    a484:	85b2                	mv	a1,a2
    a486:	00ca5a13          	srli	s4,s4,0xc
    a48a:	01f6db13          	srli	s6,a3,0x1f
    a48e:	ee0719e3          	bnez	a4,a380 <__muldf3+0x6e>
    a492:	00ca67b3          	or	a5,s4,a2
    a496:	c7b1                	beqz	a5,a4e2 <__muldf3+0x1d0>
    a498:	220a0f63          	beqz	s4,a6d6 <__muldf3+0x3c4>
    a49c:	8552                	mv	a0,s4
    a49e:	c432                	sw	a2,8(sp)
    a4a0:	519010ef          	jal	ra,c1b8 <__clzsi2>
    a4a4:	4622                	lw	a2,8(sp)
    a4a6:	872a                	mv	a4,a0
    a4a8:	ff550693          	addi	a3,a0,-11
    a4ac:	47f5                	li	a5,29
    a4ae:	ff870593          	addi	a1,a4,-8
    a4b2:	8f95                	sub	a5,a5,a3
    a4b4:	00ba1a33          	sll	s4,s4,a1
    a4b8:	00f657b3          	srl	a5,a2,a5
    a4bc:	0147e7b3          	or	a5,a5,s4
    a4c0:	00b615b3          	sll	a1,a2,a1
    a4c4:	40e90933          	sub	s2,s2,a4
    a4c8:	c0d90913          	addi	s2,s2,-1011
    a4cc:	4881                	li	a7,0
    a4ce:	bde1                	j	a3a6 <__muldf3+0x94>
    a4d0:	00a9e433          	or	s0,s3,a0
    a4d4:	ec01                	bnez	s0,a4ec <__muldf3+0x1da>
    a4d6:	49a1                	li	s3,8
    a4d8:	4481                	li	s1,0
    a4da:	7ff00913          	li	s2,2047
    a4de:	4b89                	li	s7,2
    a4e0:	b559                	j	a366 <__muldf3+0x54>
    a4e2:	0019e993          	ori	s3,s3,1
    a4e6:	4581                	li	a1,0
    a4e8:	4885                	li	a7,1
    a4ea:	bd75                	j	a3a6 <__muldf3+0x94>
    a4ec:	844e                	mv	s0,s3
    a4ee:	84aa                	mv	s1,a0
    a4f0:	49b1                	li	s3,12
    a4f2:	7ff00913          	li	s2,2047
    a4f6:	4b8d                	li	s7,3
    a4f8:	b5bd                	j	a366 <__muldf3+0x54>
    a4fa:	4991                	li	s3,4
    a4fc:	4481                	li	s1,0
    a4fe:	4901                	li	s2,0
    a500:	4b85                	li	s7,1
    a502:	b595                	j	a366 <__muldf3+0x54>
    a504:	0039e993          	ori	s3,s3,3
    a508:	87d2                	mv	a5,s4
    a50a:	488d                	li	a7,3
    a50c:	bd69                	j	a3a6 <__muldf3+0x94>
    a50e:	4789                	li	a5,2
    a510:	8556                	mv	a0,s5
    a512:	f0fb97e3          	bne	s7,a5,a420 <__muldf3+0x10e>
    a516:	872a                	mv	a4,a0
    a518:	7ff00793          	li	a5,2047
    a51c:	4401                	li	s0,0
    a51e:	4481                	li	s1,0
    a520:	b5f1                	j	a3ec <__muldf3+0xda>
    a522:	6ec1                	lui	t4,0x10
    a524:	fffe8613          	addi	a2,t4,-1 # ffff <_data_lma+0x2063>
    a528:	0104d693          	srli	a3,s1,0x10
    a52c:	0105de13          	srli	t3,a1,0x10
    a530:	8cf1                	and	s1,s1,a2
    a532:	8df1                	and	a1,a1,a2
    a534:	02958633          	mul	a2,a1,s1
    a538:	02b68333          	mul	t1,a3,a1
    a53c:	01065893          	srli	a7,a2,0x10
    a540:	029e0533          	mul	a0,t3,s1
    a544:	951a                	add	a0,a0,t1
    a546:	98aa                	add	a7,a7,a0
    a548:	03c682b3          	mul	t0,a3,t3
    a54c:	0068f363          	bgeu	a7,t1,a552 <__muldf3+0x240>
    a550:	92f6                	add	t0,t0,t4
    a552:	6fc1                	lui	t6,0x10
    a554:	ffff8313          	addi	t1,t6,-1 # ffff <_data_lma+0x2063>
    a558:	0067f533          	and	a0,a5,t1
    a55c:	0107d393          	srli	t2,a5,0x10
    a560:	0068f7b3          	and	a5,a7,t1
    a564:	07c2                	slli	a5,a5,0x10
    a566:	00667333          	and	t1,a2,t1
    a56a:	933e                	add	t1,t1,a5
    a56c:	02950633          	mul	a2,a0,s1
    a570:	0108d893          	srli	a7,a7,0x10
    a574:	02a687b3          	mul	a5,a3,a0
    a578:	01065f13          	srli	t5,a2,0x10
    a57c:	029384b3          	mul	s1,t2,s1
    a580:	94be                	add	s1,s1,a5
    a582:	94fa                	add	s1,s1,t5
    a584:	02768eb3          	mul	t4,a3,t2
    a588:	00f4f363          	bgeu	s1,a5,a58e <__muldf3+0x27c>
    a58c:	9efe                	add	t4,t4,t6
    a58e:	6a41                	lui	s4,0x10
    a590:	fffa0793          	addi	a5,s4,-1 # ffff <_data_lma+0x2063>
    a594:	01045f93          	srli	t6,s0,0x10
    a598:	00f476b3          	and	a3,s0,a5
    a59c:	00f4f9b3          	and	s3,s1,a5
    a5a0:	8e7d                	and	a2,a2,a5
    a5a2:	80c1                	srli	s1,s1,0x10
    a5a4:	02d58433          	mul	s0,a1,a3
    a5a8:	09c2                	slli	s3,s3,0x10
    a5aa:	01d48f33          	add	t5,s1,t4
    a5ae:	99b2                	add	s3,s3,a2
    a5b0:	98ce                	add	a7,a7,s3
    a5b2:	02de07b3          	mul	a5,t3,a3
    a5b6:	01045e93          	srli	t4,s0,0x10
    a5ba:	02bf85b3          	mul	a1,t6,a1
    a5be:	97ae                	add	a5,a5,a1
    a5c0:	9ebe                	add	t4,t4,a5
    a5c2:	03fe0e33          	mul	t3,t3,t6
    a5c6:	00bef363          	bgeu	t4,a1,a5cc <__muldf3+0x2ba>
    a5ca:	9e52                	add	t3,t3,s4
    a5cc:	67c1                	lui	a5,0x10
    a5ce:	fff78593          	addi	a1,a5,-1 # ffff <_data_lma+0x2063>
    a5d2:	00bef633          	and	a2,t4,a1
    a5d6:	8c6d                	and	s0,s0,a1
    a5d8:	0642                	slli	a2,a2,0x10
    a5da:	9622                	add	a2,a2,s0
    a5dc:	010ede93          	srli	t4,t4,0x10
    a5e0:	02d505b3          	mul	a1,a0,a3
    a5e4:	9e76                	add	t3,t3,t4
    a5e6:	02af8533          	mul	a0,t6,a0
    a5ea:	0105d413          	srli	s0,a1,0x10
    a5ee:	02d386b3          	mul	a3,t2,a3
    a5f2:	96aa                	add	a3,a3,a0
    a5f4:	96a2                	add	a3,a3,s0
    a5f6:	03f38fb3          	mul	t6,t2,t6
    a5fa:	00a6f363          	bgeu	a3,a0,a600 <__muldf3+0x2ee>
    a5fe:	9fbe                	add	t6,t6,a5
    a600:	6541                	lui	a0,0x10
    a602:	157d                	addi	a0,a0,-1
    a604:	00a6f7b3          	and	a5,a3,a0
    a608:	07c2                	slli	a5,a5,0x10
    a60a:	8d6d                	and	a0,a0,a1
    a60c:	97aa                	add	a5,a5,a0
    a60e:	005885b3          	add	a1,a7,t0
    a612:	0135b9b3          	sltu	s3,a1,s3
    a616:	97fa                	add	a5,a5,t5
    a618:	95b2                	add	a1,a1,a2
    a61a:	01378433          	add	s0,a5,s3
    a61e:	00c5b633          	sltu	a2,a1,a2
    a622:	01c40eb3          	add	t4,s0,t3
    a626:	00ce8533          	add	a0,t4,a2
    a62a:	01343433          	sltu	s0,s0,s3
    a62e:	01e7b7b3          	sltu	a5,a5,t5
    a632:	8fc1                	or	a5,a5,s0
    a634:	01cebe33          	sltu	t3,t4,t3
    a638:	0106d413          	srli	s0,a3,0x10
    a63c:	00c53633          	sltu	a2,a0,a2
    a640:	943e                	add	s0,s0,a5
    a642:	00ce6633          	or	a2,t3,a2
    a646:	00959493          	slli	s1,a1,0x9
    a64a:	9432                	add	s0,s0,a2
    a64c:	947e                	add	s0,s0,t6
    a64e:	0064e4b3          	or	s1,s1,t1
    a652:	0426                	slli	s0,s0,0x9
    a654:	01755693          	srli	a3,a0,0x17
    a658:	009034b3          	snez	s1,s1
    a65c:	81dd                	srli	a1,a1,0x17
    a65e:	00951793          	slli	a5,a0,0x9
    a662:	8ccd                	or	s1,s1,a1
    a664:	8c55                	or	s0,s0,a3
    a666:	8cdd                	or	s1,s1,a5
    a668:	00741793          	slli	a5,s0,0x7
    a66c:	0007db63          	bgez	a5,a682 <__muldf3+0x370>
    a670:	0014d793          	srli	a5,s1,0x1
    a674:	8885                	andi	s1,s1,1
    a676:	01f41693          	slli	a3,s0,0x1f
    a67a:	8cdd                	or	s1,s1,a5
    a67c:	8cd5                	or	s1,s1,a3
    a67e:	8005                	srli	s0,s0,0x1
    a680:	8942                	mv	s2,a6
    a682:	3ff90793          	addi	a5,s2,1023
    a686:	08f05963          	blez	a5,a718 <__muldf3+0x406>
    a68a:	0074f693          	andi	a3,s1,7
    a68e:	ce81                	beqz	a3,a6a6 <__muldf3+0x394>
    a690:	00f4f693          	andi	a3,s1,15
    a694:	4611                	li	a2,4
    a696:	00c68863          	beq	a3,a2,a6a6 <__muldf3+0x394>
    a69a:	00448693          	addi	a3,s1,4
    a69e:	0096b4b3          	sltu	s1,a3,s1
    a6a2:	9426                	add	s0,s0,s1
    a6a4:	84b6                	mv	s1,a3
    a6a6:	00741693          	slli	a3,s0,0x7
    a6aa:	0006d863          	bgez	a3,a6ba <__muldf3+0x3a8>
    a6ae:	ff0007b7          	lui	a5,0xff000
    a6b2:	17fd                	addi	a5,a5,-1
    a6b4:	8c7d                	and	s0,s0,a5
    a6b6:	40090793          	addi	a5,s2,1024
    a6ba:	7fe00693          	li	a3,2046
    a6be:	0ef6cf63          	blt	a3,a5,a7bc <__muldf3+0x4aa>
    a6c2:	0034d693          	srli	a3,s1,0x3
    a6c6:	01d41493          	slli	s1,s0,0x1d
    a6ca:	0426                	slli	s0,s0,0x9
    a6cc:	8cd5                	or	s1,s1,a3
    a6ce:	8031                	srli	s0,s0,0xc
    a6d0:	7ff7f793          	andi	a5,a5,2047
    a6d4:	bb21                	j	a3ec <__muldf3+0xda>
    a6d6:	8532                	mv	a0,a2
    a6d8:	c432                	sw	a2,8(sp)
    a6da:	2df010ef          	jal	ra,c1b8 <__clzsi2>
    a6de:	01550693          	addi	a3,a0,21 # 10015 <_data_lma+0x2079>
    a6e2:	47f1                	li	a5,28
    a6e4:	02050713          	addi	a4,a0,32
    a6e8:	4622                	lw	a2,8(sp)
    a6ea:	dcd7d1e3          	bge	a5,a3,a4ac <__muldf3+0x19a>
    a6ee:	1561                	addi	a0,a0,-8
    a6f0:	00a617b3          	sll	a5,a2,a0
    a6f4:	4581                	li	a1,0
    a6f6:	b3f9                	j	a4c4 <__muldf3+0x1b2>
    a6f8:	2c1010ef          	jal	ra,c1b8 <__clzsi2>
    a6fc:	01550713          	addi	a4,a0,21
    a700:	45f1                	li	a1,28
    a702:	02050793          	addi	a5,a0,32
    a706:	4622                	lw	a2,8(sp)
    a708:	46b2                	lw	a3,12(sp)
    a70a:	d4e5d5e3          	bge	a1,a4,a454 <__muldf3+0x142>
    a70e:	1561                	addi	a0,a0,-8
    a710:	00aa1433          	sll	s0,s4,a0
    a714:	4481                	li	s1,0
    a716:	bb99                	j	a46c <__muldf3+0x15a>
    a718:	4685                	li	a3,1
    a71a:	8e9d                	sub	a3,a3,a5
    a71c:	e7b1                	bnez	a5,a768 <__muldf3+0x456>
    a71e:	41e90913          	addi	s2,s2,1054
    a722:	012497b3          	sll	a5,s1,s2
    a726:	00d4d4b3          	srl	s1,s1,a3
    a72a:	01241933          	sll	s2,s0,s2
    a72e:	00f037b3          	snez	a5,a5
    a732:	009964b3          	or	s1,s2,s1
    a736:	8cdd                	or	s1,s1,a5
    a738:	0074f793          	andi	a5,s1,7
    a73c:	00d456b3          	srl	a3,s0,a3
    a740:	cf81                	beqz	a5,a758 <__muldf3+0x446>
    a742:	00f4f793          	andi	a5,s1,15
    a746:	4611                	li	a2,4
    a748:	00c78863          	beq	a5,a2,a758 <__muldf3+0x446>
    a74c:	00448793          	addi	a5,s1,4
    a750:	0097b4b3          	sltu	s1,a5,s1
    a754:	96a6                	add	a3,a3,s1
    a756:	84be                	mv	s1,a5
    a758:	00869793          	slli	a5,a3,0x8
    a75c:	0407d863          	bgez	a5,a7ac <__muldf3+0x49a>
    a760:	4785                	li	a5,1
    a762:	4401                	li	s0,0
    a764:	4481                	li	s1,0
    a766:	b159                	j	a3ec <__muldf3+0xda>
    a768:	03800613          	li	a2,56
    a76c:	ccd641e3          	blt	a2,a3,a42e <__muldf3+0x11c>
    a770:	467d                	li	a2,31
    a772:	fad656e3          	bge	a2,a3,a71e <__muldf3+0x40c>
    a776:	5605                	li	a2,-31
    a778:	40f607b3          	sub	a5,a2,a5
    a77c:	02000593          	li	a1,32
    a780:	00f45633          	srl	a2,s0,a5
    a784:	00b68763          	beq	a3,a1,a792 <__muldf3+0x480>
    a788:	43e90913          	addi	s2,s2,1086
    a78c:	012417b3          	sll	a5,s0,s2
    a790:	8cdd                	or	s1,s1,a5
    a792:	009034b3          	snez	s1,s1
    a796:	8cd1                	or	s1,s1,a2
    a798:	0074f693          	andi	a3,s1,7
    a79c:	4401                	li	s0,0
    a79e:	ca99                	beqz	a3,a7b4 <__muldf3+0x4a2>
    a7a0:	00f4f793          	andi	a5,s1,15
    a7a4:	4611                	li	a2,4
    a7a6:	4681                	li	a3,0
    a7a8:	fac792e3          	bne	a5,a2,a74c <__muldf3+0x43a>
    a7ac:	00969413          	slli	s0,a3,0x9
    a7b0:	8031                	srli	s0,s0,0xc
    a7b2:	06f6                	slli	a3,a3,0x1d
    a7b4:	808d                	srli	s1,s1,0x3
    a7b6:	8cd5                	or	s1,s1,a3
    a7b8:	4781                	li	a5,0
    a7ba:	b90d                	j	a3ec <__muldf3+0xda>
    a7bc:	7ff00793          	li	a5,2047
    a7c0:	4401                	li	s0,0
    a7c2:	4481                	li	s1,0
    a7c4:	b125                	j	a3ec <__muldf3+0xda>
    a7c6:	8942                	mv	s2,a6
    a7c8:	bd6d                	j	a682 <__muldf3+0x370>

0000a7ca <__subdf3>:
    a7ca:	00100737          	lui	a4,0x100
    a7ce:	177d                	addi	a4,a4,-1
    a7d0:	1101                	addi	sp,sp,-32
    a7d2:	00b77333          	and	t1,a4,a1
    a7d6:	0146d893          	srli	a7,a3,0x14
    a7da:	8f75                	and	a4,a4,a3
    a7dc:	01d65e93          	srli	t4,a2,0x1d
    a7e0:	cc22                	sw	s0,24(sp)
    a7e2:	ca26                	sw	s1,20(sp)
    a7e4:	030e                	slli	t1,t1,0x3
    a7e6:	0145d493          	srli	s1,a1,0x14
    a7ea:	01d55793          	srli	a5,a0,0x1d
    a7ee:	070e                	slli	a4,a4,0x3
    a7f0:	ce06                	sw	ra,28(sp)
    a7f2:	c84a                	sw	s2,16(sp)
    a7f4:	c64e                	sw	s3,12(sp)
    a7f6:	7ff8f893          	andi	a7,a7,2047
    a7fa:	7ff00e13          	li	t3,2047
    a7fe:	00eee733          	or	a4,t4,a4
    a802:	7ff4f493          	andi	s1,s1,2047
    a806:	01f5d413          	srli	s0,a1,0x1f
    a80a:	0067e333          	or	t1,a5,t1
    a80e:	00351f13          	slli	t5,a0,0x3
    a812:	82fd                	srli	a3,a3,0x1f
    a814:	00361e93          	slli	t4,a2,0x3
    a818:	19c88063          	beq	a7,t3,a998 <__subdf3+0x1ce>
    a81c:	0016c693          	xori	a3,a3,1
    a820:	411485b3          	sub	a1,s1,a7
    a824:	12d40563          	beq	s0,a3,a94e <__subdf3+0x184>
    a828:	18b05163          	blez	a1,a9aa <__subdf3+0x1e0>
    a82c:	1a088b63          	beqz	a7,a9e2 <__subdf3+0x218>
    a830:	008007b7          	lui	a5,0x800
    a834:	8f5d                	or	a4,a4,a5
    a836:	59c48163          	beq	s1,t3,adb8 <__subdf3+0x5ee>
    a83a:	03800793          	li	a5,56
    a83e:	34b7c463          	blt	a5,a1,ab86 <__subdf3+0x3bc>
    a842:	47fd                	li	a5,31
    a844:	48b7c563          	blt	a5,a1,acce <__subdf3+0x504>
    a848:	02000793          	li	a5,32
    a84c:	8f8d                	sub	a5,a5,a1
    a84e:	00bed9b3          	srl	s3,t4,a1
    a852:	00f71833          	sll	a6,a4,a5
    a856:	00fe9eb3          	sll	t4,t4,a5
    a85a:	01386833          	or	a6,a6,s3
    a85e:	00b75733          	srl	a4,a4,a1
    a862:	01d039b3          	snez	s3,t4
    a866:	01386833          	or	a6,a6,s3
    a86a:	40e30333          	sub	t1,t1,a4
    a86e:	410f09b3          	sub	s3,t5,a6
    a872:	013f37b3          	sltu	a5,t5,s3
    a876:	40f30633          	sub	a2,t1,a5
    a87a:	00861793          	slli	a5,a2,0x8
    a87e:	2407d363          	bgez	a5,aac4 <__subdf3+0x2fa>
    a882:	00800937          	lui	s2,0x800
    a886:	197d                	addi	s2,s2,-1
    a888:	01267933          	and	s2,a2,s2
    a88c:	2c090f63          	beqz	s2,ab6a <__subdf3+0x3a0>
    a890:	854a                	mv	a0,s2
    a892:	127010ef          	jal	ra,c1b8 <__clzsi2>
    a896:	ff850713          	addi	a4,a0,-8
    a89a:	02000793          	li	a5,32
    a89e:	8f99                	sub	a5,a5,a4
    a8a0:	00f9d7b3          	srl	a5,s3,a5
    a8a4:	00e91633          	sll	a2,s2,a4
    a8a8:	8fd1                	or	a5,a5,a2
    a8aa:	00e999b3          	sll	s3,s3,a4
    a8ae:	2a974463          	blt	a4,s1,ab56 <__subdf3+0x38c>
    a8b2:	8f05                	sub	a4,a4,s1
    a8b4:	00170613          	addi	a2,a4,1 # 100001 <_data_lma+0xf2065>
    a8b8:	46fd                	li	a3,31
    a8ba:	3ac6c563          	blt	a3,a2,ac64 <__subdf3+0x49a>
    a8be:	02000713          	li	a4,32
    a8c2:	8f11                	sub	a4,a4,a2
    a8c4:	00c9d6b3          	srl	a3,s3,a2
    a8c8:	00e99833          	sll	a6,s3,a4
    a8cc:	00e79733          	sll	a4,a5,a4
    a8d0:	8f55                	or	a4,a4,a3
    a8d2:	01003833          	snez	a6,a6
    a8d6:	010769b3          	or	s3,a4,a6
    a8da:	00c7d633          	srl	a2,a5,a2
    a8de:	4481                	li	s1,0
    a8e0:	0079f793          	andi	a5,s3,7
    a8e4:	cf81                	beqz	a5,a8fc <__subdf3+0x132>
    a8e6:	00f9f693          	andi	a3,s3,15
    a8ea:	4791                	li	a5,4
    a8ec:	00f68863          	beq	a3,a5,a8fc <__subdf3+0x132>
    a8f0:	00498693          	addi	a3,s3,4
    a8f4:	0136b833          	sltu	a6,a3,s3
    a8f8:	9642                	add	a2,a2,a6
    a8fa:	89b6                	mv	s3,a3
    a8fc:	00861793          	slli	a5,a2,0x8
    a900:	1c07d663          	bgez	a5,aacc <__subdf3+0x302>
    a904:	00148713          	addi	a4,s1,1
    a908:	7ff00793          	li	a5,2047
    a90c:	8805                	andi	s0,s0,1
    a90e:	20f70663          	beq	a4,a5,ab1a <__subdf3+0x350>
    a912:	ff8007b7          	lui	a5,0xff800
    a916:	17fd                	addi	a5,a5,-1
    a918:	8ff1                	and	a5,a5,a2
    a91a:	01d79813          	slli	a6,a5,0x1d
    a91e:	0039d993          	srli	s3,s3,0x3
    a922:	07a6                	slli	a5,a5,0x9
    a924:	01386833          	or	a6,a6,s3
    a928:	83b1                	srli	a5,a5,0xc
    a92a:	7ff77713          	andi	a4,a4,2047
    a92e:	00c79693          	slli	a3,a5,0xc
    a932:	0752                	slli	a4,a4,0x14
    a934:	82b1                	srli	a3,a3,0xc
    a936:	047e                	slli	s0,s0,0x1f
    a938:	8ed9                	or	a3,a3,a4
    a93a:	8ec1                	or	a3,a3,s0
    a93c:	40f2                	lw	ra,28(sp)
    a93e:	4462                	lw	s0,24(sp)
    a940:	44d2                	lw	s1,20(sp)
    a942:	4942                	lw	s2,16(sp)
    a944:	49b2                	lw	s3,12(sp)
    a946:	8542                	mv	a0,a6
    a948:	85b6                	mv	a1,a3
    a94a:	6105                	addi	sp,sp,32
    a94c:	8082                	ret
    a94e:	0ab05663          	blez	a1,a9fa <__subdf3+0x230>
    a952:	12088a63          	beqz	a7,aa86 <__subdf3+0x2bc>
    a956:	008007b7          	lui	a5,0x800
    a95a:	8f5d                	or	a4,a4,a5
    a95c:	2dc48763          	beq	s1,t3,ac2a <__subdf3+0x460>
    a960:	03800793          	li	a5,56
    a964:	18b7c763          	blt	a5,a1,aaf2 <__subdf3+0x328>
    a968:	47fd                	li	a5,31
    a96a:	3cb7d263          	bge	a5,a1,ad2e <__subdf3+0x564>
    a96e:	fe058813          	addi	a6,a1,-32 # ffe0 <_data_lma+0x2044>
    a972:	02000793          	li	a5,32
    a976:	010759b3          	srl	s3,a4,a6
    a97a:	00f58a63          	beq	a1,a5,a98e <__subdf3+0x1c4>
    a97e:	04000793          	li	a5,64
    a982:	40b785b3          	sub	a1,a5,a1
    a986:	00b71733          	sll	a4,a4,a1
    a98a:	00eeeeb3          	or	t4,t4,a4
    a98e:	01d03833          	snez	a6,t4
    a992:	01386833          	or	a6,a6,s3
    a996:	a295                	j	aafa <__subdf3+0x330>
    a998:	01d767b3          	or	a5,a4,t4
    a99c:	80148593          	addi	a1,s1,-2047
    a9a0:	e399                	bnez	a5,a9a6 <__subdf3+0x1dc>
    a9a2:	0016c693          	xori	a3,a3,1
    a9a6:	04d40a63          	beq	s0,a3,a9fa <__subdf3+0x230>
    a9aa:	e1d1                	bnez	a1,aa2e <__subdf3+0x264>
    a9ac:	00148793          	addi	a5,s1,1
    a9b0:	7fe7f793          	andi	a5,a5,2046
    a9b4:	1e079963          	bnez	a5,aba6 <__subdf3+0x3dc>
    a9b8:	01e367b3          	or	a5,t1,t5
    a9bc:	01d76833          	or	a6,a4,t4
    a9c0:	16049263          	bnez	s1,ab24 <__subdf3+0x35a>
    a9c4:	3c078263          	beqz	a5,ad88 <__subdf3+0x5be>
    a9c8:	42081663          	bnez	a6,adf4 <__subdf3+0x62a>
    a9cc:	00351813          	slli	a6,a0,0x3
    a9d0:	01d31693          	slli	a3,t1,0x1d
    a9d4:	00385813          	srli	a6,a6,0x3
    a9d8:	0106e833          	or	a6,a3,a6
    a9dc:	00335793          	srli	a5,t1,0x3
    a9e0:	a219                	j	aae6 <__subdf3+0x31c>
    a9e2:	01d767b3          	or	a5,a4,t4
    a9e6:	1a078563          	beqz	a5,ab90 <__subdf3+0x3c6>
    a9ea:	fff58793          	addi	a5,a1,-1
    a9ee:	3a078b63          	beqz	a5,ada4 <__subdf3+0x5da>
    a9f2:	23c58c63          	beq	a1,t3,ac2a <__subdf3+0x460>
    a9f6:	85be                	mv	a1,a5
    a9f8:	b589                	j	a83a <__subdf3+0x70>
    a9fa:	1c059963          	bnez	a1,abcc <__subdf3+0x402>
    a9fe:	00148693          	addi	a3,s1,1
    aa02:	7fe6f793          	andi	a5,a3,2046
    aa06:	efc1                	bnez	a5,aa9e <__subdf3+0x2d4>
    aa08:	01e367b3          	or	a5,t1,t5
    aa0c:	36049063          	bnez	s1,ad6c <__subdf3+0x5a2>
    aa10:	44078d63          	beqz	a5,ae6a <__subdf3+0x6a0>
    aa14:	01d767b3          	or	a5,a4,t4
    aa18:	46079463          	bnez	a5,ae80 <__subdf3+0x6b6>
    aa1c:	050e                	slli	a0,a0,0x3
    aa1e:	01d31813          	slli	a6,t1,0x1d
    aa22:	810d                	srli	a0,a0,0x3
    aa24:	00a86833          	or	a6,a6,a0
    aa28:	00335793          	srli	a5,t1,0x3
    aa2c:	a86d                	j	aae6 <__subdf3+0x31c>
    aa2e:	409885b3          	sub	a1,a7,s1
    aa32:	20049763          	bnez	s1,ac40 <__subdf3+0x476>
    aa36:	01e367b3          	or	a5,t1,t5
    aa3a:	30078d63          	beqz	a5,ad54 <__subdf3+0x58a>
    aa3e:	fff58793          	addi	a5,a1,-1
    aa42:	40078963          	beqz	a5,ae54 <__subdf3+0x68a>
    aa46:	7ff00513          	li	a0,2047
    aa4a:	20a58363          	beq	a1,a0,ac50 <__subdf3+0x486>
    aa4e:	85be                	mv	a1,a5
    aa50:	03800793          	li	a5,56
    aa54:	2ab7c263          	blt	a5,a1,acf8 <__subdf3+0x52e>
    aa58:	47fd                	li	a5,31
    aa5a:	3cb7c863          	blt	a5,a1,ae2a <__subdf3+0x660>
    aa5e:	02000793          	li	a5,32
    aa62:	8f8d                	sub	a5,a5,a1
    aa64:	00f31833          	sll	a6,t1,a5
    aa68:	00bf5633          	srl	a2,t5,a1
    aa6c:	00ff17b3          	sll	a5,t5,a5
    aa70:	00c86833          	or	a6,a6,a2
    aa74:	00f039b3          	snez	s3,a5
    aa78:	00b35333          	srl	t1,t1,a1
    aa7c:	01386833          	or	a6,a6,s3
    aa80:	40670733          	sub	a4,a4,t1
    aa84:	acb5                	j	ad00 <__subdf3+0x536>
    aa86:	01d767b3          	or	a5,a4,t4
    aa8a:	10078363          	beqz	a5,ab90 <__subdf3+0x3c6>
    aa8e:	fff58793          	addi	a5,a1,-1
    aa92:	1e078f63          	beqz	a5,ac90 <__subdf3+0x4c6>
    aa96:	2fc58063          	beq	a1,t3,ad76 <__subdf3+0x5ac>
    aa9a:	85be                	mv	a1,a5
    aa9c:	b5d1                	j	a960 <__subdf3+0x196>
    aa9e:	7ff00793          	li	a5,2047
    aaa2:	06f68b63          	beq	a3,a5,ab18 <__subdf3+0x34e>
    aaa6:	9efa                	add	t4,t4,t5
    aaa8:	01eeb633          	sltu	a2,t4,t5
    aaac:	00e307b3          	add	a5,t1,a4
    aab0:	97b2                	add	a5,a5,a2
    aab2:	01f79813          	slli	a6,a5,0x1f
    aab6:	001ede93          	srli	t4,t4,0x1
    aaba:	01d869b3          	or	s3,a6,t4
    aabe:	0017d613          	srli	a2,a5,0x1
    aac2:	84b6                	mv	s1,a3
    aac4:	0079f793          	andi	a5,s3,7
    aac8:	e0079fe3          	bnez	a5,a8e6 <__subdf3+0x11c>
    aacc:	01d61793          	slli	a5,a2,0x1d
    aad0:	0039d813          	srli	a6,s3,0x3
    aad4:	00f86833          	or	a6,a6,a5
    aad8:	85a6                	mv	a1,s1
    aada:	00365793          	srli	a5,a2,0x3
    aade:	7ff00713          	li	a4,2047
    aae2:	06e58063          	beq	a1,a4,ab42 <__subdf3+0x378>
    aae6:	07b2                	slli	a5,a5,0xc
    aae8:	83b1                	srli	a5,a5,0xc
    aaea:	7ff5f713          	andi	a4,a1,2047
    aaee:	8805                	andi	s0,s0,1
    aaf0:	bd3d                	j	a92e <__subdf3+0x164>
    aaf2:	01d76733          	or	a4,a4,t4
    aaf6:	00e03833          	snez	a6,a4
    aafa:	01e809b3          	add	s3,a6,t5
    aafe:	01e9b7b3          	sltu	a5,s3,t5
    ab02:	00678633          	add	a2,a5,t1
    ab06:	00861793          	slli	a5,a2,0x8
    ab0a:	fa07dde3          	bgez	a5,aac4 <__subdf3+0x2fa>
    ab0e:	0485                	addi	s1,s1,1
    ab10:	7ff00793          	li	a5,2047
    ab14:	18f49c63          	bne	s1,a5,acac <__subdf3+0x4e2>
    ab18:	8805                	andi	s0,s0,1
    ab1a:	7ff00713          	li	a4,2047
    ab1e:	4781                	li	a5,0
    ab20:	4801                	li	a6,0
    ab22:	b531                	j	a92e <__subdf3+0x164>
    ab24:	10079163          	bnez	a5,ac26 <__subdf3+0x45c>
    ab28:	3c080163          	beqz	a6,aeea <__subdf3+0x720>
    ab2c:	00361813          	slli	a6,a2,0x3
    ab30:	01d71793          	slli	a5,a4,0x1d
    ab34:	00385813          	srli	a6,a6,0x3
    ab38:	00f86833          	or	a6,a6,a5
    ab3c:	8436                	mv	s0,a3
    ab3e:	00375793          	srli	a5,a4,0x3
    ab42:	00f867b3          	or	a5,a6,a5
    ab46:	dbe9                	beqz	a5,ab18 <__subdf3+0x34e>
    ab48:	4401                	li	s0,0
    ab4a:	7ff00713          	li	a4,2047
    ab4e:	000807b7          	lui	a5,0x80
    ab52:	4801                	li	a6,0
    ab54:	bbe9                	j	a92e <__subdf3+0x164>
    ab56:	ff800637          	lui	a2,0xff800
    ab5a:	167d                	addi	a2,a2,-1
    ab5c:	8e7d                	and	a2,a2,a5
    ab5e:	0079f793          	andi	a5,s3,7
    ab62:	8c99                	sub	s1,s1,a4
    ab64:	d80791e3          	bnez	a5,a8e6 <__subdf3+0x11c>
    ab68:	b795                	j	aacc <__subdf3+0x302>
    ab6a:	854e                	mv	a0,s3
    ab6c:	64c010ef          	jal	ra,c1b8 <__clzsi2>
    ab70:	01850713          	addi	a4,a0,24
    ab74:	47fd                	li	a5,31
    ab76:	d2e7d2e3          	bge	a5,a4,a89a <__subdf3+0xd0>
    ab7a:	ff850613          	addi	a2,a0,-8
    ab7e:	00c997b3          	sll	a5,s3,a2
    ab82:	4981                	li	s3,0
    ab84:	b32d                	j	a8ae <__subdf3+0xe4>
    ab86:	01d76833          	or	a6,a4,t4
    ab8a:	01003833          	snez	a6,a6
    ab8e:	b1c5                	j	a86e <__subdf3+0xa4>
    ab90:	00351813          	slli	a6,a0,0x3
    ab94:	01d31793          	slli	a5,t1,0x1d
    ab98:	00385813          	srli	a6,a6,0x3
    ab9c:	00f86833          	or	a6,a6,a5
    aba0:	00335793          	srli	a5,t1,0x3
    aba4:	bf2d                	j	aade <__subdf3+0x314>
    aba6:	41df09b3          	sub	s3,t5,t4
    abaa:	40e30933          	sub	s2,t1,a4
    abae:	013f3633          	sltu	a2,t5,s3
    abb2:	40c90933          	sub	s2,s2,a2
    abb6:	00891793          	slli	a5,s2,0x8
    abba:	2007ca63          	bltz	a5,adce <__subdf3+0x604>
    abbe:	0129e833          	or	a6,s3,s2
    abc2:	cc0815e3          	bnez	a6,a88c <__subdf3+0xc2>
    abc6:	4781                	li	a5,0
    abc8:	4401                	li	s0,0
    abca:	bf31                	j	aae6 <__subdf3+0x31c>
    abcc:	409885b3          	sub	a1,a7,s1
    abd0:	14048163          	beqz	s1,ad12 <__subdf3+0x548>
    abd4:	008006b7          	lui	a3,0x800
    abd8:	7ff00793          	li	a5,2047
    abdc:	00d36333          	or	t1,t1,a3
    abe0:	20f88163          	beq	a7,a5,ade2 <__subdf3+0x618>
    abe4:	03800793          	li	a5,56
    abe8:	22b7cc63          	blt	a5,a1,ae20 <__subdf3+0x656>
    abec:	47fd                	li	a5,31
    abee:	2cb7c963          	blt	a5,a1,aec0 <__subdf3+0x6f6>
    abf2:	02000793          	li	a5,32
    abf6:	8f8d                	sub	a5,a5,a1
    abf8:	00f31833          	sll	a6,t1,a5
    abfc:	00bf56b3          	srl	a3,t5,a1
    ac00:	00ff17b3          	sll	a5,t5,a5
    ac04:	00d86833          	or	a6,a6,a3
    ac08:	00f039b3          	snez	s3,a5
    ac0c:	00b35333          	srl	t1,t1,a1
    ac10:	01386833          	or	a6,a6,s3
    ac14:	971a                	add	a4,a4,t1
    ac16:	01d809b3          	add	s3,a6,t4
    ac1a:	01d9b7b3          	sltu	a5,s3,t4
    ac1e:	00e78633          	add	a2,a5,a4
    ac22:	84c6                	mv	s1,a7
    ac24:	b5cd                	j	ab06 <__subdf3+0x33c>
    ac26:	f20811e3          	bnez	a6,ab48 <__subdf3+0x37e>
    ac2a:	00351813          	slli	a6,a0,0x3
    ac2e:	01d31793          	slli	a5,t1,0x1d
    ac32:	00385813          	srli	a6,a6,0x3
    ac36:	00f86833          	or	a6,a6,a5
    ac3a:	00335793          	srli	a5,t1,0x3
    ac3e:	b711                	j	ab42 <__subdf3+0x378>
    ac40:	00800537          	lui	a0,0x800
    ac44:	7ff00793          	li	a5,2047
    ac48:	00a36333          	or	t1,t1,a0
    ac4c:	e0f892e3          	bne	a7,a5,aa50 <__subdf3+0x286>
    ac50:	060e                	slli	a2,a2,0x3
    ac52:	01d71813          	slli	a6,a4,0x1d
    ac56:	820d                	srli	a2,a2,0x3
    ac58:	00c86833          	or	a6,a6,a2
    ac5c:	00375793          	srli	a5,a4,0x3
    ac60:	8436                	mv	s0,a3
    ac62:	b5c5                	j	ab42 <__subdf3+0x378>
    ac64:	1705                	addi	a4,a4,-31
    ac66:	02000693          	li	a3,32
    ac6a:	00e7d733          	srl	a4,a5,a4
    ac6e:	00d60a63          	beq	a2,a3,ac82 <__subdf3+0x4b8>
    ac72:	04000693          	li	a3,64
    ac76:	40c68633          	sub	a2,a3,a2
    ac7a:	00c79633          	sll	a2,a5,a2
    ac7e:	00c9e9b3          	or	s3,s3,a2
    ac82:	01303833          	snez	a6,s3
    ac86:	00e869b3          	or	s3,a6,a4
    ac8a:	4601                	li	a2,0
    ac8c:	4481                	li	s1,0
    ac8e:	bd1d                	j	aac4 <__subdf3+0x2fa>
    ac90:	01df09b3          	add	s3,t5,t4
    ac94:	00e307b3          	add	a5,t1,a4
    ac98:	01e9bf33          	sltu	t5,s3,t5
    ac9c:	01e78633          	add	a2,a5,t5
    aca0:	00861793          	slli	a5,a2,0x8
    aca4:	4485                	li	s1,1
    aca6:	e007dfe3          	bgez	a5,aac4 <__subdf3+0x2fa>
    acaa:	4489                	li	s1,2
    acac:	ff8007b7          	lui	a5,0xff800
    acb0:	17fd                	addi	a5,a5,-1
    acb2:	8ff1                	and	a5,a5,a2
    acb4:	0019d713          	srli	a4,s3,0x1
    acb8:	0019f813          	andi	a6,s3,1
    acbc:	01076833          	or	a6,a4,a6
    acc0:	01f79993          	slli	s3,a5,0x1f
    acc4:	0109e9b3          	or	s3,s3,a6
    acc8:	0017d613          	srli	a2,a5,0x1
    accc:	b911                	j	a8e0 <__subdf3+0x116>
    acce:	fe058813          	addi	a6,a1,-32
    acd2:	02000793          	li	a5,32
    acd6:	010759b3          	srl	s3,a4,a6
    acda:	00f58a63          	beq	a1,a5,acee <__subdf3+0x524>
    acde:	04000793          	li	a5,64
    ace2:	40b785b3          	sub	a1,a5,a1
    ace6:	00b71733          	sll	a4,a4,a1
    acea:	00eeeeb3          	or	t4,t4,a4
    acee:	01d03833          	snez	a6,t4
    acf2:	01386833          	or	a6,a6,s3
    acf6:	bea5                	j	a86e <__subdf3+0xa4>
    acf8:	01e36333          	or	t1,t1,t5
    acfc:	00603833          	snez	a6,t1
    ad00:	410e89b3          	sub	s3,t4,a6
    ad04:	013eb7b3          	sltu	a5,t4,s3
    ad08:	40f70633          	sub	a2,a4,a5
    ad0c:	84c6                	mv	s1,a7
    ad0e:	8436                	mv	s0,a3
    ad10:	b6ad                	j	a87a <__subdf3+0xb0>
    ad12:	01e367b3          	or	a5,t1,t5
    ad16:	18078763          	beqz	a5,aea4 <__subdf3+0x6da>
    ad1a:	fff58793          	addi	a5,a1,-1
    ad1e:	1c078c63          	beqz	a5,aef6 <__subdf3+0x72c>
    ad22:	7ff00693          	li	a3,2047
    ad26:	0ad58e63          	beq	a1,a3,ade2 <__subdf3+0x618>
    ad2a:	85be                	mv	a1,a5
    ad2c:	bd65                	j	abe4 <__subdf3+0x41a>
    ad2e:	02000793          	li	a5,32
    ad32:	8f8d                	sub	a5,a5,a1
    ad34:	00bed9b3          	srl	s3,t4,a1
    ad38:	00f71833          	sll	a6,a4,a5
    ad3c:	00fe9eb3          	sll	t4,t4,a5
    ad40:	01386833          	or	a6,a6,s3
    ad44:	00b75733          	srl	a4,a4,a1
    ad48:	01d039b3          	snez	s3,t4
    ad4c:	01386833          	or	a6,a6,s3
    ad50:	933a                	add	t1,t1,a4
    ad52:	b365                	j	aafa <__subdf3+0x330>
    ad54:	00361813          	slli	a6,a2,0x3
    ad58:	01d71793          	slli	a5,a4,0x1d
    ad5c:	00385813          	srli	a6,a6,0x3
    ad60:	0107e833          	or	a6,a5,a6
    ad64:	8436                	mv	s0,a3
    ad66:	00375793          	srli	a5,a4,0x3
    ad6a:	bb95                	j	aade <__subdf3+0x314>
    ad6c:	cbbd                	beqz	a5,ade2 <__subdf3+0x618>
    ad6e:	01d76733          	or	a4,a4,t4
    ad72:	dc071be3          	bnez	a4,ab48 <__subdf3+0x37e>
    ad76:	050e                	slli	a0,a0,0x3
    ad78:	01d31813          	slli	a6,t1,0x1d
    ad7c:	810d                	srli	a0,a0,0x3
    ad7e:	00a86833          	or	a6,a6,a0
    ad82:	00335793          	srli	a5,t1,0x3
    ad86:	bb75                	j	ab42 <__subdf3+0x378>
    ad88:	e2080fe3          	beqz	a6,abc6 <__subdf3+0x3fc>
    ad8c:	00361813          	slli	a6,a2,0x3
    ad90:	01d71793          	slli	a5,a4,0x1d
    ad94:	00385813          	srli	a6,a6,0x3
    ad98:	00f86833          	or	a6,a6,a5
    ad9c:	8436                	mv	s0,a3
    ad9e:	00375793          	srli	a5,a4,0x3
    ada2:	b391                	j	aae6 <__subdf3+0x31c>
    ada4:	41df09b3          	sub	s3,t5,t4
    ada8:	40e307b3          	sub	a5,t1,a4
    adac:	013f3f33          	sltu	t5,t5,s3
    adb0:	41e78633          	sub	a2,a5,t5
    adb4:	4485                	li	s1,1
    adb6:	b4d1                	j	a87a <__subdf3+0xb0>
    adb8:	00351813          	slli	a6,a0,0x3
    adbc:	01d31693          	slli	a3,t1,0x1d
    adc0:	00385813          	srli	a6,a6,0x3
    adc4:	0106e833          	or	a6,a3,a6
    adc8:	00335793          	srli	a5,t1,0x3
    adcc:	bb9d                	j	ab42 <__subdf3+0x378>
    adce:	41ee89b3          	sub	s3,t4,t5
    add2:	40670633          	sub	a2,a4,t1
    add6:	013eb933          	sltu	s2,t4,s3
    adda:	41260933          	sub	s2,a2,s2
    adde:	8436                	mv	s0,a3
    ade0:	b475                	j	a88c <__subdf3+0xc2>
    ade2:	060e                	slli	a2,a2,0x3
    ade4:	01d71813          	slli	a6,a4,0x1d
    ade8:	820d                	srli	a2,a2,0x3
    adea:	00c86833          	or	a6,a6,a2
    adee:	00375793          	srli	a5,a4,0x3
    adf2:	bb81                	j	ab42 <__subdf3+0x378>
    adf4:	41df09b3          	sub	s3,t5,t4
    adf8:	40e307b3          	sub	a5,t1,a4
    adfc:	013f3633          	sltu	a2,t5,s3
    ae00:	40c78633          	sub	a2,a5,a2
    ae04:	00861793          	slli	a5,a2,0x8
    ae08:	0a07d763          	bgez	a5,aeb6 <__subdf3+0x6ec>
    ae0c:	41ee89b3          	sub	s3,t4,t5
    ae10:	406707b3          	sub	a5,a4,t1
    ae14:	013ebeb3          	sltu	t4,t4,s3
    ae18:	41d78633          	sub	a2,a5,t4
    ae1c:	8436                	mv	s0,a3
    ae1e:	b4c9                	j	a8e0 <__subdf3+0x116>
    ae20:	01e36333          	or	t1,t1,t5
    ae24:	00603833          	snez	a6,t1
    ae28:	b3fd                	j	ac16 <__subdf3+0x44c>
    ae2a:	fe058813          	addi	a6,a1,-32
    ae2e:	02000793          	li	a5,32
    ae32:	010359b3          	srl	s3,t1,a6
    ae36:	00f58a63          	beq	a1,a5,ae4a <__subdf3+0x680>
    ae3a:	04000793          	li	a5,64
    ae3e:	40b785b3          	sub	a1,a5,a1
    ae42:	00b31333          	sll	t1,t1,a1
    ae46:	006f6f33          	or	t5,t5,t1
    ae4a:	01e03833          	snez	a6,t5
    ae4e:	01386833          	or	a6,a6,s3
    ae52:	b57d                	j	ad00 <__subdf3+0x536>
    ae54:	41ee89b3          	sub	s3,t4,t5
    ae58:	406707b3          	sub	a5,a4,t1
    ae5c:	013ebeb3          	sltu	t4,t4,s3
    ae60:	41d78633          	sub	a2,a5,t4
    ae64:	8436                	mv	s0,a3
    ae66:	4485                	li	s1,1
    ae68:	bc09                	j	a87a <__subdf3+0xb0>
    ae6a:	00361813          	slli	a6,a2,0x3
    ae6e:	01d71793          	slli	a5,a4,0x1d
    ae72:	00385813          	srli	a6,a6,0x3
    ae76:	00f86833          	or	a6,a6,a5
    ae7a:	00375793          	srli	a5,a4,0x3
    ae7e:	b1a5                	j	aae6 <__subdf3+0x31c>
    ae80:	01df09b3          	add	s3,t5,t4
    ae84:	00e307b3          	add	a5,t1,a4
    ae88:	01e9bf33          	sltu	t5,s3,t5
    ae8c:	01e78633          	add	a2,a5,t5
    ae90:	00861793          	slli	a5,a2,0x8
    ae94:	c207d8e3          	bgez	a5,aac4 <__subdf3+0x2fa>
    ae98:	ff8007b7          	lui	a5,0xff800
    ae9c:	17fd                	addi	a5,a5,-1
    ae9e:	8e7d                	and	a2,a2,a5
    aea0:	4485                	li	s1,1
    aea2:	b10d                	j	aac4 <__subdf3+0x2fa>
    aea4:	060e                	slli	a2,a2,0x3
    aea6:	01d71813          	slli	a6,a4,0x1d
    aeaa:	820d                	srli	a2,a2,0x3
    aeac:	00c86833          	or	a6,a6,a2
    aeb0:	00375793          	srli	a5,a4,0x3
    aeb4:	b12d                	j	aade <__subdf3+0x314>
    aeb6:	00c9e833          	or	a6,s3,a2
    aeba:	d00806e3          	beqz	a6,abc6 <__subdf3+0x3fc>
    aebe:	b119                	j	aac4 <__subdf3+0x2fa>
    aec0:	fe058813          	addi	a6,a1,-32
    aec4:	02000793          	li	a5,32
    aec8:	010359b3          	srl	s3,t1,a6
    aecc:	00f58a63          	beq	a1,a5,aee0 <__subdf3+0x716>
    aed0:	04000793          	li	a5,64
    aed4:	40b785b3          	sub	a1,a5,a1
    aed8:	00b31333          	sll	t1,t1,a1
    aedc:	006f6f33          	or	t5,t5,t1
    aee0:	01e03833          	snez	a6,t5
    aee4:	01386833          	or	a6,a6,s3
    aee8:	b33d                	j	ac16 <__subdf3+0x44c>
    aeea:	4401                	li	s0,0
    aeec:	7ff00713          	li	a4,2047
    aef0:	000807b7          	lui	a5,0x80
    aef4:	bc2d                	j	a92e <__subdf3+0x164>
    aef6:	01df09b3          	add	s3,t5,t4
    aefa:	00e307b3          	add	a5,t1,a4
    aefe:	01d9beb3          	sltu	t4,s3,t4
    af02:	01d78633          	add	a2,a5,t4
    af06:	bb69                	j	aca0 <__subdf3+0x4d6>

0000af08 <__unorddf2>:
    af08:	0145d713          	srli	a4,a1,0x14
    af0c:	001007b7          	lui	a5,0x100
    af10:	17fd                	addi	a5,a5,-1
    af12:	fff74713          	not	a4,a4
    af16:	0146d813          	srli	a6,a3,0x14
    af1a:	8dfd                	and	a1,a1,a5
    af1c:	8ff5                	and	a5,a5,a3
    af1e:	01571693          	slli	a3,a4,0x15
    af22:	7ff87813          	andi	a6,a6,2047
    af26:	ca99                	beqz	a3,af3c <__unorddf2+0x34>
    af28:	7ff00713          	li	a4,2047
    af2c:	4501                	li	a0,0
    af2e:	00e80363          	beq	a6,a4,af34 <__unorddf2+0x2c>
    af32:	8082                	ret
    af34:	8fd1                	or	a5,a5,a2
    af36:	00f03533          	snez	a0,a5
    af3a:	8082                	ret
    af3c:	8dc9                	or	a1,a1,a0
    af3e:	4505                	li	a0,1
    af40:	d5e5                	beqz	a1,af28 <__unorddf2+0x20>
    af42:	8082                	ret

0000af44 <__fixdfsi>:
    af44:	0145d793          	srli	a5,a1,0x14
    af48:	001006b7          	lui	a3,0x100
    af4c:	fff68713          	addi	a4,a3,-1 # fffff <_data_lma+0xf2063>
    af50:	7ff7f793          	andi	a5,a5,2047
    af54:	3fe00613          	li	a2,1022
    af58:	8f6d                	and	a4,a4,a1
    af5a:	81fd                	srli	a1,a1,0x1f
    af5c:	00f65c63          	bge	a2,a5,af74 <__fixdfsi+0x30>
    af60:	41d00613          	li	a2,1053
    af64:	00f65a63          	bge	a2,a5,af78 <__fixdfsi+0x34>
    af68:	80000537          	lui	a0,0x80000
    af6c:	fff54513          	not	a0,a0
    af70:	952e                	add	a0,a0,a1
    af72:	8082                	ret
    af74:	4501                	li	a0,0
    af76:	8082                	ret
    af78:	43300613          	li	a2,1075
    af7c:	8e1d                	sub	a2,a2,a5
    af7e:	487d                	li	a6,31
    af80:	8f55                	or	a4,a4,a3
    af82:	00c85d63          	bge	a6,a2,af9c <__fixdfsi+0x58>
    af86:	41300693          	li	a3,1043
    af8a:	40f687b3          	sub	a5,a3,a5
    af8e:	00f757b3          	srl	a5,a4,a5
    af92:	40f00533          	neg	a0,a5
    af96:	f1e5                	bnez	a1,af76 <__fixdfsi+0x32>
    af98:	853e                	mv	a0,a5
    af9a:	8082                	ret
    af9c:	bed78793          	addi	a5,a5,-1043 # ffbed <_data_lma+0xf1c51>
    afa0:	00f717b3          	sll	a5,a4,a5
    afa4:	00c55533          	srl	a0,a0,a2
    afa8:	8fc9                	or	a5,a5,a0
    afaa:	b7e5                	j	af92 <__fixdfsi+0x4e>

0000afac <__floatsidf>:
    afac:	1141                	addi	sp,sp,-16
    afae:	c606                	sw	ra,12(sp)
    afb0:	c422                	sw	s0,8(sp)
    afb2:	c226                	sw	s1,4(sp)
    afb4:	cd0d                	beqz	a0,afee <__floatsidf+0x42>
    afb6:	41f55793          	srai	a5,a0,0x1f
    afba:	00a7c4b3          	xor	s1,a5,a0
    afbe:	8c9d                	sub	s1,s1,a5
    afc0:	842a                	mv	s0,a0
    afc2:	8526                	mv	a0,s1
    afc4:	1f4010ef          	jal	ra,c1b8 <__clzsi2>
    afc8:	41e00693          	li	a3,1054
    afcc:	8e89                	sub	a3,a3,a0
    afce:	47a9                	li	a5,10
    afd0:	807d                	srli	s0,s0,0x1f
    afd2:	7ff6f693          	andi	a3,a3,2047
    afd6:	02a7cd63          	blt	a5,a0,b010 <__floatsidf+0x64>
    afda:	472d                	li	a4,11
    afdc:	8f09                	sub	a4,a4,a0
    afde:	00e4d7b3          	srl	a5,s1,a4
    afe2:	0555                	addi	a0,a0,21
    afe4:	07b2                	slli	a5,a5,0xc
    afe6:	00a494b3          	sll	s1,s1,a0
    afea:	83b1                	srli	a5,a5,0xc
    afec:	a029                	j	aff6 <__floatsidf+0x4a>
    afee:	4401                	li	s0,0
    aff0:	4681                	li	a3,0
    aff2:	4781                	li	a5,0
    aff4:	4481                	li	s1,0
    aff6:	07b2                	slli	a5,a5,0xc
    aff8:	06d2                	slli	a3,a3,0x14
    affa:	83b1                	srli	a5,a5,0xc
    affc:	047e                	slli	s0,s0,0x1f
    affe:	8fd5                	or	a5,a5,a3
    b000:	8fc1                	or	a5,a5,s0
    b002:	40b2                	lw	ra,12(sp)
    b004:	4422                	lw	s0,8(sp)
    b006:	8526                	mv	a0,s1
    b008:	85be                	mv	a1,a5
    b00a:	4492                	lw	s1,4(sp)
    b00c:	0141                	addi	sp,sp,16
    b00e:	8082                	ret
    b010:	1555                	addi	a0,a0,-11
    b012:	00a497b3          	sll	a5,s1,a0
    b016:	07b2                	slli	a5,a5,0xc
    b018:	83b1                	srli	a5,a5,0xc
    b01a:	4481                	li	s1,0
    b01c:	bfe9                	j	aff6 <__floatsidf+0x4a>

0000b01e <__floatunsidf>:
    b01e:	cd1d                	beqz	a0,b05c <__floatunsidf+0x3e>
    b020:	1141                	addi	sp,sp,-16
    b022:	c422                	sw	s0,8(sp)
    b024:	c606                	sw	ra,12(sp)
    b026:	842a                	mv	s0,a0
    b028:	190010ef          	jal	ra,c1b8 <__clzsi2>
    b02c:	41e00693          	li	a3,1054
    b030:	8e89                	sub	a3,a3,a0
    b032:	47a9                	li	a5,10
    b034:	7ff6f693          	andi	a3,a3,2047
    b038:	02a7dc63          	bge	a5,a0,b070 <__floatunsidf+0x52>
    b03c:	1555                	addi	a0,a0,-11
    b03e:	00a417b3          	sll	a5,s0,a0
    b042:	07b2                	slli	a5,a5,0xc
    b044:	83b1                	srli	a5,a5,0xc
    b046:	4701                	li	a4,0
    b048:	40b2                	lw	ra,12(sp)
    b04a:	4422                	lw	s0,8(sp)
    b04c:	07b2                	slli	a5,a5,0xc
    b04e:	06d2                	slli	a3,a3,0x14
    b050:	83b1                	srli	a5,a5,0xc
    b052:	8fd5                	or	a5,a5,a3
    b054:	853a                	mv	a0,a4
    b056:	85be                	mv	a1,a5
    b058:	0141                	addi	sp,sp,16
    b05a:	8082                	ret
    b05c:	4781                	li	a5,0
    b05e:	4681                	li	a3,0
    b060:	07b2                	slli	a5,a5,0xc
    b062:	06d2                	slli	a3,a3,0x14
    b064:	83b1                	srli	a5,a5,0xc
    b066:	4701                	li	a4,0
    b068:	8fd5                	or	a5,a5,a3
    b06a:	853a                	mv	a0,a4
    b06c:	85be                	mv	a1,a5
    b06e:	8082                	ret
    b070:	472d                	li	a4,11
    b072:	8f09                	sub	a4,a4,a0
    b074:	00e457b3          	srl	a5,s0,a4
    b078:	07b2                	slli	a5,a5,0xc
    b07a:	01550713          	addi	a4,a0,21 # 80000015 <__freertos_irq_stack_top+0x5fffb015>
    b07e:	00e41733          	sll	a4,s0,a4
    b082:	83b1                	srli	a5,a5,0xc
    b084:	b7d1                	j	b048 <__floatunsidf+0x2a>

0000b086 <__addsf3>:
    b086:	1141                	addi	sp,sp,-16
    b088:	00800737          	lui	a4,0x800
    b08c:	177d                	addi	a4,a4,-1
    b08e:	0175d813          	srli	a6,a1,0x17
    b092:	c226                	sw	s1,4(sp)
    b094:	01755493          	srli	s1,a0,0x17
    b098:	00a77333          	and	t1,a4,a0
    b09c:	0ff4f493          	andi	s1,s1,255
    b0a0:	00b776b3          	and	a3,a4,a1
    b0a4:	c04a                	sw	s2,0(sp)
    b0a6:	0ff87813          	andi	a6,a6,255
    b0aa:	01f55913          	srli	s2,a0,0x1f
    b0ae:	c606                	sw	ra,12(sp)
    b0b0:	c422                	sw	s0,8(sp)
    b0b2:	81fd                	srli	a1,a1,0x1f
    b0b4:	879a                	mv	a5,t1
    b0b6:	8526                	mv	a0,s1
    b0b8:	864a                	mv	a2,s2
    b0ba:	00331e13          	slli	t3,t1,0x3
    b0be:	00369e93          	slli	t4,a3,0x3
    b0c2:	410488b3          	sub	a7,s1,a6
    b0c6:	0eb90a63          	beq	s2,a1,b1ba <__addsf3+0x134>
    b0ca:	0d105063          	blez	a7,b18a <__addsf3+0x104>
    b0ce:	14080463          	beqz	a6,b216 <__addsf3+0x190>
    b0d2:	0ff00793          	li	a5,255
    b0d6:	14f48b63          	beq	s1,a5,b22c <__addsf3+0x1a6>
    b0da:	040007b7          	lui	a5,0x4000
    b0de:	00feeeb3          	or	t4,t4,a5
    b0e2:	47ed                	li	a5,27
    b0e4:	2917c163          	blt	a5,a7,b366 <__addsf3+0x2e0>
    b0e8:	02000793          	li	a5,32
    b0ec:	411787b3          	sub	a5,a5,a7
    b0f0:	00fe97b3          	sll	a5,t4,a5
    b0f4:	011ed8b3          	srl	a7,t4,a7
    b0f8:	00f037b3          	snez	a5,a5
    b0fc:	00f8e7b3          	or	a5,a7,a5
    b100:	40fe07b3          	sub	a5,t3,a5
    b104:	00579713          	slli	a4,a5,0x5
    b108:	18075e63          	bgez	a4,b2a4 <__addsf3+0x21e>
    b10c:	04000437          	lui	s0,0x4000
    b110:	147d                	addi	s0,s0,-1
    b112:	8c7d                	and	s0,s0,a5
    b114:	8522                	mv	a0,s0
    b116:	0a2010ef          	jal	ra,c1b8 <__clzsi2>
    b11a:	156d                	addi	a0,a0,-5
    b11c:	00a417b3          	sll	a5,s0,a0
    b120:	1a954863          	blt	a0,s1,b2d0 <__addsf3+0x24a>
    b124:	8d05                	sub	a0,a0,s1
    b126:	00150413          	addi	s0,a0,1
    b12a:	02000713          	li	a4,32
    b12e:	8f01                	sub	a4,a4,s0
    b130:	00e79733          	sll	a4,a5,a4
    b134:	00e03733          	snez	a4,a4
    b138:	0087d7b3          	srl	a5,a5,s0
    b13c:	8fd9                	or	a5,a5,a4
    b13e:	4481                	li	s1,0
    b140:	0077f713          	andi	a4,a5,7
    b144:	c719                	beqz	a4,b152 <__addsf3+0xcc>
    b146:	00f7f713          	andi	a4,a5,15
    b14a:	4691                	li	a3,4
    b14c:	00d70363          	beq	a4,a3,b152 <__addsf3+0xcc>
    b150:	0791                	addi	a5,a5,4
    b152:	00579713          	slli	a4,a5,0x5
    b156:	14075b63          	bgez	a4,b2ac <__addsf3+0x226>
    b15a:	0485                	addi	s1,s1,1
    b15c:	0ff00713          	li	a4,255
    b160:	864a                	mv	a2,s2
    b162:	16e48363          	beq	s1,a4,b2c8 <__addsf3+0x242>
    b166:	079a                	slli	a5,a5,0x6
    b168:	83a5                	srli	a5,a5,0x9
    b16a:	0ff4f513          	andi	a0,s1,255
    b16e:	40b2                	lw	ra,12(sp)
    b170:	4422                	lw	s0,8(sp)
    b172:	07a6                	slli	a5,a5,0x9
    b174:	01751493          	slli	s1,a0,0x17
    b178:	0097d513          	srli	a0,a5,0x9
    b17c:	8d45                	or	a0,a0,s1
    b17e:	067e                	slli	a2,a2,0x1f
    b180:	4492                	lw	s1,4(sp)
    b182:	4902                	lw	s2,0(sp)
    b184:	8d51                	or	a0,a0,a2
    b186:	0141                	addi	sp,sp,16
    b188:	8082                	ret
    b18a:	0a089963          	bnez	a7,b23c <__addsf3+0x1b6>
    b18e:	00148713          	addi	a4,s1,1
    b192:	0fe77713          	andi	a4,a4,254
    b196:	14071763          	bnez	a4,b2e4 <__addsf3+0x25e>
    b19a:	22049063          	bnez	s1,b3ba <__addsf3+0x334>
    b19e:	1e0e0d63          	beqz	t3,b398 <__addsf3+0x312>
    b1a2:	fc0e86e3          	beqz	t4,b16e <__addsf3+0xe8>
    b1a6:	41de07b3          	sub	a5,t3,t4
    b1aa:	00579713          	slli	a4,a5,0x5
    b1ae:	22075063          	bgez	a4,b3ce <__addsf3+0x348>
    b1b2:	41ce87b3          	sub	a5,t4,t3
    b1b6:	892e                	mv	s2,a1
    b1b8:	b761                	j	b140 <__addsf3+0xba>
    b1ba:	0b105c63          	blez	a7,b272 <__addsf3+0x1ec>
    b1be:	08080e63          	beqz	a6,b25a <__addsf3+0x1d4>
    b1c2:	0ff00793          	li	a5,255
    b1c6:	06f48363          	beq	s1,a5,b22c <__addsf3+0x1a6>
    b1ca:	040007b7          	lui	a5,0x4000
    b1ce:	00feeeb3          	or	t4,t4,a5
    b1d2:	47ed                	li	a5,27
    b1d4:	1f17c963          	blt	a5,a7,b3c6 <__addsf3+0x340>
    b1d8:	02000793          	li	a5,32
    b1dc:	411787b3          	sub	a5,a5,a7
    b1e0:	00fe97b3          	sll	a5,t4,a5
    b1e4:	011ed8b3          	srl	a7,t4,a7
    b1e8:	00f037b3          	snez	a5,a5
    b1ec:	00f8e7b3          	or	a5,a7,a5
    b1f0:	97f2                	add	a5,a5,t3
    b1f2:	00579713          	slli	a4,a5,0x5
    b1f6:	0a075763          	bgez	a4,b2a4 <__addsf3+0x21e>
    b1fa:	0485                	addi	s1,s1,1
    b1fc:	0ff00713          	li	a4,255
    b200:	0ce48463          	beq	s1,a4,b2c8 <__addsf3+0x242>
    b204:	7e0006b7          	lui	a3,0x7e000
    b208:	0017d713          	srli	a4,a5,0x1
    b20c:	16fd                	addi	a3,a3,-1
    b20e:	8b85                	andi	a5,a5,1
    b210:	8f75                	and	a4,a4,a3
    b212:	8fd9                	or	a5,a5,a4
    b214:	b735                	j	b140 <__addsf3+0xba>
    b216:	080e8d63          	beqz	t4,b2b0 <__addsf3+0x22a>
    b21a:	18fd                	addi	a7,a7,-1
    b21c:	41de07b3          	sub	a5,t3,t4
    b220:	ee0882e3          	beqz	a7,b104 <__addsf3+0x7e>
    b224:	0ff00793          	li	a5,255
    b228:	eaf49de3          	bne	s1,a5,b0e2 <__addsf3+0x5c>
    b22c:	08030d63          	beqz	t1,b2c6 <__addsf3+0x240>
    b230:	4601                	li	a2,0
    b232:	0ff00513          	li	a0,255
    b236:	004007b7          	lui	a5,0x400
    b23a:	bf15                	j	b16e <__addsf3+0xe8>
    b23c:	40980733          	sub	a4,a6,s1
    b240:	e8ed                	bnez	s1,b332 <__addsf3+0x2ac>
    b242:	140e0263          	beqz	t3,b386 <__addsf3+0x300>
    b246:	177d                	addi	a4,a4,-1
    b248:	18070863          	beqz	a4,b3d8 <__addsf3+0x352>
    b24c:	0ff00793          	li	a5,255
    b250:	0ef81963          	bne	a6,a5,b342 <__addsf3+0x2bc>
    b254:	892e                	mv	s2,a1
    b256:	8336                	mv	t1,a3
    b258:	bfd1                	j	b22c <__addsf3+0x1a6>
    b25a:	040e8b63          	beqz	t4,b2b0 <__addsf3+0x22a>
    b25e:	18fd                	addi	a7,a7,-1
    b260:	01de07b3          	add	a5,t3,t4
    b264:	f80887e3          	beqz	a7,b1f2 <__addsf3+0x16c>
    b268:	0ff00793          	li	a5,255
    b26c:	f6f493e3          	bne	s1,a5,b1d2 <__addsf3+0x14c>
    b270:	bf75                	j	b22c <__addsf3+0x1a6>
    b272:	08089563          	bnez	a7,b2fc <__addsf3+0x276>
    b276:	0485                	addi	s1,s1,1
    b278:	0fe4f713          	andi	a4,s1,254
    b27c:	12071363          	bnez	a4,b3a2 <__addsf3+0x31c>
    b280:	10051763          	bnez	a0,b38e <__addsf3+0x308>
    b284:	140e0f63          	beqz	t3,b3e2 <__addsf3+0x35c>
    b288:	ee0e83e3          	beqz	t4,b16e <__addsf3+0xe8>
    b28c:	01de07b3          	add	a5,t3,t4
    b290:	00579713          	slli	a4,a5,0x5
    b294:	4481                	li	s1,0
    b296:	00075763          	bgez	a4,b2a4 <__addsf3+0x21e>
    b29a:	fc000737          	lui	a4,0xfc000
    b29e:	177d                	addi	a4,a4,-1
    b2a0:	8ff9                	and	a5,a5,a4
    b2a2:	4485                	li	s1,1
    b2a4:	0077f713          	andi	a4,a5,7
    b2a8:	e8071fe3          	bnez	a4,b146 <__addsf3+0xc0>
    b2ac:	0037d313          	srli	t1,a5,0x3
    b2b0:	0ff00793          	li	a5,255
    b2b4:	f6f48ce3          	beq	s1,a5,b22c <__addsf3+0x1a6>
    b2b8:	00931793          	slli	a5,t1,0x9
    b2bc:	83a5                	srli	a5,a5,0x9
    b2be:	0ff4f513          	andi	a0,s1,255
    b2c2:	864a                	mv	a2,s2
    b2c4:	b56d                	j	b16e <__addsf3+0xe8>
    b2c6:	864a                	mv	a2,s2
    b2c8:	0ff00513          	li	a0,255
    b2cc:	4781                	li	a5,0
    b2ce:	b545                	j	b16e <__addsf3+0xe8>
    b2d0:	fc000737          	lui	a4,0xfc000
    b2d4:	177d                	addi	a4,a4,-1
    b2d6:	8ff9                	and	a5,a5,a4
    b2d8:	0077f713          	andi	a4,a5,7
    b2dc:	8c89                	sub	s1,s1,a0
    b2de:	e60714e3          	bnez	a4,b146 <__addsf3+0xc0>
    b2e2:	b7e9                	j	b2ac <__addsf3+0x226>
    b2e4:	41de0433          	sub	s0,t3,t4
    b2e8:	00541793          	slli	a5,s0,0x5
    b2ec:	0c07c363          	bltz	a5,b3b2 <__addsf3+0x32c>
    b2f0:	e20412e3          	bnez	s0,b114 <__addsf3+0x8e>
    b2f4:	4601                	li	a2,0
    b2f6:	4501                	li	a0,0
    b2f8:	4781                	li	a5,0
    b2fa:	bd95                	j	b16e <__addsf3+0xe8>
    b2fc:	40980733          	sub	a4,a6,s1
    b300:	c4ad                	beqz	s1,b36a <__addsf3+0x2e4>
    b302:	0ff00793          	li	a5,255
    b306:	f4f808e3          	beq	a6,a5,b256 <__addsf3+0x1d0>
    b30a:	040007b7          	lui	a5,0x4000
    b30e:	00fe6e33          	or	t3,t3,a5
    b312:	47ed                	li	a5,27
    b314:	0ce7cc63          	blt	a5,a4,b3ec <__addsf3+0x366>
    b318:	02000793          	li	a5,32
    b31c:	8f99                	sub	a5,a5,a4
    b31e:	00fe17b3          	sll	a5,t3,a5
    b322:	00ee5733          	srl	a4,t3,a4
    b326:	00f037b3          	snez	a5,a5
    b32a:	8fd9                	or	a5,a5,a4
    b32c:	97f6                	add	a5,a5,t4
    b32e:	84c2                	mv	s1,a6
    b330:	b5c9                	j	b1f2 <__addsf3+0x16c>
    b332:	0ff00793          	li	a5,255
    b336:	f0f80fe3          	beq	a6,a5,b254 <__addsf3+0x1ce>
    b33a:	040007b7          	lui	a5,0x4000
    b33e:	00fe6e33          	or	t3,t3,a5
    b342:	47ed                	li	a5,27
    b344:	08e7c363          	blt	a5,a4,b3ca <__addsf3+0x344>
    b348:	02000693          	li	a3,32
    b34c:	8e99                	sub	a3,a3,a4
    b34e:	00de16b3          	sll	a3,t3,a3
    b352:	00ee57b3          	srl	a5,t3,a4
    b356:	00d03733          	snez	a4,a3
    b35a:	8fd9                	or	a5,a5,a4
    b35c:	40fe87b3          	sub	a5,t4,a5
    b360:	84c2                	mv	s1,a6
    b362:	892e                	mv	s2,a1
    b364:	b345                	j	b104 <__addsf3+0x7e>
    b366:	4785                	li	a5,1
    b368:	bb61                	j	b100 <__addsf3+0x7a>
    b36a:	060e0e63          	beqz	t3,b3e6 <__addsf3+0x360>
    b36e:	177d                	addi	a4,a4,-1
    b370:	01de07b3          	add	a5,t3,t4
    b374:	84c2                	mv	s1,a6
    b376:	e6070ee3          	beqz	a4,b1f2 <__addsf3+0x16c>
    b37a:	0ff00793          	li	a5,255
    b37e:	f8f81ae3          	bne	a6,a5,b312 <__addsf3+0x28c>
    b382:	8336                	mv	t1,a3
    b384:	b565                	j	b22c <__addsf3+0x1a6>
    b386:	8336                	mv	t1,a3
    b388:	84c2                	mv	s1,a6
    b38a:	892e                	mv	s2,a1
    b38c:	b715                	j	b2b0 <__addsf3+0x22a>
    b38e:	ec0e04e3          	beqz	t3,b256 <__addsf3+0x1d0>
    b392:	e80e8de3          	beqz	t4,b22c <__addsf3+0x1a6>
    b396:	bd69                	j	b230 <__addsf3+0x1aa>
    b398:	020e8d63          	beqz	t4,b3d2 <__addsf3+0x34c>
    b39c:	862e                	mv	a2,a1
    b39e:	87b6                	mv	a5,a3
    b3a0:	b3f9                	j	b16e <__addsf3+0xe8>
    b3a2:	0ff00793          	li	a5,255
    b3a6:	f2f481e3          	beq	s1,a5,b2c8 <__addsf3+0x242>
    b3aa:	01de07b3          	add	a5,t3,t4
    b3ae:	8385                	srli	a5,a5,0x1
    b3b0:	bdd5                	j	b2a4 <__addsf3+0x21e>
    b3b2:	41ce8433          	sub	s0,t4,t3
    b3b6:	892e                	mv	s2,a1
    b3b8:	bbb1                	j	b114 <__addsf3+0x8e>
    b3ba:	fc0e1ce3          	bnez	t3,b392 <__addsf3+0x30c>
    b3be:	e60e89e3          	beqz	t4,b230 <__addsf3+0x1aa>
    b3c2:	892e                	mv	s2,a1
    b3c4:	bd49                	j	b256 <__addsf3+0x1d0>
    b3c6:	4785                	li	a5,1
    b3c8:	b525                	j	b1f0 <__addsf3+0x16a>
    b3ca:	4785                	li	a5,1
    b3cc:	bf41                	j	b35c <__addsf3+0x2d6>
    b3ce:	ec079be3          	bnez	a5,b2a4 <__addsf3+0x21e>
    b3d2:	4601                	li	a2,0
    b3d4:	4781                	li	a5,0
    b3d6:	bb61                	j	b16e <__addsf3+0xe8>
    b3d8:	41ce87b3          	sub	a5,t4,t3
    b3dc:	84c2                	mv	s1,a6
    b3de:	892e                	mv	s2,a1
    b3e0:	b315                	j	b104 <__addsf3+0x7e>
    b3e2:	87b6                	mv	a5,a3
    b3e4:	b369                	j	b16e <__addsf3+0xe8>
    b3e6:	8336                	mv	t1,a3
    b3e8:	84c2                	mv	s1,a6
    b3ea:	b5d9                	j	b2b0 <__addsf3+0x22a>
    b3ec:	4785                	li	a5,1
    b3ee:	bf3d                	j	b32c <__addsf3+0x2a6>

0000b3f0 <__divsf3>:
    b3f0:	7139                	addi	sp,sp,-64
    b3f2:	01755793          	srli	a5,a0,0x17
    b3f6:	d84a                	sw	s2,48(sp)
    b3f8:	d256                	sw	s5,36(sp)
    b3fa:	ce5e                	sw	s7,28(sp)
    b3fc:	00951a93          	slli	s5,a0,0x9
    b400:	01f55913          	srli	s2,a0,0x1f
    b404:	de06                	sw	ra,60(sp)
    b406:	dc22                	sw	s0,56(sp)
    b408:	da26                	sw	s1,52(sp)
    b40a:	d64e                	sw	s3,44(sp)
    b40c:	d452                	sw	s4,40(sp)
    b40e:	d05a                	sw	s6,32(sp)
    b410:	0ff7f793          	andi	a5,a5,255
    b414:	009ada93          	srli	s5,s5,0x9
    b418:	8bca                	mv	s7,s2
    b41a:	12078263          	beqz	a5,b53e <__divsf3+0x14e>
    b41e:	0ff00713          	li	a4,255
    b422:	12e78463          	beq	a5,a4,b54a <__divsf3+0x15a>
    b426:	0a8e                	slli	s5,s5,0x3
    b428:	04000737          	lui	a4,0x4000
    b42c:	00eaeab3          	or	s5,s5,a4
    b430:	f8178a13          	addi	s4,a5,-127 # 3ffff81 <_data_lma+0x3ff1fe5>
    b434:	4401                	li	s0,0
    b436:	4b01                	li	s6,0
    b438:	0175d793          	srli	a5,a1,0x17
    b43c:	00959493          	slli	s1,a1,0x9
    b440:	0ff7f793          	andi	a5,a5,255
    b444:	80a5                	srli	s1,s1,0x9
    b446:	01f5d993          	srli	s3,a1,0x1f
    b44a:	c7fd                	beqz	a5,b538 <__divsf3+0x148>
    b44c:	0ff00713          	li	a4,255
    b450:	02e78763          	beq	a5,a4,b47e <__divsf3+0x8e>
    b454:	048e                	slli	s1,s1,0x3
    b456:	f8178793          	addi	a5,a5,-127
    b45a:	04000737          	lui	a4,0x4000
    b45e:	8cd9                	or	s1,s1,a4
    b460:	40fa0a33          	sub	s4,s4,a5
    b464:	4681                	li	a3,0
    b466:	8c55                	or	s0,s0,a3
    b468:	00003717          	auipc	a4,0x3
    b46c:	8d870713          	addi	a4,a4,-1832 # dd40 <TWO52+0xa0>
    b470:	040a                	slli	s0,s0,0x2
    b472:	943a                	add	s0,s0,a4
    b474:	401c                	lw	a5,0(s0)
    b476:	01394933          	xor	s2,s2,s3
    b47a:	97ba                	add	a5,a5,a4
    b47c:	8782                	jr	a5
    b47e:	f01a0a13          	addi	s4,s4,-255
    b482:	e8f9                	bnez	s1,b558 <__divsf3+0x168>
    b484:	4689                	li	a3,2
    b486:	8c55                	or	s0,s0,a3
    b488:	00003717          	auipc	a4,0x3
    b48c:	8f870713          	addi	a4,a4,-1800 # dd80 <TWO52+0xe0>
    b490:	040a                	slli	s0,s0,0x2
    b492:	943a                	add	s0,s0,a4
    b494:	401c                	lw	a5,0(s0)
    b496:	01394933          	xor	s2,s2,s3
    b49a:	97ba                	add	a5,a5,a4
    b49c:	8782                	jr	a5
    b49e:	4901                	li	s2,0
    b4a0:	0ff00713          	li	a4,255
    b4a4:	004007b7          	lui	a5,0x400
    b4a8:	00979513          	slli	a0,a5,0x9
    b4ac:	50f2                	lw	ra,60(sp)
    b4ae:	5462                	lw	s0,56(sp)
    b4b0:	01771793          	slli	a5,a4,0x17
    b4b4:	8125                	srli	a0,a0,0x9
    b4b6:	097e                	slli	s2,s2,0x1f
    b4b8:	8d5d                	or	a0,a0,a5
    b4ba:	01256533          	or	a0,a0,s2
    b4be:	54d2                	lw	s1,52(sp)
    b4c0:	5942                	lw	s2,48(sp)
    b4c2:	59b2                	lw	s3,44(sp)
    b4c4:	5a22                	lw	s4,40(sp)
    b4c6:	5a92                	lw	s5,36(sp)
    b4c8:	5b02                	lw	s6,32(sp)
    b4ca:	4bf2                	lw	s7,28(sp)
    b4cc:	6121                	addi	sp,sp,64
    b4ce:	8082                	ret
    b4d0:	0ff00713          	li	a4,255
    b4d4:	4781                	li	a5,0
    b4d6:	bfc9                	j	b4a8 <__divsf3+0xb8>
    b4d8:	8aa6                	mv	s5,s1
    b4da:	8bce                	mv	s7,s3
    b4dc:	8b36                	mv	s6,a3
    b4de:	4789                	li	a5,2
    b4e0:	1afb0b63          	beq	s6,a5,b696 <__divsf3+0x2a6>
    b4e4:	478d                	li	a5,3
    b4e6:	fafb0ce3          	beq	s6,a5,b49e <__divsf3+0xae>
    b4ea:	4785                	li	a5,1
    b4ec:	0afb0a63          	beq	s6,a5,b5a0 <__divsf3+0x1b0>
    b4f0:	07fa0713          	addi	a4,s4,127
    b4f4:	001bf913          	andi	s2,s7,1
    b4f8:	12e05763          	blez	a4,b626 <__divsf3+0x236>
    b4fc:	007af793          	andi	a5,s5,7
    b500:	c799                	beqz	a5,b50e <__divsf3+0x11e>
    b502:	00faf793          	andi	a5,s5,15
    b506:	4691                	li	a3,4
    b508:	00d78363          	beq	a5,a3,b50e <__divsf3+0x11e>
    b50c:	0a91                	addi	s5,s5,4
    b50e:	004a9793          	slli	a5,s5,0x4
    b512:	0007d963          	bgez	a5,b524 <__divsf3+0x134>
    b516:	f80007b7          	lui	a5,0xf8000
    b51a:	17fd                	addi	a5,a5,-1
    b51c:	00fafab3          	and	s5,s5,a5
    b520:	080a0713          	addi	a4,s4,128
    b524:	0fe00793          	li	a5,254
    b528:	fae7c4e3          	blt	a5,a4,b4d0 <__divsf3+0xe0>
    b52c:	006a9793          	slli	a5,s5,0x6
    b530:	83a5                	srli	a5,a5,0x9
    b532:	0ff77713          	andi	a4,a4,255
    b536:	bf8d                	j	b4a8 <__divsf3+0xb8>
    b538:	e4b9                	bnez	s1,b586 <__divsf3+0x196>
    b53a:	4685                	li	a3,1
    b53c:	b7a9                	j	b486 <__divsf3+0x96>
    b53e:	020a9463          	bnez	s5,b566 <__divsf3+0x176>
    b542:	4411                	li	s0,4
    b544:	4a01                	li	s4,0
    b546:	4b05                	li	s6,1
    b548:	bdc5                	j	b438 <__divsf3+0x48>
    b54a:	000a9963          	bnez	s5,b55c <__divsf3+0x16c>
    b54e:	4421                	li	s0,8
    b550:	0ff00a13          	li	s4,255
    b554:	4b09                	li	s6,2
    b556:	b5cd                	j	b438 <__divsf3+0x48>
    b558:	468d                	li	a3,3
    b55a:	b731                	j	b466 <__divsf3+0x76>
    b55c:	4431                	li	s0,12
    b55e:	0ff00a13          	li	s4,255
    b562:	4b0d                	li	s6,3
    b564:	bdd1                	j	b438 <__divsf3+0x48>
    b566:	8556                	mv	a0,s5
    b568:	c62e                	sw	a1,12(sp)
    b56a:	44f000ef          	jal	ra,c1b8 <__clzsi2>
    b56e:	ffb50793          	addi	a5,a0,-5
    b572:	00fa9ab3          	sll	s5,s5,a5
    b576:	f8a00793          	li	a5,-118
    b57a:	40a78a33          	sub	s4,a5,a0
    b57e:	4401                	li	s0,0
    b580:	4b01                	li	s6,0
    b582:	45b2                	lw	a1,12(sp)
    b584:	bd55                	j	b438 <__divsf3+0x48>
    b586:	8526                	mv	a0,s1
    b588:	431000ef          	jal	ra,c1b8 <__clzsi2>
    b58c:	ffb50713          	addi	a4,a0,-5
    b590:	00aa07b3          	add	a5,s4,a0
    b594:	00e494b3          	sll	s1,s1,a4
    b598:	07678a13          	addi	s4,a5,118 # f8000076 <__freertos_irq_stack_top+0xd7ffb076>
    b59c:	4681                	li	a3,0
    b59e:	b5e1                	j	b466 <__divsf3+0x76>
    b5a0:	001bf913          	andi	s2,s7,1
    b5a4:	4701                	li	a4,0
    b5a6:	4781                	li	a5,0
    b5a8:	b701                	j	b4a8 <__divsf3+0xb8>
    b5aa:	6641                	lui	a2,0x10
    b5ac:	00549513          	slli	a0,s1,0x5
    b5b0:	167d                	addi	a2,a2,-1
    b5b2:	01055793          	srli	a5,a0,0x10
    b5b6:	8e69                	and	a2,a2,a0
    b5b8:	0a9afa63          	bgeu	s5,s1,b66c <__divsf3+0x27c>
    b5bc:	02fad5b3          	divu	a1,s5,a5
    b5c0:	1a7d                	addi	s4,s4,-1
    b5c2:	86d6                	mv	a3,s5
    b5c4:	4701                	li	a4,0
    b5c6:	02c58833          	mul	a6,a1,a2
    b5ca:	02f6f6b3          	remu	a3,a3,a5
    b5ce:	06c2                	slli	a3,a3,0x10
    b5d0:	8f55                	or	a4,a4,a3
    b5d2:	01077b63          	bgeu	a4,a6,b5e8 <__divsf3+0x1f8>
    b5d6:	972a                	add	a4,a4,a0
    b5d8:	fff58693          	addi	a3,a1,-1
    b5dc:	0aa76863          	bltu	a4,a0,b68c <__divsf3+0x29c>
    b5e0:	0b077663          	bgeu	a4,a6,b68c <__divsf3+0x29c>
    b5e4:	15f9                	addi	a1,a1,-2
    b5e6:	972a                	add	a4,a4,a0
    b5e8:	41070733          	sub	a4,a4,a6
    b5ec:	02f756b3          	divu	a3,a4,a5
    b5f0:	02f77733          	remu	a4,a4,a5
    b5f4:	02c68ab3          	mul	s5,a3,a2
    b5f8:	01071793          	slli	a5,a4,0x10
    b5fc:	0157fb63          	bgeu	a5,s5,b612 <__divsf3+0x222>
    b600:	97aa                	add	a5,a5,a0
    b602:	fff68713          	addi	a4,a3,-1 # 7dffffff <__freertos_irq_stack_top+0x5dffafff>
    b606:	08a7e163          	bltu	a5,a0,b688 <__divsf3+0x298>
    b60a:	0757ff63          	bgeu	a5,s5,b688 <__divsf3+0x298>
    b60e:	16f9                	addi	a3,a3,-2
    b610:	97aa                	add	a5,a5,a0
    b612:	05c2                	slli	a1,a1,0x10
    b614:	41578ab3          	sub	s5,a5,s5
    b618:	8dd5                	or	a1,a1,a3
    b61a:	01503ab3          	snez	s5,s5
    b61e:	0155eab3          	or	s5,a1,s5
    b622:	8bca                	mv	s7,s2
    b624:	b5f1                	j	b4f0 <__divsf3+0x100>
    b626:	4685                	li	a3,1
    b628:	8e99                	sub	a3,a3,a4
    b62a:	c711                	beqz	a4,b636 <__divsf3+0x246>
    b62c:	466d                	li	a2,27
    b62e:	4701                	li	a4,0
    b630:	4781                	li	a5,0
    b632:	e6d64be3          	blt	a2,a3,b4a8 <__divsf3+0xb8>
    b636:	09ea0a13          	addi	s4,s4,158
    b63a:	014a9a33          	sll	s4,s5,s4
    b63e:	00dad7b3          	srl	a5,s5,a3
    b642:	01403ab3          	snez	s5,s4
    b646:	0157e7b3          	or	a5,a5,s5
    b64a:	0077f713          	andi	a4,a5,7
    b64e:	c719                	beqz	a4,b65c <__divsf3+0x26c>
    b650:	00f7f713          	andi	a4,a5,15
    b654:	4691                	li	a3,4
    b656:	00d70363          	beq	a4,a3,b65c <__divsf3+0x26c>
    b65a:	0791                	addi	a5,a5,4
    b65c:	00579713          	slli	a4,a5,0x5
    b660:	02074863          	bltz	a4,b690 <__divsf3+0x2a0>
    b664:	079a                	slli	a5,a5,0x6
    b666:	83a5                	srli	a5,a5,0x9
    b668:	4701                	li	a4,0
    b66a:	bd3d                	j	b4a8 <__divsf3+0xb8>
    b66c:	001ad693          	srli	a3,s5,0x1
    b670:	02f6d5b3          	divu	a1,a3,a5
    b674:	01fa9713          	slli	a4,s5,0x1f
    b678:	8341                	srli	a4,a4,0x10
    b67a:	02c58833          	mul	a6,a1,a2
    b67e:	b7b1                	j	b5ca <__divsf3+0x1da>
    b680:	8bce                	mv	s7,s3
    b682:	8b36                	mv	s6,a3
    b684:	4a81                	li	s5,0
    b686:	bda1                	j	b4de <__divsf3+0xee>
    b688:	86ba                	mv	a3,a4
    b68a:	b761                	j	b612 <__divsf3+0x222>
    b68c:	85b6                	mv	a1,a3
    b68e:	bfa9                	j	b5e8 <__divsf3+0x1f8>
    b690:	4705                	li	a4,1
    b692:	4781                	li	a5,0
    b694:	bd11                	j	b4a8 <__divsf3+0xb8>
    b696:	001bf913          	andi	s2,s7,1
    b69a:	0ff00713          	li	a4,255
    b69e:	4781                	li	a5,0
    b6a0:	b521                	j	b4a8 <__divsf3+0xb8>

0000b6a2 <__gesf2>:
    b6a2:	01755693          	srli	a3,a0,0x17
    b6a6:	008007b7          	lui	a5,0x800
    b6aa:	17fd                	addi	a5,a5,-1
    b6ac:	0175d613          	srli	a2,a1,0x17
    b6b0:	0ff6f693          	andi	a3,a3,255
    b6b4:	0ff00813          	li	a6,255
    b6b8:	00a7f8b3          	and	a7,a5,a0
    b6bc:	01f55713          	srli	a4,a0,0x1f
    b6c0:	8fed                	and	a5,a5,a1
    b6c2:	0ff67613          	andi	a2,a2,255
    b6c6:	81fd                	srli	a1,a1,0x1f
    b6c8:	03068163          	beq	a3,a6,b6ea <__gesf2+0x48>
    b6cc:	01060c63          	beq	a2,a6,b6e4 <__gesf2+0x42>
    b6d0:	e28d                	bnez	a3,b6f2 <__gesf2+0x50>
    b6d2:	e211                	bnez	a2,b6d6 <__gesf2+0x34>
    b6d4:	c3b1                	beqz	a5,b718 <__gesf2+0x76>
    b6d6:	02088e63          	beqz	a7,b712 <__gesf2+0x70>
    b6da:	04b70563          	beq	a4,a1,b724 <__gesf2+0x82>
    b6de:	4505                	li	a0,1
    b6e0:	e71d                	bnez	a4,b70e <__gesf2+0x6c>
    b6e2:	8082                	ret
    b6e4:	d7f5                	beqz	a5,b6d0 <__gesf2+0x2e>
    b6e6:	5579                	li	a0,-2
    b6e8:	8082                	ret
    b6ea:	fe089ee3          	bnez	a7,b6e6 <__gesf2+0x44>
    b6ee:	02d60963          	beq	a2,a3,b720 <__gesf2+0x7e>
    b6f2:	e211                	bnez	a2,b6f6 <__gesf2+0x54>
    b6f4:	d7ed                	beqz	a5,b6de <__gesf2+0x3c>
    b6f6:	feb714e3          	bne	a4,a1,b6de <__gesf2+0x3c>
    b6fa:	fed642e3          	blt	a2,a3,b6de <__gesf2+0x3c>
    b6fe:	00c6c763          	blt	a3,a2,b70c <__gesf2+0x6a>
    b702:	fd17eee3          	bltu	a5,a7,b6de <__gesf2+0x3c>
    b706:	4501                	li	a0,0
    b708:	fcf8fde3          	bgeu	a7,a5,b6e2 <__gesf2+0x40>
    b70c:	e701                	bnez	a4,b714 <__gesf2+0x72>
    b70e:	557d                	li	a0,-1
    b710:	8082                	ret
    b712:	ddf5                	beqz	a1,b70e <__gesf2+0x6c>
    b714:	4505                	li	a0,1
    b716:	8082                	ret
    b718:	4501                	li	a0,0
    b71a:	fc0892e3          	bnez	a7,b6de <__gesf2+0x3c>
    b71e:	8082                	ret
    b720:	dbf9                	beqz	a5,b6f6 <__gesf2+0x54>
    b722:	b7d1                	j	b6e6 <__gesf2+0x44>
    b724:	4681                	li	a3,0
    b726:	bfe1                	j	b6fe <__gesf2+0x5c>

0000b728 <__mulsf3>:
    b728:	7179                	addi	sp,sp,-48
    b72a:	d422                	sw	s0,40(sp)
    b72c:	01755413          	srli	s0,a0,0x17
    b730:	ce4e                	sw	s3,28(sp)
    b732:	cc52                	sw	s4,24(sp)
    b734:	00951993          	slli	s3,a0,0x9
    b738:	d606                	sw	ra,44(sp)
    b73a:	d226                	sw	s1,36(sp)
    b73c:	d04a                	sw	s2,32(sp)
    b73e:	ca56                	sw	s5,20(sp)
    b740:	c85a                	sw	s6,16(sp)
    b742:	0ff47413          	andi	s0,s0,255
    b746:	0099d993          	srli	s3,s3,0x9
    b74a:	01f55a13          	srli	s4,a0,0x1f
    b74e:	c469                	beqz	s0,b818 <__mulsf3+0xf0>
    b750:	0ff00793          	li	a5,255
    b754:	0ef40863          	beq	s0,a5,b844 <__mulsf3+0x11c>
    b758:	00399793          	slli	a5,s3,0x3
    b75c:	04000737          	lui	a4,0x4000
    b760:	00e7e9b3          	or	s3,a5,a4
    b764:	f8140413          	addi	s0,s0,-127 # 3ffff81 <_data_lma+0x3ff1fe5>
    b768:	4481                	li	s1,0
    b76a:	4b01                	li	s6,0
    b76c:	0175d713          	srli	a4,a1,0x17
    b770:	00959a93          	slli	s5,a1,0x9
    b774:	0ff77713          	andi	a4,a4,255
    b778:	009ada93          	srli	s5,s5,0x9
    b77c:	01f5d913          	srli	s2,a1,0x1f
    b780:	cf45                	beqz	a4,b838 <__mulsf3+0x110>
    b782:	0ff00793          	li	a5,255
    b786:	02f70c63          	beq	a4,a5,b7be <__mulsf3+0x96>
    b78a:	0a8e                	slli	s5,s5,0x3
    b78c:	f8170713          	addi	a4,a4,-127 # 3ffff81 <_data_lma+0x3ff1fe5>
    b790:	040007b7          	lui	a5,0x4000
    b794:	00faeab3          	or	s5,s5,a5
    b798:	943a                	add	s0,s0,a4
    b79a:	4601                	li	a2,0
    b79c:	012a4533          	xor	a0,s4,s2
    b7a0:	47bd                	li	a5,15
    b7a2:	86aa                	mv	a3,a0
    b7a4:	00140593          	addi	a1,s0,1
    b7a8:	1097e263          	bltu	a5,s1,b8ac <__mulsf3+0x184>
    b7ac:	00002717          	auipc	a4,0x2
    b7b0:	61470713          	addi	a4,a4,1556 # ddc0 <TWO52+0x120>
    b7b4:	048a                	slli	s1,s1,0x2
    b7b6:	94ba                	add	s1,s1,a4
    b7b8:	409c                	lw	a5,0(s1)
    b7ba:	97ba                	add	a5,a5,a4
    b7bc:	8782                	jr	a5
    b7be:	0ff40413          	addi	s0,s0,255
    b7c2:	0c0a9863          	bnez	s5,b892 <__mulsf3+0x16a>
    b7c6:	0024e493          	ori	s1,s1,2
    b7ca:	4609                	li	a2,2
    b7cc:	bfc1                	j	b79c <__mulsf3+0x74>
    b7ce:	4501                	li	a0,0
    b7d0:	0ff00713          	li	a4,255
    b7d4:	004007b7          	lui	a5,0x400
    b7d8:	50b2                	lw	ra,44(sp)
    b7da:	5422                	lw	s0,40(sp)
    b7dc:	07a6                	slli	a5,a5,0x9
    b7de:	075e                	slli	a4,a4,0x17
    b7e0:	83a5                	srli	a5,a5,0x9
    b7e2:	057e                	slli	a0,a0,0x1f
    b7e4:	8fd9                	or	a5,a5,a4
    b7e6:	5492                	lw	s1,36(sp)
    b7e8:	5902                	lw	s2,32(sp)
    b7ea:	49f2                	lw	s3,28(sp)
    b7ec:	4a62                	lw	s4,24(sp)
    b7ee:	4ad2                	lw	s5,20(sp)
    b7f0:	4b42                	lw	s6,16(sp)
    b7f2:	8d5d                	or	a0,a0,a5
    b7f4:	6145                	addi	sp,sp,48
    b7f6:	8082                	ret
    b7f8:	86ca                	mv	a3,s2
    b7fa:	89d6                	mv	s3,s5
    b7fc:	8b32                	mv	s6,a2
    b7fe:	4789                	li	a5,2
    b800:	0afb0163          	beq	s6,a5,b8a2 <__mulsf3+0x17a>
    b804:	478d                	li	a5,3
    b806:	fcfb04e3          	beq	s6,a5,b7ce <__mulsf3+0xa6>
    b80a:	4785                	li	a5,1
    b80c:	8536                	mv	a0,a3
    b80e:	1afb1263          	bne	s6,a5,b9b2 <__mulsf3+0x28a>
    b812:	4701                	li	a4,0
    b814:	4781                	li	a5,0
    b816:	b7c9                	j	b7d8 <__mulsf3+0xb0>
    b818:	04099e63          	bnez	s3,b874 <__mulsf3+0x14c>
    b81c:	0175d713          	srli	a4,a1,0x17
    b820:	00959a93          	slli	s5,a1,0x9
    b824:	0ff77713          	andi	a4,a4,255
    b828:	4491                	li	s1,4
    b82a:	4401                	li	s0,0
    b82c:	4b05                	li	s6,1
    b82e:	009ada93          	srli	s5,s5,0x9
    b832:	01f5d913          	srli	s2,a1,0x1f
    b836:	f731                	bnez	a4,b782 <__mulsf3+0x5a>
    b838:	000a9d63          	bnez	s5,b852 <__mulsf3+0x12a>
    b83c:	0014e493          	ori	s1,s1,1
    b840:	4605                	li	a2,1
    b842:	bfa9                	j	b79c <__mulsf3+0x74>
    b844:	02099363          	bnez	s3,b86a <__mulsf3+0x142>
    b848:	44a1                	li	s1,8
    b84a:	0ff00413          	li	s0,255
    b84e:	4b09                	li	s6,2
    b850:	bf31                	j	b76c <__mulsf3+0x44>
    b852:	8556                	mv	a0,s5
    b854:	165000ef          	jal	ra,c1b8 <__clzsi2>
    b858:	ffb50793          	addi	a5,a0,-5
    b85c:	8c09                	sub	s0,s0,a0
    b85e:	00fa9ab3          	sll	s5,s5,a5
    b862:	f8a40413          	addi	s0,s0,-118
    b866:	4601                	li	a2,0
    b868:	bf15                	j	b79c <__mulsf3+0x74>
    b86a:	44b1                	li	s1,12
    b86c:	0ff00413          	li	s0,255
    b870:	4b0d                	li	s6,3
    b872:	bded                	j	b76c <__mulsf3+0x44>
    b874:	854e                	mv	a0,s3
    b876:	c62e                	sw	a1,12(sp)
    b878:	141000ef          	jal	ra,c1b8 <__clzsi2>
    b87c:	ffb50793          	addi	a5,a0,-5
    b880:	f8a00413          	li	s0,-118
    b884:	00f999b3          	sll	s3,s3,a5
    b888:	8c09                	sub	s0,s0,a0
    b88a:	4481                	li	s1,0
    b88c:	4b01                	li	s6,0
    b88e:	45b2                	lw	a1,12(sp)
    b890:	bdf1                	j	b76c <__mulsf3+0x44>
    b892:	0034e493          	ori	s1,s1,3
    b896:	460d                	li	a2,3
    b898:	b711                	j	b79c <__mulsf3+0x74>
    b89a:	4789                	li	a5,2
    b89c:	86d2                	mv	a3,s4
    b89e:	f6fb13e3          	bne	s6,a5,b804 <__mulsf3+0xdc>
    b8a2:	8536                	mv	a0,a3
    b8a4:	0ff00713          	li	a4,255
    b8a8:	4781                	li	a5,0
    b8aa:	b73d                	j	b7d8 <__mulsf3+0xb0>
    b8ac:	6341                	lui	t1,0x10
    b8ae:	fff30693          	addi	a3,t1,-1 # ffff <_data_lma+0x2063>
    b8b2:	0109d613          	srli	a2,s3,0x10
    b8b6:	010ad893          	srli	a7,s5,0x10
    b8ba:	00d9f7b3          	and	a5,s3,a3
    b8be:	00dafab3          	and	s5,s5,a3
    b8c2:	03578833          	mul	a6,a5,s5
    b8c6:	02f889b3          	mul	s3,a7,a5
    b8ca:	01085713          	srli	a4,a6,0x10
    b8ce:	03560ab3          	mul	s5,a2,s5
    b8d2:	99d6                	add	s3,s3,s5
    b8d4:	974e                	add	a4,a4,s3
    b8d6:	03160633          	mul	a2,a2,a7
    b8da:	01577363          	bgeu	a4,s5,b8e0 <__mulsf3+0x1b8>
    b8de:	961a                	add	a2,a2,t1
    b8e0:	67c1                	lui	a5,0x10
    b8e2:	17fd                	addi	a5,a5,-1
    b8e4:	00f776b3          	and	a3,a4,a5
    b8e8:	00f87833          	and	a6,a6,a5
    b8ec:	06c2                	slli	a3,a3,0x10
    b8ee:	96c2                	add	a3,a3,a6
    b8f0:	00669993          	slli	s3,a3,0x6
    b8f4:	01075793          	srli	a5,a4,0x10
    b8f8:	013039b3          	snez	s3,s3
    b8fc:	82e9                	srli	a3,a3,0x1a
    b8fe:	97b2                	add	a5,a5,a2
    b900:	079a                	slli	a5,a5,0x6
    b902:	00d9e6b3          	or	a3,s3,a3
    b906:	00d7e9b3          	or	s3,a5,a3
    b90a:	00499793          	slli	a5,s3,0x4
    b90e:	0007d963          	bgez	a5,b920 <__mulsf3+0x1f8>
    b912:	0019d713          	srli	a4,s3,0x1
    b916:	0019f793          	andi	a5,s3,1
    b91a:	00f769b3          	or	s3,a4,a5
    b91e:	842e                	mv	s0,a1
    b920:	07f40713          	addi	a4,s0,127
    b924:	04e05063          	blez	a4,b964 <__mulsf3+0x23c>
    b928:	0079f793          	andi	a5,s3,7
    b92c:	c799                	beqz	a5,b93a <__mulsf3+0x212>
    b92e:	00f9f793          	andi	a5,s3,15
    b932:	4691                	li	a3,4
    b934:	00d78363          	beq	a5,a3,b93a <__mulsf3+0x212>
    b938:	0991                	addi	s3,s3,4
    b93a:	00499793          	slli	a5,s3,0x4
    b93e:	0007d963          	bgez	a5,b950 <__mulsf3+0x228>
    b942:	f80007b7          	lui	a5,0xf8000
    b946:	17fd                	addi	a5,a5,-1
    b948:	00f9f9b3          	and	s3,s3,a5
    b94c:	08040713          	addi	a4,s0,128
    b950:	0fe00793          	li	a5,254
    b954:	04e7cb63          	blt	a5,a4,b9aa <__mulsf3+0x282>
    b958:	00699793          	slli	a5,s3,0x6
    b95c:	83a5                	srli	a5,a5,0x9
    b95e:	0ff77713          	andi	a4,a4,255
    b962:	bd9d                	j	b7d8 <__mulsf3+0xb0>
    b964:	4785                	li	a5,1
    b966:	40e786b3          	sub	a3,a5,a4
    b96a:	c711                	beqz	a4,b976 <__mulsf3+0x24e>
    b96c:	466d                	li	a2,27
    b96e:	4701                	li	a4,0
    b970:	4781                	li	a5,0
    b972:	e6d643e3          	blt	a2,a3,b7d8 <__mulsf3+0xb0>
    b976:	09e40713          	addi	a4,s0,158
    b97a:	00e99733          	sll	a4,s3,a4
    b97e:	00e03733          	snez	a4,a4
    b982:	00d9d7b3          	srl	a5,s3,a3
    b986:	8fd9                	or	a5,a5,a4
    b988:	0077f713          	andi	a4,a5,7
    b98c:	c719                	beqz	a4,b99a <__mulsf3+0x272>
    b98e:	00f7f713          	andi	a4,a5,15
    b992:	4691                	li	a3,4
    b994:	00d70363          	beq	a4,a3,b99a <__mulsf3+0x272>
    b998:	0791                	addi	a5,a5,4
    b99a:	00579713          	slli	a4,a5,0x5
    b99e:	00074c63          	bltz	a4,b9b6 <__mulsf3+0x28e>
    b9a2:	079a                	slli	a5,a5,0x6
    b9a4:	83a5                	srli	a5,a5,0x9
    b9a6:	4701                	li	a4,0
    b9a8:	bd05                	j	b7d8 <__mulsf3+0xb0>
    b9aa:	0ff00713          	li	a4,255
    b9ae:	4781                	li	a5,0
    b9b0:	b525                	j	b7d8 <__mulsf3+0xb0>
    b9b2:	842e                	mv	s0,a1
    b9b4:	b7b5                	j	b920 <__mulsf3+0x1f8>
    b9b6:	4705                	li	a4,1
    b9b8:	4781                	li	a5,0
    b9ba:	bd39                	j	b7d8 <__mulsf3+0xb0>

0000b9bc <__subsf3>:
    b9bc:	00800737          	lui	a4,0x800
    b9c0:	1141                	addi	sp,sp,-16
    b9c2:	177d                	addi	a4,a4,-1
    b9c4:	01755693          	srli	a3,a0,0x17
    b9c8:	0175d813          	srli	a6,a1,0x17
    b9cc:	00a777b3          	and	a5,a4,a0
    b9d0:	0ff6f693          	andi	a3,a3,255
    b9d4:	01f55e93          	srli	t4,a0,0x1f
    b9d8:	00b77633          	and	a2,a4,a1
    b9dc:	c226                	sw	s1,4(sp)
    b9de:	c04a                	sw	s2,0(sp)
    b9e0:	0ff87813          	andi	a6,a6,255
    b9e4:	c606                	sw	ra,12(sp)
    b9e6:	c422                	sw	s0,8(sp)
    b9e8:	0ff00313          	li	t1,255
    b9ec:	8e3e                	mv	t3,a5
    b9ee:	8936                	mv	s2,a3
    b9f0:	84f6                	mv	s1,t4
    b9f2:	00379f13          	slli	t5,a5,0x3
    b9f6:	81fd                	srli	a1,a1,0x1f
    b9f8:	00361513          	slli	a0,a2,0x3
    b9fc:	410688b3          	sub	a7,a3,a6
    ba00:	10680263          	beq	a6,t1,bb04 <__subsf3+0x148>
    ba04:	0015c593          	xori	a1,a1,1
    ba08:	10be8c63          	beq	t4,a1,bb20 <__subsf3+0x164>
    ba0c:	0d105463          	blez	a7,bad4 <__subsf3+0x118>
    ba10:	10081063          	bnez	a6,bb10 <__subsf3+0x154>
    ba14:	1e050463          	beqz	a0,bbfc <__subsf3+0x240>
    ba18:	18fd                	addi	a7,a7,-1
    ba1a:	40af07b3          	sub	a5,t5,a0
    ba1e:	02088663          	beqz	a7,ba4a <__subsf3+0x8e>
    ba22:	0ff00793          	li	a5,255
    ba26:	16f68863          	beq	a3,a5,bb96 <__subsf3+0x1da>
    ba2a:	47ed                	li	a5,27
    ba2c:	2917c763          	blt	a5,a7,bcba <__subsf3+0x2fe>
    ba30:	02000713          	li	a4,32
    ba34:	41170733          	sub	a4,a4,a7
    ba38:	00e51733          	sll	a4,a0,a4
    ba3c:	011557b3          	srl	a5,a0,a7
    ba40:	00e03733          	snez	a4,a4
    ba44:	8fd9                	or	a5,a5,a4
    ba46:	40ff07b3          	sub	a5,t5,a5
    ba4a:	00579713          	slli	a4,a5,0x5
    ba4e:	1a075163          	bgez	a4,bbf0 <__subsf3+0x234>
    ba52:	04000437          	lui	s0,0x4000
    ba56:	147d                	addi	s0,s0,-1
    ba58:	8c7d                	and	s0,s0,a5
    ba5a:	8522                	mv	a0,s0
    ba5c:	2fb1                	jal	c1b8 <__clzsi2>
    ba5e:	156d                	addi	a0,a0,-5
    ba60:	00a417b3          	sll	a5,s0,a0
    ba64:	1b254e63          	blt	a0,s2,bc20 <__subsf3+0x264>
    ba68:	41250533          	sub	a0,a0,s2
    ba6c:	00150413          	addi	s0,a0,1
    ba70:	02000713          	li	a4,32
    ba74:	8f01                	sub	a4,a4,s0
    ba76:	00e79733          	sll	a4,a5,a4
    ba7a:	00e03733          	snez	a4,a4
    ba7e:	0087d7b3          	srl	a5,a5,s0
    ba82:	8fd9                	or	a5,a5,a4
    ba84:	4901                	li	s2,0
    ba86:	0077f713          	andi	a4,a5,7
    ba8a:	c719                	beqz	a4,ba98 <__subsf3+0xdc>
    ba8c:	00f7f713          	andi	a4,a5,15
    ba90:	4691                	li	a3,4
    ba92:	00d70363          	beq	a4,a3,ba98 <__subsf3+0xdc>
    ba96:	0791                	addi	a5,a5,4
    ba98:	00579713          	slli	a4,a5,0x5
    ba9c:	14075e63          	bgez	a4,bbf8 <__subsf3+0x23c>
    baa0:	00190693          	addi	a3,s2,1 # 800001 <_data_lma+0x7f2065>
    baa4:	0ff00713          	li	a4,255
    baa8:	0014fe93          	andi	t4,s1,1
    baac:	16e68663          	beq	a3,a4,bc18 <__subsf3+0x25c>
    bab0:	079a                	slli	a5,a5,0x6
    bab2:	83a5                	srli	a5,a5,0x9
    bab4:	0ff6f693          	andi	a3,a3,255
    bab8:	07a6                	slli	a5,a5,0x9
    baba:	40b2                	lw	ra,12(sp)
    babc:	4422                	lw	s0,8(sp)
    babe:	0097d513          	srli	a0,a5,0x9
    bac2:	06de                	slli	a3,a3,0x17
    bac4:	01fe9793          	slli	a5,t4,0x1f
    bac8:	8d55                	or	a0,a0,a3
    baca:	4492                	lw	s1,4(sp)
    bacc:	4902                	lw	s2,0(sp)
    bace:	8d5d                	or	a0,a0,a5
    bad0:	0141                	addi	sp,sp,16
    bad2:	8082                	ret
    bad4:	0a089263          	bnez	a7,bb78 <__subsf3+0x1bc>
    bad8:	00168713          	addi	a4,a3,1
    badc:	0fe77713          	andi	a4,a4,254
    bae0:	14071b63          	bnez	a4,bc36 <__subsf3+0x27a>
    bae4:	22069463          	bnez	a3,bd0c <__subsf3+0x350>
    bae8:	200f0263          	beqz	t5,bcec <__subsf3+0x330>
    baec:	d571                	beqz	a0,bab8 <__subsf3+0xfc>
    baee:	40af07b3          	sub	a5,t5,a0
    baf2:	00579713          	slli	a4,a5,0x5
    baf6:	22075563          	bgez	a4,bd20 <__subsf3+0x364>
    bafa:	41e507b3          	sub	a5,a0,t5
    bafe:	4901                	li	s2,0
    bb00:	84ae                	mv	s1,a1
    bb02:	b751                	j	ba86 <__subsf3+0xca>
    bb04:	f00500e3          	beqz	a0,ba04 <__subsf3+0x48>
    bb08:	0abe8a63          	beq	t4,a1,bbbc <__subsf3+0x200>
    bb0c:	fd1054e3          	blez	a7,bad4 <__subsf3+0x118>
    bb10:	0ff00793          	li	a5,255
    bb14:	08f68163          	beq	a3,a5,bb96 <__subsf3+0x1da>
    bb18:	040007b7          	lui	a5,0x4000
    bb1c:	8d5d                	or	a0,a0,a5
    bb1e:	b731                	j	ba2a <__subsf3+0x6e>
    bb20:	09105e63          	blez	a7,bbbc <__subsf3+0x200>
    bb24:	08080163          	beqz	a6,bba6 <__subsf3+0x1ea>
    bb28:	0ff00793          	li	a5,255
    bb2c:	06f68563          	beq	a3,a5,bb96 <__subsf3+0x1da>
    bb30:	040007b7          	lui	a5,0x4000
    bb34:	8d5d                	or	a0,a0,a5
    bb36:	47ed                	li	a5,27
    bb38:	1f17c063          	blt	a5,a7,bd18 <__subsf3+0x35c>
    bb3c:	02000713          	li	a4,32
    bb40:	41170733          	sub	a4,a4,a7
    bb44:	00e51733          	sll	a4,a0,a4
    bb48:	011557b3          	srl	a5,a0,a7
    bb4c:	00e03733          	snez	a4,a4
    bb50:	8fd9                	or	a5,a5,a4
    bb52:	97fa                	add	a5,a5,t5
    bb54:	00579713          	slli	a4,a5,0x5
    bb58:	08075c63          	bgez	a4,bbf0 <__subsf3+0x234>
    bb5c:	0905                	addi	s2,s2,1
    bb5e:	0ff00713          	li	a4,255
    bb62:	0ae90b63          	beq	s2,a4,bc18 <__subsf3+0x25c>
    bb66:	7e0006b7          	lui	a3,0x7e000
    bb6a:	0017d713          	srli	a4,a5,0x1
    bb6e:	16fd                	addi	a3,a3,-1
    bb70:	8b85                	andi	a5,a5,1
    bb72:	8f75                	and	a4,a4,a3
    bb74:	8fd9                	or	a5,a5,a4
    bb76:	bf01                	j	ba86 <__subsf3+0xca>
    bb78:	40d80733          	sub	a4,a6,a3
    bb7c:	10069563          	bnez	a3,bc86 <__subsf3+0x2ca>
    bb80:	140f0d63          	beqz	t5,bcda <__subsf3+0x31e>
    bb84:	177d                	addi	a4,a4,-1
    bb86:	1a070363          	beqz	a4,bd2c <__subsf3+0x370>
    bb8a:	0ff00793          	li	a5,255
    bb8e:	10f81463          	bne	a6,a5,bc96 <__subsf3+0x2da>
    bb92:	84ae                	mv	s1,a1
    bb94:	8e32                	mv	t3,a2
    bb96:	060e0f63          	beqz	t3,bc14 <__subsf3+0x258>
    bb9a:	4e81                	li	t4,0
    bb9c:	0ff00693          	li	a3,255
    bba0:	004007b7          	lui	a5,0x400
    bba4:	bf11                	j	bab8 <__subsf3+0xfc>
    bba6:	c939                	beqz	a0,bbfc <__subsf3+0x240>
    bba8:	18fd                	addi	a7,a7,-1
    bbaa:	00af07b3          	add	a5,t5,a0
    bbae:	fa0883e3          	beqz	a7,bb54 <__subsf3+0x198>
    bbb2:	0ff00793          	li	a5,255
    bbb6:	f8f690e3          	bne	a3,a5,bb36 <__subsf3+0x17a>
    bbba:	bff1                	j	bb96 <__subsf3+0x1da>
    bbbc:	08089963          	bnez	a7,bc4e <__subsf3+0x292>
    bbc0:	00168913          	addi	s2,a3,1 # 7e000001 <__freertos_irq_stack_top+0x5dffb001>
    bbc4:	0fe97713          	andi	a4,s2,254
    bbc8:	12071663          	bnez	a4,bcf4 <__subsf3+0x338>
    bbcc:	10069b63          	bnez	a3,bce2 <__subsf3+0x326>
    bbd0:	160f0363          	beqz	t5,bd36 <__subsf3+0x37a>
    bbd4:	ee0502e3          	beqz	a0,bab8 <__subsf3+0xfc>
    bbd8:	00af07b3          	add	a5,t5,a0
    bbdc:	00579713          	slli	a4,a5,0x5
    bbe0:	4901                	li	s2,0
    bbe2:	00075763          	bgez	a4,bbf0 <__subsf3+0x234>
    bbe6:	fc000737          	lui	a4,0xfc000
    bbea:	177d                	addi	a4,a4,-1
    bbec:	8ff9                	and	a5,a5,a4
    bbee:	4905                	li	s2,1
    bbf0:	0077f713          	andi	a4,a5,7
    bbf4:	e8071ce3          	bnez	a4,ba8c <__subsf3+0xd0>
    bbf8:	0037de13          	srli	t3,a5,0x3
    bbfc:	0ff00793          	li	a5,255
    bc00:	f8f90be3          	beq	s2,a5,bb96 <__subsf3+0x1da>
    bc04:	009e1793          	slli	a5,t3,0x9
    bc08:	83a5                	srli	a5,a5,0x9
    bc0a:	0ff97693          	andi	a3,s2,255
    bc0e:	0014fe93          	andi	t4,s1,1
    bc12:	b55d                	j	bab8 <__subsf3+0xfc>
    bc14:	0014fe93          	andi	t4,s1,1
    bc18:	0ff00693          	li	a3,255
    bc1c:	4781                	li	a5,0
    bc1e:	bd69                	j	bab8 <__subsf3+0xfc>
    bc20:	fc000737          	lui	a4,0xfc000
    bc24:	177d                	addi	a4,a4,-1
    bc26:	8ff9                	and	a5,a5,a4
    bc28:	0077f713          	andi	a4,a5,7
    bc2c:	40a90933          	sub	s2,s2,a0
    bc30:	e4071ee3          	bnez	a4,ba8c <__subsf3+0xd0>
    bc34:	b7d1                	j	bbf8 <__subsf3+0x23c>
    bc36:	40af0433          	sub	s0,t5,a0
    bc3a:	00541793          	slli	a5,s0,0x5
    bc3e:	0c07c363          	bltz	a5,bd04 <__subsf3+0x348>
    bc42:	e0041ce3          	bnez	s0,ba5a <__subsf3+0x9e>
    bc46:	4e81                	li	t4,0
    bc48:	4681                	li	a3,0
    bc4a:	4781                	li	a5,0
    bc4c:	b5b5                	j	bab8 <__subsf3+0xfc>
    bc4e:	40d80733          	sub	a4,a6,a3
    bc52:	c6b5                	beqz	a3,bcbe <__subsf3+0x302>
    bc54:	0ff00793          	li	a5,255
    bc58:	f2f80ee3          	beq	a6,a5,bb94 <__subsf3+0x1d8>
    bc5c:	040007b7          	lui	a5,0x4000
    bc60:	00ff6f33          	or	t5,t5,a5
    bc64:	47ed                	li	a5,27
    bc66:	0ce7cd63          	blt	a5,a4,bd40 <__subsf3+0x384>
    bc6a:	02000793          	li	a5,32
    bc6e:	8f99                	sub	a5,a5,a4
    bc70:	00ff17b3          	sll	a5,t5,a5
    bc74:	00ef5733          	srl	a4,t5,a4
    bc78:	00f037b3          	snez	a5,a5
    bc7c:	8f5d                	or	a4,a4,a5
    bc7e:	00a707b3          	add	a5,a4,a0
    bc82:	8942                	mv	s2,a6
    bc84:	bdc1                	j	bb54 <__subsf3+0x198>
    bc86:	0ff00793          	li	a5,255
    bc8a:	f0f804e3          	beq	a6,a5,bb92 <__subsf3+0x1d6>
    bc8e:	040007b7          	lui	a5,0x4000
    bc92:	00ff6f33          	or	t5,t5,a5
    bc96:	47ed                	li	a5,27
    bc98:	08e7c263          	blt	a5,a4,bd1c <__subsf3+0x360>
    bc9c:	02000793          	li	a5,32
    bca0:	8f99                	sub	a5,a5,a4
    bca2:	00ff17b3          	sll	a5,t5,a5
    bca6:	00ef5733          	srl	a4,t5,a4
    bcaa:	00f037b3          	snez	a5,a5
    bcae:	8fd9                	or	a5,a5,a4
    bcb0:	40f507b3          	sub	a5,a0,a5
    bcb4:	8942                	mv	s2,a6
    bcb6:	84ae                	mv	s1,a1
    bcb8:	bb49                	j	ba4a <__subsf3+0x8e>
    bcba:	4785                	li	a5,1
    bcbc:	b369                	j	ba46 <__subsf3+0x8a>
    bcbe:	060f0e63          	beqz	t5,bd3a <__subsf3+0x37e>
    bcc2:	177d                	addi	a4,a4,-1
    bcc4:	00af07b3          	add	a5,t5,a0
    bcc8:	8942                	mv	s2,a6
    bcca:	e80705e3          	beqz	a4,bb54 <__subsf3+0x198>
    bcce:	0ff00793          	li	a5,255
    bcd2:	f8f819e3          	bne	a6,a5,bc64 <__subsf3+0x2a8>
    bcd6:	8e32                	mv	t3,a2
    bcd8:	bd7d                	j	bb96 <__subsf3+0x1da>
    bcda:	8e32                	mv	t3,a2
    bcdc:	8942                	mv	s2,a6
    bcde:	84ae                	mv	s1,a1
    bce0:	bf31                	j	bbfc <__subsf3+0x240>
    bce2:	ea0f09e3          	beqz	t5,bb94 <__subsf3+0x1d8>
    bce6:	ea0508e3          	beqz	a0,bb96 <__subsf3+0x1da>
    bcea:	bd45                	j	bb9a <__subsf3+0x1de>
    bcec:	cd0d                	beqz	a0,bd26 <__subsf3+0x36a>
    bcee:	8eae                	mv	t4,a1
    bcf0:	87b2                	mv	a5,a2
    bcf2:	b3d9                	j	bab8 <__subsf3+0xfc>
    bcf4:	0ff00793          	li	a5,255
    bcf8:	f2f900e3          	beq	s2,a5,bc18 <__subsf3+0x25c>
    bcfc:	00af07b3          	add	a5,t5,a0
    bd00:	8385                	srli	a5,a5,0x1
    bd02:	b5fd                	j	bbf0 <__subsf3+0x234>
    bd04:	41e50433          	sub	s0,a0,t5
    bd08:	84ae                	mv	s1,a1
    bd0a:	bb81                	j	ba5a <__subsf3+0x9e>
    bd0c:	fc0f1de3          	bnez	t5,bce6 <__subsf3+0x32a>
    bd10:	e80505e3          	beqz	a0,bb9a <__subsf3+0x1de>
    bd14:	84ae                	mv	s1,a1
    bd16:	bdbd                	j	bb94 <__subsf3+0x1d8>
    bd18:	4785                	li	a5,1
    bd1a:	bd25                	j	bb52 <__subsf3+0x196>
    bd1c:	4785                	li	a5,1
    bd1e:	bf49                	j	bcb0 <__subsf3+0x2f4>
    bd20:	4901                	li	s2,0
    bd22:	ec0797e3          	bnez	a5,bbf0 <__subsf3+0x234>
    bd26:	4e81                	li	t4,0
    bd28:	4781                	li	a5,0
    bd2a:	b379                	j	bab8 <__subsf3+0xfc>
    bd2c:	41e507b3          	sub	a5,a0,t5
    bd30:	8942                	mv	s2,a6
    bd32:	84ae                	mv	s1,a1
    bd34:	bb19                	j	ba4a <__subsf3+0x8e>
    bd36:	87b2                	mv	a5,a2
    bd38:	b341                	j	bab8 <__subsf3+0xfc>
    bd3a:	8e32                	mv	t3,a2
    bd3c:	8942                	mv	s2,a6
    bd3e:	bd7d                	j	bbfc <__subsf3+0x240>
    bd40:	4705                	li	a4,1
    bd42:	bf35                	j	bc7e <__subsf3+0x2c2>

0000bd44 <__fixunssfsi>:
    bd44:	01755713          	srli	a4,a0,0x17
    bd48:	00800637          	lui	a2,0x800
    bd4c:	fff60793          	addi	a5,a2,-1 # 7fffff <_data_lma+0x7f2063>
    bd50:	0ff77713          	andi	a4,a4,255
    bd54:	07e00593          	li	a1,126
    bd58:	00a7f6b3          	and	a3,a5,a0
    bd5c:	01f55793          	srli	a5,a0,0x1f
    bd60:	4501                	li	a0,0
    bd62:	00e5f463          	bgeu	a1,a4,bd6a <__fixunssfsi+0x26>
    bd66:	c399                	beqz	a5,bd6c <__fixunssfsi+0x28>
    bd68:	8082                	ret
    bd6a:	8082                	ret
    bd6c:	09e00793          	li	a5,158
    bd70:	557d                	li	a0,-1
    bd72:	fee7ebe3          	bltu	a5,a4,bd68 <__fixunssfsi+0x24>
    bd76:	09500593          	li	a1,149
    bd7a:	00c6e7b3          	or	a5,a3,a2
    bd7e:	00e5d763          	bge	a1,a4,bd8c <__fixunssfsi+0x48>
    bd82:	f6a70713          	addi	a4,a4,-150 # fbffff6a <__freertos_irq_stack_top+0xdbffaf6a>
    bd86:	00e79533          	sll	a0,a5,a4
    bd8a:	8082                	ret
    bd8c:	09600513          	li	a0,150
    bd90:	40e50733          	sub	a4,a0,a4
    bd94:	00e7d533          	srl	a0,a5,a4
    bd98:	8082                	ret

0000bd9a <__floatsisf>:
    bd9a:	1141                	addi	sp,sp,-16
    bd9c:	c606                	sw	ra,12(sp)
    bd9e:	c422                	sw	s0,8(sp)
    bda0:	c226                	sw	s1,4(sp)
    bda2:	cd0d                	beqz	a0,bddc <__floatsisf+0x42>
    bda4:	41f55793          	srai	a5,a0,0x1f
    bda8:	00a7c433          	xor	s0,a5,a0
    bdac:	8c1d                	sub	s0,s0,a5
    bdae:	84aa                	mv	s1,a0
    bdb0:	8522                	mv	a0,s0
    bdb2:	2119                	jal	c1b8 <__clzsi2>
    bdb4:	09e00793          	li	a5,158
    bdb8:	40a78733          	sub	a4,a5,a0
    bdbc:	09600793          	li	a5,150
    bdc0:	80fd                	srli	s1,s1,0x1f
    bdc2:	02e7cc63          	blt	a5,a4,bdfa <__floatsisf+0x60>
    bdc6:	46a1                	li	a3,8
    bdc8:	0ff77793          	andi	a5,a4,255
    bdcc:	00a6d563          	bge	a3,a0,bdd6 <__floatsisf+0x3c>
    bdd0:	1561                	addi	a0,a0,-8
    bdd2:	00a41433          	sll	s0,s0,a0
    bdd6:	0426                	slli	s0,s0,0x9
    bdd8:	8025                	srli	s0,s0,0x9
    bdda:	a021                	j	bde2 <__floatsisf+0x48>
    bddc:	4481                	li	s1,0
    bdde:	4781                	li	a5,0
    bde0:	4401                	li	s0,0
    bde2:	0426                	slli	s0,s0,0x9
    bde4:	00945513          	srli	a0,s0,0x9
    bde8:	40b2                	lw	ra,12(sp)
    bdea:	4422                	lw	s0,8(sp)
    bdec:	07de                	slli	a5,a5,0x17
    bdee:	04fe                	slli	s1,s1,0x1f
    bdf0:	8d5d                	or	a0,a0,a5
    bdf2:	8d45                	or	a0,a0,s1
    bdf4:	4492                	lw	s1,4(sp)
    bdf6:	0141                	addi	sp,sp,16
    bdf8:	8082                	ret
    bdfa:	09900793          	li	a5,153
    bdfe:	00e7dd63          	bge	a5,a4,be18 <__floatsisf+0x7e>
    be02:	01b50793          	addi	a5,a0,27
    be06:	4695                	li	a3,5
    be08:	00f417b3          	sll	a5,s0,a5
    be0c:	8e89                	sub	a3,a3,a0
    be0e:	00d45433          	srl	s0,s0,a3
    be12:	00f037b3          	snez	a5,a5
    be16:	8c5d                	or	s0,s0,a5
    be18:	4795                	li	a5,5
    be1a:	00a7d663          	bge	a5,a0,be26 <__floatsisf+0x8c>
    be1e:	ffb50793          	addi	a5,a0,-5
    be22:	00f41433          	sll	s0,s0,a5
    be26:	fc0006b7          	lui	a3,0xfc000
    be2a:	16fd                	addi	a3,a3,-1
    be2c:	00747793          	andi	a5,s0,7
    be30:	00d47633          	and	a2,s0,a3
    be34:	c385                	beqz	a5,be54 <__floatsisf+0xba>
    be36:	00f47793          	andi	a5,s0,15
    be3a:	4591                	li	a1,4
    be3c:	00b78c63          	beq	a5,a1,be54 <__floatsisf+0xba>
    be40:	0611                	addi	a2,a2,4
    be42:	00561793          	slli	a5,a2,0x5
    be46:	0007d763          	bgez	a5,be54 <__floatsisf+0xba>
    be4a:	09f00793          	li	a5,159
    be4e:	8e75                	and	a2,a2,a3
    be50:	40a78733          	sub	a4,a5,a0
    be54:	00661413          	slli	s0,a2,0x6
    be58:	8025                	srli	s0,s0,0x9
    be5a:	0ff77793          	andi	a5,a4,255
    be5e:	b751                	j	bde2 <__floatsisf+0x48>

0000be60 <__floatdisf>:
    be60:	1141                	addi	sp,sp,-16
    be62:	c606                	sw	ra,12(sp)
    be64:	c422                	sw	s0,8(sp)
    be66:	c226                	sw	s1,4(sp)
    be68:	c04a                	sw	s2,0(sp)
    be6a:	00b567b3          	or	a5,a0,a1
    be6e:	c7b1                	beqz	a5,beba <__floatdisf+0x5a>
    be70:	842e                	mv	s0,a1
    be72:	84aa                	mv	s1,a0
    be74:	01f5d913          	srli	s2,a1,0x1f
    be78:	0605c263          	bltz	a1,bedc <__floatdisf+0x7c>
    be7c:	c82d                	beqz	s0,beee <__floatdisf+0x8e>
    be7e:	8522                	mv	a0,s0
    be80:	2e25                	jal	c1b8 <__clzsi2>
    be82:	0be00713          	li	a4,190
    be86:	8f09                	sub	a4,a4,a0
    be88:	02500613          	li	a2,37
    be8c:	40a607b3          	sub	a5,a2,a0
    be90:	fe078613          	addi	a2,a5,-32 # 3ffffe0 <_data_lma+0x3ff2044>
    be94:	0c064d63          	bltz	a2,bf6e <__floatdisf+0x10e>
    be98:	00c45633          	srl	a2,s0,a2
    be9c:	ffb50593          	addi	a1,a0,-5
    bea0:	01b50693          	addi	a3,a0,27
    bea4:	0c05cf63          	bltz	a1,bf82 <__floatdisf+0x122>
    bea8:	00b49433          	sll	s0,s1,a1
    beac:	4681                	li	a3,0
    beae:	8ec1                	or	a3,a3,s0
    beb0:	00d036b3          	snez	a3,a3
    beb4:	00d664b3          	or	s1,a2,a3
    beb8:	a899                	j	bf0e <__floatdisf+0xae>
    beba:	4901                	li	s2,0
    bebc:	4701                	li	a4,0
    bebe:	4501                	li	a0,0
    bec0:	40b2                	lw	ra,12(sp)
    bec2:	4422                	lw	s0,8(sp)
    bec4:	0526                	slli	a0,a0,0x9
    bec6:	01771793          	slli	a5,a4,0x17
    beca:	8125                	srli	a0,a0,0x9
    becc:	01f91713          	slli	a4,s2,0x1f
    bed0:	8d5d                	or	a0,a0,a5
    bed2:	4492                	lw	s1,4(sp)
    bed4:	4902                	lw	s2,0(sp)
    bed6:	8d59                	or	a0,a0,a4
    bed8:	0141                	addi	sp,sp,16
    beda:	8082                	ret
    bedc:	40a00533          	neg	a0,a0
    bee0:	00a037b3          	snez	a5,a0
    bee4:	40b00433          	neg	s0,a1
    bee8:	8c1d                	sub	s0,s0,a5
    beea:	84aa                	mv	s1,a0
    beec:	f849                	bnez	s0,be7e <__floatdisf+0x1e>
    beee:	8526                	mv	a0,s1
    bef0:	24e1                	jal	c1b8 <__clzsi2>
    bef2:	87aa                	mv	a5,a0
    bef4:	0be00713          	li	a4,190
    bef8:	02050513          	addi	a0,a0,32
    befc:	8f09                	sub	a4,a4,a0
    befe:	09600693          	li	a3,150
    bf02:	04e6da63          	bge	a3,a4,bf56 <__floatdisf+0xf6>
    bf06:	09900793          	li	a5,153
    bf0a:	f6e7cfe3          	blt	a5,a4,be88 <__floatdisf+0x28>
    bf0e:	02500793          	li	a5,37
    bf12:	86a6                	mv	a3,s1
    bf14:	00a7d663          	bge	a5,a0,bf20 <__floatdisf+0xc0>
    bf18:	fdb50793          	addi	a5,a0,-37
    bf1c:	00f496b3          	sll	a3,s1,a5
    bf20:	fc000637          	lui	a2,0xfc000
    bf24:	167d                	addi	a2,a2,-1
    bf26:	0076f593          	andi	a1,a3,7
    bf2a:	00c6f7b3          	and	a5,a3,a2
    bf2e:	cd91                	beqz	a1,bf4a <__floatdisf+0xea>
    bf30:	8abd                	andi	a3,a3,15
    bf32:	4591                	li	a1,4
    bf34:	00b68b63          	beq	a3,a1,bf4a <__floatdisf+0xea>
    bf38:	0791                	addi	a5,a5,4
    bf3a:	00579693          	slli	a3,a5,0x5
    bf3e:	0006d663          	bgez	a3,bf4a <__floatdisf+0xea>
    bf42:	0bf00713          	li	a4,191
    bf46:	8ff1                	and	a5,a5,a2
    bf48:	8f09                	sub	a4,a4,a0
    bf4a:	00679513          	slli	a0,a5,0x6
    bf4e:	8125                	srli	a0,a0,0x9
    bf50:	0ff77713          	andi	a4,a4,255
    bf54:	b7b5                	j	bec0 <__floatdisf+0x60>
    bf56:	02800693          	li	a3,40
    bf5a:	17e1                	addi	a5,a5,-8
    bf5c:	0ff77713          	andi	a4,a4,255
    bf60:	02a6dd63          	bge	a3,a0,bf9a <__floatdisf+0x13a>
    bf64:	00f49533          	sll	a0,s1,a5
    bf68:	0526                	slli	a0,a0,0x9
    bf6a:	8125                	srli	a0,a0,0x9
    bf6c:	bf91                	j	bec0 <__floatdisf+0x60>
    bf6e:	467d                	li	a2,31
    bf70:	8e1d                	sub	a2,a2,a5
    bf72:	00141693          	slli	a3,s0,0x1
    bf76:	00c696b3          	sll	a3,a3,a2
    bf7a:	00f4d633          	srl	a2,s1,a5
    bf7e:	8e55                	or	a2,a2,a3
    bf80:	bf31                	j	be9c <__floatdisf+0x3c>
    bf82:	45fd                	li	a1,31
    bf84:	8d95                	sub	a1,a1,a3
    bf86:	0014d793          	srli	a5,s1,0x1
    bf8a:	00d41433          	sll	s0,s0,a3
    bf8e:	00b7d7b3          	srl	a5,a5,a1
    bf92:	8c5d                	or	s0,s0,a5
    bf94:	00d496b3          	sll	a3,s1,a3
    bf98:	bf19                	j	beae <__floatdisf+0x4e>
    bf9a:	00949513          	slli	a0,s1,0x9
    bf9e:	8125                	srli	a0,a0,0x9
    bfa0:	b705                	j	bec0 <__floatdisf+0x60>

0000bfa2 <__extendsfdf2>:
    bfa2:	01755713          	srli	a4,a0,0x17
    bfa6:	0ff77713          	andi	a4,a4,255
    bfaa:	1141                	addi	sp,sp,-16
    bfac:	00170793          	addi	a5,a4,1
    bfb0:	c422                	sw	s0,8(sp)
    bfb2:	c226                	sw	s1,4(sp)
    bfb4:	00951413          	slli	s0,a0,0x9
    bfb8:	c606                	sw	ra,12(sp)
    bfba:	0fe7f793          	andi	a5,a5,254
    bfbe:	8025                	srli	s0,s0,0x9
    bfc0:	01f55493          	srli	s1,a0,0x1f
    bfc4:	c785                	beqz	a5,bfec <__extendsfdf2+0x4a>
    bfc6:	00345793          	srli	a5,s0,0x3
    bfca:	38070713          	addi	a4,a4,896
    bfce:	0476                	slli	s0,s0,0x1d
    bfd0:	07b2                	slli	a5,a5,0xc
    bfd2:	0752                	slli	a4,a4,0x14
    bfd4:	83b1                	srli	a5,a5,0xc
    bfd6:	01f49513          	slli	a0,s1,0x1f
    bfda:	8fd9                	or	a5,a5,a4
    bfdc:	8fc9                	or	a5,a5,a0
    bfde:	40b2                	lw	ra,12(sp)
    bfe0:	8522                	mv	a0,s0
    bfe2:	4422                	lw	s0,8(sp)
    bfe4:	4492                	lw	s1,4(sp)
    bfe6:	85be                	mv	a1,a5
    bfe8:	0141                	addi	sp,sp,16
    bfea:	8082                	ret
    bfec:	eb05                	bnez	a4,c01c <__extendsfdf2+0x7a>
    bfee:	c439                	beqz	s0,c03c <__extendsfdf2+0x9a>
    bff0:	8522                	mv	a0,s0
    bff2:	22d9                	jal	c1b8 <__clzsi2>
    bff4:	47a9                	li	a5,10
    bff6:	04a7c663          	blt	a5,a0,c042 <__extendsfdf2+0xa0>
    bffa:	472d                	li	a4,11
    bffc:	8f09                	sub	a4,a4,a0
    bffe:	01550793          	addi	a5,a0,21
    c002:	00e45733          	srl	a4,s0,a4
    c006:	00f41433          	sll	s0,s0,a5
    c00a:	00c71793          	slli	a5,a4,0xc
    c00e:	38900713          	li	a4,905
    c012:	8f09                	sub	a4,a4,a0
    c014:	83b1                	srli	a5,a5,0xc
    c016:	7ff77713          	andi	a4,a4,2047
    c01a:	bf5d                	j	bfd0 <__extendsfdf2+0x2e>
    c01c:	cc01                	beqz	s0,c034 <__extendsfdf2+0x92>
    c01e:	00345713          	srli	a4,s0,0x3
    c022:	000807b7          	lui	a5,0x80
    c026:	8fd9                	or	a5,a5,a4
    c028:	07b2                	slli	a5,a5,0xc
    c02a:	0476                	slli	s0,s0,0x1d
    c02c:	83b1                	srli	a5,a5,0xc
    c02e:	7ff00713          	li	a4,2047
    c032:	bf79                	j	bfd0 <__extendsfdf2+0x2e>
    c034:	7ff00713          	li	a4,2047
    c038:	4781                	li	a5,0
    c03a:	bf59                	j	bfd0 <__extendsfdf2+0x2e>
    c03c:	4701                	li	a4,0
    c03e:	4781                	li	a5,0
    c040:	bf41                	j	bfd0 <__extendsfdf2+0x2e>
    c042:	ff550713          	addi	a4,a0,-11
    c046:	00e41733          	sll	a4,s0,a4
    c04a:	4401                	li	s0,0
    c04c:	bf7d                	j	c00a <__extendsfdf2+0x68>

0000c04e <__truncdfsf2>:
    c04e:	0145d693          	srli	a3,a1,0x14
    c052:	00c59793          	slli	a5,a1,0xc
    c056:	7ff6f693          	andi	a3,a3,2047
    c05a:	83b1                	srli	a5,a5,0xc
    c05c:	00168613          	addi	a2,a3,1 # fc000001 <__freertos_irq_stack_top+0xdbffb001>
    c060:	078e                	slli	a5,a5,0x3
    c062:	01d55713          	srli	a4,a0,0x1d
    c066:	7fe67613          	andi	a2,a2,2046
    c06a:	81fd                	srli	a1,a1,0x1f
    c06c:	8f5d                	or	a4,a4,a5
    c06e:	00351893          	slli	a7,a0,0x3
    c072:	ce35                	beqz	a2,c0ee <__truncdfsf2+0xa0>
    c074:	c8068813          	addi	a6,a3,-896
    c078:	0fe00793          	li	a5,254
    c07c:	0107dd63          	bge	a5,a6,c096 <__truncdfsf2+0x48>
    c080:	4781                	li	a5,0
    c082:	00979513          	slli	a0,a5,0x9
    c086:	0ff00693          	li	a3,255
    c08a:	06de                	slli	a3,a3,0x17
    c08c:	8125                	srli	a0,a0,0x9
    c08e:	05fe                	slli	a1,a1,0x1f
    c090:	8d55                	or	a0,a0,a3
    c092:	8d4d                	or	a0,a0,a1
    c094:	8082                	ret
    c096:	0b005563          	blez	a6,c140 <__truncdfsf2+0xf2>
    c09a:	00651793          	slli	a5,a0,0x6
    c09e:	070e                	slli	a4,a4,0x3
    c0a0:	00f037b3          	snez	a5,a5
    c0a4:	8fd9                	or	a5,a5,a4
    c0a6:	01d8d893          	srli	a7,a7,0x1d
    c0aa:	0117e7b3          	or	a5,a5,a7
    c0ae:	0077f713          	andi	a4,a5,7
    c0b2:	10070163          	beqz	a4,c1b4 <__truncdfsf2+0x166>
    c0b6:	00f7f713          	andi	a4,a5,15
    c0ba:	4691                	li	a3,4
    c0bc:	00d70363          	beq	a4,a3,c0c2 <__truncdfsf2+0x74>
    c0c0:	0791                	addi	a5,a5,4
    c0c2:	04000737          	lui	a4,0x4000
    c0c6:	8f7d                	and	a4,a4,a5
    c0c8:	c775                	beqz	a4,c1b4 <__truncdfsf2+0x166>
    c0ca:	00180713          	addi	a4,a6,1
    c0ce:	0ff00613          	li	a2,255
    c0d2:	0ff77693          	andi	a3,a4,255
    c0d6:	fac705e3          	beq	a4,a2,c080 <__truncdfsf2+0x32>
    c0da:	079a                	slli	a5,a5,0x6
    c0dc:	83a5                	srli	a5,a5,0x9
    c0de:	00979513          	slli	a0,a5,0x9
    c0e2:	06de                	slli	a3,a3,0x17
    c0e4:	8125                	srli	a0,a0,0x9
    c0e6:	05fe                	slli	a1,a1,0x1f
    c0e8:	8d55                	or	a0,a0,a3
    c0ea:	8d4d                	or	a0,a0,a1
    c0ec:	8082                	ret
    c0ee:	011767b3          	or	a5,a4,a7
    c0f2:	ee99                	bnez	a3,c110 <__truncdfsf2+0xc2>
    c0f4:	cf85                	beqz	a5,c12c <__truncdfsf2+0xde>
    c0f6:	4795                	li	a5,5
    c0f8:	079a                	slli	a5,a5,0x6
    c0fa:	83a5                	srli	a5,a5,0x9
    c0fc:	00979513          	slli	a0,a5,0x9
    c100:	0ff6f693          	andi	a3,a3,255
    c104:	06de                	slli	a3,a3,0x17
    c106:	8125                	srli	a0,a0,0x9
    c108:	05fe                	slli	a1,a1,0x1f
    c10a:	8d55                	or	a0,a0,a3
    c10c:	8d4d                	or	a0,a0,a1
    c10e:	8082                	ret
    c110:	dba5                	beqz	a5,c080 <__truncdfsf2+0x32>
    c112:	004007b7          	lui	a5,0x400
    c116:	00979513          	slli	a0,a5,0x9
    c11a:	0ff00693          	li	a3,255
    c11e:	06de                	slli	a3,a3,0x17
    c120:	4581                	li	a1,0
    c122:	8125                	srli	a0,a0,0x9
    c124:	05fe                	slli	a1,a1,0x1f
    c126:	8d55                	or	a0,a0,a3
    c128:	8d4d                	or	a0,a0,a1
    c12a:	8082                	ret
    c12c:	4781                	li	a5,0
    c12e:	00979513          	slli	a0,a5,0x9
    c132:	4681                	li	a3,0
    c134:	06de                	slli	a3,a3,0x17
    c136:	8125                	srli	a0,a0,0x9
    c138:	05fe                	slli	a1,a1,0x1f
    c13a:	8d55                	or	a0,a0,a3
    c13c:	8d4d                	or	a0,a0,a1
    c13e:	8082                	ret
    c140:	57a5                	li	a5,-23
    c142:	04f84863          	blt	a6,a5,c192 <__truncdfsf2+0x144>
    c146:	47f9                	li	a5,30
    c148:	00800637          	lui	a2,0x800
    c14c:	410787b3          	sub	a5,a5,a6
    c150:	457d                	li	a0,31
    c152:	8e59                	or	a2,a2,a4
    c154:	04f55163          	bge	a0,a5,c196 <__truncdfsf2+0x148>
    c158:	5779                	li	a4,-2
    c15a:	41070733          	sub	a4,a4,a6
    c15e:	02000513          	li	a0,32
    c162:	00e65733          	srl	a4,a2,a4
    c166:	00a78863          	beq	a5,a0,c176 <__truncdfsf2+0x128>
    c16a:	ca268693          	addi	a3,a3,-862
    c16e:	00d616b3          	sll	a3,a2,a3
    c172:	00d8e8b3          	or	a7,a7,a3
    c176:	011037b3          	snez	a5,a7
    c17a:	8fd9                	or	a5,a5,a4
    c17c:	0077f713          	andi	a4,a5,7
    c180:	4801                	li	a6,0
    c182:	fb15                	bnez	a4,c0b6 <__truncdfsf2+0x68>
    c184:	00579713          	slli	a4,a5,0x5
    c188:	4685                	li	a3,1
    c18a:	f40748e3          	bltz	a4,c0da <__truncdfsf2+0x8c>
    c18e:	4681                	li	a3,0
    c190:	b7a5                	j	c0f8 <__truncdfsf2+0xaa>
    c192:	4681                	li	a3,0
    c194:	b78d                	j	c0f6 <__truncdfsf2+0xa8>
    c196:	c8268693          	addi	a3,a3,-894
    c19a:	00d89733          	sll	a4,a7,a3
    c19e:	00e03733          	snez	a4,a4
    c1a2:	00d616b3          	sll	a3,a2,a3
    c1a6:	00f8d8b3          	srl	a7,a7,a5
    c1aa:	00d767b3          	or	a5,a4,a3
    c1ae:	00f8e7b3          	or	a5,a7,a5
    c1b2:	b7e9                	j	c17c <__truncdfsf2+0x12e>
    c1b4:	86c2                	mv	a3,a6
    c1b6:	b789                	j	c0f8 <__truncdfsf2+0xaa>

0000c1b8 <__clzsi2>:
    c1b8:	67c1                	lui	a5,0x10
    c1ba:	02f57e63          	bgeu	a0,a5,c1f6 <__clzsi2+0x3e>
    c1be:	0ff00793          	li	a5,255
    c1c2:	02000713          	li	a4,32
    c1c6:	00a7ec63          	bltu	a5,a0,c1de <__clzsi2+0x26>
    c1ca:	00002797          	auipc	a5,0x2
    c1ce:	c3678793          	addi	a5,a5,-970 # de00 <__clz_tab>
    c1d2:	97aa                	add	a5,a5,a0
    c1d4:	0007c503          	lbu	a0,0(a5)
    c1d8:	40a70533          	sub	a0,a4,a0
    c1dc:	8082                	ret
    c1de:	8121                	srli	a0,a0,0x8
    c1e0:	00002797          	auipc	a5,0x2
    c1e4:	c2078793          	addi	a5,a5,-992 # de00 <__clz_tab>
    c1e8:	97aa                	add	a5,a5,a0
    c1ea:	0007c503          	lbu	a0,0(a5)
    c1ee:	4761                	li	a4,24
    c1f0:	40a70533          	sub	a0,a4,a0
    c1f4:	8082                	ret
    c1f6:	010007b7          	lui	a5,0x1000
    c1fa:	00f56e63          	bltu	a0,a5,c216 <__clzsi2+0x5e>
    c1fe:	8161                	srli	a0,a0,0x18
    c200:	00002797          	auipc	a5,0x2
    c204:	c0078793          	addi	a5,a5,-1024 # de00 <__clz_tab>
    c208:	97aa                	add	a5,a5,a0
    c20a:	0007c503          	lbu	a0,0(a5)
    c20e:	4721                	li	a4,8
    c210:	40a70533          	sub	a0,a4,a0
    c214:	8082                	ret
    c216:	8141                	srli	a0,a0,0x10
    c218:	00002797          	auipc	a5,0x2
    c21c:	be878793          	addi	a5,a5,-1048 # de00 <__clz_tab>
    c220:	97aa                	add	a5,a5,a0
    c222:	0007c503          	lbu	a0,0(a5)
    c226:	4741                	li	a4,16
    c228:	40a70533          	sub	a0,a4,a0
    c22c:	8082                	ret

0000c22e <__errno>:
    c22e:	81c18793          	addi	a5,gp,-2020 # 2000009c <_impure_ptr>
    c232:	4388                	lw	a0,0(a5)
    c234:	8082                	ret

0000c236 <malloc>:
    c236:	81c18793          	addi	a5,gp,-2020 # 2000009c <_impure_ptr>
    c23a:	85aa                	mv	a1,a0
    c23c:	4388                	lw	a0,0(a5)
    c23e:	aa8d                	j	c3b0 <_malloc_r>

0000c240 <free>:
    c240:	81c18793          	addi	a5,gp,-2020 # 2000009c <_impure_ptr>
    c244:	85aa                	mv	a1,a0
    c246:	4388                	lw	a0,0(a5)
    c248:	a865                	j	c300 <_free_r>

0000c24a <memcpy>:
    c24a:	00a5c7b3          	xor	a5,a1,a0
    c24e:	8b8d                	andi	a5,a5,3
    c250:	00c50733          	add	a4,a0,a2
    c254:	e781                	bnez	a5,c25c <memcpy+0x12>
    c256:	478d                	li	a5,3
    c258:	00c7ee63          	bltu	a5,a2,c274 <memcpy+0x2a>
    c25c:	87aa                	mv	a5,a0
    c25e:	0ae57063          	bgeu	a0,a4,c2fe <memcpy+0xb4>
    c262:	0005c683          	lbu	a3,0(a1)
    c266:	0785                	addi	a5,a5,1
    c268:	0585                	addi	a1,a1,1
    c26a:	fed78fa3          	sb	a3,-1(a5)
    c26e:	fee7eae3          	bltu	a5,a4,c262 <memcpy+0x18>
    c272:	8082                	ret
    c274:	00357693          	andi	a3,a0,3
    c278:	87aa                	mv	a5,a0
    c27a:	ca91                	beqz	a3,c28e <memcpy+0x44>
    c27c:	0005c683          	lbu	a3,0(a1)
    c280:	0785                	addi	a5,a5,1
    c282:	0585                	addi	a1,a1,1
    c284:	fed78fa3          	sb	a3,-1(a5)
    c288:	0037f693          	andi	a3,a5,3
    c28c:	b7fd                	j	c27a <memcpy+0x30>
    c28e:	ffc77693          	andi	a3,a4,-4
    c292:	fe068613          	addi	a2,a3,-32
    c296:	06c7f063          	bgeu	a5,a2,c2f6 <memcpy+0xac>
    c29a:	0005a383          	lw	t2,0(a1)
    c29e:	0045a283          	lw	t0,4(a1)
    c2a2:	0085af83          	lw	t6,8(a1)
    c2a6:	00c5af03          	lw	t5,12(a1)
    c2aa:	0105ae83          	lw	t4,16(a1)
    c2ae:	0145ae03          	lw	t3,20(a1)
    c2b2:	0185a303          	lw	t1,24(a1)
    c2b6:	01c5a883          	lw	a7,28(a1)
    c2ba:	02458593          	addi	a1,a1,36
    c2be:	0077a023          	sw	t2,0(a5)
    c2c2:	ffc5a803          	lw	a6,-4(a1)
    c2c6:	0057a223          	sw	t0,4(a5)
    c2ca:	01f7a423          	sw	t6,8(a5)
    c2ce:	01e7a623          	sw	t5,12(a5)
    c2d2:	01d7a823          	sw	t4,16(a5)
    c2d6:	01c7aa23          	sw	t3,20(a5)
    c2da:	0067ac23          	sw	t1,24(a5)
    c2de:	0117ae23          	sw	a7,28(a5)
    c2e2:	02478793          	addi	a5,a5,36
    c2e6:	ff07ae23          	sw	a6,-4(a5)
    c2ea:	b775                	j	c296 <memcpy+0x4c>
    c2ec:	4190                	lw	a2,0(a1)
    c2ee:	0791                	addi	a5,a5,4
    c2f0:	0591                	addi	a1,a1,4
    c2f2:	fec7ae23          	sw	a2,-4(a5)
    c2f6:	fed7ebe3          	bltu	a5,a3,c2ec <memcpy+0xa2>
    c2fa:	f6e7e4e3          	bltu	a5,a4,c262 <memcpy+0x18>
    c2fe:	8082                	ret

0000c300 <_free_r>:
    c300:	c5dd                	beqz	a1,c3ae <_free_r+0xae>
    c302:	ffc5a783          	lw	a5,-4(a1)
    c306:	1141                	addi	sp,sp,-16
    c308:	c422                	sw	s0,8(sp)
    c30a:	c606                	sw	ra,12(sp)
    c30c:	c226                	sw	s1,4(sp)
    c30e:	ffc58413          	addi	s0,a1,-4
    c312:	0007d363          	bgez	a5,c318 <_free_r+0x18>
    c316:	943e                	add	s0,s0,a5
    c318:	84aa                	mv	s1,a0
    c31a:	175000ef          	jal	ra,cc8e <__malloc_lock>
    c31e:	1fff4797          	auipc	a5,0x1fff4
    c322:	e5678793          	addi	a5,a5,-426 # 20000174 <__malloc_free_list>
    c326:	439c                	lw	a5,0(a5)
    c328:	ef91                	bnez	a5,c344 <_free_r+0x44>
    c32a:	00042223          	sw	zero,4(s0) # 4000004 <_data_lma+0x3ff2068>
    c32e:	1fff4797          	auipc	a5,0x1fff4
    c332:	e487a323          	sw	s0,-442(a5) # 20000174 <__malloc_free_list>
    c336:	4422                	lw	s0,8(sp)
    c338:	40b2                	lw	ra,12(sp)
    c33a:	8526                	mv	a0,s1
    c33c:	4492                	lw	s1,4(sp)
    c33e:	0141                	addi	sp,sp,16
    c340:	1510006f          	j	cc90 <__malloc_unlock>
    c344:	00f47e63          	bgeu	s0,a5,c360 <_free_r+0x60>
    c348:	4014                	lw	a3,0(s0)
    c34a:	00d40733          	add	a4,s0,a3
    c34e:	00e79663          	bne	a5,a4,c35a <_free_r+0x5a>
    c352:	4398                	lw	a4,0(a5)
    c354:	43dc                	lw	a5,4(a5)
    c356:	9736                	add	a4,a4,a3
    c358:	c018                	sw	a4,0(s0)
    c35a:	c05c                	sw	a5,4(s0)
    c35c:	bfc9                	j	c32e <_free_r+0x2e>
    c35e:	87ba                	mv	a5,a4
    c360:	43d8                	lw	a4,4(a5)
    c362:	c319                	beqz	a4,c368 <_free_r+0x68>
    c364:	fee47de3          	bgeu	s0,a4,c35e <_free_r+0x5e>
    c368:	4394                	lw	a3,0(a5)
    c36a:	00d78633          	add	a2,a5,a3
    c36e:	00861f63          	bne	a2,s0,c38c <_free_r+0x8c>
    c372:	4010                	lw	a2,0(s0)
    c374:	96b2                	add	a3,a3,a2
    c376:	c394                	sw	a3,0(a5)
    c378:	00d78633          	add	a2,a5,a3
    c37c:	fac71de3          	bne	a4,a2,c336 <_free_r+0x36>
    c380:	4310                	lw	a2,0(a4)
    c382:	4358                	lw	a4,4(a4)
    c384:	96b2                	add	a3,a3,a2
    c386:	c394                	sw	a3,0(a5)
    c388:	c3d8                	sw	a4,4(a5)
    c38a:	b775                	j	c336 <_free_r+0x36>
    c38c:	00c47563          	bgeu	s0,a2,c396 <_free_r+0x96>
    c390:	47b1                	li	a5,12
    c392:	c09c                	sw	a5,0(s1)
    c394:	b74d                	j	c336 <_free_r+0x36>
    c396:	4010                	lw	a2,0(s0)
    c398:	00c406b3          	add	a3,s0,a2
    c39c:	00d71663          	bne	a4,a3,c3a8 <_free_r+0xa8>
    c3a0:	4314                	lw	a3,0(a4)
    c3a2:	4358                	lw	a4,4(a4)
    c3a4:	96b2                	add	a3,a3,a2
    c3a6:	c014                	sw	a3,0(s0)
    c3a8:	c058                	sw	a4,4(s0)
    c3aa:	c3c0                	sw	s0,4(a5)
    c3ac:	b769                	j	c336 <_free_r+0x36>
    c3ae:	8082                	ret

0000c3b0 <_malloc_r>:
    c3b0:	1101                	addi	sp,sp,-32
    c3b2:	ca26                	sw	s1,20(sp)
    c3b4:	00358493          	addi	s1,a1,3
    c3b8:	98f1                	andi	s1,s1,-4
    c3ba:	ce06                	sw	ra,28(sp)
    c3bc:	cc22                	sw	s0,24(sp)
    c3be:	c84a                	sw	s2,16(sp)
    c3c0:	c64e                	sw	s3,12(sp)
    c3c2:	04a1                	addi	s1,s1,8
    c3c4:	47b1                	li	a5,12
    c3c6:	04f4f963          	bgeu	s1,a5,c418 <_malloc_r+0x68>
    c3ca:	44b1                	li	s1,12
    c3cc:	04b4e863          	bltu	s1,a1,c41c <_malloc_r+0x6c>
    c3d0:	892a                	mv	s2,a0
    c3d2:	0bd000ef          	jal	ra,cc8e <__malloc_lock>
    c3d6:	1fff4797          	auipc	a5,0x1fff4
    c3da:	d9e78793          	addi	a5,a5,-610 # 20000174 <__malloc_free_list>
    c3de:	4398                	lw	a4,0(a5)
    c3e0:	843a                	mv	s0,a4
    c3e2:	e439                	bnez	s0,c430 <_malloc_r+0x80>
    c3e4:	1fff4797          	auipc	a5,0x1fff4
    c3e8:	d9478793          	addi	a5,a5,-620 # 20000178 <__malloc_sbrk_start>
    c3ec:	439c                	lw	a5,0(a5)
    c3ee:	eb81                	bnez	a5,c3fe <_malloc_r+0x4e>
    c3f0:	4581                	li	a1,0
    c3f2:	854a                	mv	a0,s2
    c3f4:	22d9                	jal	c5ba <_sbrk_r>
    c3f6:	1fff4797          	auipc	a5,0x1fff4
    c3fa:	d8a7a123          	sw	a0,-638(a5) # 20000178 <__malloc_sbrk_start>
    c3fe:	85a6                	mv	a1,s1
    c400:	854a                	mv	a0,s2
    c402:	2a65                	jal	c5ba <_sbrk_r>
    c404:	59fd                	li	s3,-1
    c406:	07351b63          	bne	a0,s3,c47c <_malloc_r+0xcc>
    c40a:	47b1                	li	a5,12
    c40c:	00f92023          	sw	a5,0(s2)
    c410:	854a                	mv	a0,s2
    c412:	07f000ef          	jal	ra,cc90 <__malloc_unlock>
    c416:	a029                	j	c420 <_malloc_r+0x70>
    c418:	fa04dae3          	bgez	s1,c3cc <_malloc_r+0x1c>
    c41c:	47b1                	li	a5,12
    c41e:	c11c                	sw	a5,0(a0)
    c420:	4501                	li	a0,0
    c422:	40f2                	lw	ra,28(sp)
    c424:	4462                	lw	s0,24(sp)
    c426:	44d2                	lw	s1,20(sp)
    c428:	4942                	lw	s2,16(sp)
    c42a:	49b2                	lw	s3,12(sp)
    c42c:	6105                	addi	sp,sp,32
    c42e:	8082                	ret
    c430:	401c                	lw	a5,0(s0)
    c432:	8f85                	sub	a5,a5,s1
    c434:	0407c163          	bltz	a5,c476 <_malloc_r+0xc6>
    c438:	46ad                	li	a3,11
    c43a:	00f6f663          	bgeu	a3,a5,c446 <_malloc_r+0x96>
    c43e:	c01c                	sw	a5,0(s0)
    c440:	943e                	add	s0,s0,a5
    c442:	c004                	sw	s1,0(s0)
    c444:	a801                	j	c454 <_malloc_r+0xa4>
    c446:	405c                	lw	a5,4(s0)
    c448:	02871563          	bne	a4,s0,c472 <_malloc_r+0xc2>
    c44c:	1fff4717          	auipc	a4,0x1fff4
    c450:	d2f72423          	sw	a5,-728(a4) # 20000174 <__malloc_free_list>
    c454:	854a                	mv	a0,s2
    c456:	03b000ef          	jal	ra,cc90 <__malloc_unlock>
    c45a:	00b40513          	addi	a0,s0,11
    c45e:	00440793          	addi	a5,s0,4
    c462:	9961                	andi	a0,a0,-8
    c464:	40f50733          	sub	a4,a0,a5
    c468:	df4d                	beqz	a4,c422 <_malloc_r+0x72>
    c46a:	943a                	add	s0,s0,a4
    c46c:	8f89                	sub	a5,a5,a0
    c46e:	c01c                	sw	a5,0(s0)
    c470:	bf4d                	j	c422 <_malloc_r+0x72>
    c472:	c35c                	sw	a5,4(a4)
    c474:	b7c5                	j	c454 <_malloc_r+0xa4>
    c476:	8722                	mv	a4,s0
    c478:	4040                	lw	s0,4(s0)
    c47a:	b7a5                	j	c3e2 <_malloc_r+0x32>
    c47c:	00350413          	addi	s0,a0,3
    c480:	9871                	andi	s0,s0,-4
    c482:	fc8500e3          	beq	a0,s0,c442 <_malloc_r+0x92>
    c486:	40a405b3          	sub	a1,s0,a0
    c48a:	854a                	mv	a0,s2
    c48c:	223d                	jal	c5ba <_sbrk_r>
    c48e:	fb351ae3          	bne	a0,s3,c442 <_malloc_r+0x92>
    c492:	bfa5                	j	c40a <_malloc_r+0x5a>

0000c494 <iprintf>:
    c494:	7139                	addi	sp,sp,-64
    c496:	da3e                	sw	a5,52(sp)
    c498:	d22e                	sw	a1,36(sp)
    c49a:	d432                	sw	a2,40(sp)
    c49c:	d636                	sw	a3,44(sp)
    c49e:	d83a                	sw	a4,48(sp)
    c4a0:	dc42                	sw	a6,56(sp)
    c4a2:	de46                	sw	a7,60(sp)
    c4a4:	81c18793          	addi	a5,gp,-2020 # 2000009c <_impure_ptr>
    c4a8:	cc22                	sw	s0,24(sp)
    c4aa:	4380                	lw	s0,0(a5)
    c4ac:	ca26                	sw	s1,20(sp)
    c4ae:	ce06                	sw	ra,28(sp)
    c4b0:	84aa                	mv	s1,a0
    c4b2:	c409                	beqz	s0,c4bc <iprintf+0x28>
    c4b4:	4c1c                	lw	a5,24(s0)
    c4b6:	e399                	bnez	a5,c4bc <iprintf+0x28>
    c4b8:	8522                	mv	a0,s0
    c4ba:	2385                	jal	ca1a <__sinit>
    c4bc:	440c                	lw	a1,8(s0)
    c4be:	1054                	addi	a3,sp,36
    c4c0:	8626                	mv	a2,s1
    c4c2:	8522                	mv	a0,s0
    c4c4:	c636                	sw	a3,12(sp)
    c4c6:	03b000ef          	jal	ra,cd00 <_vfiprintf_r>
    c4ca:	40f2                	lw	ra,28(sp)
    c4cc:	4462                	lw	s0,24(sp)
    c4ce:	44d2                	lw	s1,20(sp)
    c4d0:	6121                	addi	sp,sp,64
    c4d2:	8082                	ret

0000c4d4 <_puts_r>:
    c4d4:	1101                	addi	sp,sp,-32
    c4d6:	ca26                	sw	s1,20(sp)
    c4d8:	c84a                	sw	s2,16(sp)
    c4da:	ce06                	sw	ra,28(sp)
    c4dc:	cc22                	sw	s0,24(sp)
    c4de:	c64e                	sw	s3,12(sp)
    c4e0:	c452                	sw	s4,8(sp)
    c4e2:	84aa                	mv	s1,a0
    c4e4:	892e                	mv	s2,a1
    c4e6:	c501                	beqz	a0,c4ee <_puts_r+0x1a>
    c4e8:	4d1c                	lw	a5,24(a0)
    c4ea:	e391                	bnez	a5,c4ee <_puts_r+0x1a>
    c4ec:	233d                	jal	ca1a <__sinit>
    c4ee:	4c9c                	lw	a5,24(s1)
    c4f0:	4480                	lw	s0,8(s1)
    c4f2:	e399                	bnez	a5,c4f8 <_puts_r+0x24>
    c4f4:	8526                	mv	a0,s1
    c4f6:	2315                	jal	ca1a <__sinit>
    c4f8:	00002797          	auipc	a5,0x2
    c4fc:	a2878793          	addi	a5,a5,-1496 # df20 <__sf_fake_stdin>
    c500:	02f41c63          	bne	s0,a5,c538 <_puts_r+0x64>
    c504:	40c0                	lw	s0,4(s1)
    c506:	00c45783          	lhu	a5,12(s0)
    c50a:	8ba1                	andi	a5,a5,8
    c50c:	c7b1                	beqz	a5,c558 <_puts_r+0x84>
    c50e:	481c                	lw	a5,16(s0)
    c510:	c7a1                	beqz	a5,c558 <_puts_r+0x84>
    c512:	59fd                	li	s3,-1
    c514:	4a29                	li	s4,10
    c516:	441c                	lw	a5,8(s0)
    c518:	00094583          	lbu	a1,0(s2)
    c51c:	17fd                	addi	a5,a5,-1
    c51e:	e9b1                	bnez	a1,c572 <_puts_r+0x9e>
    c520:	c41c                	sw	a5,8(s0)
    c522:	0607de63          	bgez	a5,c59e <_puts_r+0xca>
    c526:	8622                	mv	a2,s0
    c528:	45a9                	li	a1,10
    c52a:	8526                	mv	a0,s1
    c52c:	20c1                	jal	c5ec <__swbuf_r>
    c52e:	57fd                	li	a5,-1
    c530:	02f50863          	beq	a0,a5,c560 <_puts_r+0x8c>
    c534:	4529                	li	a0,10
    c536:	a035                	j	c562 <_puts_r+0x8e>
    c538:	00002797          	auipc	a5,0x2
    c53c:	a0878793          	addi	a5,a5,-1528 # df40 <__sf_fake_stdout>
    c540:	00f41463          	bne	s0,a5,c548 <_puts_r+0x74>
    c544:	4480                	lw	s0,8(s1)
    c546:	b7c1                	j	c506 <_puts_r+0x32>
    c548:	00002797          	auipc	a5,0x2
    c54c:	9b878793          	addi	a5,a5,-1608 # df00 <__sf_fake_stderr>
    c550:	faf41be3          	bne	s0,a5,c506 <_puts_r+0x32>
    c554:	44c0                	lw	s0,12(s1)
    c556:	bf45                	j	c506 <_puts_r+0x32>
    c558:	85a2                	mv	a1,s0
    c55a:	8526                	mv	a0,s1
    c55c:	2a81                	jal	c6ac <__swsetup_r>
    c55e:	d955                	beqz	a0,c512 <_puts_r+0x3e>
    c560:	557d                	li	a0,-1
    c562:	40f2                	lw	ra,28(sp)
    c564:	4462                	lw	s0,24(sp)
    c566:	44d2                	lw	s1,20(sp)
    c568:	4942                	lw	s2,16(sp)
    c56a:	49b2                	lw	s3,12(sp)
    c56c:	4a22                	lw	s4,8(sp)
    c56e:	6105                	addi	sp,sp,32
    c570:	8082                	ret
    c572:	c41c                	sw	a5,8(s0)
    c574:	0905                	addi	s2,s2,1
    c576:	0007d763          	bgez	a5,c584 <_puts_r+0xb0>
    c57a:	4c18                	lw	a4,24(s0)
    c57c:	00e7cb63          	blt	a5,a4,c592 <_puts_r+0xbe>
    c580:	01458963          	beq	a1,s4,c592 <_puts_r+0xbe>
    c584:	401c                	lw	a5,0(s0)
    c586:	00178713          	addi	a4,a5,1
    c58a:	c018                	sw	a4,0(s0)
    c58c:	00b78023          	sb	a1,0(a5)
    c590:	b759                	j	c516 <_puts_r+0x42>
    c592:	8622                	mv	a2,s0
    c594:	8526                	mv	a0,s1
    c596:	2899                	jal	c5ec <__swbuf_r>
    c598:	f7351fe3          	bne	a0,s3,c516 <_puts_r+0x42>
    c59c:	b7d1                	j	c560 <_puts_r+0x8c>
    c59e:	401c                	lw	a5,0(s0)
    c5a0:	00178713          	addi	a4,a5,1
    c5a4:	c018                	sw	a4,0(s0)
    c5a6:	4729                	li	a4,10
    c5a8:	00e78023          	sb	a4,0(a5)
    c5ac:	b761                	j	c534 <_puts_r+0x60>

0000c5ae <puts>:
    c5ae:	81c18793          	addi	a5,gp,-2020 # 2000009c <_impure_ptr>
    c5b2:	85aa                	mv	a1,a0
    c5b4:	4388                	lw	a0,0(a5)
    c5b6:	f1fff06f          	j	c4d4 <_puts_r>

0000c5ba <_sbrk_r>:
    c5ba:	1141                	addi	sp,sp,-16
    c5bc:	c422                	sw	s0,8(sp)
    c5be:	842a                	mv	s0,a0
    c5c0:	852e                	mv	a0,a1
    c5c2:	1fff7797          	auipc	a5,0x1fff7
    c5c6:	e407a123          	sw	zero,-446(a5) # 20003404 <errno>
    c5ca:	c606                	sw	ra,12(sp)
    c5cc:	a6ef80ef          	jal	ra,483a <_sbrk>
    c5d0:	57fd                	li	a5,-1
    c5d2:	00f51963          	bne	a0,a5,c5e4 <_sbrk_r+0x2a>
    c5d6:	1fff7797          	auipc	a5,0x1fff7
    c5da:	e2e78793          	addi	a5,a5,-466 # 20003404 <errno>
    c5de:	439c                	lw	a5,0(a5)
    c5e0:	c391                	beqz	a5,c5e4 <_sbrk_r+0x2a>
    c5e2:	c01c                	sw	a5,0(s0)
    c5e4:	40b2                	lw	ra,12(sp)
    c5e6:	4422                	lw	s0,8(sp)
    c5e8:	0141                	addi	sp,sp,16
    c5ea:	8082                	ret

0000c5ec <__swbuf_r>:
    c5ec:	1101                	addi	sp,sp,-32
    c5ee:	cc22                	sw	s0,24(sp)
    c5f0:	ca26                	sw	s1,20(sp)
    c5f2:	c84a                	sw	s2,16(sp)
    c5f4:	ce06                	sw	ra,28(sp)
    c5f6:	c64e                	sw	s3,12(sp)
    c5f8:	84aa                	mv	s1,a0
    c5fa:	892e                	mv	s2,a1
    c5fc:	8432                	mv	s0,a2
    c5fe:	c501                	beqz	a0,c606 <__swbuf_r+0x1a>
    c600:	4d1c                	lw	a5,24(a0)
    c602:	e391                	bnez	a5,c606 <__swbuf_r+0x1a>
    c604:	2919                	jal	ca1a <__sinit>
    c606:	00002797          	auipc	a5,0x2
    c60a:	91a78793          	addi	a5,a5,-1766 # df20 <__sf_fake_stdin>
    c60e:	06f41963          	bne	s0,a5,c680 <__swbuf_r+0x94>
    c612:	40c0                	lw	s0,4(s1)
    c614:	4c1c                	lw	a5,24(s0)
    c616:	c41c                	sw	a5,8(s0)
    c618:	00c45783          	lhu	a5,12(s0)
    c61c:	8ba1                	andi	a5,a5,8
    c61e:	c3c9                	beqz	a5,c6a0 <__swbuf_r+0xb4>
    c620:	481c                	lw	a5,16(s0)
    c622:	cfbd                	beqz	a5,c6a0 <__swbuf_r+0xb4>
    c624:	481c                	lw	a5,16(s0)
    c626:	4008                	lw	a0,0(s0)
    c628:	0ff97993          	andi	s3,s2,255
    c62c:	0ff97913          	andi	s2,s2,255
    c630:	8d1d                	sub	a0,a0,a5
    c632:	485c                	lw	a5,20(s0)
    c634:	00f54663          	blt	a0,a5,c640 <__swbuf_r+0x54>
    c638:	85a2                	mv	a1,s0
    c63a:	8526                	mv	a0,s1
    c63c:	2c75                	jal	c8f8 <_fflush_r>
    c63e:	e52d                	bnez	a0,c6a8 <__swbuf_r+0xbc>
    c640:	441c                	lw	a5,8(s0)
    c642:	0505                	addi	a0,a0,1
    c644:	17fd                	addi	a5,a5,-1
    c646:	c41c                	sw	a5,8(s0)
    c648:	401c                	lw	a5,0(s0)
    c64a:	00178713          	addi	a4,a5,1
    c64e:	c018                	sw	a4,0(s0)
    c650:	01378023          	sb	s3,0(a5)
    c654:	485c                	lw	a5,20(s0)
    c656:	00a78963          	beq	a5,a0,c668 <__swbuf_r+0x7c>
    c65a:	00c45783          	lhu	a5,12(s0)
    c65e:	8b85                	andi	a5,a5,1
    c660:	cb81                	beqz	a5,c670 <__swbuf_r+0x84>
    c662:	47a9                	li	a5,10
    c664:	00f91663          	bne	s2,a5,c670 <__swbuf_r+0x84>
    c668:	85a2                	mv	a1,s0
    c66a:	8526                	mv	a0,s1
    c66c:	2471                	jal	c8f8 <_fflush_r>
    c66e:	ed0d                	bnez	a0,c6a8 <__swbuf_r+0xbc>
    c670:	40f2                	lw	ra,28(sp)
    c672:	4462                	lw	s0,24(sp)
    c674:	854a                	mv	a0,s2
    c676:	44d2                	lw	s1,20(sp)
    c678:	4942                	lw	s2,16(sp)
    c67a:	49b2                	lw	s3,12(sp)
    c67c:	6105                	addi	sp,sp,32
    c67e:	8082                	ret
    c680:	00002797          	auipc	a5,0x2
    c684:	8c078793          	addi	a5,a5,-1856 # df40 <__sf_fake_stdout>
    c688:	00f41463          	bne	s0,a5,c690 <__swbuf_r+0xa4>
    c68c:	4480                	lw	s0,8(s1)
    c68e:	b759                	j	c614 <__swbuf_r+0x28>
    c690:	00002797          	auipc	a5,0x2
    c694:	87078793          	addi	a5,a5,-1936 # df00 <__sf_fake_stderr>
    c698:	f6f41ee3          	bne	s0,a5,c614 <__swbuf_r+0x28>
    c69c:	44c0                	lw	s0,12(s1)
    c69e:	bf9d                	j	c614 <__swbuf_r+0x28>
    c6a0:	85a2                	mv	a1,s0
    c6a2:	8526                	mv	a0,s1
    c6a4:	2021                	jal	c6ac <__swsetup_r>
    c6a6:	dd3d                	beqz	a0,c624 <__swbuf_r+0x38>
    c6a8:	597d                	li	s2,-1
    c6aa:	b7d9                	j	c670 <__swbuf_r+0x84>

0000c6ac <__swsetup_r>:
    c6ac:	1141                	addi	sp,sp,-16
    c6ae:	81c18793          	addi	a5,gp,-2020 # 2000009c <_impure_ptr>
    c6b2:	c226                	sw	s1,4(sp)
    c6b4:	4384                	lw	s1,0(a5)
    c6b6:	c422                	sw	s0,8(sp)
    c6b8:	c04a                	sw	s2,0(sp)
    c6ba:	c606                	sw	ra,12(sp)
    c6bc:	892a                	mv	s2,a0
    c6be:	842e                	mv	s0,a1
    c6c0:	c489                	beqz	s1,c6ca <__swsetup_r+0x1e>
    c6c2:	4c9c                	lw	a5,24(s1)
    c6c4:	e399                	bnez	a5,c6ca <__swsetup_r+0x1e>
    c6c6:	8526                	mv	a0,s1
    c6c8:	2e89                	jal	ca1a <__sinit>
    c6ca:	00002797          	auipc	a5,0x2
    c6ce:	85678793          	addi	a5,a5,-1962 # df20 <__sf_fake_stdin>
    c6d2:	02f41c63          	bne	s0,a5,c70a <__swsetup_r+0x5e>
    c6d6:	40c0                	lw	s0,4(s1)
    c6d8:	00c41703          	lh	a4,12(s0)
    c6dc:	01071793          	slli	a5,a4,0x10
    c6e0:	83c1                	srli	a5,a5,0x10
    c6e2:	0087f693          	andi	a3,a5,8
    c6e6:	eebd                	bnez	a3,c764 <__swsetup_r+0xb8>
    c6e8:	0107f693          	andi	a3,a5,16
    c6ec:	ee9d                	bnez	a3,c72a <__swsetup_r+0x7e>
    c6ee:	47a5                	li	a5,9
    c6f0:	00f92023          	sw	a5,0(s2)
    c6f4:	04076713          	ori	a4,a4,64
    c6f8:	00e41623          	sh	a4,12(s0)
    c6fc:	557d                	li	a0,-1
    c6fe:	40b2                	lw	ra,12(sp)
    c700:	4422                	lw	s0,8(sp)
    c702:	4492                	lw	s1,4(sp)
    c704:	4902                	lw	s2,0(sp)
    c706:	0141                	addi	sp,sp,16
    c708:	8082                	ret
    c70a:	00002797          	auipc	a5,0x2
    c70e:	83678793          	addi	a5,a5,-1994 # df40 <__sf_fake_stdout>
    c712:	00f41463          	bne	s0,a5,c71a <__swsetup_r+0x6e>
    c716:	4480                	lw	s0,8(s1)
    c718:	b7c1                	j	c6d8 <__swsetup_r+0x2c>
    c71a:	00001797          	auipc	a5,0x1
    c71e:	7e678793          	addi	a5,a5,2022 # df00 <__sf_fake_stderr>
    c722:	faf41be3          	bne	s0,a5,c6d8 <__swsetup_r+0x2c>
    c726:	44c0                	lw	s0,12(s1)
    c728:	bf45                	j	c6d8 <__swsetup_r+0x2c>
    c72a:	8b91                	andi	a5,a5,4
    c72c:	c795                	beqz	a5,c758 <__swsetup_r+0xac>
    c72e:	584c                	lw	a1,52(s0)
    c730:	c991                	beqz	a1,c744 <__swsetup_r+0x98>
    c732:	04440793          	addi	a5,s0,68
    c736:	00f58563          	beq	a1,a5,c740 <__swsetup_r+0x94>
    c73a:	854a                	mv	a0,s2
    c73c:	bc5ff0ef          	jal	ra,c300 <_free_r>
    c740:	02042a23          	sw	zero,52(s0)
    c744:	00c45783          	lhu	a5,12(s0)
    c748:	00042223          	sw	zero,4(s0)
    c74c:	fdb7f793          	andi	a5,a5,-37
    c750:	00f41623          	sh	a5,12(s0)
    c754:	481c                	lw	a5,16(s0)
    c756:	c01c                	sw	a5,0(s0)
    c758:	00c45783          	lhu	a5,12(s0)
    c75c:	0087e793          	ori	a5,a5,8
    c760:	00f41623          	sh	a5,12(s0)
    c764:	481c                	lw	a5,16(s0)
    c766:	ef81                	bnez	a5,c77e <__swsetup_r+0xd2>
    c768:	00c45783          	lhu	a5,12(s0)
    c76c:	20000713          	li	a4,512
    c770:	2807f793          	andi	a5,a5,640
    c774:	00e78563          	beq	a5,a4,c77e <__swsetup_r+0xd2>
    c778:	85a2                	mv	a1,s0
    c77a:	854a                	mv	a0,s2
    c77c:	2985                	jal	cbec <__smakebuf_r>
    c77e:	00c45783          	lhu	a5,12(s0)
    c782:	0017f713          	andi	a4,a5,1
    c786:	c705                	beqz	a4,c7ae <__swsetup_r+0x102>
    c788:	485c                	lw	a5,20(s0)
    c78a:	00042423          	sw	zero,8(s0)
    c78e:	40f007b3          	neg	a5,a5
    c792:	cc1c                	sw	a5,24(s0)
    c794:	481c                	lw	a5,16(s0)
    c796:	4501                	li	a0,0
    c798:	f3bd                	bnez	a5,c6fe <__swsetup_r+0x52>
    c79a:	00c41783          	lh	a5,12(s0)
    c79e:	0807f713          	andi	a4,a5,128
    c7a2:	df31                	beqz	a4,c6fe <__swsetup_r+0x52>
    c7a4:	0407e793          	ori	a5,a5,64
    c7a8:	00f41623          	sh	a5,12(s0)
    c7ac:	bf81                	j	c6fc <__swsetup_r+0x50>
    c7ae:	8b89                	andi	a5,a5,2
    c7b0:	4701                	li	a4,0
    c7b2:	e391                	bnez	a5,c7b6 <__swsetup_r+0x10a>
    c7b4:	4858                	lw	a4,20(s0)
    c7b6:	c418                	sw	a4,8(s0)
    c7b8:	bff1                	j	c794 <__swsetup_r+0xe8>

0000c7ba <__sflush_r>:
    c7ba:	00c5d783          	lhu	a5,12(a1)
    c7be:	1101                	addi	sp,sp,-32
    c7c0:	cc22                	sw	s0,24(sp)
    c7c2:	ca26                	sw	s1,20(sp)
    c7c4:	ce06                	sw	ra,28(sp)
    c7c6:	c84a                	sw	s2,16(sp)
    c7c8:	c64e                	sw	s3,12(sp)
    c7ca:	0087f713          	andi	a4,a5,8
    c7ce:	84aa                	mv	s1,a0
    c7d0:	842e                	mv	s0,a1
    c7d2:	ef79                	bnez	a4,c8b0 <__sflush_r+0xf6>
    c7d4:	41d8                	lw	a4,4(a1)
    c7d6:	00e04d63          	bgtz	a4,c7f0 <__sflush_r+0x36>
    c7da:	41b8                	lw	a4,64(a1)
    c7dc:	00e04a63          	bgtz	a4,c7f0 <__sflush_r+0x36>
    c7e0:	4501                	li	a0,0
    c7e2:	40f2                	lw	ra,28(sp)
    c7e4:	4462                	lw	s0,24(sp)
    c7e6:	44d2                	lw	s1,20(sp)
    c7e8:	4942                	lw	s2,16(sp)
    c7ea:	49b2                	lw	s3,12(sp)
    c7ec:	6105                	addi	sp,sp,32
    c7ee:	8082                	ret
    c7f0:	5458                	lw	a4,44(s0)
    c7f2:	d77d                	beqz	a4,c7e0 <__sflush_r+0x26>
    c7f4:	0004a903          	lw	s2,0(s1)
    c7f8:	01379693          	slli	a3,a5,0x13
    c7fc:	0004a023          	sw	zero,0(s1)
    c800:	0606de63          	bgez	a3,c87c <__sflush_r+0xc2>
    c804:	4870                	lw	a2,84(s0)
    c806:	00c45783          	lhu	a5,12(s0)
    c80a:	8b91                	andi	a5,a5,4
    c80c:	c799                	beqz	a5,c81a <__sflush_r+0x60>
    c80e:	405c                	lw	a5,4(s0)
    c810:	8e1d                	sub	a2,a2,a5
    c812:	585c                	lw	a5,52(s0)
    c814:	c399                	beqz	a5,c81a <__sflush_r+0x60>
    c816:	403c                	lw	a5,64(s0)
    c818:	8e1d                	sub	a2,a2,a5
    c81a:	545c                	lw	a5,44(s0)
    c81c:	500c                	lw	a1,32(s0)
    c81e:	4681                	li	a3,0
    c820:	8526                	mv	a0,s1
    c822:	9782                	jalr	a5
    c824:	57fd                	li	a5,-1
    c826:	00c45703          	lhu	a4,12(s0)
    c82a:	00f51d63          	bne	a0,a5,c844 <__sflush_r+0x8a>
    c82e:	4094                	lw	a3,0(s1)
    c830:	47f5                	li	a5,29
    c832:	06d7e963          	bltu	a5,a3,c8a4 <__sflush_r+0xea>
    c836:	204007b7          	lui	a5,0x20400
    c83a:	0785                	addi	a5,a5,1
    c83c:	00d7d7b3          	srl	a5,a5,a3
    c840:	8b85                	andi	a5,a5,1
    c842:	c3ad                	beqz	a5,c8a4 <__sflush_r+0xea>
    c844:	481c                	lw	a5,16(s0)
    c846:	00042223          	sw	zero,4(s0)
    c84a:	c01c                	sw	a5,0(s0)
    c84c:	01371793          	slli	a5,a4,0x13
    c850:	0007d863          	bgez	a5,c860 <__sflush_r+0xa6>
    c854:	57fd                	li	a5,-1
    c856:	00f51463          	bne	a0,a5,c85e <__sflush_r+0xa4>
    c85a:	409c                	lw	a5,0(s1)
    c85c:	e391                	bnez	a5,c860 <__sflush_r+0xa6>
    c85e:	c868                	sw	a0,84(s0)
    c860:	584c                	lw	a1,52(s0)
    c862:	0124a023          	sw	s2,0(s1)
    c866:	ddad                	beqz	a1,c7e0 <__sflush_r+0x26>
    c868:	04440793          	addi	a5,s0,68
    c86c:	00f58563          	beq	a1,a5,c876 <__sflush_r+0xbc>
    c870:	8526                	mv	a0,s1
    c872:	a8fff0ef          	jal	ra,c300 <_free_r>
    c876:	02042a23          	sw	zero,52(s0)
    c87a:	b79d                	j	c7e0 <__sflush_r+0x26>
    c87c:	500c                	lw	a1,32(s0)
    c87e:	4601                	li	a2,0
    c880:	4685                	li	a3,1
    c882:	8526                	mv	a0,s1
    c884:	9702                	jalr	a4
    c886:	57fd                	li	a5,-1
    c888:	862a                	mv	a2,a0
    c88a:	f6f51ee3          	bne	a0,a5,c806 <__sflush_r+0x4c>
    c88e:	409c                	lw	a5,0(s1)
    c890:	dbbd                	beqz	a5,c806 <__sflush_r+0x4c>
    c892:	4775                	li	a4,29
    c894:	00e78563          	beq	a5,a4,c89e <__sflush_r+0xe4>
    c898:	4759                	li	a4,22
    c89a:	04e79463          	bne	a5,a4,c8e2 <__sflush_r+0x128>
    c89e:	0124a023          	sw	s2,0(s1)
    c8a2:	bf3d                	j	c7e0 <__sflush_r+0x26>
    c8a4:	04076713          	ori	a4,a4,64
    c8a8:	00e41623          	sh	a4,12(s0)
    c8ac:	557d                	li	a0,-1
    c8ae:	bf15                	j	c7e2 <__sflush_r+0x28>
    c8b0:	0105a983          	lw	s3,16(a1)
    c8b4:	f20986e3          	beqz	s3,c7e0 <__sflush_r+0x26>
    c8b8:	0005a903          	lw	s2,0(a1)
    c8bc:	8b8d                	andi	a5,a5,3
    c8be:	0135a023          	sw	s3,0(a1)
    c8c2:	41390933          	sub	s2,s2,s3
    c8c6:	4701                	li	a4,0
    c8c8:	e391                	bnez	a5,c8cc <__sflush_r+0x112>
    c8ca:	49d8                	lw	a4,20(a1)
    c8cc:	c418                	sw	a4,8(s0)
    c8ce:	f12059e3          	blez	s2,c7e0 <__sflush_r+0x26>
    c8d2:	541c                	lw	a5,40(s0)
    c8d4:	500c                	lw	a1,32(s0)
    c8d6:	86ca                	mv	a3,s2
    c8d8:	864e                	mv	a2,s3
    c8da:	8526                	mv	a0,s1
    c8dc:	9782                	jalr	a5
    c8de:	00a04963          	bgtz	a0,c8f0 <__sflush_r+0x136>
    c8e2:	00c45783          	lhu	a5,12(s0)
    c8e6:	0407e793          	ori	a5,a5,64
    c8ea:	00f41623          	sh	a5,12(s0)
    c8ee:	bf7d                	j	c8ac <__sflush_r+0xf2>
    c8f0:	99aa                	add	s3,s3,a0
    c8f2:	40a90933          	sub	s2,s2,a0
    c8f6:	bfe1                	j	c8ce <__sflush_r+0x114>

0000c8f8 <_fflush_r>:
    c8f8:	499c                	lw	a5,16(a1)
    c8fa:	c3a5                	beqz	a5,c95a <_fflush_r+0x62>
    c8fc:	1101                	addi	sp,sp,-32
    c8fe:	cc22                	sw	s0,24(sp)
    c900:	ce06                	sw	ra,28(sp)
    c902:	842a                	mv	s0,a0
    c904:	c511                	beqz	a0,c910 <_fflush_r+0x18>
    c906:	4d1c                	lw	a5,24(a0)
    c908:	e781                	bnez	a5,c910 <_fflush_r+0x18>
    c90a:	c62e                	sw	a1,12(sp)
    c90c:	2239                	jal	ca1a <__sinit>
    c90e:	45b2                	lw	a1,12(sp)
    c910:	00001797          	auipc	a5,0x1
    c914:	61078793          	addi	a5,a5,1552 # df20 <__sf_fake_stdin>
    c918:	00f59c63          	bne	a1,a5,c930 <_fflush_r+0x38>
    c91c:	404c                	lw	a1,4(s0)
    c91e:	00c59783          	lh	a5,12(a1)
    c922:	c79d                	beqz	a5,c950 <_fflush_r+0x58>
    c924:	8522                	mv	a0,s0
    c926:	4462                	lw	s0,24(sp)
    c928:	40f2                	lw	ra,28(sp)
    c92a:	6105                	addi	sp,sp,32
    c92c:	e8fff06f          	j	c7ba <__sflush_r>
    c930:	00001797          	auipc	a5,0x1
    c934:	61078793          	addi	a5,a5,1552 # df40 <__sf_fake_stdout>
    c938:	00f59463          	bne	a1,a5,c940 <_fflush_r+0x48>
    c93c:	440c                	lw	a1,8(s0)
    c93e:	b7c5                	j	c91e <_fflush_r+0x26>
    c940:	00001797          	auipc	a5,0x1
    c944:	5c078793          	addi	a5,a5,1472 # df00 <__sf_fake_stderr>
    c948:	fcf59be3          	bne	a1,a5,c91e <_fflush_r+0x26>
    c94c:	444c                	lw	a1,12(s0)
    c94e:	bfc1                	j	c91e <_fflush_r+0x26>
    c950:	40f2                	lw	ra,28(sp)
    c952:	4462                	lw	s0,24(sp)
    c954:	4501                	li	a0,0
    c956:	6105                	addi	sp,sp,32
    c958:	8082                	ret
    c95a:	4501                	li	a0,0
    c95c:	8082                	ret

0000c95e <std>:
    c95e:	1141                	addi	sp,sp,-16
    c960:	c422                	sw	s0,8(sp)
    c962:	c606                	sw	ra,12(sp)
    c964:	842a                	mv	s0,a0
    c966:	00b51623          	sh	a1,12(a0)
    c96a:	00c51723          	sh	a2,14(a0)
    c96e:	00052023          	sw	zero,0(a0)
    c972:	00052223          	sw	zero,4(a0)
    c976:	00052423          	sw	zero,8(a0)
    c97a:	06052223          	sw	zero,100(a0)
    c97e:	00052823          	sw	zero,16(a0)
    c982:	00052a23          	sw	zero,20(a0)
    c986:	00052c23          	sw	zero,24(a0)
    c98a:	4621                	li	a2,8
    c98c:	4581                	li	a1,0
    c98e:	05c50513          	addi	a0,a0,92
    c992:	bbdf30ef          	jal	ra,54e <memset>
    c996:	00001797          	auipc	a5,0x1
    c99a:	9bc78793          	addi	a5,a5,-1604 # d352 <__sread>
    c99e:	d05c                	sw	a5,36(s0)
    c9a0:	00001797          	auipc	a5,0x1
    c9a4:	9e278793          	addi	a5,a5,-1566 # d382 <__swrite>
    c9a8:	d41c                	sw	a5,40(s0)
    c9aa:	00001797          	auipc	a5,0x1
    c9ae:	a2678793          	addi	a5,a5,-1498 # d3d0 <__sseek>
    c9b2:	d45c                	sw	a5,44(s0)
    c9b4:	00001797          	auipc	a5,0x1
    c9b8:	a5278793          	addi	a5,a5,-1454 # d406 <__sclose>
    c9bc:	d000                	sw	s0,32(s0)
    c9be:	d81c                	sw	a5,48(s0)
    c9c0:	40b2                	lw	ra,12(sp)
    c9c2:	4422                	lw	s0,8(sp)
    c9c4:	0141                	addi	sp,sp,16
    c9c6:	8082                	ret

0000c9c8 <_cleanup_r>:
    c9c8:	00000597          	auipc	a1,0x0
    c9cc:	f3058593          	addi	a1,a1,-208 # c8f8 <_fflush_r>
    c9d0:	aa99                	j	cb26 <_fwalk_reent>

0000c9d2 <__sfmoreglue>:
    c9d2:	1141                	addi	sp,sp,-16
    c9d4:	c226                	sw	s1,4(sp)
    c9d6:	06800613          	li	a2,104
    c9da:	fff58493          	addi	s1,a1,-1
    c9de:	02c484b3          	mul	s1,s1,a2
    c9e2:	c04a                	sw	s2,0(sp)
    c9e4:	892e                	mv	s2,a1
    c9e6:	c422                	sw	s0,8(sp)
    c9e8:	c606                	sw	ra,12(sp)
    c9ea:	07448593          	addi	a1,s1,116
    c9ee:	9c3ff0ef          	jal	ra,c3b0 <_malloc_r>
    c9f2:	842a                	mv	s0,a0
    c9f4:	cd01                	beqz	a0,ca0c <__sfmoreglue+0x3a>
    c9f6:	00052023          	sw	zero,0(a0)
    c9fa:	01252223          	sw	s2,4(a0)
    c9fe:	0531                	addi	a0,a0,12
    ca00:	c408                	sw	a0,8(s0)
    ca02:	06848613          	addi	a2,s1,104
    ca06:	4581                	li	a1,0
    ca08:	b47f30ef          	jal	ra,54e <memset>
    ca0c:	8522                	mv	a0,s0
    ca0e:	40b2                	lw	ra,12(sp)
    ca10:	4422                	lw	s0,8(sp)
    ca12:	4492                	lw	s1,4(sp)
    ca14:	4902                	lw	s2,0(sp)
    ca16:	0141                	addi	sp,sp,16
    ca18:	8082                	ret

0000ca1a <__sinit>:
    ca1a:	4d1c                	lw	a5,24(a0)
    ca1c:	e7a5                	bnez	a5,ca84 <__sinit+0x6a>
    ca1e:	1141                	addi	sp,sp,-16
    ca20:	c606                	sw	ra,12(sp)
    ca22:	c422                	sw	s0,8(sp)
    ca24:	00000797          	auipc	a5,0x0
    ca28:	fa478793          	addi	a5,a5,-92 # c9c8 <_cleanup_r>
    ca2c:	d51c                	sw	a5,40(a0)
    ca2e:	82418793          	addi	a5,gp,-2012 # 200000a4 <_global_impure_ptr>
    ca32:	439c                	lw	a5,0(a5)
    ca34:	04052423          	sw	zero,72(a0)
    ca38:	04052623          	sw	zero,76(a0)
    ca3c:	04052823          	sw	zero,80(a0)
    ca40:	00f51463          	bne	a0,a5,ca48 <__sinit+0x2e>
    ca44:	4785                	li	a5,1
    ca46:	cd1c                	sw	a5,24(a0)
    ca48:	842a                	mv	s0,a0
    ca4a:	2835                	jal	ca86 <__sfp>
    ca4c:	c048                	sw	a0,4(s0)
    ca4e:	8522                	mv	a0,s0
    ca50:	281d                	jal	ca86 <__sfp>
    ca52:	c408                	sw	a0,8(s0)
    ca54:	8522                	mv	a0,s0
    ca56:	2805                	jal	ca86 <__sfp>
    ca58:	c448                	sw	a0,12(s0)
    ca5a:	4048                	lw	a0,4(s0)
    ca5c:	4601                	li	a2,0
    ca5e:	4591                	li	a1,4
    ca60:	effff0ef          	jal	ra,c95e <std>
    ca64:	4408                	lw	a0,8(s0)
    ca66:	4605                	li	a2,1
    ca68:	45a5                	li	a1,9
    ca6a:	ef5ff0ef          	jal	ra,c95e <std>
    ca6e:	4448                	lw	a0,12(s0)
    ca70:	4609                	li	a2,2
    ca72:	45c9                	li	a1,18
    ca74:	eebff0ef          	jal	ra,c95e <std>
    ca78:	4785                	li	a5,1
    ca7a:	cc1c                	sw	a5,24(s0)
    ca7c:	40b2                	lw	ra,12(sp)
    ca7e:	4422                	lw	s0,8(sp)
    ca80:	0141                	addi	sp,sp,16
    ca82:	8082                	ret
    ca84:	8082                	ret

0000ca86 <__sfp>:
    ca86:	1141                	addi	sp,sp,-16
    ca88:	82418793          	addi	a5,gp,-2012 # 200000a4 <_global_impure_ptr>
    ca8c:	c226                	sw	s1,4(sp)
    ca8e:	4384                	lw	s1,0(a5)
    ca90:	c04a                	sw	s2,0(sp)
    ca92:	c606                	sw	ra,12(sp)
    ca94:	4c9c                	lw	a5,24(s1)
    ca96:	c422                	sw	s0,8(sp)
    ca98:	892a                	mv	s2,a0
    ca9a:	e781                	bnez	a5,caa2 <__sfp+0x1c>
    ca9c:	8526                	mv	a0,s1
    ca9e:	f7dff0ef          	jal	ra,ca1a <__sinit>
    caa2:	04848493          	addi	s1,s1,72
    caa6:	4480                	lw	s0,8(s1)
    caa8:	40dc                	lw	a5,4(s1)
    caaa:	17fd                	addi	a5,a5,-1
    caac:	0007d663          	bgez	a5,cab8 <__sfp+0x32>
    cab0:	409c                	lw	a5,0(s1)
    cab2:	cfb9                	beqz	a5,cb10 <__sfp+0x8a>
    cab4:	4084                	lw	s1,0(s1)
    cab6:	bfc5                	j	caa6 <__sfp+0x20>
    cab8:	00c41703          	lh	a4,12(s0)
    cabc:	e739                	bnez	a4,cb0a <__sfp+0x84>
    cabe:	77c1                	lui	a5,0xffff0
    cac0:	0785                	addi	a5,a5,1
    cac2:	06042223          	sw	zero,100(s0)
    cac6:	00042023          	sw	zero,0(s0)
    caca:	00042223          	sw	zero,4(s0)
    cace:	00042423          	sw	zero,8(s0)
    cad2:	c45c                	sw	a5,12(s0)
    cad4:	00042823          	sw	zero,16(s0)
    cad8:	00042a23          	sw	zero,20(s0)
    cadc:	00042c23          	sw	zero,24(s0)
    cae0:	4621                	li	a2,8
    cae2:	4581                	li	a1,0
    cae4:	05c40513          	addi	a0,s0,92
    cae8:	a67f30ef          	jal	ra,54e <memset>
    caec:	02042a23          	sw	zero,52(s0)
    caf0:	02042c23          	sw	zero,56(s0)
    caf4:	04042423          	sw	zero,72(s0)
    caf8:	04042623          	sw	zero,76(s0)
    cafc:	8522                	mv	a0,s0
    cafe:	40b2                	lw	ra,12(sp)
    cb00:	4422                	lw	s0,8(sp)
    cb02:	4492                	lw	s1,4(sp)
    cb04:	4902                	lw	s2,0(sp)
    cb06:	0141                	addi	sp,sp,16
    cb08:	8082                	ret
    cb0a:	06840413          	addi	s0,s0,104
    cb0e:	bf71                	j	caaa <__sfp+0x24>
    cb10:	4591                	li	a1,4
    cb12:	854a                	mv	a0,s2
    cb14:	ebfff0ef          	jal	ra,c9d2 <__sfmoreglue>
    cb18:	c088                	sw	a0,0(s1)
    cb1a:	fd49                	bnez	a0,cab4 <__sfp+0x2e>
    cb1c:	47b1                	li	a5,12
    cb1e:	00f92023          	sw	a5,0(s2)
    cb22:	4401                	li	s0,0
    cb24:	bfe1                	j	cafc <__sfp+0x76>

0000cb26 <_fwalk_reent>:
    cb26:	7179                	addi	sp,sp,-48
    cb28:	d422                	sw	s0,40(sp)
    cb2a:	d04a                	sw	s2,32(sp)
    cb2c:	cc52                	sw	s4,24(sp)
    cb2e:	ca56                	sw	s5,20(sp)
    cb30:	c85a                	sw	s6,16(sp)
    cb32:	c65e                	sw	s7,12(sp)
    cb34:	d606                	sw	ra,44(sp)
    cb36:	d226                	sw	s1,36(sp)
    cb38:	ce4e                	sw	s3,28(sp)
    cb3a:	8a2a                	mv	s4,a0
    cb3c:	8aae                	mv	s5,a1
    cb3e:	04850413          	addi	s0,a0,72
    cb42:	4901                	li	s2,0
    cb44:	4b05                	li	s6,1
    cb46:	5bfd                	li	s7,-1
    cb48:	ec09                	bnez	s0,cb62 <_fwalk_reent+0x3c>
    cb4a:	50b2                	lw	ra,44(sp)
    cb4c:	5422                	lw	s0,40(sp)
    cb4e:	854a                	mv	a0,s2
    cb50:	5492                	lw	s1,36(sp)
    cb52:	5902                	lw	s2,32(sp)
    cb54:	49f2                	lw	s3,28(sp)
    cb56:	4a62                	lw	s4,24(sp)
    cb58:	4ad2                	lw	s5,20(sp)
    cb5a:	4b42                	lw	s6,16(sp)
    cb5c:	4bb2                	lw	s7,12(sp)
    cb5e:	6145                	addi	sp,sp,48
    cb60:	8082                	ret
    cb62:	4404                	lw	s1,8(s0)
    cb64:	00442983          	lw	s3,4(s0)
    cb68:	19fd                	addi	s3,s3,-1
    cb6a:	0009d463          	bgez	s3,cb72 <_fwalk_reent+0x4c>
    cb6e:	4000                	lw	s0,0(s0)
    cb70:	bfe1                	j	cb48 <_fwalk_reent+0x22>
    cb72:	00c4d783          	lhu	a5,12(s1)
    cb76:	00fb7b63          	bgeu	s6,a5,cb8c <_fwalk_reent+0x66>
    cb7a:	00e49783          	lh	a5,14(s1)
    cb7e:	01778763          	beq	a5,s7,cb8c <_fwalk_reent+0x66>
    cb82:	85a6                	mv	a1,s1
    cb84:	8552                	mv	a0,s4
    cb86:	9a82                	jalr	s5
    cb88:	00a96933          	or	s2,s2,a0
    cb8c:	06848493          	addi	s1,s1,104
    cb90:	bfe1                	j	cb68 <_fwalk_reent+0x42>

0000cb92 <__swhatbuf_r>:
    cb92:	7119                	addi	sp,sp,-128
    cb94:	daa6                	sw	s1,116(sp)
    cb96:	84ae                	mv	s1,a1
    cb98:	00e59583          	lh	a1,14(a1)
    cb9c:	dca2                	sw	s0,120(sp)
    cb9e:	de86                	sw	ra,124(sp)
    cba0:	8432                	mv	s0,a2
    cba2:	0005dc63          	bgez	a1,cbba <__swhatbuf_r+0x28>
    cba6:	00c4d783          	lhu	a5,12(s1)
    cbaa:	0006a023          	sw	zero,0(a3)
    cbae:	0807f793          	andi	a5,a5,128
    cbb2:	e785                	bnez	a5,cbda <__swhatbuf_r+0x48>
    cbb4:	40000793          	li	a5,1024
    cbb8:	a01d                	j	cbde <__swhatbuf_r+0x4c>
    cbba:	0830                	addi	a2,sp,24
    cbbc:	c636                	sw	a3,12(sp)
    cbbe:	0b5000ef          	jal	ra,d472 <_fstat_r>
    cbc2:	46b2                	lw	a3,12(sp)
    cbc4:	fe0541e3          	bltz	a0,cba6 <__swhatbuf_r+0x14>
    cbc8:	4772                	lw	a4,28(sp)
    cbca:	67bd                	lui	a5,0xf
    cbcc:	8ff9                	and	a5,a5,a4
    cbce:	7779                	lui	a4,0xffffe
    cbd0:	97ba                	add	a5,a5,a4
    cbd2:	0017b793          	seqz	a5,a5
    cbd6:	c29c                	sw	a5,0(a3)
    cbd8:	bff1                	j	cbb4 <__swhatbuf_r+0x22>
    cbda:	04000793          	li	a5,64
    cbde:	c01c                	sw	a5,0(s0)
    cbe0:	50f6                	lw	ra,124(sp)
    cbe2:	5466                	lw	s0,120(sp)
    cbe4:	54d6                	lw	s1,116(sp)
    cbe6:	4501                	li	a0,0
    cbe8:	6109                	addi	sp,sp,128
    cbea:	8082                	ret

0000cbec <__smakebuf_r>:
    cbec:	00c5d783          	lhu	a5,12(a1)
    cbf0:	1101                	addi	sp,sp,-32
    cbf2:	cc22                	sw	s0,24(sp)
    cbf4:	ce06                	sw	ra,28(sp)
    cbf6:	ca26                	sw	s1,20(sp)
    cbf8:	c84a                	sw	s2,16(sp)
    cbfa:	8b89                	andi	a5,a5,2
    cbfc:	842e                	mv	s0,a1
    cbfe:	cf89                	beqz	a5,cc18 <__smakebuf_r+0x2c>
    cc00:	04740793          	addi	a5,s0,71
    cc04:	c01c                	sw	a5,0(s0)
    cc06:	c81c                	sw	a5,16(s0)
    cc08:	4785                	li	a5,1
    cc0a:	c85c                	sw	a5,20(s0)
    cc0c:	40f2                	lw	ra,28(sp)
    cc0e:	4462                	lw	s0,24(sp)
    cc10:	44d2                	lw	s1,20(sp)
    cc12:	4942                	lw	s2,16(sp)
    cc14:	6105                	addi	sp,sp,32
    cc16:	8082                	ret
    cc18:	0074                	addi	a3,sp,12
    cc1a:	0030                	addi	a2,sp,8
    cc1c:	84aa                	mv	s1,a0
    cc1e:	f75ff0ef          	jal	ra,cb92 <__swhatbuf_r>
    cc22:	45a2                	lw	a1,8(sp)
    cc24:	892a                	mv	s2,a0
    cc26:	8526                	mv	a0,s1
    cc28:	f88ff0ef          	jal	ra,c3b0 <_malloc_r>
    cc2c:	ed01                	bnez	a0,cc44 <__smakebuf_r+0x58>
    cc2e:	00c41783          	lh	a5,12(s0)
    cc32:	2007f713          	andi	a4,a5,512
    cc36:	fb79                	bnez	a4,cc0c <__smakebuf_r+0x20>
    cc38:	9bf1                	andi	a5,a5,-4
    cc3a:	0027e793          	ori	a5,a5,2
    cc3e:	00f41623          	sh	a5,12(s0)
    cc42:	bf7d                	j	cc00 <__smakebuf_r+0x14>
    cc44:	00000797          	auipc	a5,0x0
    cc48:	d8478793          	addi	a5,a5,-636 # c9c8 <_cleanup_r>
    cc4c:	d49c                	sw	a5,40(s1)
    cc4e:	00c45783          	lhu	a5,12(s0)
    cc52:	c008                	sw	a0,0(s0)
    cc54:	c808                	sw	a0,16(s0)
    cc56:	0807e793          	ori	a5,a5,128
    cc5a:	00f41623          	sh	a5,12(s0)
    cc5e:	47a2                	lw	a5,8(sp)
    cc60:	c85c                	sw	a5,20(s0)
    cc62:	47b2                	lw	a5,12(sp)
    cc64:	cf91                	beqz	a5,cc80 <__smakebuf_r+0x94>
    cc66:	00e41583          	lh	a1,14(s0)
    cc6a:	8526                	mv	a0,s1
    cc6c:	039000ef          	jal	ra,d4a4 <_isatty_r>
    cc70:	c901                	beqz	a0,cc80 <__smakebuf_r+0x94>
    cc72:	00c45783          	lhu	a5,12(s0)
    cc76:	9bf1                	andi	a5,a5,-4
    cc78:	0017e793          	ori	a5,a5,1
    cc7c:	00f41623          	sh	a5,12(s0)
    cc80:	00c45783          	lhu	a5,12(s0)
    cc84:	00f96933          	or	s2,s2,a5
    cc88:	01241623          	sh	s2,12(s0)
    cc8c:	b741                	j	cc0c <__smakebuf_r+0x20>

0000cc8e <__malloc_lock>:
    cc8e:	8082                	ret

0000cc90 <__malloc_unlock>:
    cc90:	8082                	ret

0000cc92 <__sfputc_r>:
    cc92:	461c                	lw	a5,8(a2)
    cc94:	17fd                	addi	a5,a5,-1
    cc96:	c61c                	sw	a5,8(a2)
    cc98:	0007da63          	bgez	a5,ccac <__sfputc_r+0x1a>
    cc9c:	4e18                	lw	a4,24(a2)
    cc9e:	00e7c563          	blt	a5,a4,cca8 <__sfputc_r+0x16>
    cca2:	47a9                	li	a5,10
    cca4:	00f59463          	bne	a1,a5,ccac <__sfputc_r+0x1a>
    cca8:	945ff06f          	j	c5ec <__swbuf_r>
    ccac:	421c                	lw	a5,0(a2)
    ccae:	852e                	mv	a0,a1
    ccb0:	00178713          	addi	a4,a5,1
    ccb4:	c218                	sw	a4,0(a2)
    ccb6:	00b78023          	sb	a1,0(a5)
    ccba:	8082                	ret

0000ccbc <__sfputs_r>:
    ccbc:	1101                	addi	sp,sp,-32
    ccbe:	cc22                	sw	s0,24(sp)
    ccc0:	ca26                	sw	s1,20(sp)
    ccc2:	c84a                	sw	s2,16(sp)
    ccc4:	c64e                	sw	s3,12(sp)
    ccc6:	c452                	sw	s4,8(sp)
    ccc8:	ce06                	sw	ra,28(sp)
    ccca:	892a                	mv	s2,a0
    cccc:	89ae                	mv	s3,a1
    ccce:	8432                	mv	s0,a2
    ccd0:	00d604b3          	add	s1,a2,a3
    ccd4:	5a7d                	li	s4,-1
    ccd6:	00941463          	bne	s0,s1,ccde <__sfputs_r+0x22>
    ccda:	4501                	li	a0,0
    ccdc:	a811                	j	ccf0 <__sfputs_r+0x34>
    ccde:	00044583          	lbu	a1,0(s0)
    cce2:	864e                	mv	a2,s3
    cce4:	854a                	mv	a0,s2
    cce6:	fadff0ef          	jal	ra,cc92 <__sfputc_r>
    ccea:	0405                	addi	s0,s0,1
    ccec:	ff4515e3          	bne	a0,s4,ccd6 <__sfputs_r+0x1a>
    ccf0:	40f2                	lw	ra,28(sp)
    ccf2:	4462                	lw	s0,24(sp)
    ccf4:	44d2                	lw	s1,20(sp)
    ccf6:	4942                	lw	s2,16(sp)
    ccf8:	49b2                	lw	s3,12(sp)
    ccfa:	4a22                	lw	s4,8(sp)
    ccfc:	6105                	addi	sp,sp,32
    ccfe:	8082                	ret

0000cd00 <_vfiprintf_r>:
    cd00:	7135                	addi	sp,sp,-160
    cd02:	cd22                	sw	s0,152(sp)
    cd04:	cb26                	sw	s1,148(sp)
    cd06:	c94a                	sw	s2,144(sp)
    cd08:	c74e                	sw	s3,140(sp)
    cd0a:	cf06                	sw	ra,156(sp)
    cd0c:	c552                	sw	s4,136(sp)
    cd0e:	c356                	sw	s5,132(sp)
    cd10:	c15a                	sw	s6,128(sp)
    cd12:	dede                	sw	s7,124(sp)
    cd14:	dce2                	sw	s8,120(sp)
    cd16:	dae6                	sw	s9,116(sp)
    cd18:	89aa                	mv	s3,a0
    cd1a:	84ae                	mv	s1,a1
    cd1c:	8932                	mv	s2,a2
    cd1e:	8436                	mv	s0,a3
    cd20:	c509                	beqz	a0,cd2a <_vfiprintf_r+0x2a>
    cd22:	4d1c                	lw	a5,24(a0)
    cd24:	e399                	bnez	a5,cd2a <_vfiprintf_r+0x2a>
    cd26:	cf5ff0ef          	jal	ra,ca1a <__sinit>
    cd2a:	00001797          	auipc	a5,0x1
    cd2e:	1f678793          	addi	a5,a5,502 # df20 <__sf_fake_stdin>
    cd32:	0cf49c63          	bne	s1,a5,ce0a <_vfiprintf_r+0x10a>
    cd36:	0049a483          	lw	s1,4(s3)
    cd3a:	00c4d783          	lhu	a5,12(s1)
    cd3e:	8ba1                	andi	a5,a5,8
    cd40:	c7fd                	beqz	a5,ce2e <_vfiprintf_r+0x12e>
    cd42:	489c                	lw	a5,16(s1)
    cd44:	c7ed                	beqz	a5,ce2e <_vfiprintf_r+0x12e>
    cd46:	02000793          	li	a5,32
    cd4a:	02f104a3          	sb	a5,41(sp)
    cd4e:	03000793          	li	a5,48
    cd52:	d202                	sw	zero,36(sp)
    cd54:	02f10523          	sb	a5,42(sp)
    cd58:	c622                	sw	s0,12(sp)
    cd5a:	02500b93          	li	s7,37
    cd5e:	00001a97          	auipc	s5,0x1
    cd62:	202a8a93          	addi	s5,s5,514 # df60 <__sf_fake_stdout+0x20>
    cd66:	4c05                	li	s8,1
    cd68:	4b29                	li	s6,10
    cd6a:	844a                	mv	s0,s2
    cd6c:	00044783          	lbu	a5,0(s0)
    cd70:	c399                	beqz	a5,cd76 <_vfiprintf_r+0x76>
    cd72:	0f779163          	bne	a5,s7,ce54 <_vfiprintf_r+0x154>
    cd76:	41240cb3          	sub	s9,s0,s2
    cd7a:	000c8e63          	beqz	s9,cd96 <_vfiprintf_r+0x96>
    cd7e:	86e6                	mv	a3,s9
    cd80:	864a                	mv	a2,s2
    cd82:	85a6                	mv	a1,s1
    cd84:	854e                	mv	a0,s3
    cd86:	f37ff0ef          	jal	ra,ccbc <__sfputs_r>
    cd8a:	57fd                	li	a5,-1
    cd8c:	1ef50663          	beq	a0,a5,cf78 <_vfiprintf_r+0x278>
    cd90:	5692                	lw	a3,36(sp)
    cd92:	96e6                	add	a3,a3,s9
    cd94:	d236                	sw	a3,36(sp)
    cd96:	00044783          	lbu	a5,0(s0)
    cd9a:	1c078f63          	beqz	a5,cf78 <_vfiprintf_r+0x278>
    cd9e:	57fd                	li	a5,-1
    cda0:	00140913          	addi	s2,s0,1
    cda4:	c802                	sw	zero,16(sp)
    cda6:	ce02                	sw	zero,28(sp)
    cda8:	ca3e                	sw	a5,20(sp)
    cdaa:	cc02                	sw	zero,24(sp)
    cdac:	040109a3          	sb	zero,83(sp)
    cdb0:	d482                	sw	zero,104(sp)
    cdb2:	00094583          	lbu	a1,0(s2)
    cdb6:	4615                	li	a2,5
    cdb8:	8556                	mv	a0,s5
    cdba:	27b9                	jal	d508 <memchr>
    cdbc:	00190413          	addi	s0,s2,1
    cdc0:	47c2                	lw	a5,16(sp)
    cdc2:	e959                	bnez	a0,ce58 <_vfiprintf_r+0x158>
    cdc4:	0107f713          	andi	a4,a5,16
    cdc8:	c709                	beqz	a4,cdd2 <_vfiprintf_r+0xd2>
    cdca:	02000713          	li	a4,32
    cdce:	04e109a3          	sb	a4,83(sp)
    cdd2:	0087f713          	andi	a4,a5,8
    cdd6:	c709                	beqz	a4,cde0 <_vfiprintf_r+0xe0>
    cdd8:	02b00713          	li	a4,43
    cddc:	04e109a3          	sb	a4,83(sp)
    cde0:	00094683          	lbu	a3,0(s2)
    cde4:	02a00713          	li	a4,42
    cde8:	08e68063          	beq	a3,a4,ce68 <_vfiprintf_r+0x168>
    cdec:	47f2                	lw	a5,28(sp)
    cdee:	844a                	mv	s0,s2
    cdf0:	4681                	li	a3,0
    cdf2:	4625                	li	a2,9
    cdf4:	00044703          	lbu	a4,0(s0)
    cdf8:	00140593          	addi	a1,s0,1
    cdfc:	fd070713          	addi	a4,a4,-48 # ffffdfd0 <__freertos_irq_stack_top+0xdfff8fd0>
    ce00:	0ae67963          	bgeu	a2,a4,ceb2 <_vfiprintf_r+0x1b2>
    ce04:	cab5                	beqz	a3,ce78 <_vfiprintf_r+0x178>
    ce06:	ce3e                	sw	a5,28(sp)
    ce08:	a885                	j	ce78 <_vfiprintf_r+0x178>
    ce0a:	00001797          	auipc	a5,0x1
    ce0e:	13678793          	addi	a5,a5,310 # df40 <__sf_fake_stdout>
    ce12:	00f49563          	bne	s1,a5,ce1c <_vfiprintf_r+0x11c>
    ce16:	0089a483          	lw	s1,8(s3)
    ce1a:	b705                	j	cd3a <_vfiprintf_r+0x3a>
    ce1c:	00001797          	auipc	a5,0x1
    ce20:	0e478793          	addi	a5,a5,228 # df00 <__sf_fake_stderr>
    ce24:	f0f49be3          	bne	s1,a5,cd3a <_vfiprintf_r+0x3a>
    ce28:	00c9a483          	lw	s1,12(s3)
    ce2c:	b739                	j	cd3a <_vfiprintf_r+0x3a>
    ce2e:	85a6                	mv	a1,s1
    ce30:	854e                	mv	a0,s3
    ce32:	87bff0ef          	jal	ra,c6ac <__swsetup_r>
    ce36:	d901                	beqz	a0,cd46 <_vfiprintf_r+0x46>
    ce38:	557d                	li	a0,-1
    ce3a:	40fa                	lw	ra,156(sp)
    ce3c:	446a                	lw	s0,152(sp)
    ce3e:	44da                	lw	s1,148(sp)
    ce40:	494a                	lw	s2,144(sp)
    ce42:	49ba                	lw	s3,140(sp)
    ce44:	4a2a                	lw	s4,136(sp)
    ce46:	4a9a                	lw	s5,132(sp)
    ce48:	4b0a                	lw	s6,128(sp)
    ce4a:	5bf6                	lw	s7,124(sp)
    ce4c:	5c66                	lw	s8,120(sp)
    ce4e:	5cd6                	lw	s9,116(sp)
    ce50:	610d                	addi	sp,sp,160
    ce52:	8082                	ret
    ce54:	0405                	addi	s0,s0,1
    ce56:	bf19                	j	cd6c <_vfiprintf_r+0x6c>
    ce58:	41550533          	sub	a0,a0,s5
    ce5c:	00ac1533          	sll	a0,s8,a0
    ce60:	8fc9                	or	a5,a5,a0
    ce62:	c83e                	sw	a5,16(sp)
    ce64:	8922                	mv	s2,s0
    ce66:	b7b1                	j	cdb2 <_vfiprintf_r+0xb2>
    ce68:	4732                	lw	a4,12(sp)
    ce6a:	00470693          	addi	a3,a4,4
    ce6e:	4318                	lw	a4,0(a4)
    ce70:	c636                	sw	a3,12(sp)
    ce72:	02074963          	bltz	a4,cea4 <_vfiprintf_r+0x1a4>
    ce76:	ce3a                	sw	a4,28(sp)
    ce78:	00044703          	lbu	a4,0(s0)
    ce7c:	02e00793          	li	a5,46
    ce80:	04f71f63          	bne	a4,a5,cede <_vfiprintf_r+0x1de>
    ce84:	00144703          	lbu	a4,1(s0)
    ce88:	02a00793          	li	a5,42
    ce8c:	02f71b63          	bne	a4,a5,cec2 <_vfiprintf_r+0x1c2>
    ce90:	47b2                	lw	a5,12(sp)
    ce92:	0409                	addi	s0,s0,2
    ce94:	00478713          	addi	a4,a5,4
    ce98:	439c                	lw	a5,0(a5)
    ce9a:	c63a                	sw	a4,12(sp)
    ce9c:	0207c163          	bltz	a5,cebe <_vfiprintf_r+0x1be>
    cea0:	ca3e                	sw	a5,20(sp)
    cea2:	a835                	j	cede <_vfiprintf_r+0x1de>
    cea4:	40e00733          	neg	a4,a4
    cea8:	0027e793          	ori	a5,a5,2
    ceac:	ce3a                	sw	a4,28(sp)
    ceae:	c83e                	sw	a5,16(sp)
    ceb0:	b7e1                	j	ce78 <_vfiprintf_r+0x178>
    ceb2:	036787b3          	mul	a5,a5,s6
    ceb6:	4685                	li	a3,1
    ceb8:	842e                	mv	s0,a1
    ceba:	97ba                	add	a5,a5,a4
    cebc:	bf25                	j	cdf4 <_vfiprintf_r+0xf4>
    cebe:	57fd                	li	a5,-1
    cec0:	b7c5                	j	cea0 <_vfiprintf_r+0x1a0>
    cec2:	0405                	addi	s0,s0,1
    cec4:	ca02                	sw	zero,20(sp)
    cec6:	4681                	li	a3,0
    cec8:	4781                	li	a5,0
    ceca:	4625                	li	a2,9
    cecc:	00044703          	lbu	a4,0(s0)
    ced0:	00140593          	addi	a1,s0,1
    ced4:	fd070713          	addi	a4,a4,-48
    ced8:	06e67663          	bgeu	a2,a4,cf44 <_vfiprintf_r+0x244>
    cedc:	f2f1                	bnez	a3,cea0 <_vfiprintf_r+0x1a0>
    cede:	00044583          	lbu	a1,0(s0)
    cee2:	460d                	li	a2,3
    cee4:	00001517          	auipc	a0,0x1
    cee8:	08450513          	addi	a0,a0,132 # df68 <__sf_fake_stdout+0x28>
    ceec:	2d31                	jal	d508 <memchr>
    ceee:	cd11                	beqz	a0,cf0a <_vfiprintf_r+0x20a>
    cef0:	00001797          	auipc	a5,0x1
    cef4:	07878793          	addi	a5,a5,120 # df68 <__sf_fake_stdout+0x28>
    cef8:	8d1d                	sub	a0,a0,a5
    cefa:	04000793          	li	a5,64
    cefe:	00a797b3          	sll	a5,a5,a0
    cf02:	4542                	lw	a0,16(sp)
    cf04:	0405                	addi	s0,s0,1
    cf06:	8d5d                	or	a0,a0,a5
    cf08:	c82a                	sw	a0,16(sp)
    cf0a:	00044583          	lbu	a1,0(s0)
    cf0e:	4619                	li	a2,6
    cf10:	00001517          	auipc	a0,0x1
    cf14:	05c50513          	addi	a0,a0,92 # df6c <__sf_fake_stdout+0x2c>
    cf18:	00140913          	addi	s2,s0,1
    cf1c:	02b10423          	sb	a1,40(sp)
    cf20:	23e5                	jal	d508 <memchr>
    cf22:	c13d                	beqz	a0,cf88 <_vfiprintf_r+0x288>
    cf24:	ffff3797          	auipc	a5,0xffff3
    cf28:	0dc78793          	addi	a5,a5,220 # 0 <_sinit>
    cf2c:	e795                	bnez	a5,cf58 <_vfiprintf_r+0x258>
    cf2e:	4742                	lw	a4,16(sp)
    cf30:	47b2                	lw	a5,12(sp)
    cf32:	10077713          	andi	a4,a4,256
    cf36:	cf09                	beqz	a4,cf50 <_vfiprintf_r+0x250>
    cf38:	0791                	addi	a5,a5,4
    cf3a:	c63e                	sw	a5,12(sp)
    cf3c:	5792                	lw	a5,36(sp)
    cf3e:	97d2                	add	a5,a5,s4
    cf40:	d23e                	sw	a5,36(sp)
    cf42:	b525                	j	cd6a <_vfiprintf_r+0x6a>
    cf44:	036787b3          	mul	a5,a5,s6
    cf48:	4685                	li	a3,1
    cf4a:	842e                	mv	s0,a1
    cf4c:	97ba                	add	a5,a5,a4
    cf4e:	bfbd                	j	cecc <_vfiprintf_r+0x1cc>
    cf50:	079d                	addi	a5,a5,7
    cf52:	9be1                	andi	a5,a5,-8
    cf54:	07a1                	addi	a5,a5,8
    cf56:	b7d5                	j	cf3a <_vfiprintf_r+0x23a>
    cf58:	0078                	addi	a4,sp,12
    cf5a:	00000697          	auipc	a3,0x0
    cf5e:	d6268693          	addi	a3,a3,-670 # ccbc <__sfputs_r>
    cf62:	8626                	mv	a2,s1
    cf64:	080c                	addi	a1,sp,16
    cf66:	854e                	mv	a0,s3
    cf68:	00000097          	auipc	ra,0x0
    cf6c:	000000e7          	jalr	zero # 0 <_sinit>
    cf70:	57fd                	li	a5,-1
    cf72:	8a2a                	mv	s4,a0
    cf74:	fcf514e3          	bne	a0,a5,cf3c <_vfiprintf_r+0x23c>
    cf78:	00c4d783          	lhu	a5,12(s1)
    cf7c:	0407f793          	andi	a5,a5,64
    cf80:	ea079ce3          	bnez	a5,ce38 <_vfiprintf_r+0x138>
    cf84:	5512                	lw	a0,36(sp)
    cf86:	bd55                	j	ce3a <_vfiprintf_r+0x13a>
    cf88:	0078                	addi	a4,sp,12
    cf8a:	00000697          	auipc	a3,0x0
    cf8e:	d3268693          	addi	a3,a3,-718 # ccbc <__sfputs_r>
    cf92:	8626                	mv	a2,s1
    cf94:	080c                	addi	a1,sp,16
    cf96:	854e                	mv	a0,s3
    cf98:	2a01                	jal	d0a8 <_printf_i>
    cf9a:	bfd9                	j	cf70 <_vfiprintf_r+0x270>

0000cf9c <_printf_common>:
    cf9c:	7179                	addi	sp,sp,-48
    cf9e:	ca56                	sw	s5,20(sp)
    cfa0:	499c                	lw	a5,16(a1)
    cfa2:	8aba                	mv	s5,a4
    cfa4:	4598                	lw	a4,8(a1)
    cfa6:	d422                	sw	s0,40(sp)
    cfa8:	d226                	sw	s1,36(sp)
    cfaa:	ce4e                	sw	s3,28(sp)
    cfac:	cc52                	sw	s4,24(sp)
    cfae:	d606                	sw	ra,44(sp)
    cfb0:	d04a                	sw	s2,32(sp)
    cfb2:	c85a                	sw	s6,16(sp)
    cfb4:	c65e                	sw	s7,12(sp)
    cfb6:	89aa                	mv	s3,a0
    cfb8:	842e                	mv	s0,a1
    cfba:	84b2                	mv	s1,a2
    cfbc:	8a36                	mv	s4,a3
    cfbe:	00e7d363          	bge	a5,a4,cfc4 <_printf_common+0x28>
    cfc2:	87ba                	mv	a5,a4
    cfc4:	c09c                	sw	a5,0(s1)
    cfc6:	04344703          	lbu	a4,67(s0)
    cfca:	c319                	beqz	a4,cfd0 <_printf_common+0x34>
    cfcc:	0785                	addi	a5,a5,1
    cfce:	c09c                	sw	a5,0(s1)
    cfd0:	401c                	lw	a5,0(s0)
    cfd2:	0207f793          	andi	a5,a5,32
    cfd6:	c781                	beqz	a5,cfde <_printf_common+0x42>
    cfd8:	409c                	lw	a5,0(s1)
    cfda:	0789                	addi	a5,a5,2
    cfdc:	c09c                	sw	a5,0(s1)
    cfde:	00042903          	lw	s2,0(s0)
    cfe2:	00697913          	andi	s2,s2,6
    cfe6:	00091a63          	bnez	s2,cffa <_printf_common+0x5e>
    cfea:	01940b13          	addi	s6,s0,25
    cfee:	5bfd                	li	s7,-1
    cff0:	445c                	lw	a5,12(s0)
    cff2:	4098                	lw	a4,0(s1)
    cff4:	8f99                	sub	a5,a5,a4
    cff6:	04f94c63          	blt	s2,a5,d04e <_printf_common+0xb2>
    cffa:	401c                	lw	a5,0(s0)
    cffc:	04344683          	lbu	a3,67(s0)
    d000:	0207f793          	andi	a5,a5,32
    d004:	00d036b3          	snez	a3,a3
    d008:	eba5                	bnez	a5,d078 <_printf_common+0xdc>
    d00a:	04340613          	addi	a2,s0,67
    d00e:	85d2                	mv	a1,s4
    d010:	854e                	mv	a0,s3
    d012:	9a82                	jalr	s5
    d014:	57fd                	li	a5,-1
    d016:	04f50363          	beq	a0,a5,d05c <_printf_common+0xc0>
    d01a:	401c                	lw	a5,0(s0)
    d01c:	4611                	li	a2,4
    d01e:	4098                	lw	a4,0(s1)
    d020:	8b99                	andi	a5,a5,6
    d022:	4454                	lw	a3,12(s0)
    d024:	4481                	li	s1,0
    d026:	00c79763          	bne	a5,a2,d034 <_printf_common+0x98>
    d02a:	40e684b3          	sub	s1,a3,a4
    d02e:	0004d363          	bgez	s1,d034 <_printf_common+0x98>
    d032:	4481                	li	s1,0
    d034:	441c                	lw	a5,8(s0)
    d036:	4818                	lw	a4,16(s0)
    d038:	00f75463          	bge	a4,a5,d040 <_printf_common+0xa4>
    d03c:	8f99                	sub	a5,a5,a4
    d03e:	94be                	add	s1,s1,a5
    d040:	4901                	li	s2,0
    d042:	0469                	addi	s0,s0,26
    d044:	5b7d                	li	s6,-1
    d046:	05249863          	bne	s1,s2,d096 <_printf_common+0xfa>
    d04a:	4501                	li	a0,0
    d04c:	a809                	j	d05e <_printf_common+0xc2>
    d04e:	4685                	li	a3,1
    d050:	865a                	mv	a2,s6
    d052:	85d2                	mv	a1,s4
    d054:	854e                	mv	a0,s3
    d056:	9a82                	jalr	s5
    d058:	01751e63          	bne	a0,s7,d074 <_printf_common+0xd8>
    d05c:	557d                	li	a0,-1
    d05e:	50b2                	lw	ra,44(sp)
    d060:	5422                	lw	s0,40(sp)
    d062:	5492                	lw	s1,36(sp)
    d064:	5902                	lw	s2,32(sp)
    d066:	49f2                	lw	s3,28(sp)
    d068:	4a62                	lw	s4,24(sp)
    d06a:	4ad2                	lw	s5,20(sp)
    d06c:	4b42                	lw	s6,16(sp)
    d06e:	4bb2                	lw	s7,12(sp)
    d070:	6145                	addi	sp,sp,48
    d072:	8082                	ret
    d074:	0905                	addi	s2,s2,1
    d076:	bfad                	j	cff0 <_printf_common+0x54>
    d078:	00d40733          	add	a4,s0,a3
    d07c:	03000613          	li	a2,48
    d080:	04c701a3          	sb	a2,67(a4)
    d084:	04544703          	lbu	a4,69(s0)
    d088:	00168793          	addi	a5,a3,1
    d08c:	97a2                	add	a5,a5,s0
    d08e:	0689                	addi	a3,a3,2
    d090:	04e781a3          	sb	a4,67(a5)
    d094:	bf9d                	j	d00a <_printf_common+0x6e>
    d096:	4685                	li	a3,1
    d098:	8622                	mv	a2,s0
    d09a:	85d2                	mv	a1,s4
    d09c:	854e                	mv	a0,s3
    d09e:	9a82                	jalr	s5
    d0a0:	fb650ee3          	beq	a0,s6,d05c <_printf_common+0xc0>
    d0a4:	0905                	addi	s2,s2,1
    d0a6:	b745                	j	d046 <_printf_common+0xaa>

0000d0a8 <_printf_i>:
    d0a8:	7179                	addi	sp,sp,-48
    d0aa:	d422                	sw	s0,40(sp)
    d0ac:	d226                	sw	s1,36(sp)
    d0ae:	d04a                	sw	s2,32(sp)
    d0b0:	ce4e                	sw	s3,28(sp)
    d0b2:	d606                	sw	ra,44(sp)
    d0b4:	cc52                	sw	s4,24(sp)
    d0b6:	ca56                	sw	s5,20(sp)
    d0b8:	c85a                	sw	s6,16(sp)
    d0ba:	89b6                	mv	s3,a3
    d0bc:	0185c683          	lbu	a3,24(a1)
    d0c0:	06900793          	li	a5,105
    d0c4:	8932                	mv	s2,a2
    d0c6:	84aa                	mv	s1,a0
    d0c8:	842e                	mv	s0,a1
    d0ca:	04358613          	addi	a2,a1,67
    d0ce:	02f68d63          	beq	a3,a5,d108 <_printf_i+0x60>
    d0d2:	06d7e263          	bltu	a5,a3,d136 <_printf_i+0x8e>
    d0d6:	05800793          	li	a5,88
    d0da:	18f68863          	beq	a3,a5,d26a <_printf_i+0x1c2>
    d0de:	00d7ed63          	bltu	a5,a3,d0f8 <_printf_i+0x50>
    d0e2:	22068163          	beqz	a3,d304 <_printf_i+0x25c>
    d0e6:	04300793          	li	a5,67
    d0ea:	0af68e63          	beq	a3,a5,d1a6 <_printf_i+0xfe>
    d0ee:	04240a93          	addi	s5,s0,66
    d0f2:	04d40123          	sb	a3,66(s0)
    d0f6:	a0c9                	j	d1b8 <_printf_i+0x110>
    d0f8:	06300793          	li	a5,99
    d0fc:	0af68563          	beq	a3,a5,d1a6 <_printf_i+0xfe>
    d100:	06400793          	li	a5,100
    d104:	fef695e3          	bne	a3,a5,d0ee <_printf_i+0x46>
    d108:	401c                	lw	a5,0(s0)
    d10a:	4308                	lw	a0,0(a4)
    d10c:	0807f693          	andi	a3,a5,128
    d110:	00450593          	addi	a1,a0,4
    d114:	c6c5                	beqz	a3,d1bc <_printf_i+0x114>
    d116:	411c                	lw	a5,0(a0)
    d118:	c30c                	sw	a1,0(a4)
    d11a:	0007d863          	bgez	a5,d12a <_printf_i+0x82>
    d11e:	02d00713          	li	a4,45
    d122:	40f007b3          	neg	a5,a5
    d126:	04e401a3          	sb	a4,67(s0)
    d12a:	00001697          	auipc	a3,0x1
    d12e:	e4a68693          	addi	a3,a3,-438 # df74 <__sf_fake_stdout+0x34>
    d132:	4729                	li	a4,10
    d134:	a86d                	j	d1ee <_printf_i+0x146>
    d136:	07000793          	li	a5,112
    d13a:	16f68463          	beq	a3,a5,d2a2 <_printf_i+0x1fa>
    d13e:	02d7e563          	bltu	a5,a3,d168 <_printf_i+0xc0>
    d142:	06e00793          	li	a5,110
    d146:	18f68b63          	beq	a3,a5,d2dc <_printf_i+0x234>
    d14a:	06f00793          	li	a5,111
    d14e:	faf690e3          	bne	a3,a5,d0ee <_printf_i+0x46>
    d152:	400c                	lw	a1,0(s0)
    d154:	431c                	lw	a5,0(a4)
    d156:	0805f813          	andi	a6,a1,128
    d15a:	00478513          	addi	a0,a5,4
    d15e:	06080763          	beqz	a6,d1cc <_printf_i+0x124>
    d162:	c308                	sw	a0,0(a4)
    d164:	439c                	lw	a5,0(a5)
    d166:	a88d                	j	d1d8 <_printf_i+0x130>
    d168:	07500793          	li	a5,117
    d16c:	fef683e3          	beq	a3,a5,d152 <_printf_i+0xaa>
    d170:	07800793          	li	a5,120
    d174:	12f68b63          	beq	a3,a5,d2aa <_printf_i+0x202>
    d178:	07300793          	li	a5,115
    d17c:	f6f699e3          	bne	a3,a5,d0ee <_printf_i+0x46>
    d180:	431c                	lw	a5,0(a4)
    d182:	41d0                	lw	a2,4(a1)
    d184:	4581                	li	a1,0
    d186:	00478693          	addi	a3,a5,4
    d18a:	c314                	sw	a3,0(a4)
    d18c:	0007aa83          	lw	s5,0(a5)
    d190:	8556                	mv	a0,s5
    d192:	2e9d                	jal	d508 <memchr>
    d194:	c501                	beqz	a0,d19c <_printf_i+0xf4>
    d196:	41550533          	sub	a0,a0,s5
    d19a:	c048                	sw	a0,4(s0)
    d19c:	405c                	lw	a5,4(s0)
    d19e:	c81c                	sw	a5,16(s0)
    d1a0:	040401a3          	sb	zero,67(s0)
    d1a4:	a871                	j	d240 <_printf_i+0x198>
    d1a6:	431c                	lw	a5,0(a4)
    d1a8:	04240a93          	addi	s5,s0,66
    d1ac:	00478693          	addi	a3,a5,4
    d1b0:	439c                	lw	a5,0(a5)
    d1b2:	c314                	sw	a3,0(a4)
    d1b4:	04f40123          	sb	a5,66(s0)
    d1b8:	4785                	li	a5,1
    d1ba:	b7d5                	j	d19e <_printf_i+0xf6>
    d1bc:	0407f693          	andi	a3,a5,64
    d1c0:	411c                	lw	a5,0(a0)
    d1c2:	c30c                	sw	a1,0(a4)
    d1c4:	dab9                	beqz	a3,d11a <_printf_i+0x72>
    d1c6:	07c2                	slli	a5,a5,0x10
    d1c8:	87c1                	srai	a5,a5,0x10
    d1ca:	bf81                	j	d11a <_printf_i+0x72>
    d1cc:	0405f593          	andi	a1,a1,64
    d1d0:	c308                	sw	a0,0(a4)
    d1d2:	d9c9                	beqz	a1,d164 <_printf_i+0xbc>
    d1d4:	0007d783          	lhu	a5,0(a5)
    d1d8:	06f00713          	li	a4,111
    d1dc:	0ee68863          	beq	a3,a4,d2cc <_printf_i+0x224>
    d1e0:	00001697          	auipc	a3,0x1
    d1e4:	d9468693          	addi	a3,a3,-620 # df74 <__sf_fake_stdout+0x34>
    d1e8:	4729                	li	a4,10
    d1ea:	040401a3          	sb	zero,67(s0)
    d1ee:	404c                	lw	a1,4(s0)
    d1f0:	c40c                	sw	a1,8(s0)
    d1f2:	0005c563          	bltz	a1,d1fc <_printf_i+0x154>
    d1f6:	4008                	lw	a0,0(s0)
    d1f8:	996d                	andi	a0,a0,-5
    d1fa:	c008                	sw	a0,0(s0)
    d1fc:	e399                	bnez	a5,d202 <_printf_i+0x15a>
    d1fe:	8ab2                	mv	s5,a2
    d200:	cd91                	beqz	a1,d21c <_printf_i+0x174>
    d202:	8ab2                	mv	s5,a2
    d204:	02e7f5b3          	remu	a1,a5,a4
    d208:	1afd                	addi	s5,s5,-1
    d20a:	95b6                	add	a1,a1,a3
    d20c:	0005c583          	lbu	a1,0(a1)
    d210:	00ba8023          	sb	a1,0(s5)
    d214:	02e7d5b3          	divu	a1,a5,a4
    d218:	0ce7f063          	bgeu	a5,a4,d2d8 <_printf_i+0x230>
    d21c:	47a1                	li	a5,8
    d21e:	00f71e63          	bne	a4,a5,d23a <_printf_i+0x192>
    d222:	401c                	lw	a5,0(s0)
    d224:	8b85                	andi	a5,a5,1
    d226:	cb91                	beqz	a5,d23a <_printf_i+0x192>
    d228:	4058                	lw	a4,4(s0)
    d22a:	481c                	lw	a5,16(s0)
    d22c:	00e7c763          	blt	a5,a4,d23a <_printf_i+0x192>
    d230:	03000793          	li	a5,48
    d234:	fefa8fa3          	sb	a5,-1(s5)
    d238:	1afd                	addi	s5,s5,-1
    d23a:	41560633          	sub	a2,a2,s5
    d23e:	c810                	sw	a2,16(s0)
    d240:	874e                	mv	a4,s3
    d242:	86ca                	mv	a3,s2
    d244:	0070                	addi	a2,sp,12
    d246:	85a2                	mv	a1,s0
    d248:	8526                	mv	a0,s1
    d24a:	d53ff0ef          	jal	ra,cf9c <_printf_common>
    d24e:	5a7d                	li	s4,-1
    d250:	0b451e63          	bne	a0,s4,d30c <_printf_i+0x264>
    d254:	557d                	li	a0,-1
    d256:	50b2                	lw	ra,44(sp)
    d258:	5422                	lw	s0,40(sp)
    d25a:	5492                	lw	s1,36(sp)
    d25c:	5902                	lw	s2,32(sp)
    d25e:	49f2                	lw	s3,28(sp)
    d260:	4a62                	lw	s4,24(sp)
    d262:	4ad2                	lw	s5,20(sp)
    d264:	4b42                	lw	s6,16(sp)
    d266:	6145                	addi	sp,sp,48
    d268:	8082                	ret
    d26a:	04d582a3          	sb	a3,69(a1)
    d26e:	00001697          	auipc	a3,0x1
    d272:	d0668693          	addi	a3,a3,-762 # df74 <__sf_fake_stdout+0x34>
    d276:	400c                	lw	a1,0(s0)
    d278:	4308                	lw	a0,0(a4)
    d27a:	0805f813          	andi	a6,a1,128
    d27e:	411c                	lw	a5,0(a0)
    d280:	0511                	addi	a0,a0,4
    d282:	02080d63          	beqz	a6,d2bc <_printf_i+0x214>
    d286:	c308                	sw	a0,0(a4)
    d288:	0015f713          	andi	a4,a1,1
    d28c:	c701                	beqz	a4,d294 <_printf_i+0x1ec>
    d28e:	0205e593          	ori	a1,a1,32
    d292:	c00c                	sw	a1,0(s0)
    d294:	4741                	li	a4,16
    d296:	fbb1                	bnez	a5,d1ea <_printf_i+0x142>
    d298:	400c                	lw	a1,0(s0)
    d29a:	fdf5f593          	andi	a1,a1,-33
    d29e:	c00c                	sw	a1,0(s0)
    d2a0:	b7a9                	j	d1ea <_printf_i+0x142>
    d2a2:	419c                	lw	a5,0(a1)
    d2a4:	0207e793          	ori	a5,a5,32
    d2a8:	c19c                	sw	a5,0(a1)
    d2aa:	07800793          	li	a5,120
    d2ae:	04f402a3          	sb	a5,69(s0)
    d2b2:	00001697          	auipc	a3,0x1
    d2b6:	cd668693          	addi	a3,a3,-810 # df88 <__sf_fake_stdout+0x48>
    d2ba:	bf75                	j	d276 <_printf_i+0x1ce>
    d2bc:	0405f813          	andi	a6,a1,64
    d2c0:	c308                	sw	a0,0(a4)
    d2c2:	fc0803e3          	beqz	a6,d288 <_printf_i+0x1e0>
    d2c6:	07c2                	slli	a5,a5,0x10
    d2c8:	83c1                	srli	a5,a5,0x10
    d2ca:	bf7d                	j	d288 <_printf_i+0x1e0>
    d2cc:	00001697          	auipc	a3,0x1
    d2d0:	ca868693          	addi	a3,a3,-856 # df74 <__sf_fake_stdout+0x34>
    d2d4:	4721                	li	a4,8
    d2d6:	bf11                	j	d1ea <_printf_i+0x142>
    d2d8:	87ae                	mv	a5,a1
    d2da:	b72d                	j	d204 <_printf_i+0x15c>
    d2dc:	4194                	lw	a3,0(a1)
    d2de:	431c                	lw	a5,0(a4)
    d2e0:	49cc                	lw	a1,20(a1)
    d2e2:	0806f813          	andi	a6,a3,128
    d2e6:	00478513          	addi	a0,a5,4
    d2ea:	00080663          	beqz	a6,d2f6 <_printf_i+0x24e>
    d2ee:	c308                	sw	a0,0(a4)
    d2f0:	439c                	lw	a5,0(a5)
    d2f2:	c38c                	sw	a1,0(a5)
    d2f4:	a801                	j	d304 <_printf_i+0x25c>
    d2f6:	c308                	sw	a0,0(a4)
    d2f8:	0406f693          	andi	a3,a3,64
    d2fc:	439c                	lw	a5,0(a5)
    d2fe:	daf5                	beqz	a3,d2f2 <_printf_i+0x24a>
    d300:	00b79023          	sh	a1,0(a5)
    d304:	00042823          	sw	zero,16(s0)
    d308:	8ab2                	mv	s5,a2
    d30a:	bf1d                	j	d240 <_printf_i+0x198>
    d30c:	4814                	lw	a3,16(s0)
    d30e:	8656                	mv	a2,s5
    d310:	85ca                	mv	a1,s2
    d312:	8526                	mv	a0,s1
    d314:	9982                	jalr	s3
    d316:	f3450fe3          	beq	a0,s4,d254 <_printf_i+0x1ac>
    d31a:	401c                	lw	a5,0(s0)
    d31c:	8b89                	andi	a5,a5,2
    d31e:	e78d                	bnez	a5,d348 <_printf_i+0x2a0>
    d320:	47b2                	lw	a5,12(sp)
    d322:	4448                	lw	a0,12(s0)
    d324:	f2f559e3          	bge	a0,a5,d256 <_printf_i+0x1ae>
    d328:	853e                	mv	a0,a5
    d32a:	b735                	j	d256 <_printf_i+0x1ae>
    d32c:	4685                	li	a3,1
    d32e:	8656                	mv	a2,s5
    d330:	85ca                	mv	a1,s2
    d332:	8526                	mv	a0,s1
    d334:	9982                	jalr	s3
    d336:	f1650fe3          	beq	a0,s6,d254 <_printf_i+0x1ac>
    d33a:	0a05                	addi	s4,s4,1
    d33c:	445c                	lw	a5,12(s0)
    d33e:	4732                	lw	a4,12(sp)
    d340:	8f99                	sub	a5,a5,a4
    d342:	fefa45e3          	blt	s4,a5,d32c <_printf_i+0x284>
    d346:	bfe9                	j	d320 <_printf_i+0x278>
    d348:	4a01                	li	s4,0
    d34a:	01940a93          	addi	s5,s0,25
    d34e:	5b7d                	li	s6,-1
    d350:	b7f5                	j	d33c <_printf_i+0x294>

0000d352 <__sread>:
    d352:	1141                	addi	sp,sp,-16
    d354:	c422                	sw	s0,8(sp)
    d356:	842e                	mv	s0,a1
    d358:	00e59583          	lh	a1,14(a1)
    d35c:	c606                	sw	ra,12(sp)
    d35e:	22d1                	jal	d522 <_read_r>
    d360:	00054963          	bltz	a0,d372 <__sread+0x20>
    d364:	487c                	lw	a5,84(s0)
    d366:	97aa                	add	a5,a5,a0
    d368:	c87c                	sw	a5,84(s0)
    d36a:	40b2                	lw	ra,12(sp)
    d36c:	4422                	lw	s0,8(sp)
    d36e:	0141                	addi	sp,sp,16
    d370:	8082                	ret
    d372:	00c45783          	lhu	a5,12(s0)
    d376:	777d                	lui	a4,0xfffff
    d378:	177d                	addi	a4,a4,-1
    d37a:	8ff9                	and	a5,a5,a4
    d37c:	00f41623          	sh	a5,12(s0)
    d380:	b7ed                	j	d36a <__sread+0x18>

0000d382 <__swrite>:
    d382:	00c5d783          	lhu	a5,12(a1)
    d386:	1101                	addi	sp,sp,-32
    d388:	cc22                	sw	s0,24(sp)
    d38a:	ca26                	sw	s1,20(sp)
    d38c:	c84a                	sw	s2,16(sp)
    d38e:	c64e                	sw	s3,12(sp)
    d390:	ce06                	sw	ra,28(sp)
    d392:	1007f793          	andi	a5,a5,256
    d396:	84aa                	mv	s1,a0
    d398:	842e                	mv	s0,a1
    d39a:	8932                	mv	s2,a2
    d39c:	89b6                	mv	s3,a3
    d39e:	c791                	beqz	a5,d3aa <__swrite+0x28>
    d3a0:	00e59583          	lh	a1,14(a1)
    d3a4:	4689                	li	a3,2
    d3a6:	4601                	li	a2,0
    d3a8:	2235                	jal	d4d4 <_lseek_r>
    d3aa:	00c45783          	lhu	a5,12(s0)
    d3ae:	777d                	lui	a4,0xfffff
    d3b0:	177d                	addi	a4,a4,-1
    d3b2:	8ff9                	and	a5,a5,a4
    d3b4:	00f41623          	sh	a5,12(s0)
    d3b8:	00e41583          	lh	a1,14(s0)
    d3bc:	4462                	lw	s0,24(sp)
    d3be:	40f2                	lw	ra,28(sp)
    d3c0:	86ce                	mv	a3,s3
    d3c2:	864a                	mv	a2,s2
    d3c4:	49b2                	lw	s3,12(sp)
    d3c6:	4942                	lw	s2,16(sp)
    d3c8:	8526                	mv	a0,s1
    d3ca:	44d2                	lw	s1,20(sp)
    d3cc:	6105                	addi	sp,sp,32
    d3ce:	a83d                	j	d40c <_write_r>

0000d3d0 <__sseek>:
    d3d0:	1141                	addi	sp,sp,-16
    d3d2:	c422                	sw	s0,8(sp)
    d3d4:	842e                	mv	s0,a1
    d3d6:	00e59583          	lh	a1,14(a1)
    d3da:	c606                	sw	ra,12(sp)
    d3dc:	28e5                	jal	d4d4 <_lseek_r>
    d3de:	57fd                	li	a5,-1
    d3e0:	00c45703          	lhu	a4,12(s0)
    d3e4:	00f51b63          	bne	a0,a5,d3fa <__sseek+0x2a>
    d3e8:	77fd                	lui	a5,0xfffff
    d3ea:	17fd                	addi	a5,a5,-1
    d3ec:	8ff9                	and	a5,a5,a4
    d3ee:	00f41623          	sh	a5,12(s0)
    d3f2:	40b2                	lw	ra,12(sp)
    d3f4:	4422                	lw	s0,8(sp)
    d3f6:	0141                	addi	sp,sp,16
    d3f8:	8082                	ret
    d3fa:	6785                	lui	a5,0x1
    d3fc:	8fd9                	or	a5,a5,a4
    d3fe:	00f41623          	sh	a5,12(s0)
    d402:	c868                	sw	a0,84(s0)
    d404:	b7fd                	j	d3f2 <__sseek+0x22>

0000d406 <__sclose>:
    d406:	00e59583          	lh	a1,14(a1)
    d40a:	a825                	j	d442 <_close_r>

0000d40c <_write_r>:
    d40c:	1141                	addi	sp,sp,-16
    d40e:	c422                	sw	s0,8(sp)
    d410:	842a                	mv	s0,a0
    d412:	852e                	mv	a0,a1
    d414:	85b2                	mv	a1,a2
    d416:	8636                	mv	a2,a3
    d418:	1fff6797          	auipc	a5,0x1fff6
    d41c:	fe07a623          	sw	zero,-20(a5) # 20003404 <errno>
    d420:	c606                	sw	ra,12(sp)
    d422:	bd2f70ef          	jal	ra,47f4 <_write>
    d426:	57fd                	li	a5,-1
    d428:	00f51963          	bne	a0,a5,d43a <_write_r+0x2e>
    d42c:	1fff6797          	auipc	a5,0x1fff6
    d430:	fd878793          	addi	a5,a5,-40 # 20003404 <errno>
    d434:	439c                	lw	a5,0(a5)
    d436:	c391                	beqz	a5,d43a <_write_r+0x2e>
    d438:	c01c                	sw	a5,0(s0)
    d43a:	40b2                	lw	ra,12(sp)
    d43c:	4422                	lw	s0,8(sp)
    d43e:	0141                	addi	sp,sp,16
    d440:	8082                	ret

0000d442 <_close_r>:
    d442:	1141                	addi	sp,sp,-16
    d444:	c422                	sw	s0,8(sp)
    d446:	842a                	mv	s0,a0
    d448:	852e                	mv	a0,a1
    d44a:	1fff6797          	auipc	a5,0x1fff6
    d44e:	fa07ad23          	sw	zero,-70(a5) # 20003404 <errno>
    d452:	c606                	sw	ra,12(sp)
    d454:	2209                	jal	d556 <_close>
    d456:	57fd                	li	a5,-1
    d458:	00f51963          	bne	a0,a5,d46a <_close_r+0x28>
    d45c:	1fff6797          	auipc	a5,0x1fff6
    d460:	fa878793          	addi	a5,a5,-88 # 20003404 <errno>
    d464:	439c                	lw	a5,0(a5)
    d466:	c391                	beqz	a5,d46a <_close_r+0x28>
    d468:	c01c                	sw	a5,0(s0)
    d46a:	40b2                	lw	ra,12(sp)
    d46c:	4422                	lw	s0,8(sp)
    d46e:	0141                	addi	sp,sp,16
    d470:	8082                	ret

0000d472 <_fstat_r>:
    d472:	1141                	addi	sp,sp,-16
    d474:	c422                	sw	s0,8(sp)
    d476:	842a                	mv	s0,a0
    d478:	852e                	mv	a0,a1
    d47a:	85b2                	mv	a1,a2
    d47c:	1fff6797          	auipc	a5,0x1fff6
    d480:	f807a423          	sw	zero,-120(a5) # 20003404 <errno>
    d484:	c606                	sw	ra,12(sp)
    d486:	20c5                	jal	d566 <_fstat>
    d488:	57fd                	li	a5,-1
    d48a:	00f51963          	bne	a0,a5,d49c <_fstat_r+0x2a>
    d48e:	1fff6797          	auipc	a5,0x1fff6
    d492:	f7678793          	addi	a5,a5,-138 # 20003404 <errno>
    d496:	439c                	lw	a5,0(a5)
    d498:	c391                	beqz	a5,d49c <_fstat_r+0x2a>
    d49a:	c01c                	sw	a5,0(s0)
    d49c:	40b2                	lw	ra,12(sp)
    d49e:	4422                	lw	s0,8(sp)
    d4a0:	0141                	addi	sp,sp,16
    d4a2:	8082                	ret

0000d4a4 <_isatty_r>:
    d4a4:	1141                	addi	sp,sp,-16
    d4a6:	c422                	sw	s0,8(sp)
    d4a8:	842a                	mv	s0,a0
    d4aa:	852e                	mv	a0,a1
    d4ac:	1fff6797          	auipc	a5,0x1fff6
    d4b0:	f407ac23          	sw	zero,-168(a5) # 20003404 <errno>
    d4b4:	c606                	sw	ra,12(sp)
    d4b6:	20c1                	jal	d576 <_isatty>
    d4b8:	57fd                	li	a5,-1
    d4ba:	00f51963          	bne	a0,a5,d4cc <_isatty_r+0x28>
    d4be:	1fff6797          	auipc	a5,0x1fff6
    d4c2:	f4678793          	addi	a5,a5,-186 # 20003404 <errno>
    d4c6:	439c                	lw	a5,0(a5)
    d4c8:	c391                	beqz	a5,d4cc <_isatty_r+0x28>
    d4ca:	c01c                	sw	a5,0(s0)
    d4cc:	40b2                	lw	ra,12(sp)
    d4ce:	4422                	lw	s0,8(sp)
    d4d0:	0141                	addi	sp,sp,16
    d4d2:	8082                	ret

0000d4d4 <_lseek_r>:
    d4d4:	1141                	addi	sp,sp,-16
    d4d6:	c422                	sw	s0,8(sp)
    d4d8:	842a                	mv	s0,a0
    d4da:	852e                	mv	a0,a1
    d4dc:	85b2                	mv	a1,a2
    d4de:	8636                	mv	a2,a3
    d4e0:	1fff6797          	auipc	a5,0x1fff6
    d4e4:	f207a223          	sw	zero,-220(a5) # 20003404 <errno>
    d4e8:	c606                	sw	ra,12(sp)
    d4ea:	2871                	jal	d586 <_lseek>
    d4ec:	57fd                	li	a5,-1
    d4ee:	00f51963          	bne	a0,a5,d500 <_lseek_r+0x2c>
    d4f2:	1fff6797          	auipc	a5,0x1fff6
    d4f6:	f1278793          	addi	a5,a5,-238 # 20003404 <errno>
    d4fa:	439c                	lw	a5,0(a5)
    d4fc:	c391                	beqz	a5,d500 <_lseek_r+0x2c>
    d4fe:	c01c                	sw	a5,0(s0)
    d500:	40b2                	lw	ra,12(sp)
    d502:	4422                	lw	s0,8(sp)
    d504:	0141                	addi	sp,sp,16
    d506:	8082                	ret

0000d508 <memchr>:
    d508:	0ff5f593          	andi	a1,a1,255
    d50c:	962a                	add	a2,a2,a0
    d50e:	00c51463          	bne	a0,a2,d516 <memchr+0xe>
    d512:	4501                	li	a0,0
    d514:	8082                	ret
    d516:	00054783          	lbu	a5,0(a0)
    d51a:	feb78de3          	beq	a5,a1,d514 <memchr+0xc>
    d51e:	0505                	addi	a0,a0,1
    d520:	b7fd                	j	d50e <memchr+0x6>

0000d522 <_read_r>:
    d522:	1141                	addi	sp,sp,-16
    d524:	c422                	sw	s0,8(sp)
    d526:	842a                	mv	s0,a0
    d528:	852e                	mv	a0,a1
    d52a:	85b2                	mv	a1,a2
    d52c:	8636                	mv	a2,a3
    d52e:	1fff6797          	auipc	a5,0x1fff6
    d532:	ec07ab23          	sw	zero,-298(a5) # 20003404 <errno>
    d536:	c606                	sw	ra,12(sp)
    d538:	28b9                	jal	d596 <_read>
    d53a:	57fd                	li	a5,-1
    d53c:	00f51963          	bne	a0,a5,d54e <_read_r+0x2c>
    d540:	1fff6797          	auipc	a5,0x1fff6
    d544:	ec478793          	addi	a5,a5,-316 # 20003404 <errno>
    d548:	439c                	lw	a5,0(a5)
    d54a:	c391                	beqz	a5,d54e <_read_r+0x2c>
    d54c:	c01c                	sw	a5,0(s0)
    d54e:	40b2                	lw	ra,12(sp)
    d550:	4422                	lw	s0,8(sp)
    d552:	0141                	addi	sp,sp,16
    d554:	8082                	ret

0000d556 <_close>:
    d556:	05800793          	li	a5,88
    d55a:	1fff6717          	auipc	a4,0x1fff6
    d55e:	eaf72523          	sw	a5,-342(a4) # 20003404 <errno>
    d562:	557d                	li	a0,-1
    d564:	8082                	ret

0000d566 <_fstat>:
    d566:	05800793          	li	a5,88
    d56a:	1fff6717          	auipc	a4,0x1fff6
    d56e:	e8f72d23          	sw	a5,-358(a4) # 20003404 <errno>
    d572:	557d                	li	a0,-1
    d574:	8082                	ret

0000d576 <_isatty>:
    d576:	05800793          	li	a5,88
    d57a:	1fff6717          	auipc	a4,0x1fff6
    d57e:	e8f72523          	sw	a5,-374(a4) # 20003404 <errno>
    d582:	4501                	li	a0,0
    d584:	8082                	ret

0000d586 <_lseek>:
    d586:	05800793          	li	a5,88
    d58a:	1fff6717          	auipc	a4,0x1fff6
    d58e:	e6f72d23          	sw	a5,-390(a4) # 20003404 <errno>
    d592:	557d                	li	a0,-1
    d594:	8082                	ret

0000d596 <_read>:
    d596:	05800793          	li	a5,88
    d59a:	1fff6717          	auipc	a4,0x1fff6
    d59e:	e6f72523          	sw	a5,-406(a4) # 20003404 <errno>
    d5a2:	557d                	li	a0,-1
    d5a4:	8082                	ret
    d5a6:	0000                	unimp
    d5a8:	2e2e                	fld	ft8,200(sp)
    d5aa:	646f432f          	0x646f432f
    d5ae:	2f65                	jal	dd66 <TWO52+0xc6>
    d5b0:	76726553          	0x76726553
    d5b4:	6369                	lui	t1,0x1a
    d5b6:	2f65                	jal	dd6e <TWO52+0xce>
    d5b8:	7246                	flw	ft4,112(sp)
    d5ba:	6565                	lui	a0,0x19
    d5bc:	5452                	lw	s0,52(sp)
    d5be:	702f534f          	fnmadd.s	ft6,ft10,ft2,fa4,unknown
    d5c2:	6174726f          	jal	tp,553d8 <_data_lma+0x4743c>
    d5c6:	6c62                	flw	fs8,24(sp)
    d5c8:	2f65                	jal	dd80 <TWO52+0xe0>
    d5ca:	654d                	lui	a0,0x13
    d5cc:	4d6d                	li	s10,27
    d5ce:	6e61                	lui	t3,0x18
    d5d0:	65682f67          	0x65682f67
    d5d4:	7061                	c.lui	zero,0xffff8
    d5d6:	345f 632e 0000      	0x632e345f
    d5dc:	7265                	lui	tp,0xffff9
    d5de:	2072                	fld	ft0,280(sp)
    d5e0:	7461                	lui	s0,0xffff8
    d5e2:	6c20                	flw	fs0,88(s0)
    d5e4:	6e69                	lui	t3,0x1a
    d5e6:	2065                	jal	d68e <_read+0xf8>
    d5e8:	6425                	lui	s0,0x9
    d5ea:	6f20                	flw	fs0,88(a4)
    d5ec:	2066                	fld	ft0,88(sp)
    d5ee:	6966                	flw	fs2,88(sp)
    d5f0:	656c                	flw	fa1,76(a0)
    d5f2:	2220                	fld	fs0,64(a2)
    d5f4:	7325                	lui	t1,0xfffe9
    d5f6:	2e22                	fld	ft8,8(sp)
    d5f8:	0d20                	addi	s0,sp,664
    d5fa:	200a                	fld	ft0,128(sp)
    d5fc:	0000                	unimp
    d5fe:	0000                	unimp
    d600:	2e2e                	fld	ft8,200(sp)
    d602:	646f432f          	0x646f432f
    d606:	2f65                	jal	ddbe <TWO52+0x11e>
    d608:	76726553          	0x76726553
    d60c:	6369                	lui	t1,0x1a
    d60e:	2f65                	jal	ddc6 <TWO52+0x126>
    d610:	7246                	flw	ft4,112(sp)
    d612:	6565                	lui	a0,0x19
    d614:	5452                	lw	s0,52(sp)
    d616:	702f534f          	fnmadd.s	ft6,ft10,ft2,fa4,unknown
    d61a:	6174726f          	jal	tp,55430 <_data_lma+0x47494>
    d61e:	6c62                	flw	fs8,24(sp)
    d620:	2f65                	jal	ddd8 <TWO52+0x138>
    d622:	2f434347          	fmsub.q	ft6,ft6,fs4,ft5,rmm
    d626:	4952                	lw	s2,20(sp)
    d628:	562d4353          	0x562d4353
    d62c:	726f702f          	0x726f702f
    d630:	2e74                	fld	fa3,216(a2)
    d632:	2e2e0063          	beq	t3,sp,d912 <atanlo+0x92>
    d636:	646f432f          	0x646f432f
    d63a:	2f65                	jal	ddf2 <TWO52+0x152>
    d63c:	76726553          	0x76726553
    d640:	6369                	lui	t1,0x1a
    d642:	2f65                	jal	ddfa <TWO52+0x15a>
    d644:	7246                	flw	ft4,112(sp)
    d646:	6565                	lui	a0,0x19
    d648:	5452                	lw	s0,52(sp)
    d64a:	712f534f          	fnmadd.s	ft6,ft10,fs2,fa4,unknown
    d64e:	6575                	lui	a0,0x1d
    d650:	6575                	lui	a0,0x1d
    d652:	632e                	flw	ft6,200(sp)
    d654:	0000                	unimp
    d656:	0000                	unimp
    d658:	21d0                	fld	fa2,128(a1)
    d65a:	0000                	unimp
    d65c:	214e                	fld	ft2,208(sp)
    d65e:	0000                	unimp
    d660:	2164                	fld	fs1,192(a0)
    d662:	0000                	unimp
    d664:	2176                	fld	ft2,344(sp)
    d666:	0000                	unimp
    d668:	2186                	fld	ft3,64(sp)
    d66a:	0000                	unimp
    d66c:	2e2e                	fld	ft8,200(sp)
    d66e:	646f432f          	0x646f432f
    d672:	2f65                	jal	de2a <__clz_tab+0x2a>
    d674:	76726553          	0x76726553
    d678:	6369                	lui	t1,0x1a
    d67a:	2f65                	jal	de32 <__clz_tab+0x32>
    d67c:	7246                	flw	ft4,112(sp)
    d67e:	6565                	lui	a0,0x19
    d680:	5452                	lw	s0,52(sp)
    d682:	742f534f          	0x742f534f
    d686:	7361                	lui	t1,0xffff8
    d688:	632e736b          	0x632e736b
    d68c:	0000                	unimp
    d68e:	0000                	unimp
    d690:	4449                	li	s0,18
    d692:	454c                	lw	a1,12(a0)
    d694:	0000                	unimp
    d696:	0000                	unimp
    d698:	25f8                	fld	fa4,200(a1)
    d69a:	0000                	unimp
    d69c:	2646                	fld	fa2,80(sp)
    d69e:	0000                	unimp
    d6a0:	2646                	fld	fa2,80(sp)
    d6a2:	0000                	unimp
    d6a4:	2688                	fld	fa0,8(a3)
    d6a6:	0000                	unimp
    d6a8:	2694                	fld	fa3,8(a3)
    d6aa:	0000                	unimp
    d6ac:	26d6                	fld	fa3,336(sp)
    d6ae:	0000                	unimp
    d6b0:	2646                	fld	fa2,80(sp)
    d6b2:	0000                	unimp
    d6b4:	2646                	fld	fa2,80(sp)
    d6b6:	0000                	unimp
    d6b8:	2688                	fld	fa0,8(a3)
    d6ba:	0000                	unimp
    d6bc:	2694                	fld	fa3,8(a3)
    d6be:	0000                	unimp
    d6c0:	6d54                	flw	fa3,28(a0)
    d6c2:	5172                	lw	sp,60(sp)
    d6c4:	0000                	unimp
    d6c6:	0000                	unimp
    d6c8:	2e2e                	fld	ft8,200(sp)
    d6ca:	646f432f          	0x646f432f
    d6ce:	2f65                	jal	de86 <__clz_tab+0x86>
    d6d0:	76726553          	0x76726553
    d6d4:	6369                	lui	t1,0x1a
    d6d6:	2f65                	jal	de8e <__clz_tab+0x8e>
    d6d8:	7246                	flw	ft4,112(sp)
    d6da:	6565                	lui	a0,0x19
    d6dc:	5452                	lw	s0,52(sp)
    d6de:	742f534f          	0x742f534f
    d6e2:	6d69                	lui	s10,0x1a
    d6e4:	7265                	lui	tp,0xffff9
    d6e6:	00632e73          	csrrs	t3,0x6,t1
    d6ea:	0000                	unimp
    d6ec:	6d54                	flw	fa3,28(a0)
    d6ee:	2072                	fld	ft0,280(sp)
    d6f0:	00637653          	fadd.s	fa2,ft6,ft6
    d6f4:	0000                	unimp
    d6f6:	4461                	li	s0,24
    d6f8:	0000                	unimp
    d6fa:	0000                	unimp
    d6fc:	0000                	unimp
    d6fe:	3fe0                	fld	fs0,248(a5)
    d700:	0000                	unimp
    d702:	4040                	lw	s0,4(s0)
    d704:	0000                	unimp
    d706:	4080                	lw	s0,0(s1)
    d708:	e712                	fsw	ft4,140(sp)
    d70a:	a1fa                	fsd	ft10,192(sp)
    d70c:	df46                	sw	a7,188(sp)
    d70e:	3f91                	jal	d662 <_read+0xcc>
    d710:	5c2d                	li	s8,-21
    d712:	3dad                	jal	d58c <_lseek+0x6>
    d714:	0000                	unimp
    d716:	0000                	unimp
    d718:	1af05a77          	0x1af05a77
    d71c:	a5dc                	fsd	fa5,136(a1)
    d71e:	404c                	lw	a1,4(s0)
    d720:	0000                	unimp
    d722:	3f80                	fld	fs0,56(a5)
    d724:	0000                	unimp
    d726:	3980                	fld	fs0,48(a1)
    d728:	0000                	unimp
    d72a:	0000                	unimp
    d72c:	6000                	flw	fs0,0(s0)
    d72e:	4050                	lw	a2,4(s0)
    d730:	0000                	unimp
    d732:	44fa                	lw	s1,156(sp)
	...
    d73c:	3000                	fld	fs0,32(s0)
    d73e:	4070                	lw	a2,68(s0)
    d740:	0000                	unimp
    d742:	0000                	unimp
    d744:	1000                	addi	s0,sp,32
    d746:	4078                	lw	a4,68(s0)
    d748:	0000                	unimp
    d74a:	0000                	unimp
    d74c:	6000                	flw	fs0,0(s0)
    d74e:	4064                	lw	s1,68(s0)
    d750:	c49c                	sw	a5,8(s1)
    d752:	b020                	fsd	fs0,96(s0)
    d754:	6872                	flw	fa6,28(sp)
    d756:	3f91                	jal	d6aa <_read+0x114>
    d758:	0000                	unimp
    d75a:	46c8                	lw	a0,12(a3)
    d75c:	0000                	unimp
    d75e:	42c8                	lw	a0,4(a3)
    d760:	1a36e2eb          	0x1a36e2eb
    d764:	5bc0                	lw	s0,52(a5)
    d766:	3fc8                	fld	fa0,184(a5)
    d768:	0000                	unimp
    d76a:	0000                	unimp
    d76c:	0000                	unimp
    d76e:	3ff0                	fld	fa2,248(a5)
    d770:	0000                	unimp
    d772:	0000                	unimp
    d774:	a540                	fsd	fs0,136(a0)
    d776:	40e5                	li	ra,25
    d778:	0000                	unimp
    d77a:	3f00                	fld	fs0,56(a4)
    d77c:	736e6553          	0x736e6553
    d780:	4320726f          	jal	tp,14bb2 <_data_lma+0x6c16>
    d784:	656c6c6f          	jal	s8,d3dda <_data_lma+0xc5e3e>
    d788:	6f697463          	bgeu	s2,s6,de70 <__clz_tab+0x70>
    d78c:	006e                	c.slli	zero,0x1b
    d78e:	0000                	unimp
    d790:	736e6553          	0x736e6553
    d794:	4620726f          	jal	tp,14bf6 <_data_lma+0x6c5a>
    d798:	7375                	lui	t1,0xffffd
    d79a:	6f69                	lui	t5,0x1a
    d79c:	006e                	c.slli	zero,0x1b
    d79e:	0000                	unimp
    d7a0:	7041                	c.lui	zero,0xffff0
    d7a2:	2070                	fld	fa2,192(s0)
    d7a4:	6d6d6f43          	0x6d6d6f43
    d7a8:	6e75                	lui	t3,0x1d
    d7aa:	6369                	lui	t1,0x1a
    d7ac:	7461                	lui	s0,0xffff8
    d7ae:	6f69                	lui	t5,0x1a
    d7b0:	006e                	c.slli	zero,0x1b
    d7b2:	0000                	unimp
    d7b4:	614d                	addi	sp,sp,176
    d7b6:	72657473          	csrrci	s0,0x726,10
    d7ba:	0000                	unimp
    d7bc:	756f6873          	csrrsi	a6,0x756,30
    d7c0:	646c                	flw	fa1,76(s0)
    d7c2:	276e                	fld	fa4,216(sp)
    d7c4:	2074                	fld	fa3,192(s0)
    d7c6:	7572                	flw	fa0,60(sp)
    d7c8:	206e                	fld	ft0,216(sp)
    d7ca:	7461                	lui	s0,0xffff8
    d7cc:	6820                	flw	fs0,80(s0)
    d7ce:	7265                	lui	tp,0xffff9
    d7d0:	2165                	jal	dc78 <init_jk+0x20>
    d7d2:	0021                	c.nop	8
    d7d4:	0000                	unimp
    d7d6:	0000                	unimp
    d7d8:	2d18                	fld	fa4,24(a0)
    d7da:	5444                	lw	s1,44(s0)
    d7dc:	3ff921fb          	0x3ff921fb
    d7e0:	2d18                	fld	fa4,24(a0)
    d7e2:	5444                	lw	s1,44(s0)
    d7e4:	bff921fb          	0xbff921fb
    d7e8:	759c                	flw	fa5,40(a1)
    d7ea:	8800                	0x8800
    d7ec:	e43c                	fsw	fa5,72(s0)
    d7ee:	00007e37          	lui	t3,0x7
    d7f2:	0000                	unimp
    d7f4:	0000                	unimp
    d7f6:	4000                	lw	s0,0(s0)
    d7f8:	0000                	unimp
    d7fa:	0000                	unimp
    d7fc:	0000                	unimp
    d7fe:	3ff8                	fld	fa4,248(a5)
    d800:	0000                	unimp
    d802:	0000                	unimp
    d804:	0000                	unimp
    d806:	bff0                	fsd	fa2,248(a5)
    d808:	da11                	beqz	a2,d71c <_read+0x186>
    d80a:	e322                	fsw	fs0,132(sp)
    d80c:	ad3a                	fsd	fa4,152(sp)
    d80e:	3f90                	fld	fa2,56(a5)
    d810:	24760deb          	0x24760deb
    d814:	3fa97b4b          	fnmsub.q	fs6,fs2,fs10,ft7
    d818:	3d51                	jal	d6ac <_read+0x116>
    d81a:	a0d0                	fsd	fa2,128(s1)
    d81c:	0d66                	slli	s10,s10,0x19
    d81e:	3fb1                	jal	d77a <_read+0x1e4>
    d820:	206e                	fld	ft0,216(sp)
    d822:	c54c                	sw	a1,12(a0)
    d824:	45cd                	li	a1,19
    d826:	83ff3fb7          	lui	t6,0x83ff3
    d82a:	9200                	0x9200
    d82c:	4924                	lw	s1,80(a0)
    d82e:	3fc2                	fld	ft11,48(sp)
    d830:	550d                	li	a0,-29
    d832:	5555                	li	a0,-11
    d834:	5555                	li	a0,-11
    d836:	3fd5                	jal	d82a <_read+0x294>
    d838:	2c6a6c2f          	0x2c6a6c2f
    d83c:	b444                	fsd	fs1,168(s0)
    d83e:	bfa2                	fsd	fs0,504(sp)
    d840:	fd9a                	fsw	ft6,248(sp)
    d842:	52de                	lw	t0,244(sp)
    d844:	de2d                	beqz	a2,d7be <_read+0x228>
    d846:	3fad                	jal	d7c0 <_read+0x22a>
    d848:	9a6d                	andi	a2,a2,-5
    d84a:	af74                	fsd	fa3,216(a4)
    d84c:	b0f2                	fsd	ft8,96(sp)
    d84e:	16713fb3          	0x16713fb3
    d852:	71c6fe23          	0x71c6fe23
    d856:	3fbc                	fld	fa5,120(a5)
    d858:	ebc4                	fsw	fs1,20(a5)
    d85a:	9998                	0x9998
    d85c:	9999                	andi	a1,a1,-26
    d85e:	3fc9                	jal	d830 <_read+0x29a>

0000d860 <atanhi>:
    d860:	bb4f 0561 ac67 3fdd 2d18 5444 21fb 3fe9     O.a.g..?.-DT.!.?
    d870:	f69b d281 730b 3fef 2d18 5444 21fb 3ff9     .....s.?.-DT.!.?

0000d880 <atanlo>:
    d880:	65e2 222f 2b7f 3c7a 5c07 3314 a626 3c81     .e/".+z<.\.3&..<
    d890:	cbbd 7af0 0788 3c70 5c07 3314 a626 3c91     ...z..p<.\.3&..<
    d8a0:	0000 0000 0000 fff0 0000 e000 ffff 47ef     ...............G
    d8b0:	0000 e000 ffff c7ef 0000 0000 0000 7ff0     ................
    d8c0:	6f70 0077 7173 7472 0000 0000 0000 0000     pow.sqrt........
    d8d0:	2d18 5444 21fb 4009 2d18 5444 21fb c009     .-DT.!.@.-DT.!..
    d8e0:	0000 0000 0000 8000 21d2 7f33 d97c 4002     .........!3.|..@
    d8f0:	21d2 7f33 d97c c002 2d18 5444 21fb 3fe9     .!3.|....-DT.!.?
    d900:	2d18 5444 21fb bfe9 5c07 3314 a626 3ca1     .-DT.!...\.3&..<
    d910:	0000 4000 b803 3fe2 d006 43cf fdeb 3e4c     ...@...?...C..L>
    d920:	0000 6000 1547 3ff7 df44 f85d ae0b 3e54     ...`G..?D.]...T>
    d930:	0000 0000 0000 3fd0 5555 5555 5555 3fd5     .......?UUUUUU.?
    d940:	82fe 652b 1547 3ff7 0000 0000 0000 4340     ..+eG..?......@C
    d950:	4eef 4a45 7e28 3fca db65 93c9 864a 3fcd     .NEJ(~.?e...J..?
    d960:	4101 a91d 7460 3fd1 264d 518f 5555 3fd5     .A..`t.?M&.QUU.?
    d970:	abff db6f 6db6 3fdb 3303 3333 3333 3fe3     ..o..m.?.33333.?
    d980:	0000 0000 0000 4008 0000 e000 c709 3fee     .......@.......?
    d990:	03fd dc3a c709 3fee 01f5 145b 2fe0 be3e     ..:....?..[../>.
    d9a0:	82fe 652b 1547 3c97 f359 c2f8 6e1f 01a5     ..+eG..<Y....n..
    d9b0:	0000 0000 2e43 3fe6 39ef fefa 2e42 3fe6     ....C..?.9..B..?
    d9c0:	6c39 0ca8 5c61 be20 a4d0 72be 3769 3e66     9l..a\ ....ri7f>
    d9d0:	6bf1 c5d2 bd41 3ebb de2c af25 566a 3f11     .k..A..>,.%.jV.?
    d9e0:	bd93 16be c16c 3f66 553e 5555 5555 3fc5     ....l.f?>UUUUU.?
    d9f0:	0000 5440 21fb 3ff9 6331 1a62 b461 3dd0     ..@T.!.?1cb.a..=
    da00:	0000 1a60 b461 3dd0 7073 2e03 198a 3ba3     ..`.a..=sp.....;
    da10:	c883 6dc9 5f30 3fe4 0000 2e00 198a 3ba3     ...m0_.?.......;
    da20:	49c1 2520 839a 397b 0000 0000 0000 4170     .I %..{9......pA

0000da30 <npio2_hw>:
    da30:	21fb 3ff9 21fb 4009 d97c 4012 21fb 4019     .!.?.!.@|..@.!.@
    da40:	6a7a 401f d97c 4022 fdbb 4025 21fb 4029     zj.@|."@..%@.!)@
    da50:	463a 402c 6a7a 402f 475c 4031 d97c 4032     :F,@zj/@\G1@|.2@
    da60:	6b9c 4034 fdbb 4035 8fdb 4037 21fb 4039     .k4@..5@..7@.!9@
    da70:	b41b 403a 463a 403c d85a 403d 6a7a 403f     ..:@:F<@Z.=@zj?@
    da80:	7e4c 4040 475c 4041 106c 4042 d97c 4042     L~@@\GA@l.B@|.B@
    da90:	a28c 4043 6b9c 4044 34ac 4045 fdbb 4045     ..C@.kD@.4E@..E@
    daa0:	c6cb 4046 8fdb 4047 58eb 4048 21fb 4049     ..F@..G@.XH@.!I@

0000dab0 <two_over_pi>:
    dab0:	f983 00a2 4e44 006e 29fc 0015 57d1 0027     ....DNn..)...W'.
    dac0:	34dd 00f5 db62 00c0 993c 0095 9041 0043     .4..b...<...A.C.
    dad0:	5163 00fe debb 00ab 61b7 00c5 6e3a 0024     cQ.......a..:n$.
    dae0:	4dd2 0042 0649 00e0 ea09 002e 921c 00d1     .MB.I...........
    daf0:	1deb 00fe b129 001c 3ee8 00a7 35f5 0082     ....)....>...5..
    db00:	bb44 002e e99c 0084 26b4 0070 7e41 005f     D........&p.A~_.
    db10:	91d6 0039 8353 0039 f49c 0039 5f8b 0084     ..9.S.9...9.._..
    db20:	f928 00bd 1ff8 003b ffde 0097 980f 0005     (.....;.........
    db30:	2f11 00ef 5a0a 008b 1f6d 006d 7ecf 0036     ./...Z..m.m..~6.
    db40:	cb09 0027 4f46 00b7 669e 003f ea2d 005f     ..'.FO...f?.-._.
    db50:	27ba 0075 ebe5 00c7 7b3d 00f1 39f7 0007     .'u.....={...9..
    db60:	5292 008a 6bfb 00ea b11f 005f 5d08 008d     .R...k...._..]..
    db70:	0330 0056 fc7b 0046 abf0 006b bc20 00cf     0.V.{.F...k. ...
    db80:	f436 009a a9e3 001d 615e 0091 1b08 00e6     6.......^a......
    db90:	9985 0065 14a0 005f 408d 0068 d880 00ff     ..e..._..@h.....
    dba0:	7327 004d 0606 0031 56ca 0015 a8c9 0073     'sM...1..V....s.
    dbb0:	e27b 0060 8c6b 00c0 0000 0000 0000 3fe7     {.`.k..........?
    dbc0:	0000 0000 0000 3fd2 38d4 be88 fae9 bda8     .......?.8......
    dbd0:	b1c4 bdb4 ee9e 3e21 52ad 809c 7e4f 3e92     ......!>.R..O~.>
    dbe0:	1590 19cb 01a0 3efa 5177 16c1 c16c 3f56     .......>wQ..l.V?
    dbf0:	554c 5555 5555 3fa5                         LUUUUU.?

0000dbf8 <PIo2>:
    dbf8:	0000 4000 21fb 3ff9 0000 0000 442d 3e74     ...@.!.?....-Dt>
    dc08:	0000 8000 4698 3cf8 0000 6000 cc51 3b78     .....F.<...`Q.x;
    dc18:	0000 8000 1b83 39f0 0000 4000 2520 387a     .......9...@ %z8
    dc28:	0000 8000 8222 36e3 0000 0000 f31d 3569     ...."..6......i5
    dc38:	0000 4000 21fb 3ff9 0000 0000 0000 3e70     ...@.!.?......p>
    dc48:	0000 0000 0000 3fc0 0000 0000 0000 4020     .......?...... @

0000dc58 <init_jk>:
    dc58:	0002 0000 0003 0000 0004 0000 0006 0000     ................
    dc68:	d57c 5acf d93a 3de5 9ceb 8a2b e5e6 3e5a     |..Z:..=..+...Z>
    dc78:	fe7d 57b1 1de3 3ec7 61d5 19c1 01a0 3f2a     }..W...>.a....*?
    dc88:	f8a6 1110 1111 3f81 5549 5555 5555 3fc5     .......?IUUUUU.?
    dc98:	0000 0000 0000 7ff8                         ........

0000dca0 <TWO52>:
    dca0:	0000 0000 0000 4330 0000 0000 0000 c330     ......0C......0.
    dcb0:	0000 0000 0000 4350 0000 0000 0000 3c90     ......PC.......<
    dcc0:	c112 ffff bf96 ffff c0a6 ffff c0ae ffff     ................
    dcd0:	c0a6 ffff bfc6 ffff c0a6 ffff c0ae ffff     ................
    dce0:	bf96 ffff bf96 ffff bfc6 ffff c0ae ffff     ................
    dcf0:	c108 ffff c108 ffff c108 ffff bfc6 ffff     ................
    dd00:	c822 ffff c714 ffff c714 ffff c712 ffff     "...............
    dd10:	c71a ffff c71a ffff c6e0 ffff c712 ffff     ................
    dd20:	c71a ffff c6e0 ffff c71a ffff c712 ffff     ................
    dd30:	c80e ffff c80e ffff c80e ffff c6e0 ffff     ................
    dd40:	d86a ffff d790 ffff d864 ffff d798 ffff     j.......d.......
    dd50:	d864 ffff d75e ffff d864 ffff d798 ffff     d...^...d.......
    dd60:	d790 ffff d790 ffff d75e ffff d798 ffff     ........^.......
    dd70:	d79e ffff d79e ffff d79e ffff d75e ffff     ............^...
    dd80:	d750 ffff d750 ffff d824 ffff d900 ffff     P...P...$.......
    dd90:	d824 ffff d71e ffff d824 ffff d900 ffff     $.......$.......
    dda0:	d750 ffff d750 ffff d71e ffff d900 ffff     P...P...........
    ddb0:	d75e ffff d75e ffff d75e ffff d71e ffff     ^...^...^.......
    ddc0:	daec ffff da3a ffff da3a ffff da38 ffff     ....:...:...8...
    ddd0:	da3e ffff da3e ffff da0e ffff da38 ffff     >...>.......8...
    dde0:	da3e ffff da0e ffff da3e ffff da38 ffff     >.......>...8...
    ddf0:	dada ffff dada ffff dada ffff da0e ffff     ................

0000de00 <__clz_tab>:
    de00:	0100 0202 0303 0303 0404 0404 0404 0404     ................
    de10:	0505 0505 0505 0505 0505 0505 0505 0505     ................
    de20:	0606 0606 0606 0606 0606 0606 0606 0606     ................
    de30:	0606 0606 0606 0606 0606 0606 0606 0606     ................
    de40:	0707 0707 0707 0707 0707 0707 0707 0707     ................
    de50:	0707 0707 0707 0707 0707 0707 0707 0707     ................
    de60:	0707 0707 0707 0707 0707 0707 0707 0707     ................
    de70:	0707 0707 0707 0707 0707 0707 0707 0707     ................
    de80:	0808 0808 0808 0808 0808 0808 0808 0808     ................
    de90:	0808 0808 0808 0808 0808 0808 0808 0808     ................
    dea0:	0808 0808 0808 0808 0808 0808 0808 0808     ................
    deb0:	0808 0808 0808 0808 0808 0808 0808 0808     ................
    dec0:	0808 0808 0808 0808 0808 0808 0808 0808     ................
    ded0:	0808 0808 0808 0808 0808 0808 0808 0808     ................
    dee0:	0808 0808 0808 0808 0808 0808 0808 0808     ................
    def0:	0808 0808 0808 0808 0808 0808 0808 0808     ................

0000df00 <__sf_fake_stderr>:
	...

0000df20 <__sf_fake_stdin>:
	...

0000df40 <__sf_fake_stdout>:
	...
    df60:	2d23 2b30 0020 0000 6c68 004c 6665 4567     #-0+ ...hlL.efgE
    df70:	4746 0000 3130 3332 3534 3736 3938 4241     FG..0123456789AB
    df80:	4443 4645 0000 0000 3130 3332 3534 3736     CDEF....01234567
    df90:	3938 6261 6463 6665 0000 0000               89abcdef....
