
Drone Board.elf:     file format elf32-littleriscv
Drone Board.elf
architecture: riscv:rv32, flags 0x00000112:
EXEC_P, HAS_SYMS, D_PAGED
start address 0x00000000

Program Header:
    LOAD off    0x00001000 vaddr 0x00000000 paddr 0x00000000 align 2**12
         filesz 0x0000da64 memsz 0x0000da64 flags r-x
    LOAD off    0x0000f000 vaddr 0x20000000 paddr 0x0000da64 align 2**12
         filesz 0x000000a8 memsz 0x00003408 flags rw-
    LOAD off    0x0000f800 vaddr 0x20004800 paddr 0x20004800 align 2**12
         filesz 0x00000000 memsz 0x00000800 flags rw-

Sections:
Idx Name          Size      VMA       LMA       File off  Algn
  0 .init         00000038  00000000  00000000  00001000  2**1
                  CONTENTS, ALLOC, LOAD, READONLY, CODE
  1 .vector       00000108  00000038  00000038  00001038  2**1
                  CONTENTS, ALLOC, LOAD, READONLY, CODE
  2 .text         0000d864  00000200  00000200  00001200  2**8
                  CONTENTS, ALLOC, LOAD, READONLY, CODE
  3 .fini         00000000  0000da64  0000da64  0000f0a8  2**0
                  CONTENTS, ALLOC, LOAD, CODE
  4 .dalign       00000000  20000000  20000000  0000f0a8  2**0
                  CONTENTS
  5 .dlalign      00000000  0000da64  0000da64  0000f0a8  2**0
                  CONTENTS
  6 .data         000000a8  20000000  0000da64  0000f000  2**2
                  CONTENTS, ALLOC, LOAD, DATA
  7 .bss          00003360  200000a8  0000db0c  0000f0a8  2**2
                  ALLOC
  8 .stack        00000800  20004800  20004800  0000f800  2**0
                  ALLOC
  9 .debug_info   0002968f  00000000  00000000  0000f0a8  2**0
                  CONTENTS, READONLY, DEBUGGING
 10 .debug_abbrev 00006085  00000000  00000000  00038737  2**0
                  CONTENTS, READONLY, DEBUGGING
 11 .debug_loc    0000ba3e  00000000  00000000  0003e7bc  2**0
                  CONTENTS, READONLY, DEBUGGING
 12 .debug_aranges 00001240  00000000  00000000  0004a200  2**3
                  CONTENTS, READONLY, DEBUGGING
 13 .debug_ranges 00001658  00000000  00000000  0004b440  2**3
                  CONTENTS, READONLY, DEBUGGING
 14 .debug_line   0001ff84  00000000  00000000  0004ca98  2**0
                  CONTENTS, READONLY, DEBUGGING
 15 .debug_str    00006e49  00000000  00000000  0006ca1c  2**0
                  CONTENTS, READONLY, DEBUGGING
 16 .comment      00000033  00000000  00000000  00073865  2**0
                  CONTENTS, READONLY
 17 .debug_frame  00004514  00000000  00000000  00073898  2**2
                  CONTENTS, READONLY, DEBUGGING
 18 .stab         00000084  00000000  00000000  00077dac  2**2
                  CONTENTS, READONLY, DEBUGGING
 19 .stabstr      00000117  00000000  00000000  00077e30  2**0
                  CONTENTS, READONLY, DEBUGGING
SYMBOL TABLE:
00000000 l    d  .init	00000000 .init
00000038 l    d  .vector	00000000 .vector
00000200 l    d  .text	00000000 .text
0000da64 l    d  .fini	00000000 .fini
20000000 l    d  .dalign	00000000 .dalign
0000da64 l    d  .dlalign	00000000 .dlalign
20000000 l    d  .data	00000000 .data
200000a8 l    d  .bss	00000000 .bss
20004800 l    d  .stack	00000000 .stack
00000000 l    d  .debug_info	00000000 .debug_info
00000000 l    d  .debug_abbrev	00000000 .debug_abbrev
00000000 l    d  .debug_loc	00000000 .debug_loc
00000000 l    d  .debug_aranges	00000000 .debug_aranges
00000000 l    d  .debug_ranges	00000000 .debug_ranges
00000000 l    d  .debug_line	00000000 .debug_line
00000000 l    d  .debug_str	00000000 .debug_str
00000000 l    d  .comment	00000000 .comment
00000000 l    d  .debug_frame	00000000 .debug_frame
00000000 l    d  .stab	00000000 .stab
00000000 l    d  .stabstr	00000000 .stabstr
00000000 l    df *ABS*	00000000 ./Code/MCAL/Startup/startup_ch32v20x_D6.o
00000038 l       .vector	00000000 _vector_base
00000000 l    df *ABS*	00000000 ./Code/Service/FreeRTOS/portable/GCC/RISC-V/portASM.o
0000025c l       .text	00000000 processed_source
00000428 l       .text	00000000 chip_specific_stack_frame
00000000 l    df *ABS*	00000000 Service_RTOS_wrapper.c
00000000 l    df *ABS*	00000000 heap_4.c
0000072e l     F .text	0000004c prvInsertBlockIntoFreeList
2000017c l     O .bss	00003000 ucHeap
200000a8 l     O .bss	00000004 pxEnd
200000ac l     O .bss	00000004 xBlockAllocatedBit
200000b0 l     O .bss	00000004 xFreeBytesRemaining
200000b4 l     O .bss	00000004 xMinimumEverFreeBytesRemaining
200000b8 l     O .bss	00000004 xNumberOfSuccessfulAllocations
200000bc l     O .bss	00000004 xNumberOfSuccessfulFrees
200000c0 l     O .bss	00000008 xStart
00000000 l    df *ABS*	00000000 port.c
20000080 l     O .data	00000004 uxCriticalNesting
00000000 l    df *ABS*	00000000 list.c
00000000 l    df *ABS*	00000000 queue.c
00000bc6 l     F .text	00000018 prvIsQueueEmpty
00000bde l     F .text	00000070 prvCopyDataToQueue
00000c4e l     F .text	00000028 prvCopyDataFromQueue
00000c76 l     F .text	0000006e prvUnlockQueue
00000000 l    df *ABS*	00000000 tasks.c
000011f0 l     F .text	00000024 prvResetNextTaskUnblockTime
00001214 l     F .text	000000a6 prvAddCurrentTaskToDelayedList
000012ba l     F .text	00000052 prvIdleTask
200031bc l     O .bss	0000008c pxReadyTasksLists
20003248 l     O .bss	00000014 xDelayedTaskList1
2000325c l     O .bss	00000014 xDelayedTaskList2
20003270 l     O .bss	00000014 xPendingReadyList
20003284 l     O .bss	00000014 xSuspendedTaskList
20003298 l     O .bss	00000014 xTasksWaitingTermination
200000cc l     O .bss	00000004 pxDelayedTaskList
200000d0 l     O .bss	00000004 pxOverflowDelayedTaskList
200000d4 l     O .bss	00000004 uxCurrentNumberOfTasks
200000d8 l     O .bss	00000004 uxDeletedTasksWaitingCleanUp
200000dc l     O .bss	00000004 uxSchedulerSuspended
200000e0 l     O .bss	00000004 uxTaskNumber
200000e4 l     O .bss	00000004 uxTopReadyPriority
200000e8 l     O .bss	00000004 xIdleTaskHandle
200000ec l     O .bss	00000004 xNextTaskUnblockTime
200000f0 l     O .bss	00000004 xNumOfOverflows
200000f4 l     O .bss	00000004 xPendedTicks
200000f8 l     O .bss	00000004 xSchedulerRunning
200000fc l     O .bss	00000004 xTickCount
20000100 l     O .bss	00000004 xYieldPending
00000000 l    df *ABS*	00000000 timers.c
000020f6 l     F .text	00000066 prvCheckForValidListAndQueue
0000215c l     F .text	00000046 prvInsertTimerInActiveList
000021a2 l     F .text	00000028 prvReloadTimer
000021ca l     F .text	00000044 prvProcessExpiredTimer
0000220e l     F .text	0000002e prvSwitchTimerLists
0000223c l     F .text	0000018c prvTimerTask
200032ac l     O .bss	00000014 xActiveTimerList1
200032c0 l     O .bss	00000014 xActiveTimerList2
20000104 l     O .bss	00000004 pxCurrentTimerList
20000108 l     O .bss	00000004 pxOverflowTimerList
2000010c l     O .bss	00000004 xLastTime.5718
20000110 l     O .bss	00000004 xTimerQueue
20000114 l     O .bss	00000004 xTimerTaskHandle
00000000 l    df *ABS*	00000000 SensorFusion.c
00000000 l    df *ABS*	00000000 pid.c
00000000 l    df *ABS*	00000000 matrix.c
00000000 l    df *ABS*	00000000 MCAL_wrapper.c
20000125 l     O .bss	00000001 i.4934
00000000 l    df *ABS*	00000000 ch32v20x_adc.c
00000000 l    df *ABS*	00000000 ch32v20x_gpio.c
00000000 l    df *ABS*	00000000 ch32v20x_i2c.c
00000000 l    df *ABS*	00000000 ch32v20x_misc.c
00000000 l    df *ABS*	00000000 ch32v20x_rcc.c
20000000 l     O .data	00000010 APBAHBPrescTable
2000008c l     O .data	00000004 ADCPrescTable
00000000 l    df *ABS*	00000000 ch32v20x_spi.c
00000000 l    df *ABS*	00000000 ch32v20x_tim.c
00003b34 l     F .text	00000076 TI1_Config
00003baa l     F .text	0000008c TI2_Config
00000000 l    df *ABS*	00000000 ch32v20x_usart.c
00000000 l    df *ABS*	00000000 debug.c
20000090 l     O .data	00000004 curbrk.4666
00000000 l    df *ABS*	00000000 MCAL_config.c
00000000 l    df *ABS*	00000000 system_ch32v20x.c
00000000 l    df *ABS*	00000000 HAL_wrapper.c
00000000 l    df *ABS*	00000000 MPU6050.c
00000000 l    df *ABS*	00000000 HMC5883.c
00000000 l    df *ABS*	00000000 HC_SR04.c
00000000 l    df *ABS*	00000000 ESC.c
00000000 l    df *ABS*	00000000 HAL_config.c
00000000 l    df *ABS*	00000000 bmp.c
00000000 l    df *ABS*	00000000 ch32v20x_it.c
00000000 l    df *ABS*	00000000 main.c
20000150 l     O .bss	00000002 local_u16CurrentItem.5045
20000152 l     O .bss	00000001 local_u8Dummy.5047
00000000 l    df *ABS*	00000000 s_atan.c
0000d328 l     O .text	00000020 atanhi
0000d348 l     O .text	00000020 atanlo
00000000 l    df *ABS*	00000000 s_cos.c
00000000 l    df *ABS*	00000000 s_fabs.c
00000000 l    df *ABS*	00000000 s_sin.c
00000000 l    df *ABS*	00000000 w_atan2.c
00000000 l    df *ABS*	00000000 w_pow.c
00000000 l    df *ABS*	00000000 w_sqrt.c
00000000 l    df *ABS*	00000000 e_atan2.c
00000000 l    df *ABS*	00000000 e_pow.c
00000000 l    df *ABS*	00000000 e_rem_pio2.c
0000d4f8 l     O .text	00000080 npio2_hw
0000d578 l     O .text	00000108 two_over_pi
00000000 l    df *ABS*	00000000 e_sqrt.c
00000000 l    df *ABS*	00000000 k_cos.c
00000000 l    df *ABS*	00000000 k_rem_pio2.c
0000d6c0 l     O .text	00000040 PIo2
0000d720 l     O .text	00000010 init_jk
00000000 l    df *ABS*	00000000 k_sin.c
00000000 l    df *ABS*	00000000 s_finite.c
00000000 l    df *ABS*	00000000 s_floor.c
00000000 l    df *ABS*	00000000 s_matherr.c
00000000 l    df *ABS*	00000000 s_nan.c
00000000 l    df *ABS*	00000000 s_rint.c
0000d768 l     O .text	00000010 TWO52
00000000 l    df *ABS*	00000000 s_scalbn.c
00000000 l    df *ABS*	00000000 s_copysign.c
00000000 l    df *ABS*	00000000 libgcc2.c
00000000 l    df *ABS*	00000000 adddf3.c
00000000 l    df *ABS*	00000000 divdf3.c
00000000 l    df *ABS*	00000000 eqdf2.c
00000000 l    df *ABS*	00000000 gedf2.c
00000000 l    df *ABS*	00000000 ledf2.c
00000000 l    df *ABS*	00000000 muldf3.c
00000000 l    df *ABS*	00000000 subdf3.c
00000000 l    df *ABS*	00000000 unorddf2.c
00000000 l    df *ABS*	00000000 fixdfsi.c
00000000 l    df *ABS*	00000000 floatsidf.c
00000000 l    df *ABS*	00000000 floatunsidf.c
00000000 l    df *ABS*	00000000 addsf3.c
00000000 l    df *ABS*	00000000 divsf3.c
00000000 l    df *ABS*	00000000 gesf2.c
00000000 l    df *ABS*	00000000 mulsf3.c
00000000 l    df *ABS*	00000000 subsf3.c
00000000 l    df *ABS*	00000000 fixunssfsi.c
00000000 l    df *ABS*	00000000 floatsisf.c
00000000 l    df *ABS*	00000000 floatdisf.c
00000000 l    df *ABS*	00000000 extendsfdf2.c
00000000 l    df *ABS*	00000000 truncdfsf2.c
00000000 l    df *ABS*	00000000 libgcc2.c
00000000 l    df *ABS*	00000000 errno.c
00000000 l    df *ABS*	00000000 malloc.c
00000000 l    df *ABS*	00000000 memcpy.c
00000000 l    df *ABS*	00000000 nano-mallocr.c
00000000 l    df *ABS*	00000000 nano-mallocr.c
00000000 l    df *ABS*	00000000 printf.c
00000000 l    df *ABS*	00000000 puts.c
00000000 l    df *ABS*	00000000 sbrkr.c
00000000 l    df *ABS*	00000000 wbuf.c
00000000 l    df *ABS*	00000000 wsetup.c
00000000 l    df *ABS*	00000000 fflush.c
00000000 l    df *ABS*	00000000 findfp.c
0000c3e2 l     F .text	0000006a std
00000000 l    df *ABS*	00000000 fwalk.c
00000000 l    df *ABS*	00000000 makebuf.c
00000000 l    df *ABS*	00000000 mlock.c
00000000 l    df *ABS*	00000000 nano-vfprintf.c
0000c716 l     F .text	0000002a __sfputc_r
00000000 l    df *ABS*	00000000 nano-vfprintf_i.c
00000000 l    df *ABS*	00000000 stdio.c
00000000 l    df *ABS*	00000000 writer.c
00000000 l    df *ABS*	00000000 closer.c
00000000 l    df *ABS*	00000000 fstatr.c
00000000 l    df *ABS*	00000000 isattyr.c
00000000 l    df *ABS*	00000000 lseekr.c
00000000 l    df *ABS*	00000000 memchr.c
00000000 l    df *ABS*	00000000 readr.c
00000000 l    df *ABS*	00000000 close.c
00000000 l    df *ABS*	00000000 fstat.c
00000000 l    df *ABS*	00000000 isatty.c
00000000 l    df *ABS*	00000000 lseek.c
00000000 l    df *ABS*	00000000 read.c
00000000 l    df *ABS*	00000000 libgcc2.c
00000000 l    df *ABS*	00000000 impure.c
20000020 l     O .data	00000060 impure_data
00000000 l    df *ABS*	00000000 s_lib_ver.c
00000000 l    df *ABS*	00000000 reent.c
00003350  w      .text	00000000 EXTI2_IRQHandler
0000cf28 g     F .text	00000030 _isatty_r
0000bf58 g     F .text	000000da _puts_r
00004bfa g     F .text	00000046 HAL_WRAPPER_ReadMagnet
000061aa g     F .text	00000006 fabs
0000cf58 g     F .text	00000034 _lseek_r
0000656a g     F .text	000000ba sqrt
00009bc8 g     F .text	0000006a .hidden __eqdf2
00002c06 g     F .text	0000008c matrix_subtract
00008b0c g     F .text	000003d8 .hidden __divdi3
20003380 g     O .bss	0000001c MCAL_CFG_adxlSPI
00000b06 g     F .text	00000046 vPortExitCritical
0000bf18 g     F .text	00000040 printf
20000880 g       .data	00000000 __global_pointer$
000004f6 g     F .text	00000028 .hidden __riscv_save_8
0000308c g     F .text	000000d6 TIM1_CC_IRQHandler
0000381c g     F .text	0000000a I2C_ReceiveData
0000ce54 g     F .text	00000036 __sseek
0000c49e g     F .text	0000006c __sinit
00003b1c g     F .text	00000006 SPI_I2S_SendData
0000c070 g     F .text	000000c0 __swbuf_r
000057b6 g     F .text	00000002 HardFault_Handler
00001194 g     F .text	0000005c vQueueWaitForMessageRestricted
0000c456 g     F .text	00000048 __sfmoreglue
0000c714 g     F .text	00000002 __malloc_unlock
00005452 g     F .text	00000016 BMP280_GetTemperatureRawData
00002d42 g     F .text	0000005a matrix_transpose
00000542 g     F .text	0000000c .hidden __riscv_restore_3
20000140 g     O .bss	00000004 yaw_calibration
0000ae74 g     F .text	000002b2 .hidden __divsf3
00003fa0 g     F .text	00000012 TIM_OC1PreloadConfig
00000a70 g     F .text	0000007c SysTick_Handler
000038b6 g     F .text	000000bc NVIC_Init
00003342  w      .text	00000000 PVD_IRQHandler
20000154 g     O .bss	00000004 queue_AppCommToDrone_Handle_t
0000052e g     F .text	00000020 .hidden __riscv_restore_10
00003b22 g     F .text	00000006 SPI_I2S_ReceiveData
000057b4 g     F .text	00000002 NMI_Handler
00003352  w      .text	00000000 EXTI3_IRQHandler
000004f6 g     F .text	00000028 .hidden __riscv_save_11
00009c32 g     F .text	000000ae .hidden __gtdf2
0000bcb2 g     F .text	00000008 __errno
000006a6 g     F .text	0000000e SERVICE_RTOS_BlockFor
0000541e g     F .text	00000034 BMP280_ReadDataRegisters
200000c8 g     O .bss	00000004 pxCurrentTCB
0000428a g     F .text	0000000c USART_GetFlagStatus
0000cef6 g     F .text	00000032 _fstat_r
20003404 g     O .bss	00000004 errno
000086ce g     F .text	00000152 floor
200000a8 g       .bss	00000000 _sbss
00000800 g       *ABS*	00000000 __stack_size
00003570 g     F .text	0000000a ADC_GetFlagStatus
00005336 g     F .text	00000024 BMP280_ReadUnsignedShort
000042e8 g     F .text	0000005c USART_Printf_Init
00002b7a g     F .text	0000008c matrix_add
0000b440 g     F .text	00000388 .hidden __subsf3
2000013c g     O .bss	00000004 roll_calibration
00004cb0 g     F .text	0000001e HAL_WRAPPER_SendCommMessage
00001b9e g     F .text	00000016 vTaskInternalSetTimeOutState
00000542 g     F .text	0000000c .hidden __riscv_restore_2
0000535a g     F .text	00000024 BMP280_ReadSignedShort
000072e0 g     F .text	00000466 __ieee754_rem_pio2
20000138 g     O .bss	00000004 pitch_calibration
000009e0 g     F .text	00000090 xPortStartScheduler
00002f9c g     F .text	00000036 MCAL_WRAPEPR_TIM4_PWM_OUT
00003f42 g     F .text	00000016 TIM_CtrlPWMOutputs
0000bcce g     F .text	000000b6 memcpy
20003304 g     O .bss	0000000c K
000019f4 g     F .text	00000048 vTaskPlaceOnEventList
00003488 g     F .text	00000010 ADC_Cmd
0000c44c g     F .text	0000000a _cleanup_r
0000aa30 g     F .text	00000072 .hidden __floatsidf
000009a6  w    F .text	0000003a vPortSetupTimerInterrupt
00004e0c g     F .text	000000a6 mpu6050_accel_read
00009ce0 g     F .text	000000b6 .hidden __ltdf2
0000334c  w      .text	00000000 EXTI0_IRQHandler
00003382  w      .text	00000000 I2C2_EV_IRQHandler
00003f26 g     F .text	0000001c TIM_Cmd
0000c032 g     F .text	0000000c puts
00005c18 g     F .text	000000e4 Task_AppComm
200033cc g     O .bss	00000018 trimmingParameter
00000902 g     F .text	000000a4 vPortFree
00003fde g     F .text	0000001a TIM_OC4PreloadConfig
20000094 g     O .data	00000004 SystemCoreClock
20005000 g       .stack	00000000 __freertos_irq_stack_top
00004280 g     F .text	0000000a USART_ReceiveData
00002984 g     F .text	000001a6 Altitude_Kalman_2D_init
0000bcba g     F .text	0000000a malloc
0000414a g     F .text	0000000e TIM_ClearFlag
20000144 g     O .bss	00000006 global_adxl345Config_t
0000cfea g     F .text	00000010 _fstat
000057b8 g     F .text	000000b8 Task_CollectSensorData
20003334 g     O .bss	0000000c Q
00000038 g       .init	00000000 _einit
00004174 g     F .text	0000000e TIM_ClearITPendingBit
0000791c g     F .text	000002b8 __kernel_cos
00004144 g     F .text	00000006 TIM_GetCounter
000050b8 g     F .text	000000a8 hmc5883l_init
00003a68 g     F .text	0000001e RCC_APB2PeriphClockCmd
000004ee g     F .text	00000030 .hidden __riscv_save_12
00003364  w      .text	00000000 ADC1_2_IRQHandler
00001d78 g     F .text	00000098 ulTaskGenericNotifyTake
0000357a g     F .text	00000100 GPIO_Init
00003972 g     F .text	00000012 RCC_ADCCLKConfig
0000333a  w      .text	00000000 Break_Point_Handler
0000052e g     F .text	00000020 .hidden __riscv_restore_11
2000012c g     O .bss	00000004 NVIC_Priority_Group
00003386  w      .text	00000000 SPI1_IRQHandler
0000425a g     F .text	0000001c USART_Cmd
0000c03e g     F .text	00000032 _sbrk_r
00004138 g     F .text	00000006 TIM_GetCapture1
0000537e g     F .text	000000a0 BMP280_get_trimming_parameters
00003344  w      .text	00000000 TAMPER_IRQHandler
0000051e g     F .text	0000000c .hidden __riscv_save_1
00000542 g     F .text	0000000c .hidden __riscv_restore_0
00003df2 g     F .text	000000b2 TIM_OC3Init
00004b80 g     F .text	00000040 HAL_WRAPPER_ReadAcc
0000cfa6 g     F .text	00000034 _read_r
0000574c g     F .text	00000068 BMP280_get_altitude
00000b72 g     F .text	00000006 vListInitialiseItem
000054de g     F .text	0000020c BMP280_CompensatePressure
0000599e g     F .text	00000200 Task_Master
00000504 g     F .text	0000001a .hidden __riscv_save_7
00000f98 g     F .text	0000014c xQueueReceive
2000317c g     O .bss	00000040 xQueueRegistry
00000b58 g     F .text	00000006 vPortClearInterruptMask
00008526 g     F .text	0000019a __kernel_sin
0000ba26 g     F .text	000000ac .hidden __extendsfdf2
00003a86 g     F .text	0000001e RCC_APB1PeriphClockCmd
20000160 g     O .bss	00000004 queue_RawSensorData_Handle_t
00008ee4 g     F .text	00000730 .hidden __adddf3
00003336  w      .text	00000000 Ecall_M_Mode_Handler
20004800 g       .stack	00000000 _heap_end
000005f6 g     F .text	00000022 SERVICE_RTOS_TaskCreate
0000cffa g     F .text	00000010 _isatty
20000098 g     O .data	00000004 __fdlib_version
200000a4 g     O .data	00000004 _global_impure_ptr
00000538 g     F .text	00000016 .hidden __riscv_restore_5
00003b28 g     F .text	0000000c SPI_I2S_GetFlagStatus
00003a4a g     F .text	0000001e RCC_AHBPeriphClockCmd
0000335c  w      .text	00000000 DMA1_Channel4_IRQHandler
000034b0 g     F .text	000000b8 ADC_RegularChannelConfig
00003816 g     F .text	00000006 I2C_SendData
0000aaa2 g     F .text	00000068 .hidden __floatunsidf
00004382 g     F .text	0000002a _sbrk
0000077a g     F .text	00000188 pvPortMalloc
00003568 g     F .text	00000008 ADC_GetConversionValue
2000334c g     O .bss	0000000c S
00000b5e g     F .text	00000014 vListInitialise
2000011c g     O .bss	00000004 global_UART4RecCallback
20000164 g     O .bss	00000004 task_AppComm_Handle_t
000036aa g     F .text	00000114 I2C_Init
0000547e g     F .text	00000060 BMP280_CompensateTemperature
00000538 g     F .text	00000016 .hidden __riscv_restore_6
0000338e  w      .text	00000000 USART3_IRQHandler
000015de g     F .text	0000000a xTaskGetTickCount
00000e0a g     F .text	0000018e xQueueGenericSend
00007bd4 g     F .text	00000952 __kernel_rem_pio2
00003346  w      .text	00000000 RTC_IRQHandler
20003408 g       .bss	00000000 _ebss
000042a4 g     F .text	00000044 USART_GetITStatus
00008832 g     F .text	00000186 rint
00003362  w      .text	00000000 DMA1_Channel7_IRQHandler
00003cb6 g     F .text	00000088 TIM_OC1Init
00003498 g     F .text	00000018 ADC_SoftwareStartConvCmd
00003fcc g     F .text	00000012 TIM_OC3PreloadConfig
0000336a  w      .text	00000000 CAN1_RX1_IRQHandler
00001f9e g     F .text	00000158 vTaskGenericNotifyGiveFromISR
0000a9c8 g     F .text	00000068 .hidden __fixdfsi
00001cae g     F .text	000000ca xTaskPriorityDisinherit
0000b8e4 g     F .text	00000142 .hidden __floatdisf
20000168 g     O .bss	00000004 task_CollectSensorData_Handle_t
20000124 g     O .bss	00000001 global_u8IsCaptured
20000126 g     O .bss	00000002 tempreg
00006624 g     F .text	000001e4 __ieee754_atan2
0000b126 g     F .text	00000086 .hidden __gtsf2
00001ab2 g     F .text	000000ec xTaskRemoveFromEventList
0000367a g     F .text	00000018 GPIO_SetBits
0000337c  w      .text	00000000 TIM4_IRQHandler
00000670 g     F .text	00000036 SERVICE_RTOS_ReadFromBlockingQueue
00009ce0 g     F .text	000000b6 .hidden __ledf2
00003f82 g     F .text	0000001e TIM_ARRPreloadConfig
000004f6 g     F .text	00000028 .hidden __riscv_save_9
200033b4 g     O .bss	0000000c global_MPU6050ACC_t
000037da g     F .text	0000001e I2C_GenerateSTART
00002428 g     F .text	0000004e compute_azimuth
0000d9c8 g     O .text	00000020 __sf_fake_stderr
000006d4 g     F .text	0000002c SERVICE_RTOS_Notify
00000504 g     F .text	0000001a .hidden __riscv_save_4
00002b72 g     F .text	00000008 matrix_create
0000337e  w      .text	00000000 I2C1_EV_IRQHandler
000051bc g     F .text	0000007c hmc5883l_normalize
200000a0 g     O .data	00000004 xISRStackTop
00005278 g     F .text	00000038 HAL_ESC_setSpeed
00004158 g     F .text	0000001c TIM_GetITStatus
00003396  w      .text	00000000 USBHD_IRQHandler
0000326a g     F .text	00000068 MCAL_WRAPPER_DelayUS
00003984 g     F .text	000000c6 RCC_GetClocksFreq
00003360  w      .text	00000000 DMA1_Channel6_IRQHandler
0000bc3c g     F .text	00000076 .hidden __clzsi2
00004cf2 g     F .text	0000001a HAL_WRAPPER_ReadAltitude
0000c740 g     F .text	00000044 __sfputs_r
00006118 g     F .text	00000092 cos
0000383a g     F .text	00000026 I2C_NACKPositionConfig
00002fd2 g     F .text	00000026 UART4_IRQHandler
0000cf8c g     F .text	0000001a memchr
00004182 g     F .text	000000d8 USART_Init
00001bb4 g     F .text	000000c8 xTaskCheckForTimeOut
0000bd84 g     F .text	000000b0 _free_r
0000337a  w      .text	00000000 TIM3_IRQHandler
0000334a  w      .text	00000000 RCC_IRQHandler
0000051e g     F .text	0000000c .hidden __riscv_save_3
000031c8 g     F .text	00000052 MCAL_WRAPPER_SendDataThroughUART4
00003374  w      .text	00000000 TIM1_TRG_COM_IRQHandler
000050a8 g     F .text	00000010 mpu6050_init
00004cce g     F .text	00000012 HAL_WRAPPER_ReadPressure
00003356  w      .text	00000000 DMA1_Channel1_IRQHandler
20000088 g     O .data	00000004 Ts
00000000 g       .init	00000000 _start
2000016c g     O .bss	00000004 task_Master_Handle_t
000015ce g     F .text	00000010 vTaskSuspendAll
20000010 g     O .data	00000010 AHBPrescTable
0000387a g     F .text	00000032 I2C_GetFlagStatus
000061b0 g     F .text	00000094 sin
00002c92 g     F .text	000000b0 matrix_multiply
0000d00a g     F .text	00000010 _lseek
20000120 g     O .bss	00000004 global_u32TicksNum
00003fb2 g     F .text	0000001a TIM_OC2PreloadConfig
00003f6e g     F .text	00000014 TIM_SelectInputTrigger
00006244 g     F .text	00000002 atan2
0000b81e g     F .text	000000c6 .hidden __floatsisf
00000ba6 g     F .text	00000020 uxListRemove
00003390  w      .text	00000000 EXTI15_10_IRQHandler
00003f58 g     F .text	00000016 TIM_ITConfig
000006b4 g     F .text	00000020 SERVICE_RTOS_WaitForNotification
00003d3e g     F .text	000000b4 TIM_OC2Init
00006808 g     F .text	00000ad8 __ieee754_pow
00006246 g     F .text	00000324 pow
0000339c  w      .text	00000000 DMA1_Channel8_IRQHandler
200032e0 g     O .bss	0000000c G
0000195a g     F .text	0000009a vTaskSwitchContext
00004fcc g     F .text	000000dc mpu6050_gyro_setup
00005b9e g     F .text	0000007a UARTReceivedISR
000037be g     F .text	0000001c I2C_Cmd
00001a3c g     F .text	00000076 vTaskPlaceOnEventListRestricted
00003692 g     F .text	00000018 GPIO_ResetBits
00005238 g     F .text	00000040 HAL_HCSR04_GetDistance
000052de g     F .text	0000002e BMP280_ReadRegister
0000cec6 g     F .text	00000030 _close_r
000056ea g     F .text	0000002e BMP280_Init
20000000 g       .dalign	00000000 _data_vma
00004db4 g     F .text	00000058 mpu6050_accel_setup
00003ea4 g     F .text	00000082 TIM_OC4Init
20000128 g     O .bss	00000001 MCU_Version
00005160 g     F .text	0000005c hmc5883l_read
0000c130 g     F .text	0000010e __swsetup_r
0000336e  w      .text	00000000 EXTI9_5_IRQHandler
00009614 g     F .text	000005b4 .hidden __divdf3
000032d2 g     F .text	00000026 MCAL_WRAPPER_HCSR04Trig
0000c50a g     F .text	000000a0 __sfp
00000700 g     F .text	00000018 SERVICE_RTOS_CurrentMSTime
00003162 g     F .text	00000066 MCAL_WRAPPER_TIM1GetWidthOfPulse
00009d96 g     F .text	000004b8 .hidden __muldf3
000004f6 g     F .text	00000028 .hidden __riscv_save_10
0000cdd6 g     F .text	00000030 __sread
00003826 g     F .text	00000014 I2C_Send7bitAddress
0000407a g     F .text	0000001e TIM_SetIC1Prescaler
0000c712 g     F .text	00000002 __malloc_lock
00000538 g     F .text	00000016 .hidden __riscv_restore_4
0000052e g     F .text	00000020 .hidden __riscv_restore_8
0000c37c g     F .text	00000066 _fflush_r
00000504 g     F .text	0000001a .hidden __riscv_save_6
00003388  w      .text	00000000 SPI2_IRQHandler
0000d9e8 g     O .text	00000020 __sf_fake_stdin
00001e10 g     F .text	0000018e xTaskGenericNotify
0000054e g     F .text	000000a8 memset
2000015c g     O .bss	00000004 queue_FusedSensorData_Handle_t
0000052e g     F .text	00000020 .hidden __riscv_restore_9
00002e0e g     F .text	0000007a I2C_start_transmission
00000538 g     F .text	00000016 .hidden __riscv_restore_7
00005cfc g     F .text	000000e2 main
20000118 g     O .bss	00000004 global_CurrentPWTask_t
00004ce0 g     F .text	00000012 HAL_WRAPPER_ReadTemperature
00000b78 g     F .text	0000002e vListInsert
0000321a g     F .text	00000050 MCAL_WRAPPER_ReceiveDataThroughUART4
00000618 g     F .text	0000000c SERVICE_RTOS_StartSchedular
0000ce8a g     F .text	00000006 __sclose
00008820 g     F .text	00000004 matherr
00002476 g     F .text	00000098 kalman_filter
000023c8 g     F .text	00000060 xTimerCreateTimerTask
200032ec g     O .bss	0000000c H
0000bad2 g     F .text	0000016a .hidden __truncdfsf2
0000be34 g     F .text	000000e4 _malloc_r
00004c40 g     F .text	0000005e HAL_WRAPPER_SetESCSpeeds
00004c9e g     F .text	00000012 HAL_WRAPPER_GetCommMessage
0000335e  w      .text	00000000 DMA1_Channel5_IRQHandler
0000406e g     F .text	00000006 TIM_SetCounter
00001c88 g     F .text	0000000a xTaskGetCurrentTaskHandle
00003354  w      .text	00000000 EXTI4_IRQHandler
00000da0 g     F .text	0000006a xQueueGenericCreate
00003368  w      .text	00000000 USB_LP_CAN1_RX0_IRQHandler
20003310 g     O .bss	0000000c L
0000b1ac g     F .text	00000294 .hidden __mulsf3
00002eea g     F .text	00000028 I2C_read
000086c0 g     F .text	0000000e finite
0000413e g     F .text	00000006 TIM_GetCapture2
000043ac g     F .text	0000065e MCAL_Config_ConfigAllPins
00003afe g     F .text	0000001e SPI_Cmd
00004296 g     F .text	0000000e USART_ClearFlag
00004a0a g     F .text	000000e6 SystemInit
00000718 g     F .text	00000016 SERVICE_RTOS_GetCurrentTaskHandle
00008af6 g     F .text	00000016 copysign
00009bc8 g     F .text	0000006a .hidden __nedf2
00000646 g     F .text	0000002a SERVICE_RTOS_AppendToBlockingQueue
0000bf18 g     F .text	00000040 iprintf
00001792 g     F .text	00000166 xTaskResumeAll
20000084 g     O .data	00000004 uxTopUsedPriority
00005dde g     F .text	0000033a atan
00003366  w      .text	00000000 USB_HP_CAN1_TX_IRQHandler
0000d8c8 g     O .text	00000100 .hidden __clz_tab
00000b4c g     F .text	0000000c xPortSetInterruptMask
0000153e g     F .text	00000090 vTaskStartScheduler
00004eb2 g     F .text	0000011a mpu6050_gyro_read
00000000 g       .init	00000000 _sinit
200033e4 g     O .bss	00000010 global_AppCommMsg_t
20003340 g     O .bss	0000000c R
0000250e g     F .text	000001bc kalman_filter_2d
00003398  w      .text	00000000 USBHDWakeUp_IRQHandler
0000b126 g     F .text	00000086 .hidden __gesf2
000040ba g     F .text	0000007e TIM_PWMIConfig
0000ce90 g     F .text	00000036 _write_r
0000530c g     F .text	0000002a BMP280_WriteRegister
00000300 g       .text	00000000 xPortStartFirstTask
0000335a  w      .text	00000000 DMA1_Channel3_IRQHandler
0000ca20 g     F .text	0000010c _printf_common
2000009c g     O .data	00000004 _impure_ptr
00002ff8 g     F .text	00000094 TIM1_UP_IRQHandler
0000c23e g     F .text	0000013e __sflush_r
000089b8 g     F .text	0000013e scalbn
00004bc0 g     F .text	0000003a HAL_WRAPPER_ReadGyro
00002b2a g     F .text	00000048 pid_ctrl
00003340  w      .text	00000000 WWDG_IRQHandler
000026ca g     F .text	000002ba SensorFuseWithKalman
00003338  w      .text	00000000 Ecall_U_Mode_Handler
00001c7c g     F .text	0000000c vTaskMissedYield
00003378  w      .text	00000000 TIM2_IRQHandler
20005000 g       .stack	00000000 _eusrstack
00004014 g     F .text	0000001c TIM_UpdateRequestConfig
0000051e g     F .text	0000000c .hidden __riscv_save_2
2000339c g     O .bss	00000018 global_HMC5883MAGNET_t
00000200 g       .text	00000000 SW_Handler
20000130 g     O .bss	00000006 RxData
000010e4 g     F .text	00000044 uxQueueMessagesWaiting
00001128 g     F .text	0000006c vQueueAddToRegistry
200032f8 g     O .bss	0000000c I
00008824 g     F .text	0000000e nan
000015e8 g     F .text	000001aa xTaskIncrementTick
00002f12 g     F .text	0000008a I2C_requestFrom
00007746 g     F .text	000001d6 __ieee754_sqrt
00003370  w      .text	00000000 TIM1_BRK_IRQHandler
0000c616 g     F .text	0000005a __swhatbuf_r
00003430 g     F .text	00000058 ADC_Init
00004276 g     F .text	0000000a USART_SendData
0000334e  w      .text	00000000 EXTI1_IRQHandler
00005730 g     F .text	0000001c BMP280_get_pressure
2000331c g     O .bss	0000000c M
0000404e g     F .text	00000020 TIM_SelectMasterSlaveMode
00000504 g     F .text	0000001a .hidden __riscv_save_5
00000ce4 g     F .text	000000bc xQueueGenericReset
00004344 g     F .text	0000003e _write
200000a8 g       .data	00000000 _edata
20000170 g     O .bss	00000004 task_SensorFusion_Handle_t
20003408 g       .bss	00000000 _end
00000624 g     F .text	00000022 SERVICE_RTOS_CreateBlockingQueue
20003358 g     O .bss	0000000c U
00003c36 g     F .text	00000080 TIM_TimeBaseInit
00003392  w      .text	00000000 RTCAlarm_IRQHandler
0000130c g     F .text	00000232 xTaskCreate
0000da64 g       .dlalign	00000000 _data_lma
0000338c  w      .text	00000000 USART2_IRQHandler
0000ce06 g     F .text	0000004e __swrite
0000c784 g     F .text	0000029c _vfiprintf_r
0000c5aa g     F .text	0000006c _fwalk_reent
00004af0 g     F .text	00000090 SystemCoreClockUpdate
00003384  w      .text	00000000 I2C2_ER_IRQHandler
000018f8 g     F .text	00000062 vTaskDelay
00003358  w      .text	00000000 DMA1_Channel2_IRQHandler
0000da08 g     O .text	00000020 __sf_fake_stdout
0000052a g     F .text	00000024 .hidden __riscv_restore_12
00001c92 g     F .text	0000001c xTaskGetSchedulerState
0000d01a g     F .text	00000010 _read
0000a98c g     F .text	0000003c .hidden __unorddf2
200033c0 g     O .bss	0000000c global_MPU6050GYRO_t
0000339e  w      .text	00000000 handle_reset
0000336c  w      .text	00000000 CAN1_SCE_IRQHandler
0000b7c8 g     F .text	00000056 .hidden __fixunssfsi
00003348  w      .text	00000000 FLASH_IRQHandler
0000051e g     F .text	0000000c .hidden __riscv_save_0
000032f8 g     F .text	0000003a MCAL_WRAPPER_GetADCBattery
0000338a  w      .text	00000000 USART1_IRQHandler
0000c670 g     F .text	000000a2 __smakebuf_r
00000400 g       .text	00000000 pxPortInitialiseStack
0000cb2c g     F .text	000002aa _printf_i
00004098 g     F .text	00000022 TIM_SetIC2Prescaler
20000158 g     O .bss	00000004 queue_DroneCommToApp_Handle_t
00009c32 g     F .text	000000ae .hidden __gedf2
20000178 g     O .bss	00000004 __malloc_sbrk_start
00003860 g     F .text	0000001a I2C_CheckEvent
00004030 g     F .text	0000001e TIM_SelectSlaveMode
000037f8 g     F .text	0000001e I2C_GenerateSTOP
00003380  w      .text	00000000 I2C1_ER_IRQHandler
00003aa4 g     F .text	0000005a SPI_Init
000038ac g     F .text	0000000a NVIC_PriorityGroupConfig
00000aec g     F .text	0000001a vPortEnterCritical
20003364 g     O .bss	0000001c MCAL_CFG_BMPSPI
20000174 g     O .bss	00000004 __malloc_free_list
00000542 g     F .text	0000000c .hidden __riscv_restore_1
200033f4 g     O .bss	0000000e global_MsgToRec_t
0000a24e g     F .text	0000073e .hidden __subdf3
0000c784 g     F .text	0000029c _vfprintf_r
00004074 g     F .text	00000006 TIM_SetCompare1
00003ff8 g     F .text	0000001c TIM_UpdateDisableConfig
00005718 g     F .text	00000018 BMP280_get_temperature
200032d4 g     O .bss	0000000c F
2000014c g     O .bss	00000004 t_fine
20003328 g     O .bss	0000000c P
00005870 g     F .text	0000012e Task_SensorFusion
000052b0 g     F .text	0000002e HAL_Config_ConfigAllHW
0000ab0a g     F .text	0000036a .hidden __addsf3
00005468 g     F .text	00000016 BMP280_GetPressureRawData
00002d9c g     F .text	00000072 MCAL_WRAPEPR_SPI_POLL_TRANSFER
00003394  w      .text	00000000 USBWakeUp_IRQHandler
00002eba g     F .text	00000030 I2C_stop
00002e88 g     F .text	00000032 I2C_write
0000cfda g     F .text	00000010 _close
0000bcc4 g     F .text	0000000a free
00004d0c g     F .text	000000a8 HAL_WRAPPER_GetBatteryCharge



Disassembly of section .init:

00000000 <_sinit>:
   0:	39e0306f          	j	339e <handle_reset>
   4:	00000013          	nop
   8:	00000013          	nop
   c:	00000013          	nop
  10:	00000013          	nop
  14:	00000013          	nop
  18:	00000013          	nop
  1c:	00000013          	nop
  20:	00000013          	nop
  24:	00000013          	nop
  28:	00000013          	nop
  2c:	00000013          	nop
  30:	00000013          	nop
  34:	00100073          	ebreak

Disassembly of section .vector:

00000038 <_vector_base>:
	...
  40:	57b4                	lw	a3,104(a5)
  42:	0000                	unimp
  44:	57b6                	lw	a5,108(sp)
  46:	0000                	unimp
  48:	0000                	unimp
  4a:	0000                	unimp
  4c:	3336                	fld	ft6,360(sp)
	...
  56:	0000                	unimp
  58:	3338                	fld	fa4,96(a4)
  5a:	0000                	unimp
  5c:	333a                	fld	ft6,424(sp)
	...
  66:	0000                	unimp
  68:	0a70                	addi	a2,sp,284
  6a:	0000                	unimp
  6c:	0000                	unimp
  6e:	0000                	unimp
  70:	0200                	addi	s0,sp,256
  72:	0000                	unimp
  74:	0000                	unimp
  76:	0000                	unimp
  78:	3340                	fld	fs0,160(a4)
  7a:	0000                	unimp
  7c:	3342                	fld	ft6,48(sp)
  7e:	0000                	unimp
  80:	3344                	fld	fs1,160(a4)
  82:	0000                	unimp
  84:	3346                	fld	ft6,112(sp)
  86:	0000                	unimp
  88:	3348                	fld	fa0,160(a4)
  8a:	0000                	unimp
  8c:	334a                	fld	ft6,176(sp)
  8e:	0000                	unimp
  90:	334c                	fld	fa1,160(a4)
  92:	0000                	unimp
  94:	334e                	fld	ft6,240(sp)
  96:	0000                	unimp
  98:	3350                	fld	fa2,160(a4)
  9a:	0000                	unimp
  9c:	3352                	fld	ft6,304(sp)
  9e:	0000                	unimp
  a0:	3354                	fld	fa3,160(a4)
  a2:	0000                	unimp
  a4:	3356                	fld	ft6,368(sp)
  a6:	0000                	unimp
  a8:	3358                	fld	fa4,160(a4)
  aa:	0000                	unimp
  ac:	335a                	fld	ft6,432(sp)
  ae:	0000                	unimp
  b0:	335c                	fld	fa5,160(a4)
  b2:	0000                	unimp
  b4:	335e                	fld	ft6,496(sp)
  b6:	0000                	unimp
  b8:	3360                	fld	fs0,224(a4)
  ba:	0000                	unimp
  bc:	3362                	fld	ft6,56(sp)
  be:	0000                	unimp
  c0:	3364                	fld	fs1,224(a4)
  c2:	0000                	unimp
  c4:	3366                	fld	ft6,120(sp)
  c6:	0000                	unimp
  c8:	3368                	fld	fa0,224(a4)
  ca:	0000                	unimp
  cc:	336a                	fld	ft6,184(sp)
  ce:	0000                	unimp
  d0:	336c                	fld	fa1,224(a4)
  d2:	0000                	unimp
  d4:	336e                	fld	ft6,248(sp)
  d6:	0000                	unimp
  d8:	3370                	fld	fa2,224(a4)
  da:	0000                	unimp
  dc:	2ff8                	fld	fa4,216(a5)
  de:	0000                	unimp
  e0:	3374                	fld	fa3,224(a4)
  e2:	0000                	unimp
  e4:	308c                	fld	fa1,32(s1)
  e6:	0000                	unimp
  e8:	3378                	fld	fa4,224(a4)
  ea:	0000                	unimp
  ec:	337a                	fld	ft6,440(sp)
  ee:	0000                	unimp
  f0:	337c                	fld	fa5,224(a4)
  f2:	0000                	unimp
  f4:	337e                	fld	ft6,504(sp)
  f6:	0000                	unimp
  f8:	3380                	fld	fs0,32(a5)
  fa:	0000                	unimp
  fc:	3382                	fld	ft7,32(sp)
  fe:	0000                	unimp
 100:	3384                	fld	fs1,32(a5)
 102:	0000                	unimp
 104:	3386                	fld	ft7,96(sp)
 106:	0000                	unimp
 108:	3388                	fld	fa0,32(a5)
 10a:	0000                	unimp
 10c:	338a                	fld	ft7,160(sp)
 10e:	0000                	unimp
 110:	338c                	fld	fa1,32(a5)
 112:	0000                	unimp
 114:	338e                	fld	ft7,224(sp)
 116:	0000                	unimp
 118:	3390                	fld	fa2,32(a5)
 11a:	0000                	unimp
 11c:	3392                	fld	ft7,288(sp)
 11e:	0000                	unimp
 120:	3394                	fld	fa3,32(a5)
 122:	0000                	unimp
 124:	3396                	fld	ft7,352(sp)
 126:	0000                	unimp
 128:	3398                	fld	fa4,32(a5)
 12a:	0000                	unimp
 12c:	2fd2                	fld	ft11,272(sp)
 12e:	0000                	unimp
 130:	339c                	fld	fa5,32(a5)
	...

Disassembly of section .text:

00000200 <SW_Handler>:
     200:	f8810113          	addi	sp,sp,-120
     204:	c206                	sw	ra,4(sp)
     206:	c416                	sw	t0,8(sp)
     208:	c61a                	sw	t1,12(sp)
     20a:	c81e                	sw	t2,16(sp)
     20c:	ca22                	sw	s0,20(sp)
     20e:	cc26                	sw	s1,24(sp)
     210:	ce2a                	sw	a0,28(sp)
     212:	d02e                	sw	a1,32(sp)
     214:	d232                	sw	a2,36(sp)
     216:	d436                	sw	a3,40(sp)
     218:	d63a                	sw	a4,44(sp)
     21a:	d83e                	sw	a5,48(sp)
     21c:	da42                	sw	a6,52(sp)
     21e:	dc46                	sw	a7,56(sp)
     220:	de4a                	sw	s2,60(sp)
     222:	c0ce                	sw	s3,64(sp)
     224:	c2d2                	sw	s4,68(sp)
     226:	c4d6                	sw	s5,72(sp)
     228:	c6da                	sw	s6,76(sp)
     22a:	c8de                	sw	s7,80(sp)
     22c:	cae2                	sw	s8,84(sp)
     22e:	cce6                	sw	s9,88(sp)
     230:	ceea                	sw	s10,92(sp)
     232:	d0ee                	sw	s11,96(sp)
     234:	d2f2                	sw	t3,100(sp)
     236:	d4f6                	sw	t4,104(sp)
     238:	d6fa                	sw	t5,108(sp)
     23a:	d8fe                	sw	t6,112(sp)
     23c:	300022f3          	csrr	t0,mstatus
     240:	da96                	sw	t0,116(sp)
     242:	20000297          	auipc	t0,0x20000
     246:	e862a283          	lw	t0,-378(t0) # 200000c8 <pxCurrentTCB>
     24a:	0022a023          	sw	sp,0(t0)
     24e:	341025f3          	csrr	a1,mepc
     252:	c02e                	sw	a1,0(sp)
     254:	8201a103          	lw	sp,-2016(gp) # 200000a0 <xISRStackTop>
     258:	702010ef          	jal	ra,195a <vTaskSwitchContext>

0000025c <processed_source>:
     25c:	20000317          	auipc	t1,0x20000
     260:	e6c32303          	lw	t1,-404(t1) # 200000c8 <pxCurrentTCB>
     264:	00032103          	lw	sp,0(t1)
     268:	4282                	lw	t0,0(sp)
     26a:	34129073          	csrw	mepc,t0
     26e:	52d6                	lw	t0,116(sp)
     270:	30029073          	csrw	mstatus,t0
     274:	4092                	lw	ra,4(sp)
     276:	42a2                	lw	t0,8(sp)
     278:	4332                	lw	t1,12(sp)
     27a:	43c2                	lw	t2,16(sp)
     27c:	4452                	lw	s0,20(sp)
     27e:	44e2                	lw	s1,24(sp)
     280:	4572                	lw	a0,28(sp)
     282:	5582                	lw	a1,32(sp)
     284:	5612                	lw	a2,36(sp)
     286:	56a2                	lw	a3,40(sp)
     288:	5732                	lw	a4,44(sp)
     28a:	57c2                	lw	a5,48(sp)
     28c:	5852                	lw	a6,52(sp)
     28e:	58e2                	lw	a7,56(sp)
     290:	5972                	lw	s2,60(sp)
     292:	4986                	lw	s3,64(sp)
     294:	4a16                	lw	s4,68(sp)
     296:	4aa6                	lw	s5,72(sp)
     298:	4b36                	lw	s6,76(sp)
     29a:	4bc6                	lw	s7,80(sp)
     29c:	4c56                	lw	s8,84(sp)
     29e:	4ce6                	lw	s9,88(sp)
     2a0:	4d76                	lw	s10,92(sp)
     2a2:	5d86                	lw	s11,96(sp)
     2a4:	5e16                	lw	t3,100(sp)
     2a6:	5ea6                	lw	t4,104(sp)
     2a8:	5f36                	lw	t5,108(sp)
     2aa:	5fc6                	lw	t6,112(sp)
     2ac:	07810113          	addi	sp,sp,120
     2b0:	30200073          	mret
     2b4:	00000013          	nop
     2b8:	00000013          	nop
     2bc:	00000013          	nop
     2c0:	00000013          	nop
     2c4:	00000013          	nop
     2c8:	00000013          	nop
     2cc:	00000013          	nop
     2d0:	00000013          	nop
     2d4:	00000013          	nop
     2d8:	00000013          	nop
     2dc:	00000013          	nop
     2e0:	00000013          	nop
     2e4:	00000013          	nop
     2e8:	00000013          	nop
     2ec:	00000013          	nop
     2f0:	00000013          	nop
     2f4:	00000013          	nop
     2f8:	00000013          	nop
     2fc:	00000013          	nop

00000300 <xPortStartFirstTask>:
     300:	8201a283          	lw	t0,-2016(gp) # 200000a0 <xISRStackTop>
     304:	e0028293          	addi	t0,t0,-512
     308:	34029073          	csrw	mscratch,t0
     30c:	20000117          	auipc	sp,0x20000
     310:	dbc12103          	lw	sp,-580(sp) # 200000c8 <pxCurrentTCB>
     314:	4102                	lw	sp,0(sp)
     316:	4082                	lw	ra,0(sp)
     318:	4332                	lw	t1,12(sp)
     31a:	43c2                	lw	t2,16(sp)
     31c:	4452                	lw	s0,20(sp)
     31e:	44e2                	lw	s1,24(sp)
     320:	4572                	lw	a0,28(sp)
     322:	5582                	lw	a1,32(sp)
     324:	5612                	lw	a2,36(sp)
     326:	56a2                	lw	a3,40(sp)
     328:	5732                	lw	a4,44(sp)
     32a:	57c2                	lw	a5,48(sp)
     32c:	5852                	lw	a6,52(sp)
     32e:	58e2                	lw	a7,56(sp)
     330:	5972                	lw	s2,60(sp)
     332:	4986                	lw	s3,64(sp)
     334:	4a16                	lw	s4,68(sp)
     336:	4aa6                	lw	s5,72(sp)
     338:	4b36                	lw	s6,76(sp)
     33a:	4bc6                	lw	s7,80(sp)
     33c:	4c56                	lw	s8,84(sp)
     33e:	4ce6                	lw	s9,88(sp)
     340:	4d76                	lw	s10,92(sp)
     342:	5d86                	lw	s11,96(sp)
     344:	5e16                	lw	t3,100(sp)
     346:	5ea6                	lw	t4,104(sp)
     348:	5f36                	lw	t5,108(sp)
     34a:	5fc6                	lw	t6,112(sp)
     34c:	52d6                	lw	t0,116(sp)
     34e:	02a1                	addi	t0,t0,8
     350:	30029073          	csrw	mstatus,t0
     354:	42a2                	lw	t0,8(sp)
     356:	07810113          	addi	sp,sp,120
     35a:	8082                	ret
     35c:	00000013          	nop
     360:	00000013          	nop
     364:	00000013          	nop
     368:	00000013          	nop
     36c:	00000013          	nop
     370:	00000013          	nop
     374:	00000013          	nop
     378:	00000013          	nop
     37c:	00000013          	nop
     380:	00000013          	nop
     384:	00000013          	nop
     388:	00000013          	nop
     38c:	00000013          	nop
     390:	00000013          	nop
     394:	00000013          	nop
     398:	00000013          	nop
     39c:	00000013          	nop
     3a0:	00000013          	nop
     3a4:	00000013          	nop
     3a8:	00000013          	nop
     3ac:	00000013          	nop
     3b0:	00000013          	nop
     3b4:	00000013          	nop
     3b8:	00000013          	nop
     3bc:	00000013          	nop
     3c0:	00000013          	nop
     3c4:	00000013          	nop
     3c8:	00000013          	nop
     3cc:	00000013          	nop
     3d0:	00000013          	nop
     3d4:	00000013          	nop
     3d8:	00000013          	nop
     3dc:	00000013          	nop
     3e0:	00000013          	nop
     3e4:	00000013          	nop
     3e8:	00000013          	nop
     3ec:	00000013          	nop
     3f0:	00000013          	nop
     3f4:	00000013          	nop
     3f8:	00000013          	nop
     3fc:	00000013          	nop

00000400 <pxPortInitialiseStack>:
     400:	300022f3          	csrr	t0,mstatus
     404:	ff72f293          	andi	t0,t0,-9
     408:	18800313          	li	t1,392
     40c:	0312                	slli	t1,t1,0x4
     40e:	0062e2b3          	or	t0,t0,t1
     412:	1571                	addi	a0,a0,-4
     414:	00552023          	sw	t0,0(a0)
     418:	fa850513          	addi	a0,a0,-88
     41c:	c110                	sw	a2,0(a0)
     41e:	1521                	addi	a0,a0,-24
     420:	00052023          	sw	zero,0(a0)
     424:	00000293          	li	t0,0

00000428 <chip_specific_stack_frame>:
     428:	00028763          	beqz	t0,436 <chip_specific_stack_frame+0xe>
     42c:	1571                	addi	a0,a0,-4
     42e:	00052023          	sw	zero,0(a0)
     432:	12fd                	addi	t0,t0,-1
     434:	bfd5                	j	428 <chip_specific_stack_frame>
     436:	1571                	addi	a0,a0,-4
     438:	c10c                	sw	a1,0(a0)
     43a:	8082                	ret
	...

000004ee <__riscv_save_12>:
     4ee:	7139                	addi	sp,sp,-64
     4f0:	4301                	li	t1,0
     4f2:	c66e                	sw	s11,12(sp)
     4f4:	a019                	j	4fa <__riscv_save_10+0x4>

000004f6 <__riscv_save_10>:
     4f6:	7139                	addi	sp,sp,-64
     4f8:	5341                	li	t1,-16
     4fa:	c86a                	sw	s10,16(sp)
     4fc:	ca66                	sw	s9,20(sp)
     4fe:	cc62                	sw	s8,24(sp)
     500:	ce5e                	sw	s7,28(sp)
     502:	a019                	j	508 <__riscv_save_4+0x4>

00000504 <__riscv_save_4>:
     504:	7139                	addi	sp,sp,-64
     506:	5301                	li	t1,-32
     508:	d05a                	sw	s6,32(sp)
     50a:	d256                	sw	s5,36(sp)
     50c:	d452                	sw	s4,40(sp)
     50e:	d64e                	sw	s3,44(sp)
     510:	d84a                	sw	s2,48(sp)
     512:	da26                	sw	s1,52(sp)
     514:	dc22                	sw	s0,56(sp)
     516:	de06                	sw	ra,60(sp)
     518:	40610133          	sub	sp,sp,t1
     51c:	8282                	jr	t0

0000051e <__riscv_save_0>:
     51e:	1141                	addi	sp,sp,-16
     520:	c04a                	sw	s2,0(sp)
     522:	c226                	sw	s1,4(sp)
     524:	c422                	sw	s0,8(sp)
     526:	c606                	sw	ra,12(sp)
     528:	8282                	jr	t0

0000052a <__riscv_restore_12>:
     52a:	4db2                	lw	s11,12(sp)
     52c:	0141                	addi	sp,sp,16

0000052e <__riscv_restore_10>:
     52e:	4d02                	lw	s10,0(sp)
     530:	4c92                	lw	s9,4(sp)
     532:	4c22                	lw	s8,8(sp)
     534:	4bb2                	lw	s7,12(sp)
     536:	0141                	addi	sp,sp,16

00000538 <__riscv_restore_4>:
     538:	4b02                	lw	s6,0(sp)
     53a:	4a92                	lw	s5,4(sp)
     53c:	4a22                	lw	s4,8(sp)
     53e:	49b2                	lw	s3,12(sp)
     540:	0141                	addi	sp,sp,16

00000542 <__riscv_restore_0>:
     542:	4902                	lw	s2,0(sp)
     544:	4492                	lw	s1,4(sp)
     546:	4422                	lw	s0,8(sp)
     548:	40b2                	lw	ra,12(sp)
     54a:	0141                	addi	sp,sp,16
     54c:	8082                	ret

0000054e <memset>:
     54e:	433d                	li	t1,15
     550:	872a                	mv	a4,a0
     552:	02c37363          	bgeu	t1,a2,578 <memset+0x2a>
     556:	00f77793          	andi	a5,a4,15
     55a:	efbd                	bnez	a5,5d8 <memset+0x8a>
     55c:	e5ad                	bnez	a1,5c6 <memset+0x78>
     55e:	ff067693          	andi	a3,a2,-16
     562:	8a3d                	andi	a2,a2,15
     564:	96ba                	add	a3,a3,a4
     566:	c30c                	sw	a1,0(a4)
     568:	c34c                	sw	a1,4(a4)
     56a:	c70c                	sw	a1,8(a4)
     56c:	c74c                	sw	a1,12(a4)
     56e:	0741                	addi	a4,a4,16
     570:	fed76be3          	bltu	a4,a3,566 <memset+0x18>
     574:	e211                	bnez	a2,578 <memset+0x2a>
     576:	8082                	ret
     578:	40c306b3          	sub	a3,t1,a2
     57c:	068a                	slli	a3,a3,0x2
     57e:	00000297          	auipc	t0,0x0
     582:	9696                	add	a3,a3,t0
     584:	00a68067          	jr	10(a3)
     588:	00b70723          	sb	a1,14(a4)
     58c:	00b706a3          	sb	a1,13(a4)
     590:	00b70623          	sb	a1,12(a4)
     594:	00b705a3          	sb	a1,11(a4)
     598:	00b70523          	sb	a1,10(a4)
     59c:	00b704a3          	sb	a1,9(a4)
     5a0:	00b70423          	sb	a1,8(a4)
     5a4:	00b703a3          	sb	a1,7(a4)
     5a8:	00b70323          	sb	a1,6(a4)
     5ac:	00b702a3          	sb	a1,5(a4)
     5b0:	00b70223          	sb	a1,4(a4)
     5b4:	00b701a3          	sb	a1,3(a4)
     5b8:	00b70123          	sb	a1,2(a4)
     5bc:	00b700a3          	sb	a1,1(a4)
     5c0:	00b70023          	sb	a1,0(a4)
     5c4:	8082                	ret
     5c6:	0ff5f593          	andi	a1,a1,255
     5ca:	00859693          	slli	a3,a1,0x8
     5ce:	8dd5                	or	a1,a1,a3
     5d0:	01059693          	slli	a3,a1,0x10
     5d4:	8dd5                	or	a1,a1,a3
     5d6:	b761                	j	55e <memset+0x10>
     5d8:	00279693          	slli	a3,a5,0x2
     5dc:	00000297          	auipc	t0,0x0
     5e0:	9696                	add	a3,a3,t0
     5e2:	8286                	mv	t0,ra
     5e4:	fa8680e7          	jalr	-88(a3)
     5e8:	8096                	mv	ra,t0
     5ea:	17c1                	addi	a5,a5,-16
     5ec:	8f1d                	sub	a4,a4,a5
     5ee:	963e                	add	a2,a2,a5
     5f0:	f8c374e3          	bgeu	t1,a2,578 <memset+0x2a>
     5f4:	b7a5                	j	55c <memset+0xe>

000005f6 <SERVICE_RTOS_TaskCreate>:
     5f6:	cd11                	beqz	a0,612 <SERVICE_RTOS_TaskCreate+0x1c>
     5f8:	4805                	li	a6,1
     5fa:	cd89                	beqz	a1,614 <SERVICE_RTOS_TaskCreate+0x1e>
     5fc:	ce01                	beqz	a2,614 <SERVICE_RTOS_TaskCreate+0x1e>
     5fe:	f21ff2ef          	jal	t0,51e <__riscv_save_0>
     602:	87ba                	mv	a5,a4
     604:	8736                	mv	a4,a3
     606:	4681                	li	a3,0
     608:	505000ef          	jal	ra,130c <xTaskCreate>
     60c:	4801                	li	a6,0
     60e:	8542                	mv	a0,a6
     610:	bf0d                	j	542 <__riscv_restore_0>
     612:	4805                	li	a6,1
     614:	8542                	mv	a0,a6
     616:	8082                	ret

00000618 <SERVICE_RTOS_StartSchedular>:
     618:	f07ff2ef          	jal	t0,51e <__riscv_save_0>
     61c:	723000ef          	jal	ra,153e <vTaskStartScheduler>
     620:	4501                	li	a0,0
     622:	b705                	j	542 <__riscv_restore_0>

00000624 <SERVICE_RTOS_CreateBlockingQueue>:
     624:	cd11                	beqz	a0,640 <SERVICE_RTOS_CreateBlockingQueue+0x1c>
     626:	4785                	li	a5,1
     628:	cd89                	beqz	a1,642 <SERVICE_RTOS_CreateBlockingQueue+0x1e>
     62a:	ce01                	beqz	a2,642 <SERVICE_RTOS_CreateBlockingQueue+0x1e>
     62c:	ef3ff2ef          	jal	t0,51e <__riscv_save_0>
     630:	8432                	mv	s0,a2
     632:	4601                	li	a2,0
     634:	76c000ef          	jal	ra,da0 <xQueueGenericCreate>
     638:	4781                	li	a5,0
     63a:	c008                	sw	a0,0(s0)
     63c:	853e                	mv	a0,a5
     63e:	b711                	j	542 <__riscv_restore_0>
     640:	4785                	li	a5,1
     642:	853e                	mv	a0,a5
     644:	8082                	ret

00000646 <SERVICE_RTOS_AppendToBlockingQueue>:
     646:	4785                	li	a5,1
     648:	c195                	beqz	a1,66c <SERVICE_RTOS_AppendToBlockingQueue+0x26>
     64a:	c20d                	beqz	a2,66c <SERVICE_RTOS_AppendToBlockingQueue+0x26>
     64c:	ed3ff2ef          	jal	t0,51e <__riscv_save_0>
     650:	87b2                	mv	a5,a2
     652:	4681                	li	a3,0
     654:	00155613          	srli	a2,a0,0x1
     658:	853e                	mv	a0,a5
     65a:	7b0000ef          	jal	ra,e0a <xQueueGenericSend>
     65e:	4705                	li	a4,1
     660:	4781                	li	a5,0
     662:	00e50363          	beq	a0,a4,668 <SERVICE_RTOS_AppendToBlockingQueue+0x22>
     666:	4789                	li	a5,2
     668:	853e                	mv	a0,a5
     66a:	bde1                	j	542 <__riscv_restore_0>
     66c:	853e                	mv	a0,a5
     66e:	8082                	ret

00000670 <SERVICE_RTOS_ReadFromBlockingQueue>:
     670:	4785                	li	a5,1
     672:	c985                	beqz	a1,6a2 <SERVICE_RTOS_ReadFromBlockingQueue+0x32>
     674:	c61d                	beqz	a2,6a2 <SERVICE_RTOS_ReadFromBlockingQueue+0x32>
     676:	ea9ff2ef          	jal	t0,51e <__riscv_save_0>
     67a:	8432                	mv	s0,a2
     67c:	00155613          	srli	a2,a0,0x1
     680:	8522                	mv	a0,s0
     682:	84b6                	mv	s1,a3
     684:	115000ef          	jal	ra,f98 <xQueueReceive>
     688:	4705                	li	a4,1
     68a:	478d                	li	a5,3
     68c:	00e51963          	bne	a0,a4,69e <SERVICE_RTOS_ReadFromBlockingQueue+0x2e>
     690:	8522                	mv	a0,s0
     692:	253000ef          	jal	ra,10e4 <uxQueueMessagesWaiting>
     696:	0505                	addi	a0,a0,1
     698:	00a48023          	sb	a0,0(s1)
     69c:	4781                	li	a5,0
     69e:	853e                	mv	a0,a5
     6a0:	b54d                	j	542 <__riscv_restore_0>
     6a2:	853e                	mv	a0,a5
     6a4:	8082                	ret

000006a6 <SERVICE_RTOS_BlockFor>:
     6a6:	e79ff2ef          	jal	t0,51e <__riscv_save_0>
     6aa:	8105                	srli	a0,a0,0x1
     6ac:	24c010ef          	jal	ra,18f8 <vTaskDelay>
     6b0:	4501                	li	a0,0
     6b2:	bd41                	j	542 <__riscv_restore_0>

000006b4 <SERVICE_RTOS_WaitForNotification>:
     6b4:	e6bff2ef          	jal	t0,51e <__riscv_save_0>
     6b8:	1f400613          	li	a2,500
     6bc:	02c50633          	mul	a2,a0,a2
     6c0:	3e800793          	li	a5,1000
     6c4:	4581                	li	a1,0
     6c6:	4501                	li	a0,0
     6c8:	02f65633          	divu	a2,a2,a5
     6cc:	6ac010ef          	jal	ra,1d78 <ulTaskGenericNotifyTake>
     6d0:	4501                	li	a0,0
     6d2:	bd85                	j	542 <__riscv_restore_0>

000006d4 <SERVICE_RTOS_Notify>:
     6d4:	e4bff2ef          	jal	t0,51e <__riscv_save_0>
     6d8:	4405                	li	s0,1
     6da:	c901                	beqz	a0,6ea <SERVICE_RTOS_Notify+0x16>
     6dc:	e989                	bnez	a1,6ee <SERVICE_RTOS_Notify+0x1a>
     6de:	4701                	li	a4,0
     6e0:	4689                	li	a3,2
     6e2:	4601                	li	a2,0
     6e4:	72c010ef          	jal	ra,1e10 <xTaskGenericNotify>
     6e8:	4401                	li	s0,0
     6ea:	8522                	mv	a0,s0
     6ec:	bd99                	j	542 <__riscv_restore_0>
     6ee:	4705                	li	a4,1
     6f0:	4401                	li	s0,0
     6f2:	fee59ce3          	bne	a1,a4,6ea <SERVICE_RTOS_Notify+0x16>
     6f6:	4601                	li	a2,0
     6f8:	4581                	li	a1,0
     6fa:	0a5010ef          	jal	ra,1f9e <vTaskGenericNotifyGiveFromISR>
     6fe:	b7f5                	j	6ea <SERVICE_RTOS_Notify+0x16>

00000700 <SERVICE_RTOS_CurrentMSTime>:
     700:	c911                	beqz	a0,714 <SERVICE_RTOS_CurrentMSTime+0x14>
     702:	e1dff2ef          	jal	t0,51e <__riscv_save_0>
     706:	842a                	mv	s0,a0
     708:	6d7000ef          	jal	ra,15de <xTaskGetTickCount>
     70c:	0506                	slli	a0,a0,0x1
     70e:	c008                	sw	a0,0(s0)
     710:	4501                	li	a0,0
     712:	bd05                	j	542 <__riscv_restore_0>
     714:	4505                	li	a0,1
     716:	8082                	ret

00000718 <SERVICE_RTOS_GetCurrentTaskHandle>:
     718:	c909                	beqz	a0,72a <SERVICE_RTOS_GetCurrentTaskHandle+0x12>
     71a:	e05ff2ef          	jal	t0,51e <__riscv_save_0>
     71e:	842a                	mv	s0,a0
     720:	568010ef          	jal	ra,1c88 <xTaskGetCurrentTaskHandle>
     724:	c008                	sw	a0,0(s0)
     726:	4501                	li	a0,0
     728:	bd29                	j	542 <__riscv_restore_0>
     72a:	4505                	li	a0,1
     72c:	8082                	ret

0000072e <prvInsertBlockIntoFreeList>:
     72e:	200007b7          	lui	a5,0x20000
     732:	0c078793          	addi	a5,a5,192 # 200000c0 <xStart>
     736:	4398                	lw	a4,0(a5)
     738:	02a76f63          	bltu	a4,a0,776 <prvInsertBlockIntoFreeList+0x48>
     73c:	43d0                	lw	a2,4(a5)
     73e:	00c786b3          	add	a3,a5,a2
     742:	00d51663          	bne	a0,a3,74e <prvInsertBlockIntoFreeList+0x20>
     746:	4154                	lw	a3,4(a0)
     748:	853e                	mv	a0,a5
     74a:	96b2                	add	a3,a3,a2
     74c:	c3d4                	sw	a3,4(a5)
     74e:	4150                	lw	a2,4(a0)
     750:	00c506b3          	add	a3,a0,a2
     754:	00d71c63          	bne	a4,a3,76c <prvInsertBlockIntoFreeList+0x3e>
     758:	200006b7          	lui	a3,0x20000
     75c:	0a86a683          	lw	a3,168(a3) # 200000a8 <_edata>
     760:	00d70663          	beq	a4,a3,76c <prvInsertBlockIntoFreeList+0x3e>
     764:	4354                	lw	a3,4(a4)
     766:	4318                	lw	a4,0(a4)
     768:	96b2                	add	a3,a3,a2
     76a:	c154                	sw	a3,4(a0)
     76c:	c118                	sw	a4,0(a0)
     76e:	00f50363          	beq	a0,a5,774 <prvInsertBlockIntoFreeList+0x46>
     772:	c388                	sw	a0,0(a5)
     774:	8082                	ret
     776:	87ba                	mv	a5,a4
     778:	bf7d                	j	736 <prvInsertBlockIntoFreeList+0x8>

0000077a <pvPortMalloc>:
     77a:	d8bff2ef          	jal	t0,504 <__riscv_save_4>
     77e:	1141                	addi	sp,sp,-16
     780:	c62a                	sw	a0,12(sp)
     782:	64d000ef          	jal	ra,15ce <vTaskSuspendAll>
     786:	200006b7          	lui	a3,0x20000
     78a:	0a86a783          	lw	a5,168(a3) # 200000a8 <_edata>
     78e:	20000637          	lui	a2,0x20000
     792:	0a868693          	addi	a3,a3,168
     796:	0ac60613          	addi	a2,a2,172 # 200000ac <xBlockAllocatedBit>
     79a:	4532                	lw	a0,12(sp)
     79c:	efa1                	bnez	a5,7f4 <pvPortMalloc+0x7a>
     79e:	20000737          	lui	a4,0x20000
     7a2:	17c70793          	addi	a5,a4,380 # 2000017c <ucHeap>
     7a6:	00f7f593          	andi	a1,a5,15
     7aa:	17c70713          	addi	a4,a4,380
     7ae:	c581                	beqz	a1,7b6 <pvPortMalloc+0x3c>
     7b0:	00f78713          	addi	a4,a5,15
     7b4:	9b41                	andi	a4,a4,-16
     7b6:	200005b7          	lui	a1,0x20000
     7ba:	0c058593          	addi	a1,a1,192 # 200000c0 <xStart>
     7be:	0005a223          	sw	zero,4(a1)
     7c2:	c198                	sw	a4,0(a1)
     7c4:	658d                	lui	a1,0x3
     7c6:	15c1                	addi	a1,a1,-16
     7c8:	97ae                	add	a5,a5,a1
     7ca:	9bc1                	andi	a5,a5,-16
     7cc:	0007a223          	sw	zero,4(a5)
     7d0:	0007a023          	sw	zero,0(a5)
     7d4:	40e785b3          	sub	a1,a5,a4
     7d8:	c29c                	sw	a5,0(a3)
     7da:	c31c                	sw	a5,0(a4)
     7dc:	200007b7          	lui	a5,0x20000
     7e0:	0ab7aa23          	sw	a1,180(a5) # 200000b4 <xMinimumEverFreeBytesRemaining>
     7e4:	200007b7          	lui	a5,0x20000
     7e8:	0ab7a823          	sw	a1,176(a5) # 200000b0 <xFreeBytesRemaining>
     7ec:	800007b7          	lui	a5,0x80000
     7f0:	c34c                	sw	a1,4(a4)
     7f2:	c21c                	sw	a5,0(a2)
     7f4:	00062a03          	lw	s4,0(a2)
     7f8:	00aa77b3          	and	a5,s4,a0
     7fc:	e385                	bnez	a5,81c <__stack_size+0x1c>
     7fe:	fff50793          	addi	a5,a0,-1
     802:	5739                	li	a4,-18
     804:	00f76c63          	bltu	a4,a5,81c <__stack_size+0x1c>
     808:	01050793          	addi	a5,a0,16
     80c:	00f7f713          	andi	a4,a5,15
     810:	c341                	beqz	a4,890 <__stack_size+0x90>
     812:	ff07f713          	andi	a4,a5,-16
     816:	0741                	addi	a4,a4,16
     818:	06e7eb63          	bltu	a5,a4,88e <__stack_size+0x8e>
     81c:	4481                	li	s1,0
     81e:	a089                	j	860 <__stack_size+0x60>
     820:	8722                	mv	a4,s0
     822:	842e                	mv	s0,a1
     824:	a061                	j	8ac <__stack_size+0xac>
     826:	c158                	sw	a4,4(a0)
     828:	c05c                	sw	a5,4(s0)
     82a:	3711                	jal	72e <prvInsertBlockIntoFreeList>
     82c:	4058                	lw	a4,4(s0)
     82e:	200006b7          	lui	a3,0x20000
     832:	0b468693          	addi	a3,a3,180 # 200000b4 <xMinimumEverFreeBytesRemaining>
     836:	4290                	lw	a2,0(a3)
     838:	40e907b3          	sub	a5,s2,a4
     83c:	00f9a023          	sw	a5,0(s3)
     840:	00c7f363          	bgeu	a5,a2,846 <__stack_size+0x46>
     844:	c29c                	sw	a5,0(a3)
     846:	200007b7          	lui	a5,0x20000
     84a:	00ea6733          	or	a4,s4,a4
     84e:	0b878793          	addi	a5,a5,184 # 200000b8 <xNumberOfSuccessfulAllocations>
     852:	c058                	sw	a4,4(s0)
     854:	4398                	lw	a4,0(a5)
     856:	04c1                	addi	s1,s1,16
     858:	00042023          	sw	zero,0(s0)
     85c:	0705                	addi	a4,a4,1
     85e:	c398                	sw	a4,0(a5)
     860:	733000ef          	jal	ra,1792 <xTaskResumeAll>
     864:	00f4f793          	andi	a5,s1,15
     868:	cbd1                	beqz	a5,8fc <__stack_size+0xfc>
     86a:	6789                	lui	a5,0x2
     86c:	80078793          	addi	a5,a5,-2048 # 1800 <xTaskResumeAll+0x6e>
     870:	30079073          	csrw	mstatus,a5
     874:	0000d637          	lui	a2,0xd
     878:	0000d537          	lui	a0,0xd
     87c:	03860613          	addi	a2,a2,56 # d038 <_read+0x1e>
     880:	11000593          	li	a1,272
     884:	06c50513          	addi	a0,a0,108 # d06c <_read+0x52>
     888:	6900b0ef          	jal	ra,bf18 <iprintf>
     88c:	a001                	j	88c <__stack_size+0x8c>
     88e:	87ba                	mv	a5,a4
     890:	20000737          	lui	a4,0x20000
     894:	0b072903          	lw	s2,176(a4) # 200000b0 <xFreeBytesRemaining>
     898:	0b070993          	addi	s3,a4,176
     89c:	f8f960e3          	bltu	s2,a5,81c <__stack_size+0x1c>
     8a0:	20000737          	lui	a4,0x20000
     8a4:	0c072403          	lw	s0,192(a4) # 200000c0 <xStart>
     8a8:	0c070713          	addi	a4,a4,192
     8ac:	4050                	lw	a2,4(s0)
     8ae:	00f67463          	bgeu	a2,a5,8b6 <__stack_size+0xb6>
     8b2:	400c                	lw	a1,0(s0)
     8b4:	f5b5                	bnez	a1,820 <__stack_size+0x20>
     8b6:	4294                	lw	a3,0(a3)
     8b8:	f68682e3          	beq	a3,s0,81c <__stack_size+0x1c>
     8bc:	4014                	lw	a3,0(s0)
     8be:	4304                	lw	s1,0(a4)
     8c0:	c314                	sw	a3,0(a4)
     8c2:	40f60733          	sub	a4,a2,a5
     8c6:	02000693          	li	a3,32
     8ca:	f6e6f1e3          	bgeu	a3,a4,82c <__stack_size+0x2c>
     8ce:	00f40533          	add	a0,s0,a5
     8d2:	00f57693          	andi	a3,a0,15
     8d6:	daa1                	beqz	a3,826 <__stack_size+0x26>
     8d8:	6789                	lui	a5,0x2
     8da:	80078793          	addi	a5,a5,-2048 # 1800 <xTaskResumeAll+0x6e>
     8de:	30079073          	csrw	mstatus,a5
     8e2:	0000d637          	lui	a2,0xd
     8e6:	0000d537          	lui	a0,0xd
     8ea:	03860613          	addi	a2,a2,56 # d038 <_read+0x1e>
     8ee:	0cf00593          	li	a1,207
     8f2:	06c50513          	addi	a0,a0,108 # d06c <_read+0x52>
     8f6:	6220b0ef          	jal	ra,bf18 <iprintf>
     8fa:	a001                	j	8fa <__stack_size+0xfa>
     8fc:	8526                	mv	a0,s1
     8fe:	0141                	addi	sp,sp,16
     900:	b925                	j	538 <__riscv_restore_4>

00000902 <vPortFree>:
     902:	c14d                	beqz	a0,9a4 <vPortFree+0xa2>
     904:	c1bff2ef          	jal	t0,51e <__riscv_save_0>
     908:	200007b7          	lui	a5,0x20000
     90c:	ff452703          	lw	a4,-12(a0)
     910:	0ac7a783          	lw	a5,172(a5) # 200000ac <xBlockAllocatedBit>
     914:	842a                	mv	s0,a0
     916:	00f776b3          	and	a3,a4,a5
     91a:	e29d                	bnez	a3,940 <vPortFree+0x3e>
     91c:	6789                	lui	a5,0x2
     91e:	80078793          	addi	a5,a5,-2048 # 1800 <xTaskResumeAll+0x6e>
     922:	30079073          	csrw	mstatus,a5
     926:	0000d637          	lui	a2,0xd
     92a:	0000d537          	lui	a0,0xd
     92e:	03860613          	addi	a2,a2,56 # d038 <_read+0x1e>
     932:	12400593          	li	a1,292
     936:	06c50513          	addi	a0,a0,108 # d06c <_read+0x52>
     93a:	5de0b0ef          	jal	ra,bf18 <iprintf>
     93e:	a001                	j	93e <vPortFree+0x3c>
     940:	ff052683          	lw	a3,-16(a0)
     944:	c29d                	beqz	a3,96a <vPortFree+0x68>
     946:	6789                	lui	a5,0x2
     948:	80078793          	addi	a5,a5,-2048 # 1800 <xTaskResumeAll+0x6e>
     94c:	30079073          	csrw	mstatus,a5
     950:	0000d637          	lui	a2,0xd
     954:	0000d537          	lui	a0,0xd
     958:	03860613          	addi	a2,a2,56 # d038 <_read+0x1e>
     95c:	12500593          	li	a1,293
     960:	06c50513          	addi	a0,a0,108 # d06c <_read+0x52>
     964:	5b40b0ef          	jal	ra,bf18 <iprintf>
     968:	a001                	j	968 <vPortFree+0x66>
     96a:	fff7c793          	not	a5,a5
     96e:	8ff9                	and	a5,a5,a4
     970:	fef52a23          	sw	a5,-12(a0)
     974:	45b000ef          	jal	ra,15ce <vTaskSuspendAll>
     978:	200007b7          	lui	a5,0x20000
     97c:	0b078793          	addi	a5,a5,176 # 200000b0 <xFreeBytesRemaining>
     980:	4394                	lw	a3,0(a5)
     982:	ff442703          	lw	a4,-12(s0)
     986:	ff040513          	addi	a0,s0,-16
     98a:	9736                	add	a4,a4,a3
     98c:	c398                	sw	a4,0(a5)
     98e:	3345                	jal	72e <prvInsertBlockIntoFreeList>
     990:	200007b7          	lui	a5,0x20000
     994:	0bc78793          	addi	a5,a5,188 # 200000bc <xNumberOfSuccessfulFrees>
     998:	4398                	lw	a4,0(a5)
     99a:	0705                	addi	a4,a4,1
     99c:	c398                	sw	a4,0(a5)
     99e:	5f5000ef          	jal	ra,1792 <xTaskResumeAll>
     9a2:	b645                	j	542 <__riscv_restore_0>
     9a4:	8082                	ret

000009a6 <vPortSetupTimerInterrupt>:
     9a6:	e000e7b7          	lui	a5,0xe000e
     9aa:	5741                	li	a4,-16
     9ac:	40e78723          	sb	a4,1038(a5) # e000e40e <__freertos_irq_stack_top+0xc000940e>
     9b0:	40e78623          	sb	a4,1036(a5)
     9b4:	e000f7b7          	lui	a5,0xe000f
     9b8:	0007a023          	sw	zero,0(a5) # e000f000 <__freertos_irq_stack_top+0xc000a000>
     9bc:	0007a223          	sw	zero,4(a5)
     9c0:	4681                	li	a3,0
     9c2:	c794                	sw	a3,8(a5)
     9c4:	4701                	li	a4,0
     9c6:	c7d8                	sw	a4,12(a5)
     9c8:	8141a583          	lw	a1,-2028(gp) # 20000094 <SystemCoreClock>
     9cc:	1f400713          	li	a4,500
     9d0:	4681                	li	a3,0
     9d2:	02e5d633          	divu	a2,a1,a4
     9d6:	473d                	li	a4,15
     9d8:	cb90                	sw	a2,16(a5)
     9da:	cbd4                	sw	a3,20(a5)
     9dc:	c398                	sw	a4,0(a5)
     9de:	8082                	ret

000009e0 <xPortStartScheduler>:
     9e0:	b3fff2ef          	jal	t0,51e <__riscv_save_0>
     9e4:	1141                	addi	sp,sp,-16
     9e6:	c602                	sw	zero,12(sp)
     9e8:	305027f3          	csrr	a5,mtvec
     9ec:	c63e                	sw	a5,12(sp)
     9ee:	47b2                	lw	a5,12(sp)
     9f0:	470d                	li	a4,3
     9f2:	8b8d                	andi	a5,a5,3
     9f4:	02e78463          	beq	a5,a4,a1c <xPortStartScheduler+0x3c>
     9f8:	6789                	lui	a5,0x2
     9fa:	80078793          	addi	a5,a5,-2048 # 1800 <xTaskResumeAll+0x6e>
     9fe:	30079073          	csrw	mstatus,a5
     a02:	0000d637          	lui	a2,0xd
     a06:	0000d537          	lui	a0,0xd
     a0a:	09060613          	addi	a2,a2,144 # d090 <_read+0x76>
     a0e:	0b600593          	li	a1,182
     a12:	06c50513          	addi	a0,a0,108 # d06c <_read+0x52>
     a16:	5020b0ef          	jal	ra,bf18 <iprintf>
     a1a:	a001                	j	a1a <xPortStartScheduler+0x3a>
     a1c:	200057b7          	lui	a5,0x20005
     a20:	00078793          	mv	a5,a5
     a24:	8bbd                	andi	a5,a5,15
     a26:	c39d                	beqz	a5,a4c <xPortStartScheduler+0x6c>
     a28:	6789                	lui	a5,0x2
     a2a:	80078793          	addi	a5,a5,-2048 # 1800 <xTaskResumeAll+0x6e>
     a2e:	30079073          	csrw	mstatus,a5
     a32:	0000d637          	lui	a2,0xd
     a36:	0000d537          	lui	a0,0xd
     a3a:	09060613          	addi	a2,a2,144 # d090 <_read+0x76>
     a3e:	0bb00593          	li	a1,187
     a42:	06c50513          	addi	a0,a0,108 # d06c <_read+0x52>
     a46:	4d20b0ef          	jal	ra,bf18 <iprintf>
     a4a:	a001                	j	a4a <xPortStartScheduler+0x6a>
     a4c:	3fa9                	jal	9a6 <vPortSetupTimerInterrupt>
     a4e:	e000e7b7          	lui	a5,0xe000e
     a52:	6711                	lui	a4,0x4
     a54:	10e7a023          	sw	a4,256(a5) # e000e100 <__freertos_irq_stack_top+0xc0009100>
     a58:	6705                	lui	a4,0x1
     a5a:	10e7a023          	sw	a4,256(a5)
     a5e:	200007b7          	lui	a5,0x20000
     a62:	0807a023          	sw	zero,128(a5) # 20000080 <uxCriticalNesting>
     a66:	89bff0ef          	jal	ra,300 <xPortStartFirstTask>
     a6a:	4501                	li	a0,0
     a6c:	0141                	addi	sp,sp,16
     a6e:	bcd1                	j	542 <__riscv_restore_0>

00000a70 <SysTick_Handler>:
     a70:	7139                	addi	sp,sp,-64
     a72:	de06                	sw	ra,60(sp)
     a74:	dc16                	sw	t0,56(sp)
     a76:	da1a                	sw	t1,52(sp)
     a78:	d81e                	sw	t2,48(sp)
     a7a:	d62a                	sw	a0,44(sp)
     a7c:	d42e                	sw	a1,40(sp)
     a7e:	d232                	sw	a2,36(sp)
     a80:	d036                	sw	a3,32(sp)
     a82:	ce3a                	sw	a4,28(sp)
     a84:	cc3e                	sw	a5,24(sp)
     a86:	ca42                	sw	a6,20(sp)
     a88:	c846                	sw	a7,16(sp)
     a8a:	c672                	sw	t3,12(sp)
     a8c:	c476                	sw	t4,8(sp)
     a8e:	c27a                	sw	t5,4(sp)
     a90:	c07e                	sw	t6,0(sp)
     a92:	34011173          	csrrw	sp,mscratch,sp
     a96:	6789                	lui	a5,0x2
     a98:	80078793          	addi	a5,a5,-2048 # 1800 <xTaskResumeAll+0x6e>
     a9c:	30079073          	csrw	mstatus,a5
     aa0:	e000f7b7          	lui	a5,0xe000f
     aa4:	0007a223          	sw	zero,4(a5) # e000f004 <__freertos_irq_stack_top+0xc000a004>
     aa8:	341000ef          	jal	ra,15e8 <xTaskIncrementTick>
     aac:	c511                	beqz	a0,ab8 <SysTick_Handler+0x48>
     aae:	e000e7b7          	lui	a5,0xe000e
     ab2:	6711                	lui	a4,0x4
     ab4:	20e7a023          	sw	a4,512(a5) # e000e200 <__freertos_irq_stack_top+0xc0009200>
     ab8:	6789                	lui	a5,0x2
     aba:	88878793          	addi	a5,a5,-1912 # 1888 <xTaskResumeAll+0xf6>
     abe:	30079073          	csrw	mstatus,a5
     ac2:	34011173          	csrrw	sp,mscratch,sp
     ac6:	50f2                	lw	ra,60(sp)
     ac8:	52e2                	lw	t0,56(sp)
     aca:	5352                	lw	t1,52(sp)
     acc:	53c2                	lw	t2,48(sp)
     ace:	5532                	lw	a0,44(sp)
     ad0:	55a2                	lw	a1,40(sp)
     ad2:	5612                	lw	a2,36(sp)
     ad4:	5682                	lw	a3,32(sp)
     ad6:	4772                	lw	a4,28(sp)
     ad8:	47e2                	lw	a5,24(sp)
     ada:	4852                	lw	a6,20(sp)
     adc:	48c2                	lw	a7,16(sp)
     ade:	4e32                	lw	t3,12(sp)
     ae0:	4ea2                	lw	t4,8(sp)
     ae2:	4f12                	lw	t5,4(sp)
     ae4:	4f82                	lw	t6,0(sp)
     ae6:	6121                	addi	sp,sp,64
     ae8:	30200073          	mret

00000aec <vPortEnterCritical>:
     aec:	6789                	lui	a5,0x2
     aee:	80078793          	addi	a5,a5,-2048 # 1800 <xTaskResumeAll+0x6e>
     af2:	30079073          	csrw	mstatus,a5
     af6:	200007b7          	lui	a5,0x20000
     afa:	08078793          	addi	a5,a5,128 # 20000080 <uxCriticalNesting>
     afe:	4398                	lw	a4,0(a5)
     b00:	0705                	addi	a4,a4,1
     b02:	c398                	sw	a4,0(a5)
     b04:	8082                	ret

00000b06 <vPortExitCritical>:
     b06:	20000737          	lui	a4,0x20000
     b0a:	08070713          	addi	a4,a4,128 # 20000080 <uxCriticalNesting>
     b0e:	431c                	lw	a5,0(a4)
     b10:	e78d                	bnez	a5,b3a <vPortExitCritical+0x34>
     b12:	a0dff2ef          	jal	t0,51e <__riscv_save_0>
     b16:	6789                	lui	a5,0x2
     b18:	80078793          	addi	a5,a5,-2048 # 1800 <xTaskResumeAll+0x6e>
     b1c:	30079073          	csrw	mstatus,a5
     b20:	0000d637          	lui	a2,0xd
     b24:	0000d537          	lui	a0,0xd
     b28:	09060613          	addi	a2,a2,144 # d090 <_read+0x76>
     b2c:	10300593          	li	a1,259
     b30:	06c50513          	addi	a0,a0,108 # d06c <_read+0x52>
     b34:	3e40b0ef          	jal	ra,bf18 <iprintf>
     b38:	a001                	j	b38 <vPortExitCritical+0x32>
     b3a:	17fd                	addi	a5,a5,-1
     b3c:	c31c                	sw	a5,0(a4)
     b3e:	e791                	bnez	a5,b4a <vPortExitCritical+0x44>
     b40:	6789                	lui	a5,0x2
     b42:	88878793          	addi	a5,a5,-1912 # 1888 <xTaskResumeAll+0xf6>
     b46:	30079073          	csrw	mstatus,a5
     b4a:	8082                	ret

00000b4c <xPortSetInterruptMask>:
     b4c:	6509                	lui	a0,0x2
     b4e:	80050513          	addi	a0,a0,-2048 # 1800 <xTaskResumeAll+0x6e>
     b52:	30051573          	csrrw	a0,mstatus,a0
     b56:	8082                	ret

00000b58 <vPortClearInterruptMask>:
     b58:	30051073          	csrw	mstatus,a0
     b5c:	8082                	ret

00000b5e <vListInitialise>:
     b5e:	00850793          	addi	a5,a0,8
     b62:	577d                	li	a4,-1
     b64:	c15c                	sw	a5,4(a0)
     b66:	c518                	sw	a4,8(a0)
     b68:	c55c                	sw	a5,12(a0)
     b6a:	c91c                	sw	a5,16(a0)
     b6c:	00052023          	sw	zero,0(a0)
     b70:	8082                	ret

00000b72 <vListInitialiseItem>:
     b72:	00052823          	sw	zero,16(a0)
     b76:	8082                	ret

00000b78 <vListInsert>:
     b78:	4198                	lw	a4,0(a1)
     b7a:	56fd                	li	a3,-1
     b7c:	00850793          	addi	a5,a0,8
     b80:	00d71e63          	bne	a4,a3,b9c <vListInsert+0x24>
     b84:	491c                	lw	a5,16(a0)
     b86:	43d8                	lw	a4,4(a5)
     b88:	c1d8                	sw	a4,4(a1)
     b8a:	c70c                	sw	a1,8(a4)
     b8c:	c59c                	sw	a5,8(a1)
     b8e:	c3cc                	sw	a1,4(a5)
     b90:	411c                	lw	a5,0(a0)
     b92:	c988                	sw	a0,16(a1)
     b94:	0785                	addi	a5,a5,1
     b96:	c11c                	sw	a5,0(a0)
     b98:	8082                	ret
     b9a:	87b6                	mv	a5,a3
     b9c:	43d4                	lw	a3,4(a5)
     b9e:	4290                	lw	a2,0(a3)
     ba0:	fec77de3          	bgeu	a4,a2,b9a <vListInsert+0x22>
     ba4:	b7cd                	j	b86 <vListInsert+0xe>

00000ba6 <uxListRemove>:
     ba6:	4154                	lw	a3,4(a0)
     ba8:	4518                	lw	a4,8(a0)
     baa:	491c                	lw	a5,16(a0)
     bac:	c698                	sw	a4,8(a3)
     bae:	c354                	sw	a3,4(a4)
     bb0:	43d4                	lw	a3,4(a5)
     bb2:	00a69363          	bne	a3,a0,bb8 <uxListRemove+0x12>
     bb6:	c3d8                	sw	a4,4(a5)
     bb8:	4398                	lw	a4,0(a5)
     bba:	00052823          	sw	zero,16(a0)
     bbe:	177d                	addi	a4,a4,-1
     bc0:	c398                	sw	a4,0(a5)
     bc2:	4388                	lw	a0,0(a5)
     bc4:	8082                	ret

00000bc6 <prvIsQueueEmpty>:
     bc6:	959ff2ef          	jal	t0,51e <__riscv_save_0>
     bca:	1141                	addi	sp,sp,-16
     bcc:	c62a                	sw	a0,12(sp)
     bce:	3f39                	jal	aec <vPortEnterCritical>
     bd0:	4532                	lw	a0,12(sp)
     bd2:	5d00                	lw	s0,56(a0)
     bd4:	3f0d                	jal	b06 <vPortExitCritical>
     bd6:	00143513          	seqz	a0,s0
     bda:	0141                	addi	sp,sp,16
     bdc:	b29d                	j	542 <__riscv_restore_0>

00000bde <prvCopyDataToQueue>:
     bde:	941ff2ef          	jal	t0,51e <__riscv_save_0>
     be2:	8932                	mv	s2,a2
     be4:	4130                	lw	a2,64(a0)
     be6:	5d04                	lw	s1,56(a0)
     be8:	842a                	mv	s0,a0
     bea:	ee01                	bnez	a2,c02 <prvCopyDataToQueue+0x24>
     bec:	411c                	lw	a5,0(a0)
     bee:	4501                	li	a0,0
     bf0:	e791                	bnez	a5,bfc <prvCopyDataToQueue+0x1e>
     bf2:	4408                	lw	a0,8(s0)
     bf4:	0ba010ef          	jal	ra,1cae <xTaskPriorityDisinherit>
     bf8:	00042423          	sw	zero,8(s0)
     bfc:	0485                	addi	s1,s1,1
     bfe:	dc04                	sw	s1,56(s0)
     c00:	b289                	j	542 <__riscv_restore_0>
     c02:	02091063          	bnez	s2,c22 <prvCopyDataToQueue+0x44>
     c06:	4148                	lw	a0,4(a0)
     c08:	0c60b0ef          	jal	ra,bcce <memcpy>
     c0c:	405c                	lw	a5,4(s0)
     c0e:	4038                	lw	a4,64(s0)
     c10:	4501                	li	a0,0
     c12:	97ba                	add	a5,a5,a4
     c14:	4418                	lw	a4,8(s0)
     c16:	c05c                	sw	a5,4(s0)
     c18:	fee7e2e3          	bltu	a5,a4,bfc <prvCopyDataToQueue+0x1e>
     c1c:	401c                	lw	a5,0(s0)
     c1e:	c05c                	sw	a5,4(s0)
     c20:	bff1                	j	bfc <prvCopyDataToQueue+0x1e>
     c22:	4548                	lw	a0,12(a0)
     c24:	0aa0b0ef          	jal	ra,bcce <memcpy>
     c28:	403c                	lw	a5,64(s0)
     c2a:	4458                	lw	a4,12(s0)
     c2c:	4014                	lw	a3,0(s0)
     c2e:	40f007b3          	neg	a5,a5
     c32:	973e                	add	a4,a4,a5
     c34:	c458                	sw	a4,12(s0)
     c36:	00d77563          	bgeu	a4,a3,c40 <prvCopyDataToQueue+0x62>
     c3a:	4418                	lw	a4,8(s0)
     c3c:	97ba                	add	a5,a5,a4
     c3e:	c45c                	sw	a5,12(s0)
     c40:	4789                	li	a5,2
     c42:	4501                	li	a0,0
     c44:	faf91ce3          	bne	s2,a5,bfc <prvCopyDataToQueue+0x1e>
     c48:	d8d5                	beqz	s1,bfc <prvCopyDataToQueue+0x1e>
     c4a:	14fd                	addi	s1,s1,-1
     c4c:	bf45                	j	bfc <prvCopyDataToQueue+0x1e>

00000c4e <prvCopyDataFromQueue>:
     c4e:	4130                	lw	a2,64(a0)
     c50:	c215                	beqz	a2,c74 <prvCopyDataFromQueue+0x26>
     c52:	8cdff2ef          	jal	t0,51e <__riscv_save_0>
     c56:	4558                	lw	a4,12(a0)
     c58:	4514                	lw	a3,8(a0)
     c5a:	87aa                	mv	a5,a0
     c5c:	9732                	add	a4,a4,a2
     c5e:	c558                	sw	a4,12(a0)
     c60:	00d76463          	bltu	a4,a3,c68 <prvCopyDataFromQueue+0x1a>
     c64:	4118                	lw	a4,0(a0)
     c66:	c558                	sw	a4,12(a0)
     c68:	852e                	mv	a0,a1
     c6a:	47cc                	lw	a1,12(a5)
     c6c:	0620b0ef          	jal	ra,bcce <memcpy>
     c70:	8d3ff06f          	j	542 <__riscv_restore_0>
     c74:	8082                	ret

00000c76 <prvUnlockQueue>:
     c76:	8a9ff2ef          	jal	t0,51e <__riscv_save_0>
     c7a:	842a                	mv	s0,a0
     c7c:	3d85                	jal	aec <vPortEnterCritical>
     c7e:	04544483          	lbu	s1,69(s0)
     c82:	02440913          	addi	s2,s0,36
     c86:	04e2                	slli	s1,s1,0x18
     c88:	84e1                	srai	s1,s1,0x18
     c8a:	02904563          	bgtz	s1,cb4 <prvUnlockQueue+0x3e>
     c8e:	57fd                	li	a5,-1
     c90:	04f402a3          	sb	a5,69(s0)
     c94:	3d8d                	jal	b06 <vPortExitCritical>
     c96:	3d99                	jal	aec <vPortEnterCritical>
     c98:	04444483          	lbu	s1,68(s0)
     c9c:	01040913          	addi	s2,s0,16
     ca0:	04e2                	slli	s1,s1,0x18
     ca2:	84e1                	srai	s1,s1,0x18
     ca4:	02904463          	bgtz	s1,ccc <prvUnlockQueue+0x56>
     ca8:	57fd                	li	a5,-1
     caa:	04f40223          	sb	a5,68(s0)
     cae:	3da1                	jal	b06 <vPortExitCritical>
     cb0:	893ff06f          	j	542 <__riscv_restore_0>
     cb4:	505c                	lw	a5,36(s0)
     cb6:	dfe1                	beqz	a5,c8e <prvUnlockQueue+0x18>
     cb8:	854a                	mv	a0,s2
     cba:	5f9000ef          	jal	ra,1ab2 <xTaskRemoveFromEventList>
     cbe:	c119                	beqz	a0,cc4 <prvUnlockQueue+0x4e>
     cc0:	7bd000ef          	jal	ra,1c7c <vTaskMissedYield>
     cc4:	14fd                	addi	s1,s1,-1
     cc6:	04e2                	slli	s1,s1,0x18
     cc8:	84e1                	srai	s1,s1,0x18
     cca:	b7c1                	j	c8a <prvUnlockQueue+0x14>
     ccc:	481c                	lw	a5,16(s0)
     cce:	dfe9                	beqz	a5,ca8 <prvUnlockQueue+0x32>
     cd0:	854a                	mv	a0,s2
     cd2:	5e1000ef          	jal	ra,1ab2 <xTaskRemoveFromEventList>
     cd6:	c119                	beqz	a0,cdc <prvUnlockQueue+0x66>
     cd8:	7a5000ef          	jal	ra,1c7c <vTaskMissedYield>
     cdc:	14fd                	addi	s1,s1,-1
     cde:	04e2                	slli	s1,s1,0x18
     ce0:	84e1                	srai	s1,s1,0x18
     ce2:	b7c9                	j	ca4 <prvUnlockQueue+0x2e>

00000ce4 <xQueueGenericReset>:
     ce4:	83bff2ef          	jal	t0,51e <__riscv_save_0>
     ce8:	1141                	addi	sp,sp,-16
     cea:	e11d                	bnez	a0,d10 <xQueueGenericReset+0x2c>
     cec:	6789                	lui	a5,0x2
     cee:	80078793          	addi	a5,a5,-2048 # 1800 <xTaskResumeAll+0x6e>
     cf2:	30079073          	csrw	mstatus,a5
     cf6:	0000d637          	lui	a2,0xd
     cfa:	0000d537          	lui	a0,0xd
     cfe:	0c460613          	addi	a2,a2,196 # d0c4 <_read+0xaa>
     d02:	11000593          	li	a1,272
     d06:	06c50513          	addi	a0,a0,108 # d06c <_read+0x52>
     d0a:	20e0b0ef          	jal	ra,bf18 <iprintf>
     d0e:	a001                	j	d0e <xQueueGenericReset+0x2a>
     d10:	5d5c                	lw	a5,60(a0)
     d12:	c62e                	sw	a1,12(sp)
     d14:	842a                	mv	s0,a0
     d16:	c3bd                	beqz	a5,d7c <xQueueGenericReset+0x98>
     d18:	4138                	lw	a4,64(a0)
     d1a:	02e7b7b3          	mulhu	a5,a5,a4
     d1e:	efb9                	bnez	a5,d7c <xQueueGenericReset+0x98>
     d20:	33f1                	jal	aec <vPortEnterCritical>
     d22:	4030                	lw	a2,64(s0)
     d24:	5c58                	lw	a4,60(s0)
     d26:	4014                	lw	a3,0(s0)
     d28:	02042c23          	sw	zero,56(s0)
     d2c:	02e607b3          	mul	a5,a2,a4
     d30:	45b2                	lw	a1,12(sp)
     d32:	c054                	sw	a3,4(s0)
     d34:	00f68733          	add	a4,a3,a5
     d38:	8f91                	sub	a5,a5,a2
     d3a:	97b6                	add	a5,a5,a3
     d3c:	c45c                	sw	a5,12(s0)
     d3e:	57fd                	li	a5,-1
     d40:	04f40223          	sb	a5,68(s0)
     d44:	c418                	sw	a4,8(s0)
     d46:	04f402a3          	sb	a5,69(s0)
     d4a:	e195                	bnez	a1,d6e <xQueueGenericReset+0x8a>
     d4c:	481c                	lw	a5,16(s0)
     d4e:	cb99                	beqz	a5,d64 <xQueueGenericReset+0x80>
     d50:	01040513          	addi	a0,s0,16
     d54:	55f000ef          	jal	ra,1ab2 <xTaskRemoveFromEventList>
     d58:	c511                	beqz	a0,d64 <xQueueGenericReset+0x80>
     d5a:	e000e7b7          	lui	a5,0xe000e
     d5e:	6711                	lui	a4,0x4
     d60:	20e7a023          	sw	a4,512(a5) # e000e200 <__freertos_irq_stack_top+0xc0009200>
     d64:	334d                	jal	b06 <vPortExitCritical>
     d66:	4505                	li	a0,1
     d68:	0141                	addi	sp,sp,16
     d6a:	fd8ff06f          	j	542 <__riscv_restore_0>
     d6e:	01040513          	addi	a0,s0,16
     d72:	33f5                	jal	b5e <vListInitialise>
     d74:	02440513          	addi	a0,s0,36
     d78:	33dd                	jal	b5e <vListInitialise>
     d7a:	b7ed                	j	d64 <xQueueGenericReset+0x80>
     d7c:	6789                	lui	a5,0x2
     d7e:	80078793          	addi	a5,a5,-2048 # 1800 <xTaskResumeAll+0x6e>
     d82:	30079073          	csrw	mstatus,a5
     d86:	0000d637          	lui	a2,0xd
     d8a:	0000d537          	lui	a0,0xd
     d8e:	0c460613          	addi	a2,a2,196 # d0c4 <_read+0xaa>
     d92:	14500593          	li	a1,325
     d96:	06c50513          	addi	a0,a0,108 # d06c <_read+0x52>
     d9a:	17e0b0ef          	jal	ra,bf18 <iprintf>
     d9e:	a001                	j	d9e <xQueueGenericReset+0xba>

00000da0 <xQueueGenericCreate>:
     da0:	f7eff2ef          	jal	t0,51e <__riscv_save_0>
     da4:	1141                	addi	sp,sp,-16
     da6:	c121                	beqz	a0,de6 <xQueueGenericCreate+0x46>
     da8:	02a5b7b3          	mulhu	a5,a1,a0
     dac:	84aa                	mv	s1,a0
     dae:	ef85                	bnez	a5,de6 <xQueueGenericCreate+0x46>
     db0:	02b50533          	mul	a0,a0,a1
     db4:	fb700793          	li	a5,-73
     db8:	02a7e763          	bltu	a5,a0,de6 <xQueueGenericCreate+0x46>
     dbc:	04850513          	addi	a0,a0,72
     dc0:	c62e                	sw	a1,12(sp)
     dc2:	3a65                	jal	77a <pvPortMalloc>
     dc4:	842a                	mv	s0,a0
     dc6:	cd01                	beqz	a0,dde <xQueueGenericCreate+0x3e>
     dc8:	45b2                	lw	a1,12(sp)
     dca:	87aa                	mv	a5,a0
     dcc:	c199                	beqz	a1,dd2 <xQueueGenericCreate+0x32>
     dce:	04850793          	addi	a5,a0,72
     dd2:	c02c                	sw	a1,64(s0)
     dd4:	c01c                	sw	a5,0(s0)
     dd6:	dc44                	sw	s1,60(s0)
     dd8:	4585                	li	a1,1
     dda:	8522                	mv	a0,s0
     ddc:	3721                	jal	ce4 <xQueueGenericReset>
     dde:	8522                	mv	a0,s0
     de0:	0141                	addi	sp,sp,16
     de2:	f60ff06f          	j	542 <__riscv_restore_0>
     de6:	6789                	lui	a5,0x2
     de8:	80078793          	addi	a5,a5,-2048 # 1800 <xTaskResumeAll+0x6e>
     dec:	30079073          	csrw	mstatus,a5
     df0:	0000d637          	lui	a2,0xd
     df4:	0000d537          	lui	a0,0xd
     df8:	0c460613          	addi	a2,a2,196 # d0c4 <_read+0xaa>
     dfc:	1c600593          	li	a1,454
     e00:	06c50513          	addi	a0,a0,108 # d06c <_read+0x52>
     e04:	1140b0ef          	jal	ra,bf18 <iprintf>
     e08:	a001                	j	e08 <xQueueGenericCreate+0x68>

00000e0a <xQueueGenericSend>:
     e0a:	eecff2ef          	jal	t0,4f6 <__riscv_save_10>
     e0e:	1101                	addi	sp,sp,-32
     e10:	c632                	sw	a2,12(sp)
     e12:	e11d                	bnez	a0,e38 <xQueueGenericSend+0x2e>
     e14:	6789                	lui	a5,0x2
     e16:	80078793          	addi	a5,a5,-2048 # 1800 <xTaskResumeAll+0x6e>
     e1a:	30079073          	csrw	mstatus,a5
     e1e:	0000d637          	lui	a2,0xd
     e22:	0000d537          	lui	a0,0xd
     e26:	0c460613          	addi	a2,a2,196 # d0c4 <_read+0xaa>
     e2a:	32e00593          	li	a1,814
     e2e:	06c50513          	addi	a0,a0,108 # d06c <_read+0x52>
     e32:	0e60b0ef          	jal	ra,bf18 <iprintf>
     e36:	a001                	j	e36 <xQueueGenericSend+0x2c>
     e38:	842a                	mv	s0,a0
     e3a:	892e                	mv	s2,a1
     e3c:	84b6                	mv	s1,a3
     e3e:	e58d                	bnez	a1,e68 <xQueueGenericSend+0x5e>
     e40:	413c                	lw	a5,64(a0)
     e42:	c39d                	beqz	a5,e68 <xQueueGenericSend+0x5e>
     e44:	6789                	lui	a5,0x2
     e46:	80078793          	addi	a5,a5,-2048 # 1800 <xTaskResumeAll+0x6e>
     e4a:	30079073          	csrw	mstatus,a5
     e4e:	0000d637          	lui	a2,0xd
     e52:	0000d537          	lui	a0,0xd
     e56:	0c460613          	addi	a2,a2,196 # d0c4 <_read+0xaa>
     e5a:	32f00593          	li	a1,815
     e5e:	06c50513          	addi	a0,a0,108 # d06c <_read+0x52>
     e62:	0b60b0ef          	jal	ra,bf18 <iprintf>
     e66:	a001                	j	e66 <xQueueGenericSend+0x5c>
     e68:	4789                	li	a5,2
     e6a:	02f49863          	bne	s1,a5,e9a <xQueueGenericSend+0x90>
     e6e:	5c58                	lw	a4,60(s0)
     e70:	4785                	li	a5,1
     e72:	02f70463          	beq	a4,a5,e9a <xQueueGenericSend+0x90>
     e76:	6789                	lui	a5,0x2
     e78:	80078793          	addi	a5,a5,-2048 # 1800 <xTaskResumeAll+0x6e>
     e7c:	30079073          	csrw	mstatus,a5
     e80:	0000d637          	lui	a2,0xd
     e84:	0000d537          	lui	a0,0xd
     e88:	0c460613          	addi	a2,a2,196 # d0c4 <_read+0xaa>
     e8c:	33000593          	li	a1,816
     e90:	06c50513          	addi	a0,a0,108 # d06c <_read+0x52>
     e94:	0840b0ef          	jal	ra,bf18 <iprintf>
     e98:	a001                	j	e98 <xQueueGenericSend+0x8e>
     e9a:	5f9000ef          	jal	ra,1c92 <xTaskGetSchedulerState>
     e9e:	e515                	bnez	a0,eca <xQueueGenericSend+0xc0>
     ea0:	47b2                	lw	a5,12(sp)
     ea2:	4c01                	li	s8,0
     ea4:	c785                	beqz	a5,ecc <xQueueGenericSend+0xc2>
     ea6:	6789                	lui	a5,0x2
     ea8:	80078793          	addi	a5,a5,-2048 # 1800 <xTaskResumeAll+0x6e>
     eac:	30079073          	csrw	mstatus,a5
     eb0:	0000d637          	lui	a2,0xd
     eb4:	0000d537          	lui	a0,0xd
     eb8:	0c460613          	addi	a2,a2,196 # d0c4 <_read+0xaa>
     ebc:	33300593          	li	a1,819
     ec0:	06c50513          	addi	a0,a0,108 # d06c <_read+0x52>
     ec4:	0540b0ef          	jal	ra,bf18 <iprintf>
     ec8:	a001                	j	ec8 <xQueueGenericSend+0xbe>
     eca:	4c01                	li	s8,0
     ecc:	4b09                	li	s6,2
     ece:	59fd                	li	s3,-1
     ed0:	01040b93          	addi	s7,s0,16
     ed4:	e000ea37          	lui	s4,0xe000e
     ed8:	6a91                	lui	s5,0x4
     eda:	a0ad                	j	f44 <xQueueGenericSend+0x13a>
     edc:	47b2                	lw	a5,12(sp)
     ede:	e781                	bnez	a5,ee6 <xQueueGenericSend+0xdc>
     ee0:	311d                	jal	b06 <vPortExitCritical>
     ee2:	4501                	li	a0,0
     ee4:	a849                	j	f76 <xQueueGenericSend+0x16c>
     ee6:	000c1563          	bnez	s8,ef0 <xQueueGenericSend+0xe6>
     eea:	0828                	addi	a0,sp,24
     eec:	4b3000ef          	jal	ra,1b9e <vTaskInternalSetTimeOutState>
     ef0:	3919                	jal	b06 <vPortExitCritical>
     ef2:	6dc000ef          	jal	ra,15ce <vTaskSuspendAll>
     ef6:	3edd                	jal	aec <vPortEnterCritical>
     ef8:	04444783          	lbu	a5,68(s0)
     efc:	07e2                	slli	a5,a5,0x18
     efe:	87e1                	srai	a5,a5,0x18
     f00:	01379463          	bne	a5,s3,f08 <xQueueGenericSend+0xfe>
     f04:	04040223          	sb	zero,68(s0)
     f08:	04544783          	lbu	a5,69(s0)
     f0c:	07e2                	slli	a5,a5,0x18
     f0e:	87e1                	srai	a5,a5,0x18
     f10:	01379463          	bne	a5,s3,f18 <xQueueGenericSend+0x10e>
     f14:	040402a3          	sb	zero,69(s0)
     f18:	36fd                	jal	b06 <vPortExitCritical>
     f1a:	006c                	addi	a1,sp,12
     f1c:	0828                	addi	a0,sp,24
     f1e:	497000ef          	jal	ra,1bb4 <xTaskCheckForTimeOut>
     f22:	e535                	bnez	a0,f8e <xQueueGenericSend+0x184>
     f24:	36e1                	jal	aec <vPortEnterCritical>
     f26:	5c18                	lw	a4,56(s0)
     f28:	5c5c                	lw	a5,60(s0)
     f2a:	04f71963          	bne	a4,a5,f7c <xQueueGenericSend+0x172>
     f2e:	3ee1                	jal	b06 <vPortExitCritical>
     f30:	45b2                	lw	a1,12(sp)
     f32:	855e                	mv	a0,s7
     f34:	2c1000ef          	jal	ra,19f4 <vTaskPlaceOnEventList>
     f38:	8522                	mv	a0,s0
     f3a:	3b35                	jal	c76 <prvUnlockQueue>
     f3c:	057000ef          	jal	ra,1792 <xTaskResumeAll>
     f40:	c521                	beqz	a0,f88 <xQueueGenericSend+0x17e>
     f42:	4c05                	li	s8,1
     f44:	3665                	jal	aec <vPortEnterCritical>
     f46:	5c18                	lw	a4,56(s0)
     f48:	5c5c                	lw	a5,60(s0)
     f4a:	00f76463          	bltu	a4,a5,f52 <xQueueGenericSend+0x148>
     f4e:	f96497e3          	bne	s1,s6,edc <xQueueGenericSend+0xd2>
     f52:	8626                	mv	a2,s1
     f54:	85ca                	mv	a1,s2
     f56:	8522                	mv	a0,s0
     f58:	3159                	jal	bde <prvCopyDataToQueue>
     f5a:	505c                	lw	a5,36(s0)
     f5c:	c789                	beqz	a5,f66 <xQueueGenericSend+0x15c>
     f5e:	02440513          	addi	a0,s0,36
     f62:	351000ef          	jal	ra,1ab2 <xTaskRemoveFromEventList>
     f66:	c511                	beqz	a0,f72 <xQueueGenericSend+0x168>
     f68:	e000e7b7          	lui	a5,0xe000e
     f6c:	6711                	lui	a4,0x4
     f6e:	20e7a023          	sw	a4,512(a5) # e000e200 <__freertos_irq_stack_top+0xc0009200>
     f72:	3e51                	jal	b06 <vPortExitCritical>
     f74:	4505                	li	a0,1
     f76:	6105                	addi	sp,sp,32
     f78:	db6ff06f          	j	52e <__riscv_restore_10>
     f7c:	3669                	jal	b06 <vPortExitCritical>
     f7e:	8522                	mv	a0,s0
     f80:	39dd                	jal	c76 <prvUnlockQueue>
     f82:	011000ef          	jal	ra,1792 <xTaskResumeAll>
     f86:	bf75                	j	f42 <xQueueGenericSend+0x138>
     f88:	215a2023          	sw	s5,512(s4) # e000e200 <__freertos_irq_stack_top+0xc0009200>
     f8c:	bf5d                	j	f42 <xQueueGenericSend+0x138>
     f8e:	8522                	mv	a0,s0
     f90:	31dd                	jal	c76 <prvUnlockQueue>
     f92:	001000ef          	jal	ra,1792 <xTaskResumeAll>
     f96:	b7b1                	j	ee2 <xQueueGenericSend+0xd8>

00000f98 <xQueueReceive>:
     f98:	d5eff2ef          	jal	t0,4f6 <__riscv_save_10>
     f9c:	1101                	addi	sp,sp,-32
     f9e:	c632                	sw	a2,12(sp)
     fa0:	e11d                	bnez	a0,fc6 <xQueueReceive+0x2e>
     fa2:	6789                	lui	a5,0x2
     fa4:	80078793          	addi	a5,a5,-2048 # 1800 <xTaskResumeAll+0x6e>
     fa8:	30079073          	csrw	mstatus,a5
     fac:	0000d637          	lui	a2,0xd
     fb0:	0000d537          	lui	a0,0xd
     fb4:	0c460613          	addi	a2,a2,196 # d0c4 <_read+0xaa>
     fb8:	55100593          	li	a1,1361
     fbc:	06c50513          	addi	a0,a0,108 # d06c <_read+0x52>
     fc0:	7590a0ef          	jal	ra,bf18 <iprintf>
     fc4:	a001                	j	fc4 <xQueueReceive+0x2c>
     fc6:	842a                	mv	s0,a0
     fc8:	89ae                	mv	s3,a1
     fca:	e58d                	bnez	a1,ff4 <xQueueReceive+0x5c>
     fcc:	413c                	lw	a5,64(a0)
     fce:	c39d                	beqz	a5,ff4 <xQueueReceive+0x5c>
     fd0:	6789                	lui	a5,0x2
     fd2:	80078793          	addi	a5,a5,-2048 # 1800 <xTaskResumeAll+0x6e>
     fd6:	30079073          	csrw	mstatus,a5
     fda:	0000d637          	lui	a2,0xd
     fde:	0000d537          	lui	a0,0xd
     fe2:	0c460613          	addi	a2,a2,196 # d0c4 <_read+0xaa>
     fe6:	55500593          	li	a1,1365
     fea:	06c50513          	addi	a0,a0,108 # d06c <_read+0x52>
     fee:	72b0a0ef          	jal	ra,bf18 <iprintf>
     ff2:	a001                	j	ff2 <xQueueReceive+0x5a>
     ff4:	49f000ef          	jal	ra,1c92 <xTaskGetSchedulerState>
     ff8:	e515                	bnez	a0,1024 <xQueueReceive+0x8c>
     ffa:	47b2                	lw	a5,12(sp)
     ffc:	4901                	li	s2,0
     ffe:	c785                	beqz	a5,1026 <xQueueReceive+0x8e>
    1000:	6789                	lui	a5,0x2
    1002:	80078793          	addi	a5,a5,-2048 # 1800 <xTaskResumeAll+0x6e>
    1006:	30079073          	csrw	mstatus,a5
    100a:	0000d637          	lui	a2,0xd
    100e:	0000d537          	lui	a0,0xd
    1012:	0c460613          	addi	a2,a2,196 # d0c4 <_read+0xaa>
    1016:	55a00593          	li	a1,1370
    101a:	06c50513          	addi	a0,a0,108 # d06c <_read+0x52>
    101e:	6fb0a0ef          	jal	ra,bf18 <iprintf>
    1022:	a001                	j	1022 <xQueueReceive+0x8a>
    1024:	4901                	li	s2,0
    1026:	5a7d                	li	s4,-1
    1028:	02440a93          	addi	s5,s0,36
    102c:	e000eb37          	lui	s6,0xe000e
    1030:	6b91                	lui	s7,0x4
    1032:	a09d                	j	1098 <xQueueReceive+0x100>
    1034:	47b2                	lw	a5,12(sp)
    1036:	e781                	bnez	a5,103e <xQueueReceive+0xa6>
    1038:	34f9                	jal	b06 <vPortExitCritical>
    103a:	4501                	li	a0,0
    103c:	a061                	j	10c4 <xQueueReceive+0x12c>
    103e:	00091563          	bnez	s2,1048 <xQueueReceive+0xb0>
    1042:	0828                	addi	a0,sp,24
    1044:	35b000ef          	jal	ra,1b9e <vTaskInternalSetTimeOutState>
    1048:	3c7d                	jal	b06 <vPortExitCritical>
    104a:	2351                	jal	15ce <vTaskSuspendAll>
    104c:	3445                	jal	aec <vPortEnterCritical>
    104e:	04444783          	lbu	a5,68(s0)
    1052:	07e2                	slli	a5,a5,0x18
    1054:	87e1                	srai	a5,a5,0x18
    1056:	01479463          	bne	a5,s4,105e <xQueueReceive+0xc6>
    105a:	04040223          	sb	zero,68(s0)
    105e:	04544783          	lbu	a5,69(s0)
    1062:	07e2                	slli	a5,a5,0x18
    1064:	87e1                	srai	a5,a5,0x18
    1066:	01479463          	bne	a5,s4,106e <xQueueReceive+0xd6>
    106a:	040402a3          	sb	zero,69(s0)
    106e:	3c61                	jal	b06 <vPortExitCritical>
    1070:	006c                	addi	a1,sp,12
    1072:	0828                	addi	a0,sp,24
    1074:	341000ef          	jal	ra,1bb4 <xTaskCheckForTimeOut>
    1078:	ed31                	bnez	a0,10d4 <xQueueReceive+0x13c>
    107a:	8522                	mv	a0,s0
    107c:	36a9                	jal	bc6 <prvIsQueueEmpty>
    107e:	c531                	beqz	a0,10ca <xQueueReceive+0x132>
    1080:	45b2                	lw	a1,12(sp)
    1082:	8556                	mv	a0,s5
    1084:	171000ef          	jal	ra,19f4 <vTaskPlaceOnEventList>
    1088:	8522                	mv	a0,s0
    108a:	36f5                	jal	c76 <prvUnlockQueue>
    108c:	706000ef          	jal	ra,1792 <xTaskResumeAll>
    1090:	e119                	bnez	a0,1096 <xQueueReceive+0xfe>
    1092:	217b2023          	sw	s7,512(s6) # e000e200 <__freertos_irq_stack_top+0xc0009200>
    1096:	4905                	li	s2,1
    1098:	3c91                	jal	aec <vPortEnterCritical>
    109a:	5c04                	lw	s1,56(s0)
    109c:	dcc1                	beqz	s1,1034 <xQueueReceive+0x9c>
    109e:	85ce                	mv	a1,s3
    10a0:	8522                	mv	a0,s0
    10a2:	14fd                	addi	s1,s1,-1
    10a4:	366d                	jal	c4e <prvCopyDataFromQueue>
    10a6:	dc04                	sw	s1,56(s0)
    10a8:	481c                	lw	a5,16(s0)
    10aa:	cb99                	beqz	a5,10c0 <xQueueReceive+0x128>
    10ac:	01040513          	addi	a0,s0,16
    10b0:	203000ef          	jal	ra,1ab2 <xTaskRemoveFromEventList>
    10b4:	c511                	beqz	a0,10c0 <xQueueReceive+0x128>
    10b6:	e000e7b7          	lui	a5,0xe000e
    10ba:	6711                	lui	a4,0x4
    10bc:	20e7a023          	sw	a4,512(a5) # e000e200 <__freertos_irq_stack_top+0xc0009200>
    10c0:	3499                	jal	b06 <vPortExitCritical>
    10c2:	4505                	li	a0,1
    10c4:	6105                	addi	sp,sp,32
    10c6:	c68ff06f          	j	52e <__riscv_restore_10>
    10ca:	8522                	mv	a0,s0
    10cc:	366d                	jal	c76 <prvUnlockQueue>
    10ce:	6c4000ef          	jal	ra,1792 <xTaskResumeAll>
    10d2:	b7d1                	j	1096 <xQueueReceive+0xfe>
    10d4:	8522                	mv	a0,s0
    10d6:	3645                	jal	c76 <prvUnlockQueue>
    10d8:	6ba000ef          	jal	ra,1792 <xTaskResumeAll>
    10dc:	8522                	mv	a0,s0
    10de:	34e5                	jal	bc6 <prvIsQueueEmpty>
    10e0:	d95d                	beqz	a0,1096 <xQueueReceive+0xfe>
    10e2:	bfa1                	j	103a <xQueueReceive+0xa2>

000010e4 <uxQueueMessagesWaiting>:
    10e4:	c3aff2ef          	jal	t0,51e <__riscv_save_0>
    10e8:	1141                	addi	sp,sp,-16
    10ea:	e11d                	bnez	a0,1110 <uxQueueMessagesWaiting+0x2c>
    10ec:	6789                	lui	a5,0x2
    10ee:	80078793          	addi	a5,a5,-2048 # 1800 <xTaskResumeAll+0x6e>
    10f2:	30079073          	csrw	mstatus,a5
    10f6:	0000d637          	lui	a2,0xd
    10fa:	0000d537          	lui	a0,0xd
    10fe:	0c460613          	addi	a2,a2,196 # d0c4 <_read+0xaa>
    1102:	7e300593          	li	a1,2019
    1106:	06c50513          	addi	a0,a0,108 # d06c <_read+0x52>
    110a:	60f0a0ef          	jal	ra,bf18 <iprintf>
    110e:	a001                	j	110e <uxQueueMessagesWaiting+0x2a>
    1110:	c62a                	sw	a0,12(sp)
    1112:	9dbff0ef          	jal	ra,aec <vPortEnterCritical>
    1116:	4532                	lw	a0,12(sp)
    1118:	5d08                	lw	a0,56(a0)
    111a:	c62a                	sw	a0,12(sp)
    111c:	9ebff0ef          	jal	ra,b06 <vPortExitCritical>
    1120:	4532                	lw	a0,12(sp)
    1122:	0141                	addi	sp,sp,16
    1124:	c1eff06f          	j	542 <__riscv_restore_0>

00001128 <vQueueAddToRegistry>:
    1128:	e515                	bnez	a0,1154 <vQueueAddToRegistry+0x2c>
    112a:	bf4ff2ef          	jal	t0,51e <__riscv_save_0>
    112e:	6789                	lui	a5,0x2
    1130:	80078793          	addi	a5,a5,-2048 # 1800 <xTaskResumeAll+0x6e>
    1134:	30079073          	csrw	mstatus,a5
    1138:	0000d637          	lui	a2,0xd
    113c:	6585                	lui	a1,0x1
    113e:	0000d537          	lui	a0,0xd
    1142:	0c460613          	addi	a2,a2,196 # d0c4 <_read+0xaa>
    1146:	ac858593          	addi	a1,a1,-1336 # ac8 <SysTick_Handler+0x58>
    114a:	06c50513          	addi	a0,a0,108 # d06c <_read+0x52>
    114e:	5cb0a0ef          	jal	ra,bf18 <iprintf>
    1152:	a001                	j	1152 <vQueueAddToRegistry+0x2a>
    1154:	cd9d                	beqz	a1,1192 <vQueueAddToRegistry+0x6a>
    1156:	20003637          	lui	a2,0x20003
    115a:	17c60693          	addi	a3,a2,380 # 2000317c <xQueueRegistry>
    115e:	4781                	li	a5,0
    1160:	4701                	li	a4,0
    1162:	17c60613          	addi	a2,a2,380
    1166:	4821                	li	a6,8
    1168:	0046a883          	lw	a7,4(a3)
    116c:	00a89863          	bne	a7,a0,117c <vQueueAddToRegistry+0x54>
    1170:	00371793          	slli	a5,a4,0x3
    1174:	97b2                	add	a5,a5,a2
    1176:	c38c                	sw	a1,0(a5)
    1178:	c3c8                	sw	a0,4(a5)
    117a:	a821                	j	1192 <vQueueAddToRegistry+0x6a>
    117c:	e791                	bnez	a5,1188 <vQueueAddToRegistry+0x60>
    117e:	0006a883          	lw	a7,0(a3)
    1182:	00089363          	bnez	a7,1188 <vQueueAddToRegistry+0x60>
    1186:	87b6                	mv	a5,a3
    1188:	0705                	addi	a4,a4,1
    118a:	06a1                	addi	a3,a3,8
    118c:	fd071ee3          	bne	a4,a6,1168 <vQueueAddToRegistry+0x40>
    1190:	f3fd                	bnez	a5,1176 <vQueueAddToRegistry+0x4e>
    1192:	8082                	ret

00001194 <vQueueWaitForMessageRestricted>:
    1194:	b8aff2ef          	jal	t0,51e <__riscv_save_0>
    1198:	1141                	addi	sp,sp,-16
    119a:	842a                	mv	s0,a0
    119c:	c62e                	sw	a1,12(sp)
    119e:	c432                	sw	a2,8(sp)
    11a0:	94dff0ef          	jal	ra,aec <vPortEnterCritical>
    11a4:	04444783          	lbu	a5,68(s0)
    11a8:	577d                	li	a4,-1
    11aa:	4622                	lw	a2,8(sp)
    11ac:	07e2                	slli	a5,a5,0x18
    11ae:	87e1                	srai	a5,a5,0x18
    11b0:	45b2                	lw	a1,12(sp)
    11b2:	00e79463          	bne	a5,a4,11ba <vQueueWaitForMessageRestricted+0x26>
    11b6:	04040223          	sb	zero,68(s0)
    11ba:	04544783          	lbu	a5,69(s0)
    11be:	577d                	li	a4,-1
    11c0:	07e2                	slli	a5,a5,0x18
    11c2:	87e1                	srai	a5,a5,0x18
    11c4:	00e79463          	bne	a5,a4,11cc <vQueueWaitForMessageRestricted+0x38>
    11c8:	040402a3          	sb	zero,69(s0)
    11cc:	c632                	sw	a2,12(sp)
    11ce:	c42e                	sw	a1,8(sp)
    11d0:	937ff0ef          	jal	ra,b06 <vPortExitCritical>
    11d4:	5c1c                	lw	a5,56(s0)
    11d6:	45a2                	lw	a1,8(sp)
    11d8:	4632                	lw	a2,12(sp)
    11da:	e789                	bnez	a5,11e4 <vQueueWaitForMessageRestricted+0x50>
    11dc:	02440513          	addi	a0,s0,36
    11e0:	05d000ef          	jal	ra,1a3c <vTaskPlaceOnEventListRestricted>
    11e4:	8522                	mv	a0,s0
    11e6:	a91ff0ef          	jal	ra,c76 <prvUnlockQueue>
    11ea:	0141                	addi	sp,sp,16
    11ec:	b56ff06f          	j	542 <__riscv_restore_0>

000011f0 <prvResetNextTaskUnblockTime>:
    11f0:	20000737          	lui	a4,0x20000
    11f4:	0cc70713          	addi	a4,a4,204 # 200000cc <pxDelayedTaskList>
    11f8:	431c                	lw	a5,0(a4)
    11fa:	4394                	lw	a3,0(a5)
    11fc:	200007b7          	lui	a5,0x20000
    1200:	0ec78793          	addi	a5,a5,236 # 200000ec <xNextTaskUnblockTime>
    1204:	e681                	bnez	a3,120c <prvResetNextTaskUnblockTime+0x1c>
    1206:	577d                	li	a4,-1
    1208:	c398                	sw	a4,0(a5)
    120a:	8082                	ret
    120c:	4318                	lw	a4,0(a4)
    120e:	4758                	lw	a4,12(a4)
    1210:	4318                	lw	a4,0(a4)
    1212:	bfdd                	j	1208 <prvResetNextTaskUnblockTime+0x18>

00001214 <prvAddCurrentTaskToDelayedList>:
    1214:	af0ff2ef          	jal	t0,504 <__riscv_save_4>
    1218:	20000937          	lui	s2,0x20000
    121c:	200007b7          	lui	a5,0x20000
    1220:	0c890493          	addi	s1,s2,200 # 200000c8 <pxCurrentTCB>
    1224:	0fc7a983          	lw	s3,252(a5) # 200000fc <xTickCount>
    1228:	842a                	mv	s0,a0
    122a:	409c                	lw	a5,0(s1)
    122c:	4088                	lw	a0,0(s1)
    122e:	1141                	addi	sp,sp,-16
    1230:	060780a3          	sb	zero,97(a5)
    1234:	0511                	addi	a0,a0,4
    1236:	c62e                	sw	a1,12(sp)
    1238:	96fff0ef          	jal	ra,ba6 <uxListRemove>
    123c:	577d                	li	a4,-1
    123e:	0c890793          	addi	a5,s2,200
    1242:	45b2                	lw	a1,12(sp)
    1244:	02e41c63          	bne	s0,a4,127c <prvAddCurrentTaskToDelayedList+0x68>
    1248:	c995                	beqz	a1,127c <prvAddCurrentTaskToDelayedList+0x68>
    124a:	200037b7          	lui	a5,0x20003
    124e:	28478793          	addi	a5,a5,644 # 20003284 <xSuspendedTaskList>
    1252:	4094                	lw	a3,0(s1)
    1254:	43d8                	lw	a4,4(a5)
    1256:	c698                	sw	a4,8(a3)
    1258:	4710                	lw	a2,8(a4)
    125a:	4094                	lw	a3,0(s1)
    125c:	c6d0                	sw	a2,12(a3)
    125e:	4094                	lw	a3,0(s1)
    1260:	4710                	lw	a2,8(a4)
    1262:	0691                	addi	a3,a3,4
    1264:	c254                	sw	a3,4(a2)
    1266:	4094                	lw	a3,0(s1)
    1268:	0691                	addi	a3,a3,4
    126a:	c714                	sw	a3,8(a4)
    126c:	4098                	lw	a4,0(s1)
    126e:	cb5c                	sw	a5,20(a4)
    1270:	4398                	lw	a4,0(a5)
    1272:	0705                	addi	a4,a4,1
    1274:	c398                	sw	a4,0(a5)
    1276:	0141                	addi	sp,sp,16
    1278:	ac0ff06f          	j	538 <__riscv_restore_4>
    127c:	4398                	lw	a4,0(a5)
    127e:	944e                	add	s0,s0,s3
    1280:	c340                	sw	s0,4(a4)
    1282:	01347b63          	bgeu	s0,s3,1298 <prvAddCurrentTaskToDelayedList+0x84>
    1286:	20000737          	lui	a4,0x20000
    128a:	0d072503          	lw	a0,208(a4) # 200000d0 <pxOverflowDelayedTaskList>
    128e:	438c                	lw	a1,0(a5)
    1290:	0591                	addi	a1,a1,4
    1292:	8e7ff0ef          	jal	ra,b78 <vListInsert>
    1296:	b7c5                	j	1276 <prvAddCurrentTaskToDelayedList+0x62>
    1298:	20000737          	lui	a4,0x20000
    129c:	0cc72503          	lw	a0,204(a4) # 200000cc <pxDelayedTaskList>
    12a0:	438c                	lw	a1,0(a5)
    12a2:	0591                	addi	a1,a1,4
    12a4:	8d5ff0ef          	jal	ra,b78 <vListInsert>
    12a8:	200007b7          	lui	a5,0x20000
    12ac:	0ec78793          	addi	a5,a5,236 # 200000ec <xNextTaskUnblockTime>
    12b0:	4398                	lw	a4,0(a5)
    12b2:	fce472e3          	bgeu	s0,a4,1276 <prvAddCurrentTaskToDelayedList+0x62>
    12b6:	c380                	sw	s0,0(a5)
    12b8:	bf7d                	j	1276 <prvAddCurrentTaskToDelayedList+0x62>

000012ba <prvIdleTask>:
    12ba:	a4aff2ef          	jal	t0,504 <__riscv_save_4>
    12be:	20003437          	lui	s0,0x20003
    12c2:	200009b7          	lui	s3,0x20000
    12c6:	29840413          	addi	s0,s0,664 # 20003298 <xTasksWaitingTermination>
    12ca:	20000a37          	lui	s4,0x20000
    12ce:	0d898493          	addi	s1,s3,216 # 200000d8 <uxDeletedTasksWaitingCleanUp>
    12d2:	409c                	lw	a5,0(s1)
    12d4:	dfed                	beqz	a5,12ce <prvIdleTask+0x14>
    12d6:	817ff0ef          	jal	ra,aec <vPortEnterCritical>
    12da:	445c                	lw	a5,12(s0)
    12dc:	00c7a903          	lw	s2,12(a5)
    12e0:	00490513          	addi	a0,s2,4
    12e4:	8c3ff0ef          	jal	ra,ba6 <uxListRemove>
    12e8:	0d4a0713          	addi	a4,s4,212 # 200000d4 <uxCurrentNumberOfTasks>
    12ec:	431c                	lw	a5,0(a4)
    12ee:	17fd                	addi	a5,a5,-1
    12f0:	c31c                	sw	a5,0(a4)
    12f2:	409c                	lw	a5,0(s1)
    12f4:	17fd                	addi	a5,a5,-1
    12f6:	c09c                	sw	a5,0(s1)
    12f8:	80fff0ef          	jal	ra,b06 <vPortExitCritical>
    12fc:	03092503          	lw	a0,48(s2)
    1300:	e02ff0ef          	jal	ra,902 <vPortFree>
    1304:	854a                	mv	a0,s2
    1306:	dfcff0ef          	jal	ra,902 <vPortFree>
    130a:	b7d1                	j	12ce <prvIdleTask+0x14>

0000130c <xTaskCreate>:
    130c:	9eaff2ef          	jal	t0,4f6 <__riscv_save_10>
    1310:	00261913          	slli	s2,a2,0x2
    1314:	8aaa                	mv	s5,a0
    1316:	854a                	mv	a0,s2
    1318:	89ae                	mv	s3,a1
    131a:	8b36                	mv	s6,a3
    131c:	8bba                	mv	s7,a4
    131e:	8a3e                	mv	s4,a5
    1320:	c5aff0ef          	jal	ra,77a <pvPortMalloc>
    1324:	c505                	beqz	a0,134c <xTaskCreate+0x40>
    1326:	84aa                	mv	s1,a0
    1328:	06400513          	li	a0,100
    132c:	c4eff0ef          	jal	ra,77a <pvPortMalloc>
    1330:	842a                	mv	s0,a0
    1332:	c911                	beqz	a0,1346 <xTaskCreate+0x3a>
    1334:	d904                	sw	s1,48(a0)
    1336:	4781                	li	a5,0
    1338:	02000693          	li	a3,32
    133c:	00099a63          	bnez	s3,1350 <xTaskCreate+0x44>
    1340:	02050a23          	sb	zero,52(a0)
    1344:	a025                	j	136c <xTaskCreate+0x60>
    1346:	8526                	mv	a0,s1
    1348:	dbaff0ef          	jal	ra,902 <vPortFree>
    134c:	557d                	li	a0,-1
    134e:	aad1                	j	1522 <xTaskCreate+0x216>
    1350:	00f98733          	add	a4,s3,a5
    1354:	00070703          	lb	a4,0(a4)
    1358:	00f40633          	add	a2,s0,a5
    135c:	02e60a23          	sb	a4,52(a2)
    1360:	c701                	beqz	a4,1368 <xTaskCreate+0x5c>
    1362:	0785                	addi	a5,a5,1
    1364:	fed796e3          	bne	a5,a3,1350 <xTaskCreate+0x44>
    1368:	040409a3          	sb	zero,83(s0)
    136c:	4799                	li	a5,6
    136e:	0377f463          	bgeu	a5,s7,1396 <xTaskCreate+0x8a>
    1372:	6789                	lui	a5,0x2
    1374:	80078793          	addi	a5,a5,-2048 # 1800 <xTaskResumeAll+0x6e>
    1378:	30079073          	csrw	mstatus,a5
    137c:	0000d637          	lui	a2,0xd
    1380:	0000d537          	lui	a0,0xd
    1384:	0fc60613          	addi	a2,a2,252 # d0fc <_read+0xe2>
    1388:	39700593          	li	a1,919
    138c:	06c50513          	addi	a0,a0,108 # d06c <_read+0x52>
    1390:	3890a0ef          	jal	ra,bf18 <iprintf>
    1394:	a001                	j	1394 <xTaskCreate+0x88>
    1396:	00440993          	addi	s3,s0,4
    139a:	854e                	mv	a0,s3
    139c:	03742623          	sw	s7,44(s0)
    13a0:	05742a23          	sw	s7,84(s0)
    13a4:	04042c23          	sw	zero,88(s0)
    13a8:	fcaff0ef          	jal	ra,b72 <vListInitialiseItem>
    13ac:	01840513          	addi	a0,s0,24
    13b0:	fc2ff0ef          	jal	ra,b72 <vListInitialiseItem>
    13b4:	471d                	li	a4,7
    13b6:	ffc90513          	addi	a0,s2,-4
    13ba:	41770733          	sub	a4,a4,s7
    13be:	9526                	add	a0,a0,s1
    13c0:	c800                	sw	s0,16(s0)
    13c2:	cc18                	sw	a4,24(s0)
    13c4:	d040                	sw	s0,36(s0)
    13c6:	04040e23          	sb	zero,92(s0)
    13ca:	04040ea3          	sb	zero,93(s0)
    13ce:	04040f23          	sb	zero,94(s0)
    13d2:	04040fa3          	sb	zero,95(s0)
    13d6:	06040023          	sb	zero,96(s0)
    13da:	060400a3          	sb	zero,97(s0)
    13de:	865a                	mv	a2,s6
    13e0:	85d6                	mv	a1,s5
    13e2:	9941                	andi	a0,a0,-16
    13e4:	81cff0ef          	jal	ra,400 <pxPortInitialiseStack>
    13e8:	c008                	sw	a0,0(s0)
    13ea:	000a0463          	beqz	s4,13f2 <xTaskCreate+0xe6>
    13ee:	008a2023          	sw	s0,0(s4)
    13f2:	efaff0ef          	jal	ra,aec <vPortEnterCritical>
    13f6:	200007b7          	lui	a5,0x20000
    13fa:	0d478793          	addi	a5,a5,212 # 200000d4 <uxCurrentNumberOfTasks>
    13fe:	4398                	lw	a4,0(a5)
    1400:	20000937          	lui	s2,0x20000
    1404:	20003537          	lui	a0,0x20003
    1408:	0705                	addi	a4,a4,1
    140a:	c398                	sw	a4,0(a5)
    140c:	0c890713          	addi	a4,s2,200 # 200000c8 <pxCurrentTCB>
    1410:	4318                	lw	a4,0(a4)
    1412:	20000a37          	lui	s4,0x20000
    1416:	0c890913          	addi	s2,s2,200
    141a:	1bc50493          	addi	s1,a0,444 # 200031bc <pxReadyTasksLists>
    141e:	0f8a0a13          	addi	s4,s4,248 # 200000f8 <xSchedulerRunning>
    1422:	10071263          	bnez	a4,1526 <xTaskCreate+0x21a>
    1426:	00892023          	sw	s0,0(s2)
    142a:	4398                	lw	a4,0(a5)
    142c:	4785                	li	a5,1
    142e:	08f71863          	bne	a4,a5,14be <xTaskCreate+0x1b2>
    1432:	1bc50513          	addi	a0,a0,444
    1436:	f28ff0ef          	jal	ra,b5e <vListInitialise>
    143a:	01448513          	addi	a0,s1,20
    143e:	f20ff0ef          	jal	ra,b5e <vListInitialise>
    1442:	02848513          	addi	a0,s1,40
    1446:	f18ff0ef          	jal	ra,b5e <vListInitialise>
    144a:	03c48513          	addi	a0,s1,60
    144e:	f10ff0ef          	jal	ra,b5e <vListInitialise>
    1452:	05048513          	addi	a0,s1,80
    1456:	f08ff0ef          	jal	ra,b5e <vListInitialise>
    145a:	06448513          	addi	a0,s1,100
    145e:	f00ff0ef          	jal	ra,b5e <vListInitialise>
    1462:	07848513          	addi	a0,s1,120
    1466:	ef8ff0ef          	jal	ra,b5e <vListInitialise>
    146a:	20003537          	lui	a0,0x20003
    146e:	24850b13          	addi	s6,a0,584 # 20003248 <xDelayedTaskList1>
    1472:	24850513          	addi	a0,a0,584
    1476:	ee8ff0ef          	jal	ra,b5e <vListInitialise>
    147a:	20003537          	lui	a0,0x20003
    147e:	25c50a93          	addi	s5,a0,604 # 2000325c <xDelayedTaskList2>
    1482:	25c50513          	addi	a0,a0,604
    1486:	ed8ff0ef          	jal	ra,b5e <vListInitialise>
    148a:	20003537          	lui	a0,0x20003
    148e:	27050513          	addi	a0,a0,624 # 20003270 <xPendingReadyList>
    1492:	eccff0ef          	jal	ra,b5e <vListInitialise>
    1496:	20003537          	lui	a0,0x20003
    149a:	29850513          	addi	a0,a0,664 # 20003298 <xTasksWaitingTermination>
    149e:	ec0ff0ef          	jal	ra,b5e <vListInitialise>
    14a2:	20003537          	lui	a0,0x20003
    14a6:	28450513          	addi	a0,a0,644 # 20003284 <xSuspendedTaskList>
    14aa:	eb4ff0ef          	jal	ra,b5e <vListInitialise>
    14ae:	200007b7          	lui	a5,0x20000
    14b2:	0d67a623          	sw	s6,204(a5) # 200000cc <pxDelayedTaskList>
    14b6:	200007b7          	lui	a5,0x20000
    14ba:	0d57a823          	sw	s5,208(a5) # 200000d0 <pxOverflowDelayedTaskList>
    14be:	200007b7          	lui	a5,0x20000
    14c2:	0e078793          	addi	a5,a5,224 # 200000e0 <uxTaskNumber>
    14c6:	4398                	lw	a4,0(a5)
    14c8:	0705                	addi	a4,a4,1
    14ca:	c398                	sw	a4,0(a5)
    14cc:	20000737          	lui	a4,0x20000
    14d0:	0e470713          	addi	a4,a4,228 # 200000e4 <uxTopReadyPriority>
    14d4:	545c                	lw	a5,44(s0)
    14d6:	4314                	lw	a3,0(a4)
    14d8:	00f6f363          	bgeu	a3,a5,14de <xTaskCreate+0x1d2>
    14dc:	c31c                	sw	a5,0(a4)
    14de:	4751                	li	a4,20
    14e0:	02e787b3          	mul	a5,a5,a4
    14e4:	94be                	add	s1,s1,a5
    14e6:	40dc                	lw	a5,4(s1)
    14e8:	4798                	lw	a4,8(a5)
    14ea:	c41c                	sw	a5,8(s0)
    14ec:	c458                	sw	a4,12(s0)
    14ee:	4798                	lw	a4,8(a5)
    14f0:	01372223          	sw	s3,4(a4)
    14f4:	0137a423          	sw	s3,8(a5)
    14f8:	409c                	lw	a5,0(s1)
    14fa:	c844                	sw	s1,20(s0)
    14fc:	0785                	addi	a5,a5,1
    14fe:	c09c                	sw	a5,0(s1)
    1500:	e06ff0ef          	jal	ra,b06 <vPortExitCritical>
    1504:	000a2783          	lw	a5,0(s4)
    1508:	4505                	li	a0,1
    150a:	cf81                	beqz	a5,1522 <xTaskCreate+0x216>
    150c:	00092783          	lw	a5,0(s2)
    1510:	57d8                	lw	a4,44(a5)
    1512:	545c                	lw	a5,44(s0)
    1514:	00f77763          	bgeu	a4,a5,1522 <xTaskCreate+0x216>
    1518:	e000e7b7          	lui	a5,0xe000e
    151c:	6711                	lui	a4,0x4
    151e:	20e7a023          	sw	a4,512(a5) # e000e200 <__freertos_irq_stack_top+0xc0009200>
    1522:	80cff06f          	j	52e <__riscv_restore_10>
    1526:	000a2783          	lw	a5,0(s4)
    152a:	fbd1                	bnez	a5,14be <xTaskCreate+0x1b2>
    152c:	00092783          	lw	a5,0(s2)
    1530:	57d8                	lw	a4,44(a5)
    1532:	545c                	lw	a5,44(s0)
    1534:	f8e7e5e3          	bltu	a5,a4,14be <xTaskCreate+0x1b2>
    1538:	00892023          	sw	s0,0(s2)
    153c:	b749                	j	14be <xTaskCreate+0x1b2>

0000153e <vTaskStartScheduler>:
    153e:	fe1fe2ef          	jal	t0,51e <__riscv_save_0>
    1542:	200007b7          	lui	a5,0x20000
    1546:	0000d5b7          	lui	a1,0xd
    154a:	00001537          	lui	a0,0x1
    154e:	0e878793          	addi	a5,a5,232 # 200000e8 <xIdleTaskHandle>
    1552:	4701                	li	a4,0
    1554:	4681                	li	a3,0
    1556:	10000613          	li	a2,256
    155a:	12058593          	addi	a1,a1,288 # d120 <_read+0x106>
    155e:	2ba50513          	addi	a0,a0,698 # 12ba <prvIdleTask>
    1562:	336d                	jal	130c <xTaskCreate>
    1564:	4405                	li	s0,1
    1566:	02851e63          	bne	a0,s0,15a2 <vTaskStartScheduler+0x64>
    156a:	65f000ef          	jal	ra,23c8 <xTimerCreateTimerTask>
    156e:	02851a63          	bne	a0,s0,15a2 <vTaskStartScheduler+0x64>
    1572:	6789                	lui	a5,0x2
    1574:	80078793          	addi	a5,a5,-2048 # 1800 <xTaskResumeAll+0x6e>
    1578:	30079073          	csrw	mstatus,a5
    157c:	200007b7          	lui	a5,0x20000
    1580:	577d                	li	a4,-1
    1582:	0ee7a623          	sw	a4,236(a5) # 200000ec <xNextTaskUnblockTime>
    1586:	200007b7          	lui	a5,0x20000
    158a:	0ea7ac23          	sw	a0,248(a5) # 200000f8 <xSchedulerRunning>
    158e:	200007b7          	lui	a5,0x20000
    1592:	0e07ae23          	sw	zero,252(a5) # 200000fc <xTickCount>
    1596:	c4aff0ef          	jal	ra,9e0 <xPortStartScheduler>
    159a:	8041a783          	lw	a5,-2044(gp) # 20000084 <uxTopUsedPriority>
    159e:	fa5fe06f          	j	542 <__riscv_restore_0>
    15a2:	57fd                	li	a5,-1
    15a4:	fef51be3          	bne	a0,a5,159a <vTaskStartScheduler+0x5c>
    15a8:	6789                	lui	a5,0x2
    15aa:	80078793          	addi	a5,a5,-2048 # 1800 <xTaskResumeAll+0x6e>
    15ae:	30079073          	csrw	mstatus,a5
    15b2:	0000d637          	lui	a2,0xd
    15b6:	6585                	lui	a1,0x1
    15b8:	0000d537          	lui	a0,0xd
    15bc:	0fc60613          	addi	a2,a2,252 # d0fc <_read+0xe2>
    15c0:	84058593          	addi	a1,a1,-1984 # 840 <__stack_size+0x40>
    15c4:	06c50513          	addi	a0,a0,108 # d06c <_read+0x52>
    15c8:	1510a0ef          	jal	ra,bf18 <iprintf>
    15cc:	a001                	j	15cc <vTaskStartScheduler+0x8e>

000015ce <vTaskSuspendAll>:
    15ce:	200007b7          	lui	a5,0x20000
    15d2:	0dc78793          	addi	a5,a5,220 # 200000dc <uxSchedulerSuspended>
    15d6:	4398                	lw	a4,0(a5)
    15d8:	0705                	addi	a4,a4,1
    15da:	c398                	sw	a4,0(a5)
    15dc:	8082                	ret

000015de <xTaskGetTickCount>:
    15de:	200007b7          	lui	a5,0x20000
    15e2:	0fc7a503          	lw	a0,252(a5) # 200000fc <xTickCount>
    15e6:	8082                	ret

000015e8 <xTaskIncrementTick>:
    15e8:	200007b7          	lui	a5,0x20000
    15ec:	0dc7a783          	lw	a5,220(a5) # 200000dc <uxSchedulerSuspended>
    15f0:	18079863          	bnez	a5,1780 <xTaskIncrementTick+0x198>
    15f4:	f2bfe2ef          	jal	t0,51e <__riscv_save_0>
    15f8:	200007b7          	lui	a5,0x20000
    15fc:	0fc78793          	addi	a5,a5,252 # 200000fc <xTickCount>
    1600:	4380                	lw	s0,0(a5)
    1602:	0405                	addi	s0,s0,1
    1604:	c380                	sw	s0,0(a5)
    1606:	e839                	bnez	s0,165c <xTaskIncrementTick+0x74>
    1608:	200007b7          	lui	a5,0x20000
    160c:	0cc78793          	addi	a5,a5,204 # 200000cc <pxDelayedTaskList>
    1610:	4398                	lw	a4,0(a5)
    1612:	4318                	lw	a4,0(a4)
    1614:	c705                	beqz	a4,163c <xTaskIncrementTick+0x54>
    1616:	6789                	lui	a5,0x2
    1618:	80078793          	addi	a5,a5,-2048 # 1800 <xTaskResumeAll+0x6e>
    161c:	30079073          	csrw	mstatus,a5
    1620:	0000d637          	lui	a2,0xd
    1624:	6585                	lui	a1,0x1
    1626:	0000d537          	lui	a0,0xd
    162a:	0fc60613          	addi	a2,a2,252 # d0fc <_read+0xe2>
    162e:	ac758593          	addi	a1,a1,-1337 # ac7 <SysTick_Handler+0x57>
    1632:	06c50513          	addi	a0,a0,108 # d06c <_read+0x52>
    1636:	0e30a0ef          	jal	ra,bf18 <iprintf>
    163a:	a001                	j	163a <xTaskIncrementTick+0x52>
    163c:	20000737          	lui	a4,0x20000
    1640:	0d070713          	addi	a4,a4,208 # 200000d0 <pxOverflowDelayedTaskList>
    1644:	4394                	lw	a3,0(a5)
    1646:	4310                	lw	a2,0(a4)
    1648:	c390                	sw	a2,0(a5)
    164a:	200007b7          	lui	a5,0x20000
    164e:	c314                	sw	a3,0(a4)
    1650:	0f078793          	addi	a5,a5,240 # 200000f0 <xNumOfOverflows>
    1654:	4398                	lw	a4,0(a5)
    1656:	0705                	addi	a4,a4,1
    1658:	c398                	sw	a4,0(a5)
    165a:	3e59                	jal	11f0 <prvResetNextTaskUnblockTime>
    165c:	20000637          	lui	a2,0x20000
    1660:	0ec60793          	addi	a5,a2,236 # 200000ec <xNextTaskUnblockTime>
    1664:	439c                	lw	a5,0(a5)
    1666:	20003737          	lui	a4,0x20003
    166a:	200005b7          	lui	a1,0x20000
    166e:	0ec60613          	addi	a2,a2,236
    1672:	1bc70713          	addi	a4,a4,444 # 200031bc <pxReadyTasksLists>
    1676:	0c858593          	addi	a1,a1,200 # 200000c8 <pxCurrentTCB>
    167a:	4501                	li	a0,0
    167c:	02f47563          	bgeu	s0,a5,16a6 <xTaskIncrementTick+0xbe>
    1680:	419c                	lw	a5,0(a1)
    1682:	46d1                	li	a3,20
    1684:	57dc                	lw	a5,44(a5)
    1686:	02d787b3          	mul	a5,a5,a3
    168a:	973e                	add	a4,a4,a5
    168c:	4318                	lw	a4,0(a4)
    168e:	4785                	li	a5,1
    1690:	00e7f363          	bgeu	a5,a4,1696 <xTaskIncrementTick+0xae>
    1694:	4505                	li	a0,1
    1696:	200007b7          	lui	a5,0x20000
    169a:	1007a783          	lw	a5,256(a5) # 20000100 <xYieldPending>
    169e:	c391                	beqz	a5,16a2 <xTaskIncrementTick+0xba>
    16a0:	4505                	li	a0,1
    16a2:	ea1fe06f          	j	542 <__riscv_restore_0>
    16a6:	20000e37          	lui	t3,0x20000
    16aa:	20000eb7          	lui	t4,0x20000
    16ae:	4f51                	li	t5,20
    16b0:	0cce0793          	addi	a5,t3,204 # 200000cc <pxDelayedTaskList>
    16b4:	4394                	lw	a3,0(a5)
    16b6:	4294                	lw	a3,0(a3)
    16b8:	e681                	bnez	a3,16c0 <xTaskIncrementTick+0xd8>
    16ba:	57fd                	li	a5,-1
    16bc:	c21c                	sw	a5,0(a2)
    16be:	b7c9                	j	1680 <xTaskIncrementTick+0x98>
    16c0:	439c                	lw	a5,0(a5)
    16c2:	47dc                	lw	a5,12(a5)
    16c4:	47dc                	lw	a5,12(a5)
    16c6:	43d4                	lw	a3,4(a5)
    16c8:	00d47463          	bgeu	s0,a3,16d0 <xTaskIncrementTick+0xe8>
    16cc:	c214                	sw	a3,0(a2)
    16ce:	bf4d                	j	1680 <xTaskIncrementTick+0x98>
    16d0:	0087a883          	lw	a7,8(a5)
    16d4:	00c7a803          	lw	a6,12(a5)
    16d8:	4bd4                	lw	a3,20(a5)
    16da:	00478313          	addi	t1,a5,4
    16de:	0108a423          	sw	a6,8(a7)
    16e2:	01182223          	sw	a7,4(a6)
    16e6:	0046a883          	lw	a7,4(a3)
    16ea:	00689463          	bne	a7,t1,16f2 <xTaskIncrementTick+0x10a>
    16ee:	0106a223          	sw	a6,4(a3)
    16f2:	0006a803          	lw	a6,0(a3)
    16f6:	0007aa23          	sw	zero,20(a5)
    16fa:	187d                	addi	a6,a6,-1
    16fc:	0106a023          	sw	a6,0(a3)
    1700:	5794                	lw	a3,40(a5)
    1702:	ca95                	beqz	a3,1736 <xTaskIncrementTick+0x14e>
    1704:	01c7a803          	lw	a6,28(a5)
    1708:	0207a883          	lw	a7,32(a5)
    170c:	0046af83          	lw	t6,4(a3)
    1710:	01182423          	sw	a7,8(a6)
    1714:	0207a883          	lw	a7,32(a5)
    1718:	0108a223          	sw	a6,4(a7)
    171c:	01878813          	addi	a6,a5,24
    1720:	010f9463          	bne	t6,a6,1728 <xTaskIncrementTick+0x140>
    1724:	0116a223          	sw	a7,4(a3)
    1728:	0006a803          	lw	a6,0(a3)
    172c:	0207a423          	sw	zero,40(a5)
    1730:	187d                	addi	a6,a6,-1
    1732:	0106a023          	sw	a6,0(a3)
    1736:	0e4e8693          	addi	a3,t4,228 # 200000e4 <uxTopReadyPriority>
    173a:	02c7a803          	lw	a6,44(a5)
    173e:	0006a883          	lw	a7,0(a3)
    1742:	0108f463          	bgeu	a7,a6,174a <xTaskIncrementTick+0x162>
    1746:	0106a023          	sw	a6,0(a3)
    174a:	03e806b3          	mul	a3,a6,t5
    174e:	96ba                	add	a3,a3,a4
    1750:	0046a883          	lw	a7,4(a3)
    1754:	0088af83          	lw	t6,8(a7)
    1758:	0117a423          	sw	a7,8(a5)
    175c:	01f7a623          	sw	t6,12(a5)
    1760:	0088af83          	lw	t6,8(a7)
    1764:	006fa223          	sw	t1,4(t6)
    1768:	0068a423          	sw	t1,8(a7)
    176c:	cbd4                	sw	a3,20(a5)
    176e:	429c                	lw	a5,0(a3)
    1770:	0785                	addi	a5,a5,1
    1772:	c29c                	sw	a5,0(a3)
    1774:	419c                	lw	a5,0(a1)
    1776:	57dc                	lw	a5,44(a5)
    1778:	f2f86ce3          	bltu	a6,a5,16b0 <xTaskIncrementTick+0xc8>
    177c:	4505                	li	a0,1
    177e:	bf0d                	j	16b0 <xTaskIncrementTick+0xc8>
    1780:	200007b7          	lui	a5,0x20000
    1784:	0f478793          	addi	a5,a5,244 # 200000f4 <xPendedTicks>
    1788:	4398                	lw	a4,0(a5)
    178a:	4501                	li	a0,0
    178c:	0705                	addi	a4,a4,1
    178e:	c398                	sw	a4,0(a5)
    1790:	8082                	ret

00001792 <xTaskResumeAll>:
    1792:	d73fe2ef          	jal	t0,504 <__riscv_save_4>
    1796:	20000437          	lui	s0,0x20000
    179a:	0dc40413          	addi	s0,s0,220 # 200000dc <uxSchedulerSuspended>
    179e:	401c                	lw	a5,0(s0)
    17a0:	1141                	addi	sp,sp,-16
    17a2:	e785                	bnez	a5,17ca <xTaskResumeAll+0x38>
    17a4:	6789                	lui	a5,0x2
    17a6:	80078793          	addi	a5,a5,-2048 # 1800 <xTaskResumeAll+0x6e>
    17aa:	30079073          	csrw	mstatus,a5
    17ae:	0000d637          	lui	a2,0xd
    17b2:	6585                	lui	a1,0x1
    17b4:	0000d537          	lui	a0,0xd
    17b8:	0fc60613          	addi	a2,a2,252 # d0fc <_read+0xe2>
    17bc:	8b358593          	addi	a1,a1,-1869 # 8b3 <__stack_size+0xb3>
    17c0:	06c50513          	addi	a0,a0,108 # d06c <_read+0x52>
    17c4:	7540a0ef          	jal	ra,bf18 <iprintf>
    17c8:	a001                	j	17c8 <xTaskResumeAll+0x36>
    17ca:	b22ff0ef          	jal	ra,aec <vPortEnterCritical>
    17ce:	401c                	lw	a5,0(s0)
    17d0:	17fd                	addi	a5,a5,-1
    17d2:	c01c                	sw	a5,0(s0)
    17d4:	401c                	lw	a5,0(s0)
    17d6:	cb89                	beqz	a5,17e8 <xTaskResumeAll+0x56>
    17d8:	4501                	li	a0,0
    17da:	c62a                	sw	a0,12(sp)
    17dc:	b2aff0ef          	jal	ra,b06 <vPortExitCritical>
    17e0:	4532                	lw	a0,12(sp)
    17e2:	0141                	addi	sp,sp,16
    17e4:	d55fe06f          	j	538 <__riscv_restore_4>
    17e8:	200007b7          	lui	a5,0x20000
    17ec:	0d47a783          	lw	a5,212(a5) # 200000d4 <uxCurrentNumberOfTasks>
    17f0:	d7e5                	beqz	a5,17d8 <xTaskResumeAll+0x46>
    17f2:	200036b7          	lui	a3,0x20003
    17f6:	20003537          	lui	a0,0x20003
    17fa:	4781                	li	a5,0
    17fc:	27068693          	addi	a3,a3,624 # 20003270 <xPendingReadyList>
    1800:	20000f37          	lui	t5,0x20000
    1804:	1bc50513          	addi	a0,a0,444 # 200031bc <pxReadyTasksLists>
    1808:	48d1                	li	a7,20
    180a:	20000337          	lui	t1,0x20000
    180e:	20000e37          	lui	t3,0x20000
    1812:	4e85                	li	t4,1
    1814:	a859                	j	18aa <xTaskResumeAll+0x118>
    1816:	46dc                	lw	a5,12(a3)
    1818:	47dc                	lw	a5,12(a5)
    181a:	4fcc                	lw	a1,28(a5)
    181c:	5390                	lw	a2,32(a5)
    181e:	5798                	lw	a4,40(a5)
    1820:	c590                	sw	a2,8(a1)
    1822:	0207a803          	lw	a6,32(a5)
    1826:	00b82223          	sw	a1,4(a6)
    182a:	00472803          	lw	a6,4(a4)
    182e:	01878593          	addi	a1,a5,24
    1832:	00b81363          	bne	a6,a1,1838 <xTaskResumeAll+0xa6>
    1836:	c350                	sw	a2,4(a4)
    1838:	4310                	lw	a2,0(a4)
    183a:	0207a423          	sw	zero,40(a5)
    183e:	167d                	addi	a2,a2,-1
    1840:	c310                	sw	a2,0(a4)
    1842:	478c                	lw	a1,8(a5)
    1844:	47d0                	lw	a2,12(a5)
    1846:	4bd8                	lw	a4,20(a5)
    1848:	00478813          	addi	a6,a5,4
    184c:	c590                	sw	a2,8(a1)
    184e:	c24c                	sw	a1,4(a2)
    1850:	434c                	lw	a1,4(a4)
    1852:	01059363          	bne	a1,a6,1858 <xTaskResumeAll+0xc6>
    1856:	c350                	sw	a2,4(a4)
    1858:	4310                	lw	a2,0(a4)
    185a:	0007aa23          	sw	zero,20(a5)
    185e:	167d                	addi	a2,a2,-1
    1860:	c310                	sw	a2,0(a4)
    1862:	0e4f0713          	addi	a4,t5,228 # 200000e4 <uxTopReadyPriority>
    1866:	57d0                	lw	a2,44(a5)
    1868:	430c                	lw	a1,0(a4)
    186a:	00c5f363          	bgeu	a1,a2,1870 <xTaskResumeAll+0xde>
    186e:	c310                	sw	a2,0(a4)
    1870:	03160733          	mul	a4,a2,a7
    1874:	972a                	add	a4,a4,a0
    1876:	434c                	lw	a1,4(a4)
    1878:	0085af83          	lw	t6,8(a1)
    187c:	c78c                	sw	a1,8(a5)
    187e:	01f7a623          	sw	t6,12(a5)
    1882:	0085af83          	lw	t6,8(a1)
    1886:	010fa223          	sw	a6,4(t6)
    188a:	0105a423          	sw	a6,8(a1)
    188e:	430c                	lw	a1,0(a4)
    1890:	cbd8                	sw	a4,20(a5)
    1892:	0585                	addi	a1,a1,1
    1894:	c30c                	sw	a1,0(a4)
    1896:	0c830713          	addi	a4,t1,200 # 200000c8 <pxCurrentTCB>
    189a:	4318                	lw	a4,0(a4)
    189c:	5758                	lw	a4,44(a4)
    189e:	00e66663          	bltu	a2,a4,18aa <xTaskResumeAll+0x118>
    18a2:	100e0713          	addi	a4,t3,256 # 20000100 <xYieldPending>
    18a6:	01d72023          	sw	t4,0(a4)
    18aa:	4298                	lw	a4,0(a3)
    18ac:	f72d                	bnez	a4,1816 <xTaskResumeAll+0x84>
    18ae:	c399                	beqz	a5,18b4 <xTaskResumeAll+0x122>
    18b0:	941ff0ef          	jal	ra,11f0 <prvResetNextTaskUnblockTime>
    18b4:	200007b7          	lui	a5,0x20000
    18b8:	0f478713          	addi	a4,a5,244 # 200000f4 <xPendedTicks>
    18bc:	4304                	lw	s1,0(a4)
    18be:	0f478413          	addi	s0,a5,244
    18c2:	cc91                	beqz	s1,18de <xTaskResumeAll+0x14c>
    18c4:	20000937          	lui	s2,0x20000
    18c8:	4985                	li	s3,1
    18ca:	3b39                	jal	15e8 <xTaskIncrementTick>
    18cc:	c509                	beqz	a0,18d6 <xTaskResumeAll+0x144>
    18ce:	10090793          	addi	a5,s2,256 # 20000100 <xYieldPending>
    18d2:	0137a023          	sw	s3,0(a5)
    18d6:	14fd                	addi	s1,s1,-1
    18d8:	f8ed                	bnez	s1,18ca <xTaskResumeAll+0x138>
    18da:	00042023          	sw	zero,0(s0)
    18de:	200007b7          	lui	a5,0x20000
    18e2:	1007a783          	lw	a5,256(a5) # 20000100 <xYieldPending>
    18e6:	ee0789e3          	beqz	a5,17d8 <xTaskResumeAll+0x46>
    18ea:	e000e7b7          	lui	a5,0xe000e
    18ee:	6711                	lui	a4,0x4
    18f0:	20e7a023          	sw	a4,512(a5) # e000e200 <__freertos_irq_stack_top+0xc0009200>
    18f4:	4505                	li	a0,1
    18f6:	b5d5                	j	17da <xTaskResumeAll+0x48>

000018f8 <vTaskDelay>:
    18f8:	e519                	bnez	a0,1906 <vTaskDelay+0xe>
    18fa:	e000e7b7          	lui	a5,0xe000e
    18fe:	6711                	lui	a4,0x4
    1900:	20e7a023          	sw	a4,512(a5) # e000e200 <__freertos_irq_stack_top+0xc0009200>
    1904:	8082                	ret
    1906:	c19fe2ef          	jal	t0,51e <__riscv_save_0>
    190a:	200007b7          	lui	a5,0x20000
    190e:	0dc7a783          	lw	a5,220(a5) # 200000dc <uxSchedulerSuspended>
    1912:	1141                	addi	sp,sp,-16
    1914:	c39d                	beqz	a5,193a <vTaskDelay+0x42>
    1916:	6789                	lui	a5,0x2
    1918:	80078793          	addi	a5,a5,-2048 # 1800 <xTaskResumeAll+0x6e>
    191c:	30079073          	csrw	mstatus,a5
    1920:	0000d637          	lui	a2,0xd
    1924:	0000d537          	lui	a0,0xd
    1928:	0fc60613          	addi	a2,a2,252 # d0fc <_read+0xe2>
    192c:	54900593          	li	a1,1353
    1930:	06c50513          	addi	a0,a0,108 # d06c <_read+0x52>
    1934:	5e40a0ef          	jal	ra,bf18 <iprintf>
    1938:	a001                	j	1938 <vTaskDelay+0x40>
    193a:	c62a                	sw	a0,12(sp)
    193c:	3949                	jal	15ce <vTaskSuspendAll>
    193e:	4532                	lw	a0,12(sp)
    1940:	4581                	li	a1,0
    1942:	8d3ff0ef          	jal	ra,1214 <prvAddCurrentTaskToDelayedList>
    1946:	35b1                	jal	1792 <xTaskResumeAll>
    1948:	e511                	bnez	a0,1954 <vTaskDelay+0x5c>
    194a:	e000e7b7          	lui	a5,0xe000e
    194e:	6711                	lui	a4,0x4
    1950:	20e7a023          	sw	a4,512(a5) # e000e200 <__freertos_irq_stack_top+0xc0009200>
    1954:	0141                	addi	sp,sp,16
    1956:	bedfe06f          	j	542 <__riscv_restore_0>

0000195a <vTaskSwitchContext>:
    195a:	200007b7          	lui	a5,0x20000
    195e:	0dc7a703          	lw	a4,220(a5) # 200000dc <uxSchedulerSuspended>
    1962:	200007b7          	lui	a5,0x20000
    1966:	10078793          	addi	a5,a5,256 # 20000100 <xYieldPending>
    196a:	c701                	beqz	a4,1972 <vTaskSwitchContext+0x18>
    196c:	4705                	li	a4,1
    196e:	c398                	sw	a4,0(a5)
    1970:	8082                	ret
    1972:	0007a023          	sw	zero,0(a5)
    1976:	200007b7          	lui	a5,0x20000
    197a:	0e478713          	addi	a4,a5,228 # 200000e4 <uxTopReadyPriority>
    197e:	4318                	lw	a4,0(a4)
    1980:	0e478613          	addi	a2,a5,228
    1984:	200037b7          	lui	a5,0x20003
    1988:	1bc78793          	addi	a5,a5,444 # 200031bc <pxReadyTasksLists>
    198c:	4851                	li	a6,20
    198e:	030706b3          	mul	a3,a4,a6
    1992:	00d785b3          	add	a1,a5,a3
    1996:	4188                	lw	a0,0(a1)
    1998:	c515                	beqz	a0,19c4 <vTaskSwitchContext+0x6a>
    199a:	41c8                	lw	a0,4(a1)
    199c:	06a1                	addi	a3,a3,8
    199e:	96be                	add	a3,a3,a5
    19a0:	4148                	lw	a0,4(a0)
    19a2:	c1c8                	sw	a0,4(a1)
    19a4:	00d51463          	bne	a0,a3,19ac <vTaskSwitchContext+0x52>
    19a8:	4154                	lw	a3,4(a0)
    19aa:	c1d4                	sw	a3,4(a1)
    19ac:	46d1                	li	a3,20
    19ae:	02d706b3          	mul	a3,a4,a3
    19b2:	97b6                	add	a5,a5,a3
    19b4:	43dc                	lw	a5,4(a5)
    19b6:	47d4                	lw	a3,12(a5)
    19b8:	200007b7          	lui	a5,0x20000
    19bc:	0cd7a423          	sw	a3,200(a5) # 200000c8 <pxCurrentTCB>
    19c0:	c218                	sw	a4,0(a2)
    19c2:	8082                	ret
    19c4:	e715                	bnez	a4,19f0 <vTaskSwitchContext+0x96>
    19c6:	b59fe2ef          	jal	t0,51e <__riscv_save_0>
    19ca:	6789                	lui	a5,0x2
    19cc:	80078793          	addi	a5,a5,-2048 # 1800 <xTaskResumeAll+0x6e>
    19d0:	30079073          	csrw	mstatus,a5
    19d4:	0000d637          	lui	a2,0xd
    19d8:	6585                	lui	a1,0x1
    19da:	0000d537          	lui	a0,0xd
    19de:	0fc60613          	addi	a2,a2,252 # d0fc <_read+0xe2>
    19e2:	c0258593          	addi	a1,a1,-1022 # c02 <prvCopyDataToQueue+0x24>
    19e6:	06c50513          	addi	a0,a0,108 # d06c <_read+0x52>
    19ea:	52e0a0ef          	jal	ra,bf18 <iprintf>
    19ee:	a001                	j	19ee <vTaskSwitchContext+0x94>
    19f0:	177d                	addi	a4,a4,-1
    19f2:	bf71                	j	198e <vTaskSwitchContext+0x34>

000019f4 <vTaskPlaceOnEventList>:
    19f4:	b2bfe2ef          	jal	t0,51e <__riscv_save_0>
    19f8:	e505                	bnez	a0,1a20 <vTaskPlaceOnEventList+0x2c>
    19fa:	6789                	lui	a5,0x2
    19fc:	80078793          	addi	a5,a5,-2048 # 1800 <xTaskResumeAll+0x6e>
    1a00:	30079073          	csrw	mstatus,a5
    1a04:	0000d637          	lui	a2,0xd
    1a08:	6585                	lui	a1,0x1
    1a0a:	0000d537          	lui	a0,0xd
    1a0e:	0fc60613          	addi	a2,a2,252 # d0fc <_read+0xe2>
    1a12:	c1c58593          	addi	a1,a1,-996 # c1c <prvCopyDataToQueue+0x3e>
    1a16:	06c50513          	addi	a0,a0,108 # d06c <_read+0x52>
    1a1a:	4fe0a0ef          	jal	ra,bf18 <iprintf>
    1a1e:	a001                	j	1a1e <vTaskPlaceOnEventList+0x2a>
    1a20:	200007b7          	lui	a5,0x20000
    1a24:	842e                	mv	s0,a1
    1a26:	0c87a583          	lw	a1,200(a5) # 200000c8 <pxCurrentTCB>
    1a2a:	05e1                	addi	a1,a1,24
    1a2c:	94cff0ef          	jal	ra,b78 <vListInsert>
    1a30:	4585                	li	a1,1
    1a32:	8522                	mv	a0,s0
    1a34:	fe0ff0ef          	jal	ra,1214 <prvAddCurrentTaskToDelayedList>
    1a38:	b0bfe06f          	j	542 <__riscv_restore_0>

00001a3c <vTaskPlaceOnEventListRestricted>:
    1a3c:	ae3fe2ef          	jal	t0,51e <__riscv_save_0>
    1a40:	872a                	mv	a4,a0
    1a42:	e505                	bnez	a0,1a6a <vTaskPlaceOnEventListRestricted+0x2e>
    1a44:	6789                	lui	a5,0x2
    1a46:	80078793          	addi	a5,a5,-2048 # 1800 <xTaskResumeAll+0x6e>
    1a4a:	30079073          	csrw	mstatus,a5
    1a4e:	0000d637          	lui	a2,0xd
    1a52:	6585                	lui	a1,0x1
    1a54:	0000d537          	lui	a0,0xd
    1a58:	0fc60613          	addi	a2,a2,252 # d0fc <_read+0xe2>
    1a5c:	c5258593          	addi	a1,a1,-942 # c52 <prvCopyDataFromQueue+0x4>
    1a60:	06c50513          	addi	a0,a0,108 # d06c <_read+0x52>
    1a64:	4b40a0ef          	jal	ra,bf18 <iprintf>
    1a68:	a001                	j	1a68 <vTaskPlaceOnEventListRestricted+0x2c>
    1a6a:	200007b7          	lui	a5,0x20000
    1a6e:	0c878793          	addi	a5,a5,200 # 200000c8 <pxCurrentTCB>
    1a72:	4354                	lw	a3,4(a4)
    1a74:	852e                	mv	a0,a1
    1a76:	438c                	lw	a1,0(a5)
    1a78:	0086a803          	lw	a6,8(a3)
    1a7c:	cdd4                	sw	a3,28(a1)
    1a7e:	438c                	lw	a1,0(a5)
    1a80:	0305a023          	sw	a6,32(a1)
    1a84:	0007a803          	lw	a6,0(a5)
    1a88:	468c                	lw	a1,8(a3)
    1a8a:	0861                	addi	a6,a6,24
    1a8c:	0105a223          	sw	a6,4(a1)
    1a90:	0007a803          	lw	a6,0(a5)
    1a94:	439c                	lw	a5,0(a5)
    1a96:	0861                	addi	a6,a6,24
    1a98:	0106a423          	sw	a6,8(a3)
    1a9c:	d798                	sw	a4,40(a5)
    1a9e:	431c                	lw	a5,0(a4)
    1aa0:	0785                	addi	a5,a5,1
    1aa2:	c31c                	sw	a5,0(a4)
    1aa4:	c211                	beqz	a2,1aa8 <vTaskPlaceOnEventListRestricted+0x6c>
    1aa6:	557d                	li	a0,-1
    1aa8:	85b2                	mv	a1,a2
    1aaa:	f6aff0ef          	jal	ra,1214 <prvAddCurrentTaskToDelayedList>
    1aae:	a95fe06f          	j	542 <__riscv_restore_0>

00001ab2 <xTaskRemoveFromEventList>:
    1ab2:	455c                	lw	a5,12(a0)
    1ab4:	47dc                	lw	a5,12(a5)
    1ab6:	e795                	bnez	a5,1ae2 <xTaskRemoveFromEventList+0x30>
    1ab8:	a67fe2ef          	jal	t0,51e <__riscv_save_0>
    1abc:	6789                	lui	a5,0x2
    1abe:	80078793          	addi	a5,a5,-2048 # 1800 <xTaskResumeAll+0x6e>
    1ac2:	30079073          	csrw	mstatus,a5
    1ac6:	0000d637          	lui	a2,0xd
    1aca:	6585                	lui	a1,0x1
    1acc:	0000d537          	lui	a0,0xd
    1ad0:	0fc60613          	addi	a2,a2,252 # d0fc <_read+0xe2>
    1ad4:	c8258593          	addi	a1,a1,-894 # c82 <prvUnlockQueue+0xc>
    1ad8:	06c50513          	addi	a0,a0,108 # d06c <_read+0x52>
    1adc:	43c0a0ef          	jal	ra,bf18 <iprintf>
    1ae0:	a001                	j	1ae0 <xTaskRemoveFromEventList+0x2e>
    1ae2:	4fd0                	lw	a2,28(a5)
    1ae4:	5394                	lw	a3,32(a5)
    1ae6:	5798                	lw	a4,40(a5)
    1ae8:	01878593          	addi	a1,a5,24
    1aec:	c614                	sw	a3,8(a2)
    1aee:	c2d0                	sw	a2,4(a3)
    1af0:	4350                	lw	a2,4(a4)
    1af2:	00b61363          	bne	a2,a1,1af8 <xTaskRemoveFromEventList+0x46>
    1af6:	c354                	sw	a3,4(a4)
    1af8:	4314                	lw	a3,0(a4)
    1afa:	0207a423          	sw	zero,40(a5)
    1afe:	16fd                	addi	a3,a3,-1
    1b00:	c314                	sw	a3,0(a4)
    1b02:	20000737          	lui	a4,0x20000
    1b06:	0dc72703          	lw	a4,220(a4) # 200000dc <uxSchedulerSuspended>
    1b0a:	57d4                	lw	a3,44(a5)
    1b0c:	ef25                	bnez	a4,1b84 <xTaskRemoveFromEventList+0xd2>
    1b0e:	478c                	lw	a1,8(a5)
    1b10:	47d0                	lw	a2,12(a5)
    1b12:	4bd8                	lw	a4,20(a5)
    1b14:	c590                	sw	a2,8(a1)
    1b16:	47d0                	lw	a2,12(a5)
    1b18:	4348                	lw	a0,4(a4)
    1b1a:	c24c                	sw	a1,4(a2)
    1b1c:	00478593          	addi	a1,a5,4
    1b20:	00b51363          	bne	a0,a1,1b26 <xTaskRemoveFromEventList+0x74>
    1b24:	c350                	sw	a2,4(a4)
    1b26:	4310                	lw	a2,0(a4)
    1b28:	0007aa23          	sw	zero,20(a5)
    1b2c:	167d                	addi	a2,a2,-1
    1b2e:	c310                	sw	a2,0(a4)
    1b30:	20000737          	lui	a4,0x20000
    1b34:	0e470713          	addi	a4,a4,228 # 200000e4 <uxTopReadyPriority>
    1b38:	4310                	lw	a2,0(a4)
    1b3a:	00d67363          	bgeu	a2,a3,1b40 <xTaskRemoveFromEventList+0x8e>
    1b3e:	c314                	sw	a3,0(a4)
    1b40:	4751                	li	a4,20
    1b42:	02e68633          	mul	a2,a3,a4
    1b46:	20003737          	lui	a4,0x20003
    1b4a:	1bc70713          	addi	a4,a4,444 # 200031bc <pxReadyTasksLists>
    1b4e:	9732                	add	a4,a4,a2
    1b50:	4350                	lw	a2,4(a4)
    1b52:	4608                	lw	a0,8(a2)
    1b54:	c790                	sw	a2,8(a5)
    1b56:	c7c8                	sw	a0,12(a5)
    1b58:	4608                	lw	a0,8(a2)
    1b5a:	c14c                	sw	a1,4(a0)
    1b5c:	c60c                	sw	a1,8(a2)
    1b5e:	cbd8                	sw	a4,20(a5)
    1b60:	431c                	lw	a5,0(a4)
    1b62:	4501                	li	a0,0
    1b64:	0785                	addi	a5,a5,1
    1b66:	c31c                	sw	a5,0(a4)
    1b68:	200007b7          	lui	a5,0x20000
    1b6c:	0c87a783          	lw	a5,200(a5) # 200000c8 <pxCurrentTCB>
    1b70:	57dc                	lw	a5,44(a5)
    1b72:	00d7f863          	bgeu	a5,a3,1b82 <xTaskRemoveFromEventList+0xd0>
    1b76:	200007b7          	lui	a5,0x20000
    1b7a:	4705                	li	a4,1
    1b7c:	10e7a023          	sw	a4,256(a5) # 20000100 <xYieldPending>
    1b80:	4505                	li	a0,1
    1b82:	8082                	ret
    1b84:	20003737          	lui	a4,0x20003
    1b88:	27070713          	addi	a4,a4,624 # 20003270 <xPendingReadyList>
    1b8c:	4350                	lw	a2,4(a4)
    1b8e:	4608                	lw	a0,8(a2)
    1b90:	cfd0                	sw	a2,28(a5)
    1b92:	d388                	sw	a0,32(a5)
    1b94:	4608                	lw	a0,8(a2)
    1b96:	c14c                	sw	a1,4(a0)
    1b98:	c60c                	sw	a1,8(a2)
    1b9a:	d798                	sw	a4,40(a5)
    1b9c:	b7d1                	j	1b60 <xTaskRemoveFromEventList+0xae>

00001b9e <vTaskInternalSetTimeOutState>:
    1b9e:	200007b7          	lui	a5,0x20000
    1ba2:	0f07a783          	lw	a5,240(a5) # 200000f0 <xNumOfOverflows>
    1ba6:	c11c                	sw	a5,0(a0)
    1ba8:	200007b7          	lui	a5,0x20000
    1bac:	0fc7a783          	lw	a5,252(a5) # 200000fc <xTickCount>
    1bb0:	c15c                	sw	a5,4(a0)
    1bb2:	8082                	ret

00001bb4 <xTaskCheckForTimeOut>:
    1bb4:	96bfe2ef          	jal	t0,51e <__riscv_save_0>
    1bb8:	1141                	addi	sp,sp,-16
    1bba:	e505                	bnez	a0,1be2 <xTaskCheckForTimeOut+0x2e>
    1bbc:	6789                	lui	a5,0x2
    1bbe:	80078793          	addi	a5,a5,-2048 # 1800 <xTaskResumeAll+0x6e>
    1bc2:	30079073          	csrw	mstatus,a5
    1bc6:	0000d637          	lui	a2,0xd
    1bca:	6585                	lui	a1,0x1
    1bcc:	0000d537          	lui	a0,0xd
    1bd0:	0fc60613          	addi	a2,a2,252 # d0fc <_read+0xe2>
    1bd4:	cfd58593          	addi	a1,a1,-771 # cfd <xQueueGenericReset+0x19>
    1bd8:	06c50513          	addi	a0,a0,108 # d06c <_read+0x52>
    1bdc:	33c0a0ef          	jal	ra,bf18 <iprintf>
    1be0:	a001                	j	1be0 <xTaskCheckForTimeOut+0x2c>
    1be2:	e585                	bnez	a1,1c0a <xTaskCheckForTimeOut+0x56>
    1be4:	6789                	lui	a5,0x2
    1be6:	80078793          	addi	a5,a5,-2048 # 1800 <xTaskResumeAll+0x6e>
    1bea:	30079073          	csrw	mstatus,a5
    1bee:	0000d637          	lui	a2,0xd
    1bf2:	6585                	lui	a1,0x1
    1bf4:	0000d537          	lui	a0,0xd
    1bf8:	0fc60613          	addi	a2,a2,252 # d0fc <_read+0xe2>
    1bfc:	cfe58593          	addi	a1,a1,-770 # cfe <xQueueGenericReset+0x1a>
    1c00:	06c50513          	addi	a0,a0,108 # d06c <_read+0x52>
    1c04:	3140a0ef          	jal	ra,bf18 <iprintf>
    1c08:	a001                	j	1c08 <xTaskCheckForTimeOut+0x54>
    1c0a:	c62e                	sw	a1,12(sp)
    1c0c:	c42a                	sw	a0,8(sp)
    1c0e:	edffe0ef          	jal	ra,aec <vPortEnterCritical>
    1c12:	20000737          	lui	a4,0x20000
    1c16:	200007b7          	lui	a5,0x20000
    1c1a:	0c870713          	addi	a4,a4,200 # 200000c8 <pxCurrentTCB>
    1c1e:	0fc7a683          	lw	a3,252(a5) # 200000fc <xTickCount>
    1c22:	431c                	lw	a5,0(a4)
    1c24:	4522                	lw	a0,8(sp)
    1c26:	45b2                	lw	a1,12(sp)
    1c28:	0617c783          	lbu	a5,97(a5)
    1c2c:	cb99                	beqz	a5,1c42 <xTaskCheckForTimeOut+0x8e>
    1c2e:	431c                	lw	a5,0(a4)
    1c30:	060780a3          	sb	zero,97(a5)
    1c34:	4405                	li	s0,1
    1c36:	ed1fe0ef          	jal	ra,b06 <vPortExitCritical>
    1c3a:	8522                	mv	a0,s0
    1c3c:	0141                	addi	sp,sp,16
    1c3e:	905fe06f          	j	542 <__riscv_restore_0>
    1c42:	419c                	lw	a5,0(a1)
    1c44:	577d                	li	a4,-1
    1c46:	4401                	li	s0,0
    1c48:	fee787e3          	beq	a5,a4,1c36 <xTaskCheckForTimeOut+0x82>
    1c4c:	20000637          	lui	a2,0x20000
    1c50:	0f062603          	lw	a2,240(a2) # 200000f0 <xNumOfOverflows>
    1c54:	00052803          	lw	a6,0(a0)
    1c58:	4158                	lw	a4,4(a0)
    1c5a:	00c80763          	beq	a6,a2,1c68 <xTaskCheckForTimeOut+0xb4>
    1c5e:	00e6e563          	bltu	a3,a4,1c68 <xTaskCheckForTimeOut+0xb4>
    1c62:	0005a023          	sw	zero,0(a1)
    1c66:	b7f9                	j	1c34 <xTaskCheckForTimeOut+0x80>
    1c68:	40e68633          	sub	a2,a3,a4
    1c6c:	fef67be3          	bgeu	a2,a5,1c62 <xTaskCheckForTimeOut+0xae>
    1c70:	8f95                	sub	a5,a5,a3
    1c72:	97ba                	add	a5,a5,a4
    1c74:	c19c                	sw	a5,0(a1)
    1c76:	3725                	jal	1b9e <vTaskInternalSetTimeOutState>
    1c78:	4401                	li	s0,0
    1c7a:	bf75                	j	1c36 <xTaskCheckForTimeOut+0x82>

00001c7c <vTaskMissedYield>:
    1c7c:	200007b7          	lui	a5,0x20000
    1c80:	4705                	li	a4,1
    1c82:	10e7a023          	sw	a4,256(a5) # 20000100 <xYieldPending>
    1c86:	8082                	ret

00001c88 <xTaskGetCurrentTaskHandle>:
    1c88:	200007b7          	lui	a5,0x20000
    1c8c:	0c87a503          	lw	a0,200(a5) # 200000c8 <pxCurrentTCB>
    1c90:	8082                	ret

00001c92 <xTaskGetSchedulerState>:
    1c92:	200007b7          	lui	a5,0x20000
    1c96:	0f87a783          	lw	a5,248(a5) # 200000f8 <xSchedulerRunning>
    1c9a:	4505                	li	a0,1
    1c9c:	cb81                	beqz	a5,1cac <xTaskGetSchedulerState+0x1a>
    1c9e:	200007b7          	lui	a5,0x20000
    1ca2:	0dc7a503          	lw	a0,220(a5) # 200000dc <uxSchedulerSuspended>
    1ca6:	00153513          	seqz	a0,a0
    1caa:	0506                	slli	a0,a0,0x1
    1cac:	8082                	ret

00001cae <xTaskPriorityDisinherit>:
    1cae:	e511                	bnez	a0,1cba <xTaskPriorityDisinherit+0xc>
    1cb0:	4501                	li	a0,0
    1cb2:	8082                	ret
    1cb4:	4501                	li	a0,0
    1cb6:	88dfe06f          	j	542 <__riscv_restore_0>
    1cba:	865fe2ef          	jal	t0,51e <__riscv_save_0>
    1cbe:	200007b7          	lui	a5,0x20000
    1cc2:	0c87a783          	lw	a5,200(a5) # 200000c8 <pxCurrentTCB>
    1cc6:	842a                	mv	s0,a0
    1cc8:	02a78563          	beq	a5,a0,1cf2 <xTaskPriorityDisinherit+0x44>
    1ccc:	6789                	lui	a5,0x2
    1cce:	80078793          	addi	a5,a5,-2048 # 1800 <xTaskResumeAll+0x6e>
    1cd2:	30079073          	csrw	mstatus,a5
    1cd6:	0000d637          	lui	a2,0xd
    1cda:	6585                	lui	a1,0x1
    1cdc:	0000d537          	lui	a0,0xd
    1ce0:	0fc60613          	addi	a2,a2,252 # d0fc <_read+0xe2>
    1ce4:	04f58593          	addi	a1,a1,79 # 104f <xQueueReceive+0xb7>
    1ce8:	06c50513          	addi	a0,a0,108 # d06c <_read+0x52>
    1cec:	22c0a0ef          	jal	ra,bf18 <iprintf>
    1cf0:	a001                	j	1cf0 <xTaskPriorityDisinherit+0x42>
    1cf2:	4fbc                	lw	a5,88(a5)
    1cf4:	e785                	bnez	a5,1d1c <xTaskPriorityDisinherit+0x6e>
    1cf6:	6789                	lui	a5,0x2
    1cf8:	80078793          	addi	a5,a5,-2048 # 1800 <xTaskResumeAll+0x6e>
    1cfc:	30079073          	csrw	mstatus,a5
    1d00:	0000d637          	lui	a2,0xd
    1d04:	6585                	lui	a1,0x1
    1d06:	0000d537          	lui	a0,0xd
    1d0a:	0fc60613          	addi	a2,a2,252 # d0fc <_read+0xe2>
    1d0e:	05058593          	addi	a1,a1,80 # 1050 <xQueueReceive+0xb8>
    1d12:	06c50513          	addi	a0,a0,108 # d06c <_read+0x52>
    1d16:	2020a0ef          	jal	ra,bf18 <iprintf>
    1d1a:	a001                	j	1d1a <xTaskPriorityDisinherit+0x6c>
    1d1c:	5554                	lw	a3,44(a0)
    1d1e:	4978                	lw	a4,84(a0)
    1d20:	17fd                	addi	a5,a5,-1
    1d22:	cd3c                	sw	a5,88(a0)
    1d24:	f8e688e3          	beq	a3,a4,1cb4 <xTaskPriorityDisinherit+0x6>
    1d28:	f7d1                	bnez	a5,1cb4 <xTaskPriorityDisinherit+0x6>
    1d2a:	00450493          	addi	s1,a0,4
    1d2e:	8526                	mv	a0,s1
    1d30:	e77fe0ef          	jal	ra,ba6 <uxListRemove>
    1d34:	487c                	lw	a5,84(s0)
    1d36:	471d                	li	a4,7
    1d38:	8f1d                	sub	a4,a4,a5
    1d3a:	cc18                	sw	a4,24(s0)
    1d3c:	20000737          	lui	a4,0x20000
    1d40:	0e470713          	addi	a4,a4,228 # 200000e4 <uxTopReadyPriority>
    1d44:	4314                	lw	a3,0(a4)
    1d46:	d45c                	sw	a5,44(s0)
    1d48:	00f6f363          	bgeu	a3,a5,1d4e <xTaskPriorityDisinherit+0xa0>
    1d4c:	c31c                	sw	a5,0(a4)
    1d4e:	4751                	li	a4,20
    1d50:	02e78733          	mul	a4,a5,a4
    1d54:	200037b7          	lui	a5,0x20003
    1d58:	1bc78793          	addi	a5,a5,444 # 200031bc <pxReadyTasksLists>
    1d5c:	4505                	li	a0,1
    1d5e:	97ba                	add	a5,a5,a4
    1d60:	43d8                	lw	a4,4(a5)
    1d62:	4714                	lw	a3,8(a4)
    1d64:	c418                	sw	a4,8(s0)
    1d66:	c454                	sw	a3,12(s0)
    1d68:	4714                	lw	a3,8(a4)
    1d6a:	c2c4                	sw	s1,4(a3)
    1d6c:	c704                	sw	s1,8(a4)
    1d6e:	4398                	lw	a4,0(a5)
    1d70:	c85c                	sw	a5,20(s0)
    1d72:	0705                	addi	a4,a4,1
    1d74:	c398                	sw	a4,0(a5)
    1d76:	b781                	j	1cb6 <xTaskPriorityDisinherit+0x8>

00001d78 <ulTaskGenericNotifyTake>:
    1d78:	fa6fe2ef          	jal	t0,51e <__riscv_save_0>
    1d7c:	1141                	addi	sp,sp,-16
    1d7e:	c505                	beqz	a0,1da6 <ulTaskGenericNotifyTake+0x2e>
    1d80:	6789                	lui	a5,0x2
    1d82:	80078793          	addi	a5,a5,-2048 # 1800 <xTaskResumeAll+0x6e>
    1d86:	30079073          	csrw	mstatus,a5
    1d8a:	0000d637          	lui	a2,0xd
    1d8e:	6585                	lui	a1,0x1
    1d90:	0000d537          	lui	a0,0xd
    1d94:	0fc60613          	addi	a2,a2,252 # d0fc <_read+0xe2>
    1d98:	26658593          	addi	a1,a1,614 # 1266 <prvAddCurrentTaskToDelayedList+0x52>
    1d9c:	06c50513          	addi	a0,a0,108 # d06c <_read+0x52>
    1da0:	1780a0ef          	jal	ra,bf18 <iprintf>
    1da4:	a001                	j	1da4 <ulTaskGenericNotifyTake+0x2c>
    1da6:	20000437          	lui	s0,0x20000
    1daa:	84ae                	mv	s1,a1
    1dac:	c632                	sw	a2,12(sp)
    1dae:	d3ffe0ef          	jal	ra,aec <vPortEnterCritical>
    1db2:	0c840793          	addi	a5,s0,200 # 200000c8 <pxCurrentTCB>
    1db6:	439c                	lw	a5,0(a5)
    1db8:	0c840413          	addi	s0,s0,200
    1dbc:	4ffc                	lw	a5,92(a5)
    1dbe:	e385                	bnez	a5,1dde <ulTaskGenericNotifyTake+0x66>
    1dc0:	401c                	lw	a5,0(s0)
    1dc2:	4632                	lw	a2,12(sp)
    1dc4:	4705                	li	a4,1
    1dc6:	06e78023          	sb	a4,96(a5)
    1dca:	ca11                	beqz	a2,1dde <ulTaskGenericNotifyTake+0x66>
    1dcc:	4585                	li	a1,1
    1dce:	8532                	mv	a0,a2
    1dd0:	c44ff0ef          	jal	ra,1214 <prvAddCurrentTaskToDelayedList>
    1dd4:	e000e7b7          	lui	a5,0xe000e
    1dd8:	6711                	lui	a4,0x4
    1dda:	20e7a023          	sw	a4,512(a5) # e000e200 <__freertos_irq_stack_top+0xc0009200>
    1dde:	d29fe0ef          	jal	ra,b06 <vPortExitCritical>
    1de2:	d0bfe0ef          	jal	ra,aec <vPortEnterCritical>
    1de6:	401c                	lw	a5,0(s0)
    1de8:	4fe8                	lw	a0,92(a5)
    1dea:	c509                	beqz	a0,1df4 <ulTaskGenericNotifyTake+0x7c>
    1dec:	401c                	lw	a5,0(s0)
    1dee:	cc89                	beqz	s1,1e08 <ulTaskGenericNotifyTake+0x90>
    1df0:	0407ae23          	sw	zero,92(a5)
    1df4:	401c                	lw	a5,0(s0)
    1df6:	c62a                	sw	a0,12(sp)
    1df8:	06078023          	sb	zero,96(a5)
    1dfc:	d0bfe0ef          	jal	ra,b06 <vPortExitCritical>
    1e00:	4532                	lw	a0,12(sp)
    1e02:	0141                	addi	sp,sp,16
    1e04:	f3efe06f          	j	542 <__riscv_restore_0>
    1e08:	fff50713          	addi	a4,a0,-1
    1e0c:	cff8                	sw	a4,92(a5)
    1e0e:	b7dd                	j	1df4 <ulTaskGenericNotifyTake+0x7c>

00001e10 <xTaskGenericNotify>:
    1e10:	f0efe2ef          	jal	t0,51e <__riscv_save_0>
    1e14:	1141                	addi	sp,sp,-16
    1e16:	c585                	beqz	a1,1e3e <xTaskGenericNotify+0x2e>
    1e18:	6789                	lui	a5,0x2
    1e1a:	80078793          	addi	a5,a5,-2048 # 1800 <xTaskResumeAll+0x6e>
    1e1e:	30079073          	csrw	mstatus,a5
    1e22:	0000d637          	lui	a2,0xd
    1e26:	6585                	lui	a1,0x1
    1e28:	0000d537          	lui	a0,0xd
    1e2c:	0fc60613          	addi	a2,a2,252 # d0fc <_read+0xe2>
    1e30:	30858593          	addi	a1,a1,776 # 1308 <prvIdleTask+0x4e>
    1e34:	06c50513          	addi	a0,a0,108 # d06c <_read+0x52>
    1e38:	0e00a0ef          	jal	ra,bf18 <iprintf>
    1e3c:	a001                	j	1e3c <xTaskGenericNotify+0x2c>
    1e3e:	e505                	bnez	a0,1e66 <xTaskGenericNotify+0x56>
    1e40:	6789                	lui	a5,0x2
    1e42:	80078793          	addi	a5,a5,-2048 # 1800 <xTaskResumeAll+0x6e>
    1e46:	30079073          	csrw	mstatus,a5
    1e4a:	0000d637          	lui	a2,0xd
    1e4e:	6585                	lui	a1,0x1
    1e50:	0000d537          	lui	a0,0xd
    1e54:	0fc60613          	addi	a2,a2,252 # d0fc <_read+0xe2>
    1e58:	30958593          	addi	a1,a1,777 # 1309 <prvIdleTask+0x4f>
    1e5c:	06c50513          	addi	a0,a0,108 # d06c <_read+0x52>
    1e60:	0b80a0ef          	jal	ra,bf18 <iprintf>
    1e64:	a001                	j	1e64 <xTaskGenericNotify+0x54>
    1e66:	c63a                	sw	a4,12(sp)
    1e68:	c436                	sw	a3,8(sp)
    1e6a:	c232                	sw	a2,4(sp)
    1e6c:	c02a                	sw	a0,0(sp)
    1e6e:	c7ffe0ef          	jal	ra,aec <vPortEnterCritical>
    1e72:	4732                	lw	a4,12(sp)
    1e74:	4502                	lw	a0,0(sp)
    1e76:	4612                	lw	a2,4(sp)
    1e78:	46a2                	lw	a3,8(sp)
    1e7a:	c319                	beqz	a4,1e80 <xTaskGenericNotify+0x70>
    1e7c:	4d7c                	lw	a5,92(a0)
    1e7e:	c31c                	sw	a5,0(a4)
    1e80:	06054783          	lbu	a5,96(a0)
    1e84:	4709                	li	a4,2
    1e86:	06e50023          	sb	a4,96(a0)
    1e8a:	4711                	li	a4,4
    1e8c:	0ff7f793          	andi	a5,a5,255
    1e90:	04d76063          	bltu	a4,a3,1ed0 <xTaskGenericNotify+0xc0>
    1e94:	6735                	lui	a4,0xd
    1e96:	0e870713          	addi	a4,a4,232 # d0e8 <_read+0xce>
    1e9a:	068a                	slli	a3,a3,0x2
    1e9c:	96ba                	add	a3,a3,a4
    1e9e:	4298                	lw	a4,0(a3)
    1ea0:	8702                	jr	a4
    1ea2:	4d78                	lw	a4,92(a0)
    1ea4:	8e59                	or	a2,a2,a4
    1ea6:	cd70                	sw	a2,92(a0)
    1ea8:	a021                	j	1eb0 <xTaskGenericNotify+0xa0>
    1eaa:	4d78                	lw	a4,92(a0)
    1eac:	0705                	addi	a4,a4,1
    1eae:	cd78                	sw	a4,92(a0)
    1eb0:	4705                	li	a4,1
    1eb2:	04e78763          	beq	a5,a4,1f00 <xTaskGenericNotify+0xf0>
    1eb6:	4505                	li	a0,1
    1eb8:	c02a                	sw	a0,0(sp)
    1eba:	c4dfe0ef          	jal	ra,b06 <vPortExitCritical>
    1ebe:	4502                	lw	a0,0(sp)
    1ec0:	0141                	addi	sp,sp,16
    1ec2:	e80fe06f          	j	542 <__riscv_restore_0>
    1ec6:	4709                	li	a4,2
    1ec8:	fce79fe3          	bne	a5,a4,1ea6 <xTaskGenericNotify+0x96>
    1ecc:	4501                	li	a0,0
    1ece:	b7ed                	j	1eb8 <xTaskGenericNotify+0xa8>
    1ed0:	20000737          	lui	a4,0x20000
    1ed4:	0fc72703          	lw	a4,252(a4) # 200000fc <xTickCount>
    1ed8:	df61                	beqz	a4,1eb0 <xTaskGenericNotify+0xa0>
    1eda:	6789                	lui	a5,0x2
    1edc:	80078793          	addi	a5,a5,-2048 # 1800 <xTaskResumeAll+0x6e>
    1ee0:	30079073          	csrw	mstatus,a5
    1ee4:	0000d637          	lui	a2,0xd
    1ee8:	6585                	lui	a1,0x1
    1eea:	0000d537          	lui	a0,0xd
    1eee:	0fc60613          	addi	a2,a2,252 # d0fc <_read+0xe2>
    1ef2:	33e58593          	addi	a1,a1,830 # 133e <xTaskCreate+0x32>
    1ef6:	06c50513          	addi	a0,a0,108 # d06c <_read+0x52>
    1efa:	01e0a0ef          	jal	ra,bf18 <iprintf>
    1efe:	a001                	j	1efe <xTaskGenericNotify+0xee>
    1f00:	4514                	lw	a3,8(a0)
    1f02:	4558                	lw	a4,12(a0)
    1f04:	495c                	lw	a5,20(a0)
    1f06:	00450613          	addi	a2,a0,4
    1f0a:	c698                	sw	a4,8(a3)
    1f0c:	4558                	lw	a4,12(a0)
    1f0e:	c354                	sw	a3,4(a4)
    1f10:	43d4                	lw	a3,4(a5)
    1f12:	00c69363          	bne	a3,a2,1f18 <xTaskGenericNotify+0x108>
    1f16:	c3d8                	sw	a4,4(a5)
    1f18:	4398                	lw	a4,0(a5)
    1f1a:	00052a23          	sw	zero,20(a0)
    1f1e:	177d                	addi	a4,a4,-1
    1f20:	c398                	sw	a4,0(a5)
    1f22:	200007b7          	lui	a5,0x20000
    1f26:	0e478793          	addi	a5,a5,228 # 200000e4 <uxTopReadyPriority>
    1f2a:	5558                	lw	a4,44(a0)
    1f2c:	4394                	lw	a3,0(a5)
    1f2e:	00e6f363          	bgeu	a3,a4,1f34 <xTaskGenericNotify+0x124>
    1f32:	c398                	sw	a4,0(a5)
    1f34:	47d1                	li	a5,20
    1f36:	02f706b3          	mul	a3,a4,a5
    1f3a:	200037b7          	lui	a5,0x20003
    1f3e:	1bc78793          	addi	a5,a5,444 # 200031bc <pxReadyTasksLists>
    1f42:	97b6                	add	a5,a5,a3
    1f44:	43d4                	lw	a3,4(a5)
    1f46:	468c                	lw	a1,8(a3)
    1f48:	c514                	sw	a3,8(a0)
    1f4a:	c54c                	sw	a1,12(a0)
    1f4c:	468c                	lw	a1,8(a3)
    1f4e:	c1d0                	sw	a2,4(a1)
    1f50:	c690                	sw	a2,8(a3)
    1f52:	4394                	lw	a3,0(a5)
    1f54:	c95c                	sw	a5,20(a0)
    1f56:	0685                	addi	a3,a3,1
    1f58:	c394                	sw	a3,0(a5)
    1f5a:	551c                	lw	a5,40(a0)
    1f5c:	c785                	beqz	a5,1f84 <xTaskGenericNotify+0x174>
    1f5e:	6789                	lui	a5,0x2
    1f60:	80078793          	addi	a5,a5,-2048 # 1800 <xTaskResumeAll+0x6e>
    1f64:	30079073          	csrw	mstatus,a5
    1f68:	0000d637          	lui	a2,0xd
    1f6c:	6585                	lui	a1,0x1
    1f6e:	0000d537          	lui	a0,0xd
    1f72:	0fc60613          	addi	a2,a2,252 # d0fc <_read+0xe2>
    1f76:	34d58593          	addi	a1,a1,845 # 134d <xTaskCreate+0x41>
    1f7a:	06c50513          	addi	a0,a0,108 # d06c <_read+0x52>
    1f7e:	79b090ef          	jal	ra,bf18 <iprintf>
    1f82:	a001                	j	1f82 <xTaskGenericNotify+0x172>
    1f84:	200007b7          	lui	a5,0x20000
    1f88:	0c87a783          	lw	a5,200(a5) # 200000c8 <pxCurrentTCB>
    1f8c:	57dc                	lw	a5,44(a5)
    1f8e:	f2e7f4e3          	bgeu	a5,a4,1eb6 <xTaskGenericNotify+0xa6>
    1f92:	e000e7b7          	lui	a5,0xe000e
    1f96:	6711                	lui	a4,0x4
    1f98:	20e7a023          	sw	a4,512(a5) # e000e200 <__freertos_irq_stack_top+0xc0009200>
    1f9c:	bf29                	j	1eb6 <xTaskGenericNotify+0xa6>

00001f9e <vTaskGenericNotifyGiveFromISR>:
    1f9e:	d80fe2ef          	jal	t0,51e <__riscv_save_0>
    1fa2:	1141                	addi	sp,sp,-16
    1fa4:	e505                	bnez	a0,1fcc <vTaskGenericNotifyGiveFromISR+0x2e>
    1fa6:	6789                	lui	a5,0x2
    1fa8:	80078793          	addi	a5,a5,-2048 # 1800 <xTaskResumeAll+0x6e>
    1fac:	30079073          	csrw	mstatus,a5
    1fb0:	0000d637          	lui	a2,0xd
    1fb4:	6585                	lui	a1,0x1
    1fb6:	0000d537          	lui	a0,0xd
    1fba:	0fc60613          	addi	a2,a2,252 # d0fc <_read+0xe2>
    1fbe:	40c58593          	addi	a1,a1,1036 # 140c <xTaskCreate+0x100>
    1fc2:	06c50513          	addi	a0,a0,108 # d06c <_read+0x52>
    1fc6:	753090ef          	jal	ra,bf18 <iprintf>
    1fca:	a001                	j	1fca <vTaskGenericNotifyGiveFromISR+0x2c>
    1fcc:	c585                	beqz	a1,1ff4 <vTaskGenericNotifyGiveFromISR+0x56>
    1fce:	6789                	lui	a5,0x2
    1fd0:	80078793          	addi	a5,a5,-2048 # 1800 <xTaskResumeAll+0x6e>
    1fd4:	30079073          	csrw	mstatus,a5
    1fd8:	0000d637          	lui	a2,0xd
    1fdc:	6585                	lui	a1,0x1
    1fde:	0000d537          	lui	a0,0xd
    1fe2:	0fc60613          	addi	a2,a2,252 # d0fc <_read+0xe2>
    1fe6:	40d58593          	addi	a1,a1,1037 # 140d <xTaskCreate+0x101>
    1fea:	06c50513          	addi	a0,a0,108 # d06c <_read+0x52>
    1fee:	72b090ef          	jal	ra,bf18 <iprintf>
    1ff2:	a001                	j	1ff2 <vTaskGenericNotifyGiveFromISR+0x54>
    1ff4:	842a                	mv	s0,a0
    1ff6:	c632                	sw	a2,12(sp)
    1ff8:	b55fe0ef          	jal	ra,b4c <xPortSetInterruptMask>
    1ffc:	4789                	li	a5,2
    1ffe:	06044703          	lbu	a4,96(s0)
    2002:	06f40023          	sb	a5,96(s0)
    2006:	4c7c                	lw	a5,92(s0)
    2008:	0785                	addi	a5,a5,1
    200a:	cc7c                	sw	a5,92(s0)
    200c:	4785                	li	a5,1
    200e:	0ae79e63          	bne	a5,a4,20ca <vTaskGenericNotifyGiveFromISR+0x12c>
    2012:	541c                	lw	a5,40(s0)
    2014:	4632                	lw	a2,12(sp)
    2016:	c785                	beqz	a5,203e <vTaskGenericNotifyGiveFromISR+0xa0>
    2018:	6789                	lui	a5,0x2
    201a:	80078793          	addi	a5,a5,-2048 # 1800 <xTaskResumeAll+0x6e>
    201e:	30079073          	csrw	mstatus,a5
    2022:	0000d637          	lui	a2,0xd
    2026:	6585                	lui	a1,0x1
    2028:	0000d537          	lui	a0,0xd
    202c:	0fc60613          	addi	a2,a2,252 # d0fc <_read+0xe2>
    2030:	43358593          	addi	a1,a1,1075 # 1433 <xTaskCreate+0x127>
    2034:	06c50513          	addi	a0,a0,108 # d06c <_read+0x52>
    2038:	6e1090ef          	jal	ra,bf18 <iprintf>
    203c:	a001                	j	203c <vTaskGenericNotifyGiveFromISR+0x9e>
    203e:	200007b7          	lui	a5,0x20000
    2042:	0dc7a783          	lw	a5,220(a5) # 200000dc <uxSchedulerSuspended>
    2046:	5458                	lw	a4,44(s0)
    2048:	e7d1                	bnez	a5,20d4 <vTaskGenericNotifyGiveFromISR+0x136>
    204a:	440c                	lw	a1,8(s0)
    204c:	4454                	lw	a3,12(s0)
    204e:	485c                	lw	a5,20(s0)
    2050:	c594                	sw	a3,8(a1)
    2052:	4454                	lw	a3,12(s0)
    2054:	0047a803          	lw	a6,4(a5)
    2058:	c2cc                	sw	a1,4(a3)
    205a:	00440593          	addi	a1,s0,4
    205e:	00b81363          	bne	a6,a1,2064 <vTaskGenericNotifyGiveFromISR+0xc6>
    2062:	c3d4                	sw	a3,4(a5)
    2064:	4394                	lw	a3,0(a5)
    2066:	00042a23          	sw	zero,20(s0)
    206a:	16fd                	addi	a3,a3,-1
    206c:	c394                	sw	a3,0(a5)
    206e:	200007b7          	lui	a5,0x20000
    2072:	0e478793          	addi	a5,a5,228 # 200000e4 <uxTopReadyPriority>
    2076:	4394                	lw	a3,0(a5)
    2078:	00e6f363          	bgeu	a3,a4,207e <vTaskGenericNotifyGiveFromISR+0xe0>
    207c:	c398                	sw	a4,0(a5)
    207e:	47d1                	li	a5,20
    2080:	02f706b3          	mul	a3,a4,a5
    2084:	200037b7          	lui	a5,0x20003
    2088:	1bc78793          	addi	a5,a5,444 # 200031bc <pxReadyTasksLists>
    208c:	97b6                	add	a5,a5,a3
    208e:	43d4                	lw	a3,4(a5)
    2090:	0086a803          	lw	a6,8(a3)
    2094:	c414                	sw	a3,8(s0)
    2096:	01042623          	sw	a6,12(s0)
    209a:	0086a803          	lw	a6,8(a3)
    209e:	00b82223          	sw	a1,4(a6)
    20a2:	c68c                	sw	a1,8(a3)
    20a4:	c85c                	sw	a5,20(s0)
    20a6:	4394                	lw	a3,0(a5)
    20a8:	0685                	addi	a3,a3,1
    20aa:	c394                	sw	a3,0(a5)
    20ac:	200007b7          	lui	a5,0x20000
    20b0:	0c87a783          	lw	a5,200(a5) # 200000c8 <pxCurrentTCB>
    20b4:	57dc                	lw	a5,44(a5)
    20b6:	00e7fa63          	bgeu	a5,a4,20ca <vTaskGenericNotifyGiveFromISR+0x12c>
    20ba:	c219                	beqz	a2,20c0 <vTaskGenericNotifyGiveFromISR+0x122>
    20bc:	4785                	li	a5,1
    20be:	c21c                	sw	a5,0(a2)
    20c0:	200007b7          	lui	a5,0x20000
    20c4:	4705                	li	a4,1
    20c6:	10e7a023          	sw	a4,256(a5) # 20000100 <xYieldPending>
    20ca:	a8ffe0ef          	jal	ra,b58 <vPortClearInterruptMask>
    20ce:	0141                	addi	sp,sp,16
    20d0:	c72fe06f          	j	542 <__riscv_restore_0>
    20d4:	200037b7          	lui	a5,0x20003
    20d8:	27078793          	addi	a5,a5,624 # 20003270 <xPendingReadyList>
    20dc:	43d4                	lw	a3,4(a5)
    20de:	468c                	lw	a1,8(a3)
    20e0:	cc54                	sw	a3,28(s0)
    20e2:	d00c                	sw	a1,32(s0)
    20e4:	0086a803          	lw	a6,8(a3)
    20e8:	01840593          	addi	a1,s0,24
    20ec:	00b82223          	sw	a1,4(a6)
    20f0:	c68c                	sw	a1,8(a3)
    20f2:	d41c                	sw	a5,40(s0)
    20f4:	bf4d                	j	20a6 <vTaskGenericNotifyGiveFromISR+0x108>

000020f6 <prvCheckForValidListAndQueue>:
    20f6:	c28fe2ef          	jal	t0,51e <__riscv_save_0>
    20fa:	20000437          	lui	s0,0x20000
    20fe:	9effe0ef          	jal	ra,aec <vPortEnterCritical>
    2102:	11040413          	addi	s0,s0,272 # 20000110 <xTimerQueue>
    2106:	401c                	lw	a5,0(s0)
    2108:	e7b1                	bnez	a5,2154 <prvCheckForValidListAndQueue+0x5e>
    210a:	20003537          	lui	a0,0x20003
    210e:	2ac50913          	addi	s2,a0,684 # 200032ac <xActiveTimerList1>
    2112:	2ac50513          	addi	a0,a0,684
    2116:	a49fe0ef          	jal	ra,b5e <vListInitialise>
    211a:	20003537          	lui	a0,0x20003
    211e:	2c050493          	addi	s1,a0,704 # 200032c0 <xActiveTimerList2>
    2122:	2c050513          	addi	a0,a0,704
    2126:	a39fe0ef          	jal	ra,b5e <vListInitialise>
    212a:	200007b7          	lui	a5,0x20000
    212e:	1127a223          	sw	s2,260(a5) # 20000104 <pxCurrentTimerList>
    2132:	4601                	li	a2,0
    2134:	200007b7          	lui	a5,0x20000
    2138:	45c1                	li	a1,16
    213a:	4511                	li	a0,4
    213c:	1097a423          	sw	s1,264(a5) # 20000108 <pxOverflowTimerList>
    2140:	c61fe0ef          	jal	ra,da0 <xQueueGenericCreate>
    2144:	c008                	sw	a0,0(s0)
    2146:	c519                	beqz	a0,2154 <prvCheckForValidListAndQueue+0x5e>
    2148:	0000d5b7          	lui	a1,0xd
    214c:	14c58593          	addi	a1,a1,332 # d14c <_read+0x132>
    2150:	fd9fe0ef          	jal	ra,1128 <vQueueAddToRegistry>
    2154:	9b3fe0ef          	jal	ra,b06 <vPortExitCritical>
    2158:	beafe06f          	j	542 <__riscv_restore_0>

0000215c <prvInsertTimerInActiveList>:
    215c:	bc2fe2ef          	jal	t0,51e <__riscv_save_0>
    2160:	c14c                	sw	a1,4(a0)
    2162:	c908                	sw	a0,16(a0)
    2164:	87aa                	mv	a5,a0
    2166:	02b66263          	bltu	a2,a1,218a <prvInsertTimerInActiveList+0x2e>
    216a:	4d18                	lw	a4,24(a0)
    216c:	8e15                	sub	a2,a2,a3
    216e:	4505                	li	a0,1
    2170:	00e67b63          	bgeu	a2,a4,2186 <prvInsertTimerInActiveList+0x2a>
    2174:	00478593          	addi	a1,a5,4
    2178:	200007b7          	lui	a5,0x20000
    217c:	1087a503          	lw	a0,264(a5) # 20000108 <pxOverflowTimerList>
    2180:	9f9fe0ef          	jal	ra,b78 <vListInsert>
    2184:	4501                	li	a0,0
    2186:	bbcfe06f          	j	542 <__riscv_restore_0>
    218a:	00d67563          	bgeu	a2,a3,2194 <prvInsertTimerInActiveList+0x38>
    218e:	4505                	li	a0,1
    2190:	fed5fbe3          	bgeu	a1,a3,2186 <prvInsertTimerInActiveList+0x2a>
    2194:	00478593          	addi	a1,a5,4
    2198:	200007b7          	lui	a5,0x20000
    219c:	1047a503          	lw	a0,260(a5) # 20000104 <pxCurrentTimerList>
    21a0:	b7c5                	j	2180 <prvInsertTimerInActiveList+0x24>

000021a2 <prvReloadTimer>:
    21a2:	b7cfe2ef          	jal	t0,51e <__riscv_save_0>
    21a6:	842a                	mv	s0,a0
    21a8:	84ae                	mv	s1,a1
    21aa:	8932                	mv	s2,a2
    21ac:	4c0c                	lw	a1,24(s0)
    21ae:	86a6                	mv	a3,s1
    21b0:	864a                	mv	a2,s2
    21b2:	95a6                	add	a1,a1,s1
    21b4:	8522                	mv	a0,s0
    21b6:	375d                	jal	215c <prvInsertTimerInActiveList>
    21b8:	e119                	bnez	a0,21be <prvReloadTimer+0x1c>
    21ba:	b88fe06f          	j	542 <__riscv_restore_0>
    21be:	4c1c                	lw	a5,24(s0)
    21c0:	8522                	mv	a0,s0
    21c2:	94be                	add	s1,s1,a5
    21c4:	501c                	lw	a5,32(s0)
    21c6:	9782                	jalr	a5
    21c8:	b7d5                	j	21ac <prvReloadTimer+0xa>

000021ca <prvProcessExpiredTimer>:
    21ca:	b54fe2ef          	jal	t0,51e <__riscv_save_0>
    21ce:	200007b7          	lui	a5,0x20000
    21d2:	1047a783          	lw	a5,260(a5) # 20000104 <pxCurrentTimerList>
    21d6:	1141                	addi	sp,sp,-16
    21d8:	84aa                	mv	s1,a0
    21da:	47dc                	lw	a5,12(a5)
    21dc:	c62e                	sw	a1,12(sp)
    21de:	47c0                	lw	s0,12(a5)
    21e0:	00440513          	addi	a0,s0,4
    21e4:	9c3fe0ef          	jal	ra,ba6 <uxListRemove>
    21e8:	02444783          	lbu	a5,36(s0)
    21ec:	4632                	lw	a2,12(sp)
    21ee:	0047f713          	andi	a4,a5,4
    21f2:	cb11                	beqz	a4,2206 <prvProcessExpiredTimer+0x3c>
    21f4:	85a6                	mv	a1,s1
    21f6:	8522                	mv	a0,s0
    21f8:	376d                	jal	21a2 <prvReloadTimer>
    21fa:	501c                	lw	a5,32(s0)
    21fc:	8522                	mv	a0,s0
    21fe:	9782                	jalr	a5
    2200:	0141                	addi	sp,sp,16
    2202:	b40fe06f          	j	542 <__riscv_restore_0>
    2206:	9bf9                	andi	a5,a5,-2
    2208:	02f40223          	sb	a5,36(s0)
    220c:	b7fd                	j	21fa <prvProcessExpiredTimer+0x30>

0000220e <prvSwitchTimerLists>:
    220e:	b10fe2ef          	jal	t0,51e <__riscv_save_0>
    2212:	20000437          	lui	s0,0x20000
    2216:	10440693          	addi	a3,s0,260 # 20000104 <pxCurrentTimerList>
    221a:	4298                	lw	a4,0(a3)
    221c:	431c                	lw	a5,0(a4)
    221e:	eb91                	bnez	a5,2232 <prvSwitchTimerLists+0x24>
    2220:	200007b7          	lui	a5,0x20000
    2224:	10878793          	addi	a5,a5,264 # 20000108 <pxOverflowTimerList>
    2228:	4390                	lw	a2,0(a5)
    222a:	c398                	sw	a4,0(a5)
    222c:	c290                	sw	a2,0(a3)
    222e:	b14fe06f          	j	542 <__riscv_restore_0>
    2232:	475c                	lw	a5,12(a4)
    2234:	55fd                	li	a1,-1
    2236:	4388                	lw	a0,0(a5)
    2238:	3f49                	jal	21ca <prvProcessExpiredTimer>
    223a:	bff1                	j	2216 <prvSwitchTimerLists+0x8>

0000223c <prvTimerTask>:
    223c:	abafe2ef          	jal	t0,4f6 <__riscv_save_10>
    2240:	6935                	lui	s2,0xd
    2242:	1141                	addi	sp,sp,-16
    2244:	20000ab7          	lui	s5,0x20000
    2248:	200009b7          	lui	s3,0x20000
    224c:	20000b37          	lui	s6,0x20000
    2250:	20000bb7          	lui	s7,0x20000
    2254:	12890913          	addi	s2,s2,296 # d128 <_read+0x10e>
    2258:	104aa783          	lw	a5,260(s5) # 20000104 <pxCurrentTimerList>
    225c:	4398                	lw	a4,0(a5)
    225e:	cb29                	beqz	a4,22b0 <prvTimerTask+0x74>
    2260:	47dc                	lw	a5,12(a5)
    2262:	4c81                	li	s9,0
    2264:	0007ac03          	lw	s8,0(a5)
    2268:	b66ff0ef          	jal	ra,15ce <vTaskSuspendAll>
    226c:	b72ff0ef          	jal	ra,15de <xTaskGetTickCount>
    2270:	10c9a783          	lw	a5,268(s3) # 2000010c <xLastTime.5718>
    2274:	842a                	mv	s0,a0
    2276:	10c98493          	addi	s1,s3,268
    227a:	110b0a13          	addi	s4,s6,272 # 20000110 <xTimerQueue>
    227e:	02f56c63          	bltu	a0,a5,22b6 <prvTimerTask+0x7a>
    2282:	c088                	sw	a0,0(s1)
    2284:	020c8f63          	beqz	s9,22c2 <prvTimerTask+0x86>
    2288:	108ba783          	lw	a5,264(s7) # 20000108 <pxOverflowTimerList>
    228c:	4390                	lw	a2,0(a5)
    228e:	00163613          	seqz	a2,a2
    2292:	000a2503          	lw	a0,0(s4)
    2296:	408c05b3          	sub	a1,s8,s0
    229a:	efbfe0ef          	jal	ra,1194 <vQueueWaitForMessageRestricted>
    229e:	cf4ff0ef          	jal	ra,1792 <xTaskResumeAll>
    22a2:	ed11                	bnez	a0,22be <prvTimerTask+0x82>
    22a4:	e000e7b7          	lui	a5,0xe000e
    22a8:	6711                	lui	a4,0x4
    22aa:	20e7a023          	sw	a4,512(a5) # e000e200 <__freertos_irq_stack_top+0xc0009200>
    22ae:	a801                	j	22be <prvTimerTask+0x82>
    22b0:	4c85                	li	s9,1
    22b2:	4c01                	li	s8,0
    22b4:	bf55                	j	2268 <prvTimerTask+0x2c>
    22b6:	3fa1                	jal	220e <prvSwitchTimerLists>
    22b8:	c080                	sw	s0,0(s1)
    22ba:	cd8ff0ef          	jal	ra,1792 <xTaskResumeAll>
    22be:	4c21                	li	s8,8
    22c0:	a005                	j	22e0 <prvTimerTask+0xa4>
    22c2:	4601                	li	a2,0
    22c4:	fd8567e3          	bltu	a0,s8,2292 <prvTimerTask+0x56>
    22c8:	ccaff0ef          	jal	ra,1792 <xTaskResumeAll>
    22cc:	85a2                	mv	a1,s0
    22ce:	8562                	mv	a0,s8
    22d0:	3ded                	jal	21ca <prvProcessExpiredTimer>
    22d2:	b7f5                	j	22be <prvTimerTask+0x82>
    22d4:	4792                	lw	a5,4(sp)
    22d6:	45b2                	lw	a1,12(sp)
    22d8:	9782                	jalr	a5
    22da:	4782                	lw	a5,0(sp)
    22dc:	0007dd63          	bgez	a5,22f6 <prvTimerTask+0xba>
    22e0:	000a2503          	lw	a0,0(s4)
    22e4:	4601                	li	a2,0
    22e6:	858a                	mv	a1,sp
    22e8:	cb1fe0ef          	jal	ra,f98 <xQueueReceive>
    22ec:	d535                	beqz	a0,2258 <prvTimerTask+0x1c>
    22ee:	4782                	lw	a5,0(sp)
    22f0:	4522                	lw	a0,8(sp)
    22f2:	fe07c1e3          	bltz	a5,22d4 <prvTimerTask+0x98>
    22f6:	4422                	lw	s0,8(sp)
    22f8:	485c                	lw	a5,20(s0)
    22fa:	e395                	bnez	a5,231e <prvTimerTask+0xe2>
    22fc:	ae2ff0ef          	jal	ra,15de <xTaskGetTickCount>
    2300:	409c                	lw	a5,0(s1)
    2302:	8caa                	mv	s9,a0
    2304:	00f57363          	bgeu	a0,a5,230a <prvTimerTask+0xce>
    2308:	3719                	jal	220e <prvSwitchTimerLists>
    230a:	4782                	lw	a5,0(sp)
    230c:	0194a023          	sw	s9,0(s1)
    2310:	17fd                	addi	a5,a5,-1
    2312:	fcfc67e3          	bltu	s8,a5,22e0 <prvTimerTask+0xa4>
    2316:	078a                	slli	a5,a5,0x2
    2318:	97ca                	add	a5,a5,s2
    231a:	439c                	lw	a5,0(a5)
    231c:	8782                	jr	a5
    231e:	00440513          	addi	a0,s0,4
    2322:	885fe0ef          	jal	ra,ba6 <uxListRemove>
    2326:	bfd9                	j	22fc <prvTimerTask+0xc0>
    2328:	02444783          	lbu	a5,36(s0)
    232c:	4c0c                	lw	a1,24(s0)
    232e:	4692                	lw	a3,4(sp)
    2330:	0017e793          	ori	a5,a5,1
    2334:	02f40223          	sb	a5,36(s0)
    2338:	8666                	mv	a2,s9
    233a:	95b6                	add	a1,a1,a3
    233c:	8522                	mv	a0,s0
    233e:	3d39                	jal	215c <prvInsertTimerInActiveList>
    2340:	d145                	beqz	a0,22e0 <prvTimerTask+0xa4>
    2342:	02444783          	lbu	a5,36(s0)
    2346:	0047f713          	andi	a4,a5,4
    234a:	cb19                	beqz	a4,2360 <prvTimerTask+0x124>
    234c:	4c1c                	lw	a5,24(s0)
    234e:	4592                	lw	a1,4(sp)
    2350:	8666                	mv	a2,s9
    2352:	8522                	mv	a0,s0
    2354:	95be                	add	a1,a1,a5
    2356:	35b1                	jal	21a2 <prvReloadTimer>
    2358:	501c                	lw	a5,32(s0)
    235a:	8522                	mv	a0,s0
    235c:	9782                	jalr	a5
    235e:	b749                	j	22e0 <prvTimerTask+0xa4>
    2360:	9bf9                	andi	a5,a5,-2
    2362:	02f40223          	sb	a5,36(s0)
    2366:	bfcd                	j	2358 <prvTimerTask+0x11c>
    2368:	02444783          	lbu	a5,36(s0)
    236c:	9bf9                	andi	a5,a5,-2
    236e:	02f40223          	sb	a5,36(s0)
    2372:	b7bd                	j	22e0 <prvTimerTask+0xa4>
    2374:	02444783          	lbu	a5,36(s0)
    2378:	4592                	lw	a1,4(sp)
    237a:	0017e793          	ori	a5,a5,1
    237e:	02f40223          	sb	a5,36(s0)
    2382:	cc0c                	sw	a1,24(s0)
    2384:	e19d                	bnez	a1,23aa <prvTimerTask+0x16e>
    2386:	6789                	lui	a5,0x2
    2388:	80078793          	addi	a5,a5,-2048 # 1800 <xTaskResumeAll+0x6e>
    238c:	30079073          	csrw	mstatus,a5
    2390:	0000d637          	lui	a2,0xd
    2394:	0000d537          	lui	a0,0xd
    2398:	15460613          	addi	a2,a2,340 # d154 <_read+0x13a>
    239c:	35900593          	li	a1,857
    23a0:	06c50513          	addi	a0,a0,108 # d06c <_read+0x52>
    23a4:	375090ef          	jal	ra,bf18 <iprintf>
    23a8:	a001                	j	23a8 <prvTimerTask+0x16c>
    23aa:	86e6                	mv	a3,s9
    23ac:	8666                	mv	a2,s9
    23ae:	95e6                	add	a1,a1,s9
    23b0:	8522                	mv	a0,s0
    23b2:	336d                	jal	215c <prvInsertTimerInActiveList>
    23b4:	b735                	j	22e0 <prvTimerTask+0xa4>
    23b6:	02444783          	lbu	a5,36(s0)
    23ba:	0027f713          	andi	a4,a5,2
    23be:	f75d                	bnez	a4,236c <prvTimerTask+0x130>
    23c0:	8522                	mv	a0,s0
    23c2:	d40fe0ef          	jal	ra,902 <vPortFree>
    23c6:	bf29                	j	22e0 <prvTimerTask+0xa4>

000023c8 <xTimerCreateTimerTask>:
    23c8:	956fe2ef          	jal	t0,51e <__riscv_save_0>
    23cc:	d2bff0ef          	jal	ra,20f6 <prvCheckForValidListAndQueue>
    23d0:	200007b7          	lui	a5,0x20000
    23d4:	1107a783          	lw	a5,272(a5) # 20000110 <xTimerQueue>
    23d8:	e39d                	bnez	a5,23fe <xTimerCreateTimerTask+0x36>
    23da:	6789                	lui	a5,0x2
    23dc:	80078793          	addi	a5,a5,-2048 # 1800 <xTaskResumeAll+0x6e>
    23e0:	30079073          	csrw	mstatus,a5
    23e4:	0000d637          	lui	a2,0xd
    23e8:	0000d537          	lui	a0,0xd
    23ec:	15460613          	addi	a2,a2,340 # d154 <_read+0x13a>
    23f0:	11900593          	li	a1,281
    23f4:	06c50513          	addi	a0,a0,108 # d06c <_read+0x52>
    23f8:	321090ef          	jal	ra,bf18 <iprintf>
    23fc:	a001                	j	23fc <xTimerCreateTimerTask+0x34>
    23fe:	200007b7          	lui	a5,0x20000
    2402:	0000d5b7          	lui	a1,0xd
    2406:	00002537          	lui	a0,0x2
    240a:	11478793          	addi	a5,a5,276 # 20000114 <xTimerTaskHandle>
    240e:	4719                	li	a4,6
    2410:	4681                	li	a3,0
    2412:	10000613          	li	a2,256
    2416:	17858593          	addi	a1,a1,376 # d178 <_read+0x15e>
    241a:	23c50513          	addi	a0,a0,572 # 223c <prvTimerTask>
    241e:	eeffe0ef          	jal	ra,130c <xTaskCreate>
    2422:	dd45                	beqz	a0,23da <xTimerCreateTimerTask+0x12>
    2424:	91efe06f          	j	542 <__riscv_restore_0>

00002428 <compute_azimuth>:
    2428:	8f6fe2ef          	jal	t0,51e <__riscv_save_0>
    242c:	1141                	addi	sp,sp,-16
    242e:	842a                	mv	s0,a0
    2430:	852e                	mv	a0,a1
    2432:	5f4090ef          	jal	ra,ba26 <__extendsfdf2>
    2436:	c42a                	sw	a0,8(sp)
    2438:	8522                	mv	a0,s0
    243a:	c62e                	sw	a1,12(sp)
    243c:	5ea090ef          	jal	ra,ba26 <__extendsfdf2>
    2440:	4622                	lw	a2,8(sp)
    2442:	46b2                	lw	a3,12(sp)
    2444:	601030ef          	jal	ra,6244 <atan2>
    2448:	68a090ef          	jal	ra,bad2 <__truncdfsf2>
    244c:	0000d7b7          	lui	a5,0xd
    2450:	1a07a583          	lw	a1,416(a5) # d1a0 <_read+0x186>
    2454:	6b6080ef          	jal	ra,ab0a <__addsf3>
    2458:	5ce090ef          	jal	ra,ba26 <__extendsfdf2>
    245c:	0000d7b7          	lui	a5,0xd
    2460:	1a87a603          	lw	a2,424(a5) # d1a8 <_read+0x18e>
    2464:	1ac7a683          	lw	a3,428(a5)
    2468:	12f070ef          	jal	ra,9d96 <__muldf3>
    246c:	666090ef          	jal	ra,bad2 <__truncdfsf2>
    2470:	0141                	addi	sp,sp,16
    2472:	8d0fe06f          	j	542 <__riscv_restore_0>

00002476 <kalman_filter>:
    2476:	88efe2ef          	jal	t0,504 <__riscv_save_4>
    247a:	1141                	addi	sp,sp,-16
    247c:	842e                	mv	s0,a1
    247e:	84aa                	mv	s1,a0
    2480:	85b2                	mv	a1,a2
    2482:	853a                	mv	a0,a4
    2484:	893e                	mv	s2,a5
    2486:	c636                	sw	a3,12(sp)
    2488:	c442                	sw	a6,8(sp)
    248a:	c23a                	sw	a4,4(sp)
    248c:	521080ef          	jal	ra,b1ac <__mulsf3>
    2490:	85aa                	mv	a1,a0
    2492:	4088                	lw	a0,0(s1)
    2494:	676080ef          	jal	ra,ab0a <__addsf3>
    2498:	4712                	lw	a4,4(sp)
    249a:	c088                	sw	a0,0(s1)
    249c:	85ba                	mv	a1,a4
    249e:	853a                	mv	a0,a4
    24a0:	50d080ef          	jal	ra,b1ac <__mulsf3>
    24a4:	85ca                	mv	a1,s2
    24a6:	507080ef          	jal	ra,b1ac <__mulsf3>
    24aa:	85ca                	mv	a1,s2
    24ac:	501080ef          	jal	ra,b1ac <__mulsf3>
    24b0:	400c                	lw	a1,0(s0)
    24b2:	658080ef          	jal	ra,ab0a <__addsf3>
    24b6:	4822                	lw	a6,8(sp)
    24b8:	892a                	mv	s2,a0
    24ba:	c008                	sw	a0,0(s0)
    24bc:	85c2                	mv	a1,a6
    24be:	8542                	mv	a0,a6
    24c0:	4ed080ef          	jal	ra,b1ac <__mulsf3>
    24c4:	85ca                	mv	a1,s2
    24c6:	644080ef          	jal	ra,ab0a <__addsf3>
    24ca:	85aa                	mv	a1,a0
    24cc:	854a                	mv	a0,s2
    24ce:	1a7080ef          	jal	ra,ae74 <__divsf3>
    24d2:	46b2                	lw	a3,12(sp)
    24d4:	0004a983          	lw	s3,0(s1)
    24d8:	892a                	mv	s2,a0
    24da:	8536                	mv	a0,a3
    24dc:	85ce                	mv	a1,s3
    24de:	763080ef          	jal	ra,b440 <__subsf3>
    24e2:	85ca                	mv	a1,s2
    24e4:	4c9080ef          	jal	ra,b1ac <__mulsf3>
    24e8:	85ce                	mv	a1,s3
    24ea:	620080ef          	jal	ra,ab0a <__addsf3>
    24ee:	0000d7b7          	lui	a5,0xd
    24f2:	c088                	sw	a0,0(s1)
    24f4:	1b07a503          	lw	a0,432(a5) # d1b0 <_read+0x196>
    24f8:	85ca                	mv	a1,s2
    24fa:	747080ef          	jal	ra,b440 <__subsf3>
    24fe:	85aa                	mv	a1,a0
    2500:	4008                	lw	a0,0(s0)
    2502:	4ab080ef          	jal	ra,b1ac <__mulsf3>
    2506:	c008                	sw	a0,0(s0)
    2508:	0141                	addi	sp,sp,16
    250a:	82efe06f          	j	538 <__riscv_restore_4>

0000250e <kalman_filter_2d>:
    250e:	fe9fd2ef          	jal	t0,4f6 <__riscv_save_10>
    2512:	7179                	addi	sp,sp,-48
    2514:	200034b7          	lui	s1,0x20003
    2518:	20003937          	lui	s2,0x20003
    251c:	8c2a                	mv	s8,a0
    251e:	860a                	mv	a2,sp
    2520:	34c48593          	addi	a1,s1,844 # 2000334c <S>
    2524:	2d490513          	addi	a0,s2,724 # 200032d4 <F>
    2528:	76a000ef          	jal	ra,2c92 <matrix_multiply>
    252c:	200035b7          	lui	a1,0x20003
    2530:	20003537          	lui	a0,0x20003
    2534:	0070                	addi	a2,sp,12
    2536:	35858593          	addi	a1,a1,856 # 20003358 <U>
    253a:	2e050513          	addi	a0,a0,736 # 200032e0 <G>
    253e:	754000ef          	jal	ra,2c92 <matrix_multiply>
    2542:	34c48613          	addi	a2,s1,844
    2546:	006c                	addi	a1,sp,12
    2548:	850a                	mv	a0,sp
    254a:	630000ef          	jal	ra,2b7a <matrix_add>
    254e:	4502                	lw	a0,0(sp)
    2550:	20003437          	lui	s0,0x20003
    2554:	20003a37          	lui	s4,0x20003
    2558:	76c090ef          	jal	ra,bcc4 <free>
    255c:	4532                	lw	a0,12(sp)
    255e:	20003ab7          	lui	s5,0x20003
    2562:	310a8993          	addi	s3,s5,784 # 20003310 <L>
    2566:	75e090ef          	jal	ra,bcc4 <free>
    256a:	860a                	mv	a2,sp
    256c:	32840593          	addi	a1,s0,808 # 20003328 <P>
    2570:	2d490513          	addi	a0,s2,724
    2574:	71e000ef          	jal	ra,2c92 <matrix_multiply>
    2578:	082c                	addi	a1,sp,24
    257a:	2d490513          	addi	a0,s2,724
    257e:	7c4000ef          	jal	ra,2d42 <matrix_transpose>
    2582:	0070                	addi	a2,sp,12
    2584:	082c                	addi	a1,sp,24
    2586:	850a                	mv	a0,sp
    2588:	70a000ef          	jal	ra,2c92 <matrix_multiply>
    258c:	200035b7          	lui	a1,0x20003
    2590:	32840613          	addi	a2,s0,808
    2594:	33458593          	addi	a1,a1,820 # 20003334 <Q>
    2598:	0068                	addi	a0,sp,12
    259a:	5e0000ef          	jal	ra,2b7a <matrix_add>
    259e:	4502                	lw	a0,0(sp)
    25a0:	34c48b93          	addi	s7,s1,844
    25a4:	32840b13          	addi	s6,s0,808
    25a8:	71c090ef          	jal	ra,bcc4 <free>
    25ac:	4532                	lw	a0,12(sp)
    25ae:	716090ef          	jal	ra,bcc4 <free>
    25b2:	104c                	addi	a1,sp,36
    25b4:	2eca0513          	addi	a0,s4,748 # 200032ec <H>
    25b8:	78a000ef          	jal	ra,2d42 <matrix_transpose>
    25bc:	860a                	mv	a2,sp
    25be:	32840593          	addi	a1,s0,808
    25c2:	2eca0513          	addi	a0,s4,748
    25c6:	6cc000ef          	jal	ra,2c92 <matrix_multiply>
    25ca:	0070                	addi	a2,sp,12
    25cc:	104c                	addi	a1,sp,36
    25ce:	850a                	mv	a0,sp
    25d0:	6c2000ef          	jal	ra,2c92 <matrix_multiply>
    25d4:	200035b7          	lui	a1,0x20003
    25d8:	310a8613          	addi	a2,s5,784
    25dc:	34058593          	addi	a1,a1,832 # 20003340 <R>
    25e0:	0068                	addi	a0,sp,12
    25e2:	2b61                	jal	2b7a <matrix_add>
    25e4:	4502                	lw	a0,0(sp)
    25e6:	6de090ef          	jal	ra,bcc4 <free>
    25ea:	4532                	lw	a0,12(sp)
    25ec:	6d8090ef          	jal	ra,bcc4 <free>
    25f0:	0009a983          	lw	s3,0(s3)
    25f4:	0000d7b7          	lui	a5,0xd
    25f8:	1b07a503          	lw	a0,432(a5) # d1b0 <_read+0x196>
    25fc:	0009a583          	lw	a1,0(s3)
    2600:	075080ef          	jal	ra,ae74 <__divsf3>
    2604:	00a9a023          	sw	a0,0(s3)
    2608:	860a                	mv	a2,sp
    260a:	104c                	addi	a1,sp,36
    260c:	32840513          	addi	a0,s0,808
    2610:	682000ef          	jal	ra,2c92 <matrix_multiply>
    2614:	200039b7          	lui	s3,0x20003
    2618:	30498613          	addi	a2,s3,772 # 20003304 <K>
    261c:	310a8593          	addi	a1,s5,784
    2620:	850a                	mv	a0,sp
    2622:	670000ef          	jal	ra,2c92 <matrix_multiply>
    2626:	4502                	lw	a0,0(sp)
    2628:	20003ab7          	lui	s5,0x20003
    262c:	698090ef          	jal	ra,bcc4 <free>
    2630:	31caa783          	lw	a5,796(s5) # 2000331c <M>
    2634:	860a                	mv	a2,sp
    2636:	34c48593          	addi	a1,s1,844
    263a:	0187a023          	sw	s8,0(a5)
    263e:	2eca0513          	addi	a0,s4,748
    2642:	650000ef          	jal	ra,2c92 <matrix_multiply>
    2646:	0070                	addi	a2,sp,12
    2648:	858a                	mv	a1,sp
    264a:	31ca8513          	addi	a0,s5,796
    264e:	5b8000ef          	jal	ra,2c06 <matrix_subtract>
    2652:	4502                	lw	a0,0(sp)
    2654:	670090ef          	jal	ra,bcc4 <free>
    2658:	860a                	mv	a2,sp
    265a:	006c                	addi	a1,sp,12
    265c:	30498513          	addi	a0,s3,772
    2660:	632000ef          	jal	ra,2c92 <matrix_multiply>
    2664:	4532                	lw	a0,12(sp)
    2666:	65e090ef          	jal	ra,bcc4 <free>
    266a:	0070                	addi	a2,sp,12
    266c:	858a                	mv	a1,sp
    266e:	34c48513          	addi	a0,s1,844
    2672:	2321                	jal	2b7a <matrix_add>
    2674:	000ba503          	lw	a0,0(s7)
    2678:	64c090ef          	jal	ra,bcc4 <free>
    267c:	4502                	lw	a0,0(sp)
    267e:	646090ef          	jal	ra,bcc4 <free>
    2682:	47b2                	lw	a5,12(sp)
    2684:	860a                	mv	a2,sp
    2686:	2d490593          	addi	a1,s2,724
    268a:	30498513          	addi	a0,s3,772
    268e:	00fba023          	sw	a5,0(s7)
    2692:	600000ef          	jal	ra,2c92 <matrix_multiply>
    2696:	20003537          	lui	a0,0x20003
    269a:	0070                	addi	a2,sp,12
    269c:	858a                	mv	a1,sp
    269e:	2f850513          	addi	a0,a0,760 # 200032f8 <I>
    26a2:	2395                	jal	2c06 <matrix_subtract>
    26a4:	4502                	lw	a0,0(sp)
    26a6:	61e090ef          	jal	ra,bcc4 <free>
    26aa:	860a                	mv	a2,sp
    26ac:	32840593          	addi	a1,s0,808
    26b0:	0068                	addi	a0,sp,12
    26b2:	5e0000ef          	jal	ra,2c92 <matrix_multiply>
    26b6:	000b2503          	lw	a0,0(s6)
    26ba:	60a090ef          	jal	ra,bcc4 <free>
    26be:	4782                	lw	a5,0(sp)
    26c0:	00fb2023          	sw	a5,0(s6)
    26c4:	6145                	addi	sp,sp,48
    26c6:	e69fd06f          	j	52e <__riscv_restore_10>

000026ca <SensorFuseWithKalman>:
    26ca:	e25fd2ef          	jal	t0,4ee <__riscv_save_12>
    26ce:	842a                	mv	s0,a0
    26d0:	4148                	lw	a0,4(a0)
    26d2:	1101                	addi	sp,sp,-32
    26d4:	84ae                	mv	s1,a1
    26d6:	350090ef          	jal	ra,ba26 <__extendsfdf2>
    26da:	89ae                	mv	s3,a1
    26dc:	400c                	lw	a1,0(s0)
    26de:	00842a83          	lw	s5,8(s0)
    26e2:	892a                	mv	s2,a0
    26e4:	852e                	mv	a0,a1
    26e6:	2c7080ef          	jal	ra,b1ac <__mulsf3>
    26ea:	8a2a                	mv	s4,a0
    26ec:	85d6                	mv	a1,s5
    26ee:	8556                	mv	a0,s5
    26f0:	2bd080ef          	jal	ra,b1ac <__mulsf3>
    26f4:	85aa                	mv	a1,a0
    26f6:	8552                	mv	a0,s4
    26f8:	412080ef          	jal	ra,ab0a <__addsf3>
    26fc:	32a090ef          	jal	ra,ba26 <__extendsfdf2>
    2700:	66b030ef          	jal	ra,656a <sqrt>
    2704:	862a                	mv	a2,a0
    2706:	86ae                	mv	a3,a1
    2708:	854a                	mv	a0,s2
    270a:	85ce                	mv	a1,s3
    270c:	709060ef          	jal	ra,9614 <__divdf3>
    2710:	6ce030ef          	jal	ra,5dde <atan>
    2714:	8c2a                	mv	s8,a0
    2716:	4008                	lw	a0,0(s0)
    2718:	8cae                	mv	s9,a1
    271a:	0000dd37          	lui	s10,0xd
    271e:	308090ef          	jal	ra,ba26 <__extendsfdf2>
    2722:	89ae                	mv	s3,a1
    2724:	404c                	lw	a1,4(s0)
    2726:	00842a83          	lw	s5,8(s0)
    272a:	892a                	mv	s2,a0
    272c:	852e                	mv	a0,a1
    272e:	27f080ef          	jal	ra,b1ac <__mulsf3>
    2732:	8a2a                	mv	s4,a0
    2734:	85d6                	mv	a1,s5
    2736:	8556                	mv	a0,s5
    2738:	275080ef          	jal	ra,b1ac <__mulsf3>
    273c:	85aa                	mv	a1,a0
    273e:	8552                	mv	a0,s4
    2740:	3ca080ef          	jal	ra,ab0a <__addsf3>
    2744:	2e2090ef          	jal	ra,ba26 <__extendsfdf2>
    2748:	623030ef          	jal	ra,656a <sqrt>
    274c:	862a                	mv	a2,a0
    274e:	86ae                	mv	a3,a1
    2750:	854a                	mv	a0,s2
    2752:	85ce                	mv	a1,s3
    2754:	6c1060ef          	jal	ra,9614 <__divdf3>
    2758:	686030ef          	jal	ra,5dde <atan>
    275c:	80818a93          	addi	s5,gp,-2040 # 20000088 <Ts>
    2760:	000aa703          	lw	a4,0(s5)
    2764:	0000d7b7          	lui	a5,0xd
    2768:	1907a903          	lw	s2,400(a5) # d190 <_read+0x176>
    276c:	8b2a                	mv	s6,a0
    276e:	0000d7b7          	lui	a5,0xd
    2772:	8bae                	mv	s7,a1
    2774:	8562                	mv	a0,s8
    2776:	85e6                	mv	a1,s9
    2778:	1947aa03          	lw	s4,404(a5) # d194 <_read+0x17a>
    277c:	c43a                	sw	a4,8(sp)
    277e:	354090ef          	jal	ra,bad2 <__truncdfsf2>
    2782:	2a4090ef          	jal	ra,ba26 <__extendsfdf2>
    2786:	0000d9b7          	lui	s3,0xd
    278a:	1a89a603          	lw	a2,424(s3) # d1a8 <_read+0x18e>
    278e:	1ac9a683          	lw	a3,428(s3)
    2792:	604070ef          	jal	ra,9d96 <__muldf3>
    2796:	33c090ef          	jal	ra,bad2 <__truncdfsf2>
    279a:	4450                	lw	a2,12(s0)
    279c:	4722                	lw	a4,8(sp)
    279e:	884a                	mv	a6,s2
    27a0:	87d2                	mv	a5,s4
    27a2:	86aa                	mv	a3,a0
    27a4:	01448593          	addi	a1,s1,20
    27a8:	00848513          	addi	a0,s1,8
    27ac:	ccbff0ef          	jal	ra,2476 <kalman_filter>
    27b0:	000aa703          	lw	a4,0(s5)
    27b4:	85de                	mv	a1,s7
    27b6:	855a                	mv	a0,s6
    27b8:	c43a                	sw	a4,8(sp)
    27ba:	318090ef          	jal	ra,bad2 <__truncdfsf2>
    27be:	800008b7          	lui	a7,0x80000
    27c2:	00a8c533          	xor	a0,a7,a0
    27c6:	260090ef          	jal	ra,ba26 <__extendsfdf2>
    27ca:	1a89a603          	lw	a2,424(s3)
    27ce:	1ac9a683          	lw	a3,428(s3)
    27d2:	5c4070ef          	jal	ra,9d96 <__muldf3>
    27d6:	2fc090ef          	jal	ra,bad2 <__truncdfsf2>
    27da:	4722                	lw	a4,8(sp)
    27dc:	4810                	lw	a2,16(s0)
    27de:	884a                	mv	a6,s2
    27e0:	87d2                	mv	a5,s4
    27e2:	86aa                	mv	a3,a0
    27e4:	01c48593          	addi	a1,s1,28
    27e8:	01048513          	addi	a0,s1,16
    27ec:	c8bff0ef          	jal	ra,2476 <kalman_filter>
    27f0:	4488                	lw	a0,8(s1)
    27f2:	234090ef          	jal	ra,ba26 <__extendsfdf2>
    27f6:	198d2603          	lw	a2,408(s10) # d198 <_read+0x17e>
    27fa:	19cd2683          	lw	a3,412(s10)
    27fe:	598070ef          	jal	ra,9d96 <__muldf3>
    2802:	2d0090ef          	jal	ra,bad2 <__truncdfsf2>
    2806:	220090ef          	jal	ra,ba26 <__extendsfdf2>
    280a:	892a                	mv	s2,a0
    280c:	89ae                	mv	s3,a1
    280e:	10b030ef          	jal	ra,6118 <cos>
    2812:	8c2a                	mv	s8,a0
    2814:	5008                	lw	a0,32(s0)
    2816:	8cae                	mv	s9,a1
    2818:	20e090ef          	jal	ra,ba26 <__extendsfdf2>
    281c:	8b2a                	mv	s6,a0
    281e:	8bae                	mv	s7,a1
    2820:	854a                	mv	a0,s2
    2822:	85ce                	mv	a1,s3
    2824:	18d030ef          	jal	ra,61b0 <sin>
    2828:	c42a                	sw	a0,8(sp)
    282a:	4c08                	lw	a0,24(s0)
    282c:	c62e                	sw	a1,12(sp)
    282e:	1f8090ef          	jal	ra,ba26 <__extendsfdf2>
    2832:	8662                	mv	a2,s8
    2834:	86e6                	mv	a3,s9
    2836:	560070ef          	jal	ra,9d96 <__muldf3>
    283a:	4622                	lw	a2,8(sp)
    283c:	46b2                	lw	a3,12(sp)
    283e:	892a                	mv	s2,a0
    2840:	89ae                	mv	s3,a1
    2842:	855a                	mv	a0,s6
    2844:	85de                	mv	a1,s7
    2846:	550070ef          	jal	ra,9d96 <__muldf3>
    284a:	862a                	mv	a2,a0
    284c:	86ae                	mv	a3,a1
    284e:	854a                	mv	a0,s2
    2850:	85ce                	mv	a1,s3
    2852:	692060ef          	jal	ra,8ee4 <__adddf3>
    2856:	cc2a                	sw	a0,24(sp)
    2858:	4888                	lw	a0,16(s1)
    285a:	ce2e                	sw	a1,28(sp)
    285c:	1ca090ef          	jal	ra,ba26 <__extendsfdf2>
    2860:	198d2603          	lw	a2,408(s10)
    2864:	19cd2683          	lw	a3,412(s10)
    2868:	52e070ef          	jal	ra,9d96 <__muldf3>
    286c:	266090ef          	jal	ra,bad2 <__truncdfsf2>
    2870:	1b6090ef          	jal	ra,ba26 <__extendsfdf2>
    2874:	8d2a                	mv	s10,a0
    2876:	8dae                	mv	s11,a1
    2878:	0a1030ef          	jal	ra,6118 <cos>
    287c:	892a                	mv	s2,a0
    287e:	89ae                	mv	s3,a1
    2880:	856a                	mv	a0,s10
    2882:	85ee                	mv	a1,s11
    2884:	12d030ef          	jal	ra,61b0 <sin>
    2888:	8d2a                	mv	s10,a0
    288a:	4c48                	lw	a0,28(s0)
    288c:	8dae                	mv	s11,a1
    288e:	198090ef          	jal	ra,ba26 <__extendsfdf2>
    2892:	864a                	mv	a2,s2
    2894:	86ce                	mv	a3,s3
    2896:	500070ef          	jal	ra,9d96 <__muldf3>
    289a:	c82a                	sw	a0,16(sp)
    289c:	ca2e                	sw	a1,20(sp)
    289e:	866a                	mv	a2,s10
    28a0:	86ee                	mv	a3,s11
    28a2:	855a                	mv	a0,s6
    28a4:	85de                	mv	a1,s7
    28a6:	4f0070ef          	jal	ra,9d96 <__muldf3>
    28aa:	4342                	lw	t1,16(sp)
    28ac:	43d2                	lw	t2,20(sp)
    28ae:	862a                	mv	a2,a0
    28b0:	86ae                	mv	a3,a1
    28b2:	851a                	mv	a0,t1
    28b4:	859e                	mv	a1,t2
    28b6:	62e060ef          	jal	ra,8ee4 <__adddf3>
    28ba:	218090ef          	jal	ra,bad2 <__truncdfsf2>
    28be:	4762                	lw	a4,24(sp)
    28c0:	47f2                	lw	a5,28(sp)
    28c2:	8b2a                	mv	s6,a0
    28c4:	853a                	mv	a0,a4
    28c6:	85be                	mv	a1,a5
    28c8:	20a090ef          	jal	ra,bad2 <__truncdfsf2>
    28cc:	85da                	mv	a1,s6
    28ce:	b5bff0ef          	jal	ra,2428 <compute_azimuth>
    28d2:	0000d7b7          	lui	a5,0xd
    28d6:	1b07a803          	lw	a6,432(a5) # d1b0 <_read+0x196>
    28da:	000aa703          	lw	a4,0(s5)
    28de:	4850                	lw	a2,20(s0)
    28e0:	87d2                	mv	a5,s4
    28e2:	86aa                	mv	a3,a0
    28e4:	01848593          	addi	a1,s1,24
    28e8:	00c48513          	addi	a0,s1,12
    28ec:	b8bff0ef          	jal	ra,2476 <kalman_filter>
    28f0:	4008                	lw	a0,0(s0)
    28f2:	800008b7          	lui	a7,0x80000
    28f6:	01154533          	xor	a0,a0,a7
    28fa:	12c090ef          	jal	ra,ba26 <__extendsfdf2>
    28fe:	866a                	mv	a2,s10
    2900:	86ee                	mv	a3,s11
    2902:	494070ef          	jal	ra,9d96 <__muldf3>
    2906:	8b2a                	mv	s6,a0
    2908:	4048                	lw	a0,4(s0)
    290a:	8bae                	mv	s7,a1
    290c:	11a090ef          	jal	ra,ba26 <__extendsfdf2>
    2910:	4622                	lw	a2,8(sp)
    2912:	46b2                	lw	a3,12(sp)
    2914:	482070ef          	jal	ra,9d96 <__muldf3>
    2918:	864a                	mv	a2,s2
    291a:	86ce                	mv	a3,s3
    291c:	47a070ef          	jal	ra,9d96 <__muldf3>
    2920:	862a                	mv	a2,a0
    2922:	86ae                	mv	a3,a1
    2924:	855a                	mv	a0,s6
    2926:	85de                	mv	a1,s7
    2928:	5bc060ef          	jal	ra,8ee4 <__adddf3>
    292c:	8b2a                	mv	s6,a0
    292e:	4408                	lw	a0,8(s0)
    2930:	8bae                	mv	s7,a1
    2932:	0f4090ef          	jal	ra,ba26 <__extendsfdf2>
    2936:	8662                	mv	a2,s8
    2938:	86e6                	mv	a3,s9
    293a:	45c070ef          	jal	ra,9d96 <__muldf3>
    293e:	864a                	mv	a2,s2
    2940:	86ce                	mv	a3,s3
    2942:	454070ef          	jal	ra,9d96 <__muldf3>
    2946:	862a                	mv	a2,a0
    2948:	86ae                	mv	a3,a1
    294a:	855a                	mv	a0,s6
    294c:	85de                	mv	a1,s7
    294e:	596060ef          	jal	ra,8ee4 <__adddf3>
    2952:	180090ef          	jal	ra,bad2 <__truncdfsf2>
    2956:	000aa583          	lw	a1,0(s5)
    295a:	053080ef          	jal	ra,b1ac <__mulsf3>
    295e:	85aa                	mv	a1,a0
    2960:	40c8                	lw	a0,4(s1)
    2962:	1a8080ef          	jal	ra,ab0a <__addsf3>
    2966:	c0c8                	sw	a0,4(s1)
    2968:	5448                	lw	a0,44(s0)
    296a:	ba5ff0ef          	jal	ra,250e <kalman_filter_2d>
    296e:	200037b7          	lui	a5,0x20003
    2972:	34c7a783          	lw	a5,844(a5) # 2000334c <S>
    2976:	4398                	lw	a4,0(a5)
    2978:	c098                	sw	a4,0(s1)
    297a:	43dc                	lw	a5,4(a5)
    297c:	c0dc                	sw	a5,4(s1)
    297e:	6105                	addi	sp,sp,32
    2980:	babfd06f          	j	52a <__riscv_restore_12>

00002984 <Altitude_Kalman_2D_init>:
    2984:	b81fd2ef          	jal	t0,504 <__riscv_save_4>
    2988:	1141                	addi	sp,sp,-16
    298a:	4521                	li	a0,8
    298c:	32e090ef          	jal	ra,bcba <malloc>
    2990:	00000413          	li	s0,0
    2994:	86aa                	mv	a3,a0
    2996:	c100                	sw	s0,0(a0)
    2998:	c140                	sw	s0,4(a0)
    299a:	20003537          	lui	a0,0x20003
    299e:	4605                	li	a2,1
    29a0:	4589                	li	a1,2
    29a2:	34c50513          	addi	a0,a0,844 # 2000334c <S>
    29a6:	22f1                	jal	2b72 <matrix_create>
    29a8:	4541                	li	a0,16
    29aa:	310090ef          	jal	ra,bcba <malloc>
    29ae:	86aa                	mv	a3,a0
    29b0:	c100                	sw	s0,0(a0)
    29b2:	c140                	sw	s0,4(a0)
    29b4:	c500                	sw	s0,8(a0)
    29b6:	20003537          	lui	a0,0x20003
    29ba:	c6c0                	sw	s0,12(a3)
    29bc:	4609                	li	a2,2
    29be:	4589                	li	a1,2
    29c0:	32850513          	addi	a0,a0,808 # 20003328 <P>
    29c4:	227d                	jal	2b72 <matrix_create>
    29c6:	4541                	li	a0,16
    29c8:	2f2090ef          	jal	ra,bcba <malloc>
    29cc:	0000d7b7          	lui	a5,0xd
    29d0:	80818493          	addi	s1,gp,-2040 # 20000088 <Ts>
    29d4:	89a2                	mv	s3,s0
    29d6:	1b07a403          	lw	s0,432(a5) # d1b0 <_read+0x196>
    29da:	409c                	lw	a5,0(s1)
    29dc:	86aa                	mv	a3,a0
    29de:	c100                	sw	s0,0(a0)
    29e0:	c15c                	sw	a5,4(a0)
    29e2:	01352423          	sw	s3,8(a0)
    29e6:	c540                	sw	s0,12(a0)
    29e8:	20003537          	lui	a0,0x20003
    29ec:	4609                	li	a2,2
    29ee:	4589                	li	a1,2
    29f0:	2d450513          	addi	a0,a0,724 # 200032d4 <F>
    29f4:	2abd                	jal	2b72 <matrix_create>
    29f6:	4521                	li	a0,8
    29f8:	2c2090ef          	jal	ra,bcba <malloc>
    29fc:	4084                	lw	s1,0(s1)
    29fe:	892a                	mv	s2,a0
    2a00:	8526                	mv	a0,s1
    2a02:	024090ef          	jal	ra,ba26 <__extendsfdf2>
    2a06:	0000d7b7          	lui	a5,0xd
    2a0a:	1887a603          	lw	a2,392(a5) # d188 <_read+0x16e>
    2a0e:	18c7a683          	lw	a3,396(a5)
    2a12:	8a2a                	mv	s4,a0
    2a14:	8aae                	mv	s5,a1
    2a16:	380070ef          	jal	ra,9d96 <__muldf3>
    2a1a:	8652                	mv	a2,s4
    2a1c:	86d6                	mv	a3,s5
    2a1e:	378070ef          	jal	ra,9d96 <__muldf3>
    2a22:	0b0090ef          	jal	ra,bad2 <__truncdfsf2>
    2a26:	00992223          	sw	s1,4(s2)
    2a2a:	200034b7          	lui	s1,0x20003
    2a2e:	86ca                	mv	a3,s2
    2a30:	00a92023          	sw	a0,0(s2)
    2a34:	4605                	li	a2,1
    2a36:	4589                	li	a1,2
    2a38:	2e048513          	addi	a0,s1,736 # 200032e0 <G>
    2a3c:	2a1d                	jal	2b72 <matrix_create>
    2a3e:	4511                	li	a0,4
    2a40:	27a090ef          	jal	ra,bcba <malloc>
    2a44:	86aa                	mv	a3,a0
    2a46:	20003537          	lui	a0,0x20003
    2a4a:	0136a023          	sw	s3,0(a3)
    2a4e:	4605                	li	a2,1
    2a50:	4585                	li	a1,1
    2a52:	35850513          	addi	a0,a0,856 # 20003358 <U>
    2a56:	2a31                	jal	2b72 <matrix_create>
    2a58:	4521                	li	a0,8
    2a5a:	260090ef          	jal	ra,bcba <malloc>
    2a5e:	86aa                	mv	a3,a0
    2a60:	c100                	sw	s0,0(a0)
    2a62:	20003537          	lui	a0,0x20003
    2a66:	0136a223          	sw	s3,4(a3)
    2a6a:	4609                	li	a2,2
    2a6c:	4585                	li	a1,1
    2a6e:	2ec50513          	addi	a0,a0,748 # 200032ec <H>
    2a72:	2201                	jal	2b72 <matrix_create>
    2a74:	004c                	addi	a1,sp,4
    2a76:	2e048513          	addi	a0,s1,736
    2a7a:	24e1                	jal	2d42 <matrix_transpose>
    2a7c:	20003637          	lui	a2,0x20003
    2a80:	004c                	addi	a1,sp,4
    2a82:	33460613          	addi	a2,a2,820 # 20003334 <Q>
    2a86:	2e048513          	addi	a0,s1,736
    2a8a:	2421                	jal	2c92 <matrix_multiply>
    2a8c:	4511                	li	a0,4
    2a8e:	22c090ef          	jal	ra,bcba <malloc>
    2a92:	0000d7b7          	lui	a5,0xd
    2a96:	1807a783          	lw	a5,384(a5) # d180 <_read+0x166>
    2a9a:	86aa                	mv	a3,a0
    2a9c:	4605                	li	a2,1
    2a9e:	c11c                	sw	a5,0(a0)
    2aa0:	20003537          	lui	a0,0x20003
    2aa4:	4585                	li	a1,1
    2aa6:	34050513          	addi	a0,a0,832 # 20003340 <R>
    2aaa:	20e1                	jal	2b72 <matrix_create>
    2aac:	4511                	li	a0,4
    2aae:	20c090ef          	jal	ra,bcba <malloc>
    2ab2:	86aa                	mv	a3,a0
    2ab4:	20003537          	lui	a0,0x20003
    2ab8:	0136a023          	sw	s3,0(a3)
    2abc:	4605                	li	a2,1
    2abe:	4585                	li	a1,1
    2ac0:	31050513          	addi	a0,a0,784 # 20003310 <L>
    2ac4:	207d                	jal	2b72 <matrix_create>
    2ac6:	4521                	li	a0,8
    2ac8:	1f2090ef          	jal	ra,bcba <malloc>
    2acc:	86aa                	mv	a3,a0
    2ace:	20003537          	lui	a0,0x20003
    2ad2:	0136a023          	sw	s3,0(a3)
    2ad6:	0136a223          	sw	s3,4(a3)
    2ada:	4605                	li	a2,1
    2adc:	4589                	li	a1,2
    2ade:	30450513          	addi	a0,a0,772 # 20003304 <K>
    2ae2:	2841                	jal	2b72 <matrix_create>
    2ae4:	4511                	li	a0,4
    2ae6:	1d4090ef          	jal	ra,bcba <malloc>
    2aea:	86aa                	mv	a3,a0
    2aec:	20003537          	lui	a0,0x20003
    2af0:	0136a023          	sw	s3,0(a3)
    2af4:	4605                	li	a2,1
    2af6:	4585                	li	a1,1
    2af8:	31c50513          	addi	a0,a0,796 # 2000331c <M>
    2afc:	289d                	jal	2b72 <matrix_create>
    2afe:	4541                	li	a0,16
    2b00:	1ba090ef          	jal	ra,bcba <malloc>
    2b04:	86aa                	mv	a3,a0
    2b06:	c100                	sw	s0,0(a0)
    2b08:	0136a223          	sw	s3,4(a3)
    2b0c:	0136a423          	sw	s3,8(a3)
    2b10:	c540                	sw	s0,12(a0)
    2b12:	20003537          	lui	a0,0x20003
    2b16:	4609                	li	a2,2
    2b18:	4589                	li	a1,2
    2b1a:	2f850513          	addi	a0,a0,760 # 200032f8 <I>
    2b1e:	2891                	jal	2b72 <matrix_create>
    2b20:	894e                	mv	s2,s3
    2b22:	84ce                	mv	s1,s3
    2b24:	0141                	addi	sp,sp,16
    2b26:	a13fd06f          	j	538 <__riscv_restore_4>

00002b2a <pid_ctrl>:
    2b2a:	9dbfd2ef          	jal	t0,504 <__riscv_save_4>
    2b2e:	4544                	lw	s1,12(a0)
    2b30:	414c                	lw	a1,4(a0)
    2b32:	842a                	mv	s0,a0
    2b34:	8526                	mv	a0,s1
    2b36:	676080ef          	jal	ra,b1ac <__mulsf3>
    2b3a:	484c                	lw	a1,20(s0)
    2b3c:	7cf070ef          	jal	ra,ab0a <__addsf3>
    2b40:	480c                	lw	a1,16(s0)
    2b42:	892a                	mv	s2,a0
    2b44:	c848                	sw	a0,20(s0)
    2b46:	8526                	mv	a0,s1
    2b48:	0f9080ef          	jal	ra,b440 <__subsf3>
    2b4c:	440c                	lw	a1,8(s0)
    2b4e:	65e080ef          	jal	ra,b1ac <__mulsf3>
    2b52:	400c                	lw	a1,0(s0)
    2b54:	89aa                	mv	s3,a0
    2b56:	8526                	mv	a0,s1
    2b58:	654080ef          	jal	ra,b1ac <__mulsf3>
    2b5c:	85ca                	mv	a1,s2
    2b5e:	7ad070ef          	jal	ra,ab0a <__addsf3>
    2b62:	85aa                	mv	a1,a0
    2b64:	854e                	mv	a0,s3
    2b66:	7a5070ef          	jal	ra,ab0a <__addsf3>
    2b6a:	cc08                	sw	a0,24(s0)
    2b6c:	c804                	sw	s1,16(s0)
    2b6e:	9cbfd06f          	j	538 <__riscv_restore_4>

00002b72 <matrix_create>:
    2b72:	c14c                	sw	a1,4(a0)
    2b74:	c510                	sw	a2,8(a0)
    2b76:	c114                	sw	a3,0(a0)
    2b78:	8082                	ret

00002b7a <matrix_add>:
    2b7a:	97dfd2ef          	jal	t0,4f6 <__riscv_save_10>
    2b7e:	00452b83          	lw	s7,4(a0)
    2b82:	41dc                	lw	a5,4(a1)
    2b84:	06fb9b63          	bne	s7,a5,2bfa <matrix_add+0x80>
    2b88:	4500                	lw	s0,8(a0)
    2b8a:	4598                	lw	a4,8(a1)
    2b8c:	4781                	li	a5,0
    2b8e:	06e41763          	bne	s0,a4,2bfc <matrix_add+0x82>
    2b92:	84aa                	mv	s1,a0
    2b94:	028b8533          	mul	a0,s7,s0
    2b98:	c600                	sw	s0,8(a2)
    2b9a:	01762223          	sw	s7,4(a2)
    2b9e:	8932                	mv	s2,a2
    2ba0:	89ae                	mv	s3,a1
    2ba2:	4a81                	li	s5,0
    2ba4:	050a                	slli	a0,a0,0x2
    2ba6:	114090ef          	jal	ra,bcba <malloc>
    2baa:	00a92023          	sw	a0,0(s2)
    2bae:	00241913          	slli	s2,s0,0x2
    2bb2:	842a                	mv	s0,a0
    2bb4:	057ad763          	bge	s5,s7,2c02 <matrix_add+0x88>
    2bb8:	0084ac83          	lw	s9,8(s1)
    2bbc:	8c22                	mv	s8,s0
    2bbe:	4b01                	li	s6,0
    2bc0:	035c8a33          	mul	s4,s9,s5
    2bc4:	0a0a                	slli	s4,s4,0x2
    2bc6:	a02d                	j	2bf0 <matrix_add+0x76>
    2bc8:	0089a783          	lw	a5,8(s3)
    2bcc:	0009a703          	lw	a4,0(s3)
    2bd0:	0c11                	addi	s8,s8,4
    2bd2:	02fa87b3          	mul	a5,s5,a5
    2bd6:	97da                	add	a5,a5,s6
    2bd8:	078a                	slli	a5,a5,0x2
    2bda:	97ba                	add	a5,a5,a4
    2bdc:	4098                	lw	a4,0(s1)
    2bde:	4388                	lw	a0,0(a5)
    2be0:	0b05                	addi	s6,s6,1
    2be2:	9752                	add	a4,a4,s4
    2be4:	430c                	lw	a1,0(a4)
    2be6:	0a11                	addi	s4,s4,4
    2be8:	723070ef          	jal	ra,ab0a <__addsf3>
    2bec:	feac2e23          	sw	a0,-4(s8)
    2bf0:	fd9b4ce3          	blt	s6,s9,2bc8 <matrix_add+0x4e>
    2bf4:	0a85                	addi	s5,s5,1
    2bf6:	944a                	add	s0,s0,s2
    2bf8:	bf75                	j	2bb4 <matrix_add+0x3a>
    2bfa:	4781                	li	a5,0
    2bfc:	853e                	mv	a0,a5
    2bfe:	931fd06f          	j	52e <__riscv_restore_10>
    2c02:	4785                	li	a5,1
    2c04:	bfe5                	j	2bfc <matrix_add+0x82>

00002c06 <matrix_subtract>:
    2c06:	8f1fd2ef          	jal	t0,4f6 <__riscv_save_10>
    2c0a:	00452b83          	lw	s7,4(a0)
    2c0e:	41dc                	lw	a5,4(a1)
    2c10:	06fb9b63          	bne	s7,a5,2c86 <matrix_subtract+0x80>
    2c14:	4500                	lw	s0,8(a0)
    2c16:	4598                	lw	a4,8(a1)
    2c18:	4781                	li	a5,0
    2c1a:	06e41763          	bne	s0,a4,2c88 <matrix_subtract+0x82>
    2c1e:	84aa                	mv	s1,a0
    2c20:	028b8533          	mul	a0,s7,s0
    2c24:	c600                	sw	s0,8(a2)
    2c26:	01762223          	sw	s7,4(a2)
    2c2a:	8932                	mv	s2,a2
    2c2c:	89ae                	mv	s3,a1
    2c2e:	4a81                	li	s5,0
    2c30:	050a                	slli	a0,a0,0x2
    2c32:	088090ef          	jal	ra,bcba <malloc>
    2c36:	00a92023          	sw	a0,0(s2)
    2c3a:	00241913          	slli	s2,s0,0x2
    2c3e:	842a                	mv	s0,a0
    2c40:	057ad763          	bge	s5,s7,2c8e <matrix_subtract+0x88>
    2c44:	0084ac83          	lw	s9,8(s1)
    2c48:	8c22                	mv	s8,s0
    2c4a:	4b01                	li	s6,0
    2c4c:	035c8a33          	mul	s4,s9,s5
    2c50:	0a0a                	slli	s4,s4,0x2
    2c52:	a02d                	j	2c7c <matrix_subtract+0x76>
    2c54:	0089a783          	lw	a5,8(s3)
    2c58:	0009a683          	lw	a3,0(s3)
    2c5c:	4098                	lw	a4,0(s1)
    2c5e:	02fa87b3          	mul	a5,s5,a5
    2c62:	0c11                	addi	s8,s8,4
    2c64:	9752                	add	a4,a4,s4
    2c66:	4308                	lw	a0,0(a4)
    2c68:	0a11                	addi	s4,s4,4
    2c6a:	97da                	add	a5,a5,s6
    2c6c:	078a                	slli	a5,a5,0x2
    2c6e:	97b6                	add	a5,a5,a3
    2c70:	438c                	lw	a1,0(a5)
    2c72:	0b05                	addi	s6,s6,1
    2c74:	7cc080ef          	jal	ra,b440 <__subsf3>
    2c78:	feac2e23          	sw	a0,-4(s8)
    2c7c:	fd9b4ce3          	blt	s6,s9,2c54 <matrix_subtract+0x4e>
    2c80:	0a85                	addi	s5,s5,1
    2c82:	944a                	add	s0,s0,s2
    2c84:	bf75                	j	2c40 <matrix_subtract+0x3a>
    2c86:	4781                	li	a5,0
    2c88:	853e                	mv	a0,a5
    2c8a:	8a5fd06f          	j	52e <__riscv_restore_10>
    2c8e:	4785                	li	a5,1
    2c90:	bfe5                	j	2c88 <matrix_subtract+0x82>

00002c92 <matrix_multiply>:
    2c92:	4518                	lw	a4,8(a0)
    2c94:	41dc                	lw	a5,4(a1)
    2c96:	0af71063          	bne	a4,a5,2d36 <matrix_multiply+0xa4>
    2c9a:	855fd2ef          	jal	t0,4ee <__riscv_save_12>
    2c9e:	00452c03          	lw	s8,4(a0)
    2ca2:	0085aa03          	lw	s4,8(a1)
    2ca6:	892a                	mv	s2,a0
    2ca8:	1141                	addi	sp,sp,-16
    2caa:	034c0533          	mul	a0,s8,s4
    2cae:	01462423          	sw	s4,8(a2)
    2cb2:	01862223          	sw	s8,4(a2)
    2cb6:	89b2                	mv	s3,a2
    2cb8:	84ae                	mv	s1,a1
    2cba:	0a0a                	slli	s4,s4,0x2
    2cbc:	4b81                	li	s7,0
    2cbe:	050a                	slli	a0,a0,0x2
    2cc0:	7fb080ef          	jal	ra,bcba <malloc>
    2cc4:	00a9a023          	sw	a0,0(s3)
    2cc8:	842a                	mv	s0,a0
    2cca:	078bd863          	bge	s7,s8,2d3a <matrix_multiply+0xa8>
    2cce:	0084ad83          	lw	s11,8(s1)
    2cd2:	89a2                	mv	s3,s0
    2cd4:	4b01                	li	s6,0
    2cd6:	002d9613          	slli	a2,s11,0x2
    2cda:	a00d                	j	2cfc <matrix_multiply+0x6a>
    2cdc:	00892683          	lw	a3,8(s2)
    2ce0:	00000793          	li	a5,0
    2ce4:	00f9a023          	sw	a5,0(s3)
    2ce8:	03768ab3          	mul	s5,a3,s7
    2cec:	002b1d13          	slli	s10,s6,0x2
    2cf0:	4c81                	li	s9,0
    2cf2:	0a8a                	slli	s5,s5,0x2
    2cf4:	00dcc963          	blt	s9,a3,2d06 <matrix_multiply+0x74>
    2cf8:	0b05                	addi	s6,s6,1
    2cfa:	0991                	addi	s3,s3,4
    2cfc:	ffbb40e3          	blt	s6,s11,2cdc <matrix_multiply+0x4a>
    2d00:	0b85                	addi	s7,s7,1
    2d02:	9452                	add	s0,s0,s4
    2d04:	b7d9                	j	2cca <matrix_multiply+0x38>
    2d06:	00092783          	lw	a5,0(s2)
    2d0a:	4098                	lw	a4,0(s1)
    2d0c:	c632                	sw	a2,12(sp)
    2d0e:	97d6                	add	a5,a5,s5
    2d10:	976a                	add	a4,a4,s10
    2d12:	430c                	lw	a1,0(a4)
    2d14:	4388                	lw	a0,0(a5)
    2d16:	c436                	sw	a3,8(sp)
    2d18:	0c85                	addi	s9,s9,1
    2d1a:	492080ef          	jal	ra,b1ac <__mulsf3>
    2d1e:	85aa                	mv	a1,a0
    2d20:	0009a503          	lw	a0,0(s3)
    2d24:	0a91                	addi	s5,s5,4
    2d26:	5e5070ef          	jal	ra,ab0a <__addsf3>
    2d2a:	4632                	lw	a2,12(sp)
    2d2c:	00a9a023          	sw	a0,0(s3)
    2d30:	46a2                	lw	a3,8(sp)
    2d32:	9d32                	add	s10,s10,a2
    2d34:	b7c1                	j	2cf4 <matrix_multiply+0x62>
    2d36:	4501                	li	a0,0
    2d38:	8082                	ret
    2d3a:	4505                	li	a0,1
    2d3c:	0141                	addi	sp,sp,16
    2d3e:	fecfd06f          	j	52a <__riscv_restore_12>

00002d42 <matrix_transpose>:
    2d42:	fdcfd2ef          	jal	t0,51e <__riscv_save_0>
    2d46:	842a                	mv	s0,a0
    2d48:	4508                	lw	a0,8(a0)
    2d4a:	1141                	addi	sp,sp,-16
    2d4c:	c62e                	sw	a1,12(sp)
    2d4e:	c1c8                	sw	a0,4(a1)
    2d50:	4044                	lw	s1,4(s0)
    2d52:	02950533          	mul	a0,a0,s1
    2d56:	c584                	sw	s1,8(a1)
    2d58:	050a                	slli	a0,a0,0x2
    2d5a:	761080ef          	jal	ra,bcba <malloc>
    2d5e:	45b2                	lw	a1,12(sp)
    2d60:	00249893          	slli	a7,s1,0x2
    2d64:	4701                	li	a4,0
    2d66:	c188                	sw	a0,0(a1)
    2d68:	02975763          	bge	a4,s1,2d96 <matrix_transpose+0x54>
    2d6c:	00842803          	lw	a6,8(s0)
    2d70:	00271793          	slli	a5,a4,0x2
    2d74:	97aa                	add	a5,a5,a0
    2d76:	02e806b3          	mul	a3,a6,a4
    2d7a:	4601                	li	a2,0
    2d7c:	068a                	slli	a3,a3,0x2
    2d7e:	a801                	j	2d8e <matrix_transpose+0x4c>
    2d80:	400c                	lw	a1,0(s0)
    2d82:	0605                	addi	a2,a2,1
    2d84:	95b6                	add	a1,a1,a3
    2d86:	418c                	lw	a1,0(a1)
    2d88:	0691                	addi	a3,a3,4
    2d8a:	c38c                	sw	a1,0(a5)
    2d8c:	97c6                	add	a5,a5,a7
    2d8e:	ff0649e3          	blt	a2,a6,2d80 <matrix_transpose+0x3e>
    2d92:	0705                	addi	a4,a4,1
    2d94:	bfd1                	j	2d68 <matrix_transpose+0x26>
    2d96:	0141                	addi	sp,sp,16
    2d98:	faafd06f          	j	542 <__riscv_restore_0>

00002d9c <MCAL_WRAPEPR_SPI_POLL_TRANSFER>:
    2d9c:	c53d                	beqz	a0,2e0a <MCAL_WRAPEPR_SPI_POLL_TRANSFER+0x6e>
    2d9e:	f66fd2ef          	jal	t0,504 <__riscv_save_4>
    2da2:	842a                	mv	s0,a0
    2da4:	892e                	mv	s2,a1
    2da6:	4505                	li	a0,1
    2da8:	c185                	beqz	a1,2dc8 <MCAL_WRAPEPR_SPI_POLL_TRANSFER+0x2c>
    2daa:	00845583          	lhu	a1,8(s0)
    2dae:	4048                	lw	a0,4(s0)
    2db0:	84b2                	mv	s1,a2
    2db2:	89b6                	mv	s3,a3
    2db4:	4a05                	li	s4,1
    2db6:	0dd000ef          	jal	ra,3692 <GPIO_ResetBits>
    2dba:	e889                	bnez	s1,2dcc <MCAL_WRAPEPR_SPI_POLL_TRANSFER+0x30>
    2dbc:	4048                	lw	a0,4(s0)
    2dbe:	00845583          	lhu	a1,8(s0)
    2dc2:	0b9000ef          	jal	ra,367a <GPIO_SetBits>
    2dc6:	4501                	li	a0,0
    2dc8:	f70fd06f          	j	538 <__riscv_restore_4>
    2dcc:	00094583          	lbu	a1,0(s2)
    2dd0:	4008                	lw	a0,0(s0)
    2dd2:	54b000ef          	jal	ra,3b1c <SPI_I2S_SendData>
    2dd6:	4008                	lw	a0,0(s0)
    2dd8:	4589                	li	a1,2
    2dda:	54f000ef          	jal	ra,3b28 <SPI_I2S_GetFlagStatus>
    2dde:	ff451ce3          	bne	a0,s4,2dd6 <MCAL_WRAPEPR_SPI_POLL_TRANSFER+0x3a>
    2de2:	4008                	lw	a0,0(s0)
    2de4:	08000593          	li	a1,128
    2de8:	541000ef          	jal	ra,3b28 <SPI_I2S_GetFlagStatus>
    2dec:	ff450be3          	beq	a0,s4,2de2 <MCAL_WRAPEPR_SPI_POLL_TRANSFER+0x46>
    2df0:	0905                	addi	s2,s2,1
    2df2:	00098863          	beqz	s3,2e02 <MCAL_WRAPEPR_SPI_POLL_TRANSFER+0x66>
    2df6:	4008                	lw	a0,0(s0)
    2df8:	0985                	addi	s3,s3,1
    2dfa:	529000ef          	jal	ra,3b22 <SPI_I2S_ReceiveData>
    2dfe:	fea98fa3          	sb	a0,-1(s3)
    2e02:	14fd                	addi	s1,s1,-1
    2e04:	04c2                	slli	s1,s1,0x10
    2e06:	80c1                	srli	s1,s1,0x10
    2e08:	bf4d                	j	2dba <MCAL_WRAPEPR_SPI_POLL_TRANSFER+0x1e>
    2e0a:	4505                	li	a0,1
    2e0c:	8082                	ret

00002e0e <I2C_start_transmission>:
    2e0e:	ef6fd2ef          	jal	t0,504 <__riscv_save_4>
    2e12:	84aa                	mv	s1,a0
    2e14:	c5a5                	beqz	a1,2e7c <I2C_start_transmission+0x6e>
    2e16:	00030437          	lui	s0,0x30
    2e1a:	0409                	addi	s0,s0,2
    2e1c:	4a05                	li	s4,1
    2e1e:	40006937          	lui	s2,0x40006
    2e22:	80090993          	addi	s3,s2,-2048 # 40005800 <__freertos_irq_stack_top+0x20000800>
    2e26:	000205b7          	lui	a1,0x20
    2e2a:	854e                	mv	a0,s3
    2e2c:	24f000ef          	jal	ra,387a <I2C_GetFlagStatus>
    2e30:	f97d                	bnez	a0,2e26 <I2C_start_transmission+0x18>
    2e32:	80090513          	addi	a0,s2,-2048
    2e36:	4585                	li	a1,1
    2e38:	00030937          	lui	s2,0x30
    2e3c:	400069b7          	lui	s3,0x40006
    2e40:	19b000ef          	jal	ra,37da <I2C_GenerateSTART>
    2e44:	0905                	addi	s2,s2,1
    2e46:	80098a93          	addi	s5,s3,-2048 # 40005800 <__freertos_irq_stack_top+0x20000800>
    2e4a:	85ca                	mv	a1,s2
    2e4c:	8556                	mv	a0,s5
    2e4e:	213000ef          	jal	ra,3860 <I2C_CheckEvent>
    2e52:	dd65                	beqz	a0,2e4a <I2C_start_transmission+0x3c>
    2e54:	00149593          	slli	a1,s1,0x1
    2e58:	8652                	mv	a2,s4
    2e5a:	0fe5f593          	andi	a1,a1,254
    2e5e:	80098513          	addi	a0,s3,-2048
    2e62:	400064b7          	lui	s1,0x40006
    2e66:	1c1000ef          	jal	ra,3826 <I2C_Send7bitAddress>
    2e6a:	80048493          	addi	s1,s1,-2048 # 40005800 <__freertos_irq_stack_top+0x20000800>
    2e6e:	85a2                	mv	a1,s0
    2e70:	8526                	mv	a0,s1
    2e72:	1ef000ef          	jal	ra,3860 <I2C_CheckEvent>
    2e76:	dd65                	beqz	a0,2e6e <I2C_start_transmission+0x60>
    2e78:	ec0fd06f          	j	538 <__riscv_restore_4>
    2e7c:	00070437          	lui	s0,0x70
    2e80:	08240413          	addi	s0,s0,130 # 70082 <_data_lma+0x6261e>
    2e84:	4a01                	li	s4,0
    2e86:	bf61                	j	2e1e <I2C_start_transmission+0x10>

00002e88 <I2C_write>:
    2e88:	e7cfd2ef          	jal	t0,504 <__riscv_save_4>
    2e8c:	10000437          	lui	s0,0x10000
    2e90:	400064b7          	lui	s1,0x40006
    2e94:	892a                	mv	s2,a0
    2e96:	08040413          	addi	s0,s0,128 # 10000080 <_data_lma+0xfff261c>
    2e9a:	80048a13          	addi	s4,s1,-2048 # 40005800 <__freertos_irq_stack_top+0x20000800>
    2e9e:	4985                	li	s3,1
    2ea0:	85a2                	mv	a1,s0
    2ea2:	8552                	mv	a0,s4
    2ea4:	1d7000ef          	jal	ra,387a <I2C_GetFlagStatus>
    2ea8:	ff351ce3          	bne	a0,s3,2ea0 <I2C_write+0x18>
    2eac:	85ca                	mv	a1,s2
    2eae:	80048513          	addi	a0,s1,-2048
    2eb2:	165000ef          	jal	ra,3816 <I2C_SendData>
    2eb6:	e82fd06f          	j	538 <__riscv_restore_4>

00002eba <I2C_stop>:
    2eba:	e4afd2ef          	jal	t0,504 <__riscv_save_4>
    2ebe:	10000437          	lui	s0,0x10000
    2ec2:	400064b7          	lui	s1,0x40006
    2ec6:	08040413          	addi	s0,s0,128 # 10000080 <_data_lma+0xfff261c>
    2eca:	80048993          	addi	s3,s1,-2048 # 40005800 <__freertos_irq_stack_top+0x20000800>
    2ece:	4905                	li	s2,1
    2ed0:	85a2                	mv	a1,s0
    2ed2:	854e                	mv	a0,s3
    2ed4:	1a7000ef          	jal	ra,387a <I2C_GetFlagStatus>
    2ed8:	ff251ce3          	bne	a0,s2,2ed0 <I2C_stop+0x16>
    2edc:	4585                	li	a1,1
    2ede:	80048513          	addi	a0,s1,-2048
    2ee2:	117000ef          	jal	ra,37f8 <I2C_GenerateSTOP>
    2ee6:	e52fd06f          	j	538 <__riscv_restore_4>

00002eea <I2C_read>:
    2eea:	200006b7          	lui	a3,0x20000
    2eee:	12568693          	addi	a3,a3,293 # 20000125 <i.4934>
    2ef2:	0006c783          	lbu	a5,0(a3)
    2ef6:	20000737          	lui	a4,0x20000
    2efa:	13070713          	addi	a4,a4,304 # 20000130 <RxData>
    2efe:	973e                	add	a4,a4,a5
    2f00:	4619                	li	a2,6
    2f02:	0785                	addi	a5,a5,1
    2f04:	02c7e7b3          	rem	a5,a5,a2
    2f08:	00074503          	lbu	a0,0(a4)
    2f0c:	00f68023          	sb	a5,0(a3)
    2f10:	8082                	ret

00002f12 <I2C_requestFrom>:
    2f12:	df2fd2ef          	jal	t0,504 <__riscv_save_4>
    2f16:	8a2e                	mv	s4,a1
    2f18:	10000937          	lui	s2,0x10000
    2f1c:	4585                	li	a1,1
    2f1e:	400064b7          	lui	s1,0x40006
    2f22:	200009b7          	lui	s3,0x20000
    2f26:	ee9ff0ef          	jal	ra,2e0e <I2C_start_transmission>
    2f2a:	4401                	li	s0,0
    2f2c:	04090913          	addi	s2,s2,64 # 10000040 <_data_lma+0xfff25dc>
    2f30:	80048493          	addi	s1,s1,-2048 # 40005800 <__freertos_irq_stack_top+0x20000800>
    2f34:	13098993          	addi	s3,s3,304 # 20000130 <RxData>
    2f38:	4a95                	li	s5,5
    2f3a:	03446963          	bltu	s0,s4,2f6c <I2C_requestFrom+0x5a>
    2f3e:	100004b7          	lui	s1,0x10000
    2f42:	40006937          	lui	s2,0x40006
    2f46:	04048493          	addi	s1,s1,64 # 10000040 <_data_lma+0xfff25dc>
    2f4a:	80090a13          	addi	s4,s2,-2048 # 40005800 <__freertos_irq_stack_top+0x20000800>
    2f4e:	4985                	li	s3,1
    2f50:	85a6                	mv	a1,s1
    2f52:	8552                	mv	a0,s4
    2f54:	127000ef          	jal	ra,387a <I2C_GetFlagStatus>
    2f58:	ff351ce3          	bne	a0,s3,2f50 <I2C_requestFrom+0x3e>
    2f5c:	80090513          	addi	a0,s2,-2048
    2f60:	4585                	li	a1,1
    2f62:	097000ef          	jal	ra,37f8 <I2C_GenerateSTOP>
    2f66:	8522                	mv	a0,s0
    2f68:	dd0fd06f          	j	538 <__riscv_restore_4>
    2f6c:	85ca                	mv	a1,s2
    2f6e:	8526                	mv	a0,s1
    2f70:	10b000ef          	jal	ra,387a <I2C_GetFlagStatus>
    2f74:	c919                	beqz	a0,2f8a <I2C_requestFrom+0x78>
    2f76:	8526                	mv	a0,s1
    2f78:	0a5000ef          	jal	ra,381c <I2C_ReceiveData>
    2f7c:	013407b3          	add	a5,s0,s3
    2f80:	0405                	addi	s0,s0,1
    2f82:	00a78023          	sb	a0,0(a5)
    2f86:	0ff47413          	andi	s0,s0,255
    2f8a:	fb5418e3          	bne	s0,s5,2f3a <I2C_requestFrom+0x28>
    2f8e:	6585                	lui	a1,0x1
    2f90:	80058593          	addi	a1,a1,-2048 # 800 <__stack_size>
    2f94:	8526                	mv	a0,s1
    2f96:	0a5000ef          	jal	ra,383a <I2C_NACKPositionConfig>
    2f9a:	b745                	j	2f3a <I2C_requestFrom+0x28>

00002f9c <MCAL_WRAPEPR_TIM4_PWM_OUT>:
    2f9c:	d82fd2ef          	jal	t0,51e <__riscv_save_0>
    2fa0:	478d                	li	a5,3
    2fa2:	4405                	li	s0,1
    2fa4:	02a7e463          	bltu	a5,a0,2fcc <MCAL_WRAPEPR_TIM4_PWM_OUT+0x30>
    2fa8:	06400793          	li	a5,100
    2fac:	4405                	li	s0,1
    2fae:	00b7ef63          	bltu	a5,a1,2fcc <MCAL_WRAPEPR_TIM4_PWM_OUT+0x30>
    2fb2:	4401                	li	s0,0
    2fb4:	ed01                	bnez	a0,2fcc <MCAL_WRAPEPR_TIM4_PWM_OUT+0x30>
    2fb6:	4795                	li	a5,5
    2fb8:	02f585b3          	mul	a1,a1,a5
    2fbc:	40001537          	lui	a0,0x40001
    2fc0:	80050513          	addi	a0,a0,-2048 # 40000800 <__freertos_irq_stack_top+0x1fffb800>
    2fc4:	1f458593          	addi	a1,a1,500
    2fc8:	0ac010ef          	jal	ra,4074 <TIM_SetCompare1>
    2fcc:	8522                	mv	a0,s0
    2fce:	d74fd06f          	j	542 <__riscv_restore_0>

00002fd2 <UART4_IRQHandler>:
    2fd2:	d4cfd2ef          	jal	t0,51e <__riscv_save_0>
    2fd6:	40005537          	lui	a0,0x40005
    2fda:	52500593          	li	a1,1317
    2fde:	c0050513          	addi	a0,a0,-1024 # 40004c00 <__freertos_irq_stack_top+0x1ffffc00>
    2fe2:	2c2010ef          	jal	ra,42a4 <USART_GetITStatus>
    2fe6:	c519                	beqz	a0,2ff4 <UART4_IRQHandler+0x22>
    2fe8:	200007b7          	lui	a5,0x20000
    2fec:	11c7a783          	lw	a5,284(a5) # 2000011c <global_UART4RecCallback>
    2ff0:	c391                	beqz	a5,2ff4 <UART4_IRQHandler+0x22>
    2ff2:	9782                	jalr	a5
    2ff4:	d4efd06f          	j	542 <__riscv_restore_0>

00002ff8 <TIM1_UP_IRQHandler>:
    2ff8:	7139                	addi	sp,sp,-64
    2ffa:	d62a                	sw	a0,44(sp)
    2ffc:	40013537          	lui	a0,0x40013
    3000:	d42e                	sw	a1,40(sp)
    3002:	c0050513          	addi	a0,a0,-1024 # 40012c00 <__freertos_irq_stack_top+0x2000dc00>
    3006:	4585                	li	a1,1
    3008:	de06                	sw	ra,60(sp)
    300a:	dc16                	sw	t0,56(sp)
    300c:	da1a                	sw	t1,52(sp)
    300e:	d81e                	sw	t2,48(sp)
    3010:	d232                	sw	a2,36(sp)
    3012:	d036                	sw	a3,32(sp)
    3014:	ce3a                	sw	a4,28(sp)
    3016:	cc3e                	sw	a5,24(sp)
    3018:	ca42                	sw	a6,20(sp)
    301a:	c846                	sw	a7,16(sp)
    301c:	c672                	sw	t3,12(sp)
    301e:	c476                	sw	t4,8(sp)
    3020:	c27a                	sw	t5,4(sp)
    3022:	c07e                	sw	t6,0(sp)
    3024:	134010ef          	jal	ra,4158 <TIM_GetITStatus>
    3028:	c115                	beqz	a0,304c <TIM1_UP_IRQHandler+0x54>
    302a:	20000737          	lui	a4,0x20000
    302e:	12070793          	addi	a5,a4,288 # 20000120 <global_u32TicksNum>
    3032:	439c                	lw	a5,0(a5)
    3034:	12070713          	addi	a4,a4,288
    3038:	e7a1                	bnez	a5,3080 <TIM1_UP_IRQHandler+0x88>
    303a:	200007b7          	lui	a5,0x20000
    303e:	1267d683          	lhu	a3,294(a5) # 20000126 <tempreg>
    3042:	6789                	lui	a5,0x2
    3044:	71078793          	addi	a5,a5,1808 # 2710 <SensorFuseWithKalman+0x46>
    3048:	8f95                	sub	a5,a5,a3
    304a:	c31c                	sw	a5,0(a4)
    304c:	40013537          	lui	a0,0x40013
    3050:	4585                	li	a1,1
    3052:	c0050513          	addi	a0,a0,-1024 # 40012c00 <__freertos_irq_stack_top+0x2000dc00>
    3056:	11e010ef          	jal	ra,4174 <TIM_ClearITPendingBit>
    305a:	50f2                	lw	ra,60(sp)
    305c:	52e2                	lw	t0,56(sp)
    305e:	5352                	lw	t1,52(sp)
    3060:	53c2                	lw	t2,48(sp)
    3062:	5532                	lw	a0,44(sp)
    3064:	55a2                	lw	a1,40(sp)
    3066:	5612                	lw	a2,36(sp)
    3068:	5682                	lw	a3,32(sp)
    306a:	4772                	lw	a4,28(sp)
    306c:	47e2                	lw	a5,24(sp)
    306e:	4852                	lw	a6,20(sp)
    3070:	48c2                	lw	a7,16(sp)
    3072:	4e32                	lw	t3,12(sp)
    3074:	4ea2                	lw	t4,8(sp)
    3076:	4f12                	lw	t5,4(sp)
    3078:	4f82                	lw	t6,0(sp)
    307a:	6121                	addi	sp,sp,64
    307c:	30200073          	mret
    3080:	431c                	lw	a5,0(a4)
    3082:	6689                	lui	a3,0x2
    3084:	71068693          	addi	a3,a3,1808 # 2710 <SensorFuseWithKalman+0x46>
    3088:	97b6                	add	a5,a5,a3
    308a:	b7c1                	j	304a <TIM1_UP_IRQHandler+0x52>

0000308c <TIM1_CC_IRQHandler>:
    308c:	715d                	addi	sp,sp,-80
    308e:	de22                	sw	s0,60(sp)
    3090:	40013437          	lui	s0,0x40013
    3094:	dc2a                	sw	a0,56(sp)
    3096:	da2e                	sw	a1,52(sp)
    3098:	c0040513          	addi	a0,s0,-1024 # 40012c00 <__freertos_irq_stack_top+0x2000dc00>
    309c:	4589                	li	a1,2
    309e:	c686                	sw	ra,76(sp)
    30a0:	c496                	sw	t0,72(sp)
    30a2:	c29a                	sw	t1,68(sp)
    30a4:	c09e                	sw	t2,64(sp)
    30a6:	d832                	sw	a2,48(sp)
    30a8:	d636                	sw	a3,44(sp)
    30aa:	d43a                	sw	a4,40(sp)
    30ac:	d23e                	sw	a5,36(sp)
    30ae:	d042                	sw	a6,32(sp)
    30b0:	ce46                	sw	a7,28(sp)
    30b2:	cc72                	sw	t3,24(sp)
    30b4:	ca76                	sw	t4,20(sp)
    30b6:	c87a                	sw	t5,16(sp)
    30b8:	c67e                	sw	t6,12(sp)
    30ba:	09e010ef          	jal	ra,4158 <TIM_GetITStatus>
    30be:	cd21                	beqz	a0,3116 <TIM1_CC_IRQHandler+0x8a>
    30c0:	c0040513          	addi	a0,s0,-1024
    30c4:	074010ef          	jal	ra,4138 <TIM_GetCapture1>
    30c8:	200007b7          	lui	a5,0x20000
    30cc:	12a79323          	sh	a0,294(a5) # 20000126 <tempreg>
    30d0:	200007b7          	lui	a5,0x20000
    30d4:	1207a023          	sw	zero,288(a5) # 20000120 <global_u32TicksNum>
    30d8:	200007b7          	lui	a5,0x20000
    30dc:	12078223          	sb	zero,292(a5) # 20000124 <global_u8IsCaptured>
    30e0:	40013537          	lui	a0,0x40013
    30e4:	4599                	li	a1,6
    30e6:	c0050513          	addi	a0,a0,-1024 # 40012c00 <__freertos_irq_stack_top+0x2000dc00>
    30ea:	08a010ef          	jal	ra,4174 <TIM_ClearITPendingBit>
    30ee:	5472                	lw	s0,60(sp)
    30f0:	40b6                	lw	ra,76(sp)
    30f2:	42a6                	lw	t0,72(sp)
    30f4:	4316                	lw	t1,68(sp)
    30f6:	4386                	lw	t2,64(sp)
    30f8:	5562                	lw	a0,56(sp)
    30fa:	55d2                	lw	a1,52(sp)
    30fc:	5642                	lw	a2,48(sp)
    30fe:	56b2                	lw	a3,44(sp)
    3100:	5722                	lw	a4,40(sp)
    3102:	5792                	lw	a5,36(sp)
    3104:	5802                	lw	a6,32(sp)
    3106:	48f2                	lw	a7,28(sp)
    3108:	4e62                	lw	t3,24(sp)
    310a:	4ed2                	lw	t4,20(sp)
    310c:	4f42                	lw	t5,16(sp)
    310e:	4fb2                	lw	t6,12(sp)
    3110:	6161                	addi	sp,sp,80
    3112:	30200073          	mret
    3116:	4591                	li	a1,4
    3118:	c0040513          	addi	a0,s0,-1024
    311c:	03c010ef          	jal	ra,4158 <TIM_GetITStatus>
    3120:	d161                	beqz	a0,30e0 <TIM1_CC_IRQHandler+0x54>
    3122:	c0040513          	addi	a0,s0,-1024
    3126:	018010ef          	jal	ra,413e <TIM_GetCapture2>
    312a:	200007b7          	lui	a5,0x20000
    312e:	12678793          	addi	a5,a5,294 # 20000126 <tempreg>
    3132:	00a79023          	sh	a0,0(a5)
    3136:	0007d683          	lhu	a3,0(a5)
    313a:	200007b7          	lui	a5,0x20000
    313e:	12078793          	addi	a5,a5,288 # 20000120 <global_u32TicksNum>
    3142:	4398                	lw	a4,0(a5)
    3144:	4585                	li	a1,1
    3146:	9736                	add	a4,a4,a3
    3148:	c398                	sw	a4,0(a5)
    314a:	200007b7          	lui	a5,0x20000
    314e:	4705                	li	a4,1
    3150:	12e78223          	sb	a4,292(a5) # 20000124 <global_u8IsCaptured>
    3154:	200007b7          	lui	a5,0x20000
    3158:	1187a503          	lw	a0,280(a5) # 20000118 <global_CurrentPWTask_t>
    315c:	d78fd0ef          	jal	ra,6d4 <SERVICE_RTOS_Notify>
    3160:	b741                	j	30e0 <TIM1_CC_IRQHandler+0x54>

00003162 <MCAL_WRAPPER_TIM1GetWidthOfPulse>:
    3162:	c12d                	beqz	a0,31c4 <MCAL_WRAPPER_TIM1GetWidthOfPulse+0x62>
    3164:	ba0fd2ef          	jal	t0,504 <__riscv_save_4>
    3168:	842a                	mv	s0,a0
    316a:	20000537          	lui	a0,0x20000
    316e:	11850513          	addi	a0,a0,280 # 20000118 <global_CurrentPWTask_t>
    3172:	20000937          	lui	s2,0x20000
    3176:	da2fd0ef          	jal	ra,718 <SERVICE_RTOS_GetCurrentTaskHandle>
    317a:	12490913          	addi	s2,s2,292 # 20000124 <global_u8IsCaptured>
    317e:	400139b7          	lui	s3,0x40013
    3182:	200004b7          	lui	s1,0x20000
    3186:	4585                	li	a1,1
    3188:	00090023          	sb	zero,0(s2)
    318c:	c0098513          	addi	a0,s3,-1024 # 40012c00 <__freertos_irq_stack_top+0x2000dc00>
    3190:	12048493          	addi	s1,s1,288 # 20000120 <global_u32TicksNum>
    3194:	0004a023          	sw	zero,0(s1)
    3198:	58f000ef          	jal	ra,3f26 <TIM_Cmd>
    319c:	3e800513          	li	a0,1000
    31a0:	d14fd0ef          	jal	ra,6b4 <SERVICE_RTOS_WaitForNotification>
    31a4:	c0098513          	addi	a0,s3,-1024
    31a8:	4581                	li	a1,0
    31aa:	57d000ef          	jal	ra,3f26 <TIM_Cmd>
    31ae:	00094783          	lbu	a5,0(s2)
    31b2:	4705                	li	a4,1
    31b4:	4515                	li	a0,5
    31b6:	00f71563          	bne	a4,a5,31c0 <MCAL_WRAPPER_TIM1GetWidthOfPulse+0x5e>
    31ba:	409c                	lw	a5,0(s1)
    31bc:	4501                	li	a0,0
    31be:	c01c                	sw	a5,0(s0)
    31c0:	b78fd06f          	j	538 <__riscv_restore_4>
    31c4:	4505                	li	a0,1
    31c6:	8082                	ret

000031c8 <MCAL_WRAPPER_SendDataThroughUART4>:
    31c8:	c539                	beqz	a0,3216 <MCAL_WRAPPER_SendDataThroughUART4+0x4e>
    31ca:	b3afd2ef          	jal	t0,504 <__riscv_save_4>
    31ce:	400054b7          	lui	s1,0x40005
    31d2:	892a                	mv	s2,a0
    31d4:	842e                	mv	s0,a1
    31d6:	c0048493          	addi	s1,s1,-1024 # 40004c00 <__freertos_irq_stack_top+0x1ffffc00>
    31da:	4985                	li	s3,1
    31dc:	e019                	bnez	s0,31e2 <MCAL_WRAPPER_SendDataThroughUART4+0x1a>
    31de:	4501                	li	a0,0
    31e0:	a809                	j	31f2 <MCAL_WRAPPER_SendDataThroughUART4+0x2a>
    31e2:	08000593          	li	a1,128
    31e6:	8526                	mv	a0,s1
    31e8:	0a2010ef          	jal	ra,428a <USART_GetFlagStatus>
    31ec:	01350563          	beq	a0,s3,31f6 <MCAL_WRAPPER_SendDataThroughUART4+0x2e>
    31f0:	450d                	li	a0,3
    31f2:	b46fd06f          	j	538 <__riscv_restore_4>
    31f6:	02000593          	li	a1,32
    31fa:	8526                	mv	a0,s1
    31fc:	08e010ef          	jal	ra,428a <USART_GetFlagStatus>
    3200:	f965                	bnez	a0,31f0 <MCAL_WRAPPER_SendDataThroughUART4+0x28>
    3202:	00094583          	lbu	a1,0(s2)
    3206:	147d                	addi	s0,s0,-1
    3208:	8526                	mv	a0,s1
    320a:	0442                	slli	s0,s0,0x10
    320c:	06a010ef          	jal	ra,4276 <USART_SendData>
    3210:	0905                	addi	s2,s2,1
    3212:	8041                	srli	s0,s0,0x10
    3214:	b7e1                	j	31dc <MCAL_WRAPPER_SendDataThroughUART4+0x14>
    3216:	4505                	li	a0,1
    3218:	8082                	ret

0000321a <MCAL_WRAPPER_ReceiveDataThroughUART4>:
    321a:	c521                	beqz	a0,3262 <MCAL_WRAPPER_ReceiveDataThroughUART4+0x48>
    321c:	ae8fd2ef          	jal	t0,504 <__riscv_save_4>
    3220:	400054b7          	lui	s1,0x40005
    3224:	892a                	mv	s2,a0
    3226:	842e                	mv	s0,a1
    3228:	c0048493          	addi	s1,s1,-1024 # 40004c00 <__freertos_irq_stack_top+0x1ffffc00>
    322c:	4985                	li	s3,1
    322e:	e401                	bnez	s0,3236 <MCAL_WRAPPER_ReceiveDataThroughUART4+0x1c>
    3230:	4501                	li	a0,0
    3232:	b06fd06f          	j	538 <__riscv_restore_4>
    3236:	02000593          	li	a1,32
    323a:	8526                	mv	a0,s1
    323c:	04e010ef          	jal	ra,428a <USART_GetFlagStatus>
    3240:	03351363          	bne	a0,s3,3266 <MCAL_WRAPPER_ReceiveDataThroughUART4+0x4c>
    3244:	8526                	mv	a0,s1
    3246:	03a010ef          	jal	ra,4280 <USART_ReceiveData>
    324a:	147d                	addi	s0,s0,-1
    324c:	00a90023          	sb	a0,0(s2)
    3250:	0442                	slli	s0,s0,0x10
    3252:	52500593          	li	a1,1317
    3256:	8526                	mv	a0,s1
    3258:	0905                	addi	s2,s2,1
    325a:	8041                	srli	s0,s0,0x10
    325c:	03a010ef          	jal	ra,4296 <USART_ClearFlag>
    3260:	b7f9                	j	322e <MCAL_WRAPPER_ReceiveDataThroughUART4+0x14>
    3262:	4505                	li	a0,1
    3264:	8082                	ret
    3266:	4511                	li	a0,4
    3268:	b7e9                	j	3232 <MCAL_WRAPPER_ReceiveDataThroughUART4+0x18>

0000326a <MCAL_WRAPPER_DelayUS>:
    326a:	a9afd2ef          	jal	t0,504 <__riscv_save_4>
    326e:	6789                	lui	a5,0x2
    3270:	7979                	lui	s2,0xffffe
    3272:	842a                	mv	s0,a0
    3274:	70f78a13          	addi	s4,a5,1807 # 270f <SensorFuseWithKalman+0x45>
    3278:	8f090913          	addi	s2,s2,-1808 # ffffd8f0 <__freertos_irq_stack_top+0xdfff88f0>
    327c:	71078493          	addi	s1,a5,1808
    3280:	e401                	bnez	s0,3288 <MCAL_WRAPPER_DelayUS+0x1e>
    3282:	4501                	li	a0,0
    3284:	ab4fd06f          	j	538 <__riscv_restore_4>
    3288:	048a6263          	bltu	s4,s0,32cc <MCAL_WRAPPER_DelayUS+0x62>
    328c:	01041993          	slli	s3,s0,0x10
    3290:	0109d993          	srli	s3,s3,0x10
    3294:	4401                	li	s0,0
    3296:	4585                	li	a1,1
    3298:	40000537          	lui	a0,0x40000
    329c:	6af000ef          	jal	ra,414a <TIM_ClearFlag>
    32a0:	85ce                	mv	a1,s3
    32a2:	40000537          	lui	a0,0x40000
    32a6:	5c9000ef          	jal	ra,406e <TIM_SetCounter>
    32aa:	4585                	li	a1,1
    32ac:	40000537          	lui	a0,0x40000
    32b0:	477000ef          	jal	ra,3f26 <TIM_Cmd>
    32b4:	40000537          	lui	a0,0x40000
    32b8:	68d000ef          	jal	ra,4144 <TIM_GetCounter>
    32bc:	fea9fce3          	bgeu	s3,a0,32b4 <MCAL_WRAPPER_DelayUS+0x4a>
    32c0:	4581                	li	a1,0
    32c2:	40000537          	lui	a0,0x40000
    32c6:	461000ef          	jal	ra,3f26 <TIM_Cmd>
    32ca:	bf5d                	j	3280 <MCAL_WRAPPER_DelayUS+0x16>
    32cc:	944a                	add	s0,s0,s2
    32ce:	89a6                	mv	s3,s1
    32d0:	b7d9                	j	3296 <MCAL_WRAPPER_DelayUS+0x2c>

000032d2 <MCAL_WRAPPER_HCSR04Trig>:
    32d2:	a4cfd2ef          	jal	t0,51e <__riscv_save_0>
    32d6:	40011437          	lui	s0,0x40011
    32da:	84aa                	mv	s1,a0
    32dc:	65a1                	lui	a1,0x8
    32de:	80040513          	addi	a0,s0,-2048 # 40010800 <__freertos_irq_stack_top+0x2000b800>
    32e2:	2e61                	jal	367a <GPIO_SetBits>
    32e4:	8526                	mv	a0,s1
    32e6:	f85ff0ef          	jal	ra,326a <MCAL_WRAPPER_DelayUS>
    32ea:	80040513          	addi	a0,s0,-2048
    32ee:	65a1                	lui	a1,0x8
    32f0:	264d                	jal	3692 <GPIO_ResetBits>
    32f2:	4501                	li	a0,0
    32f4:	a4efd06f          	j	542 <__riscv_restore_0>

000032f8 <MCAL_WRAPPER_GetADCBattery>:
    32f8:	a26fd2ef          	jal	t0,51e <__riscv_save_0>
    32fc:	40012437          	lui	s0,0x40012
    3300:	4699                	li	a3,6
    3302:	4605                	li	a2,1
    3304:	4591                	li	a1,4
    3306:	84aa                	mv	s1,a0
    3308:	40040513          	addi	a0,s0,1024 # 40012400 <__freertos_irq_stack_top+0x2000d400>
    330c:	2255                	jal	34b0 <ADC_RegularChannelConfig>
    330e:	4585                	li	a1,1
    3310:	40040513          	addi	a0,s0,1024
    3314:	2251                	jal	3498 <ADC_SoftwareStartConvCmd>
    3316:	40040913          	addi	s2,s0,1024
    331a:	4589                	li	a1,2
    331c:	854a                	mv	a0,s2
    331e:	2c89                	jal	3570 <ADC_GetFlagStatus>
    3320:	dd6d                	beqz	a0,331a <MCAL_WRAPPER_GetADCBattery+0x22>
    3322:	40040513          	addi	a0,s0,1024
    3326:	2489                	jal	3568 <ADC_GetConversionValue>
    3328:	00a49023          	sh	a0,0(s1)
    332c:	4501                	li	a0,0
    332e:	a14fd06f          	j	542 <__riscv_restore_0>
    3332:	a001                	j	3332 <MCAL_WRAPPER_GetADCBattery+0x3a>
    3334:	a001                	j	3334 <MCAL_WRAPPER_GetADCBattery+0x3c>

00003336 <Ecall_M_Mode_Handler>:
    3336:	a001                	j	3336 <Ecall_M_Mode_Handler>

00003338 <Ecall_U_Mode_Handler>:
    3338:	a001                	j	3338 <Ecall_U_Mode_Handler>

0000333a <Break_Point_Handler>:
    333a:	a001                	j	333a <Break_Point_Handler>
    333c:	a001                	j	333c <Break_Point_Handler+0x2>
    333e:	a001                	j	333e <Break_Point_Handler+0x4>

00003340 <WWDG_IRQHandler>:
    3340:	a001                	j	3340 <WWDG_IRQHandler>

00003342 <PVD_IRQHandler>:
    3342:	a001                	j	3342 <PVD_IRQHandler>

00003344 <TAMPER_IRQHandler>:
    3344:	a001                	j	3344 <TAMPER_IRQHandler>

00003346 <RTC_IRQHandler>:
    3346:	a001                	j	3346 <RTC_IRQHandler>

00003348 <FLASH_IRQHandler>:
    3348:	a001                	j	3348 <FLASH_IRQHandler>

0000334a <RCC_IRQHandler>:
    334a:	a001                	j	334a <RCC_IRQHandler>

0000334c <EXTI0_IRQHandler>:
    334c:	a001                	j	334c <EXTI0_IRQHandler>

0000334e <EXTI1_IRQHandler>:
    334e:	a001                	j	334e <EXTI1_IRQHandler>

00003350 <EXTI2_IRQHandler>:
    3350:	a001                	j	3350 <EXTI2_IRQHandler>

00003352 <EXTI3_IRQHandler>:
    3352:	a001                	j	3352 <EXTI3_IRQHandler>

00003354 <EXTI4_IRQHandler>:
    3354:	a001                	j	3354 <EXTI4_IRQHandler>

00003356 <DMA1_Channel1_IRQHandler>:
    3356:	a001                	j	3356 <DMA1_Channel1_IRQHandler>

00003358 <DMA1_Channel2_IRQHandler>:
    3358:	a001                	j	3358 <DMA1_Channel2_IRQHandler>

0000335a <DMA1_Channel3_IRQHandler>:
    335a:	a001                	j	335a <DMA1_Channel3_IRQHandler>

0000335c <DMA1_Channel4_IRQHandler>:
    335c:	a001                	j	335c <DMA1_Channel4_IRQHandler>

0000335e <DMA1_Channel5_IRQHandler>:
    335e:	a001                	j	335e <DMA1_Channel5_IRQHandler>

00003360 <DMA1_Channel6_IRQHandler>:
    3360:	a001                	j	3360 <DMA1_Channel6_IRQHandler>

00003362 <DMA1_Channel7_IRQHandler>:
    3362:	a001                	j	3362 <DMA1_Channel7_IRQHandler>

00003364 <ADC1_2_IRQHandler>:
    3364:	a001                	j	3364 <ADC1_2_IRQHandler>

00003366 <USB_HP_CAN1_TX_IRQHandler>:
    3366:	a001                	j	3366 <USB_HP_CAN1_TX_IRQHandler>

00003368 <USB_LP_CAN1_RX0_IRQHandler>:
    3368:	a001                	j	3368 <USB_LP_CAN1_RX0_IRQHandler>

0000336a <CAN1_RX1_IRQHandler>:
    336a:	a001                	j	336a <CAN1_RX1_IRQHandler>

0000336c <CAN1_SCE_IRQHandler>:
    336c:	a001                	j	336c <CAN1_SCE_IRQHandler>

0000336e <EXTI9_5_IRQHandler>:
    336e:	a001                	j	336e <EXTI9_5_IRQHandler>

00003370 <TIM1_BRK_IRQHandler>:
    3370:	a001                	j	3370 <TIM1_BRK_IRQHandler>
    3372:	a001                	j	3372 <TIM1_BRK_IRQHandler+0x2>

00003374 <TIM1_TRG_COM_IRQHandler>:
    3374:	a001                	j	3374 <TIM1_TRG_COM_IRQHandler>
    3376:	a001                	j	3376 <TIM1_TRG_COM_IRQHandler+0x2>

00003378 <TIM2_IRQHandler>:
    3378:	a001                	j	3378 <TIM2_IRQHandler>

0000337a <TIM3_IRQHandler>:
    337a:	a001                	j	337a <TIM3_IRQHandler>

0000337c <TIM4_IRQHandler>:
    337c:	a001                	j	337c <TIM4_IRQHandler>

0000337e <I2C1_EV_IRQHandler>:
    337e:	a001                	j	337e <I2C1_EV_IRQHandler>

00003380 <I2C1_ER_IRQHandler>:
    3380:	a001                	j	3380 <I2C1_ER_IRQHandler>

00003382 <I2C2_EV_IRQHandler>:
    3382:	a001                	j	3382 <I2C2_EV_IRQHandler>

00003384 <I2C2_ER_IRQHandler>:
    3384:	a001                	j	3384 <I2C2_ER_IRQHandler>

00003386 <SPI1_IRQHandler>:
    3386:	a001                	j	3386 <SPI1_IRQHandler>

00003388 <SPI2_IRQHandler>:
    3388:	a001                	j	3388 <SPI2_IRQHandler>

0000338a <USART1_IRQHandler>:
    338a:	a001                	j	338a <USART1_IRQHandler>

0000338c <USART2_IRQHandler>:
    338c:	a001                	j	338c <USART2_IRQHandler>

0000338e <USART3_IRQHandler>:
    338e:	a001                	j	338e <USART3_IRQHandler>

00003390 <EXTI15_10_IRQHandler>:
    3390:	a001                	j	3390 <EXTI15_10_IRQHandler>

00003392 <RTCAlarm_IRQHandler>:
    3392:	a001                	j	3392 <RTCAlarm_IRQHandler>

00003394 <USBWakeUp_IRQHandler>:
    3394:	a001                	j	3394 <USBWakeUp_IRQHandler>

00003396 <USBHD_IRQHandler>:
    3396:	a001                	j	3396 <USBHD_IRQHandler>

00003398 <USBHDWakeUp_IRQHandler>:
    3398:	a001                	j	3398 <USBHDWakeUp_IRQHandler>
    339a:	a001                	j	339a <USBHDWakeUp_IRQHandler+0x2>

0000339c <DMA1_Channel8_IRQHandler>:
    339c:	a001                	j	339c <DMA1_Channel8_IRQHandler>

0000339e <handle_reset>:
    339e:	1fffd197          	auipc	gp,0x1fffd
    33a2:	4e218193          	addi	gp,gp,1250 # 20000880 <__global_pointer$>
    33a6:	20002117          	auipc	sp,0x20002
    33aa:	c5a10113          	addi	sp,sp,-934 # 20005000 <__freertos_irq_stack_top>
    33ae:	0000a517          	auipc	a0,0xa
    33b2:	6b650513          	addi	a0,a0,1718 # da64 <_data_lma>
    33b6:	1fffd597          	auipc	a1,0x1fffd
    33ba:	c4a58593          	addi	a1,a1,-950 # 20000000 <_data_vma>
    33be:	82818613          	addi	a2,gp,-2008 # 200000a8 <_edata>
    33c2:	00c5fa63          	bgeu	a1,a2,33d6 <handle_reset+0x38>
    33c6:	00052283          	lw	t0,0(a0)
    33ca:	0055a023          	sw	t0,0(a1)
    33ce:	0511                	addi	a0,a0,4
    33d0:	0591                	addi	a1,a1,4
    33d2:	fec5eae3          	bltu	a1,a2,33c6 <handle_reset+0x28>
    33d6:	1fffd517          	auipc	a0,0x1fffd
    33da:	cd250513          	addi	a0,a0,-814 # 200000a8 <_edata>
    33de:	20000597          	auipc	a1,0x20000
    33e2:	02a58593          	addi	a1,a1,42 # 20003408 <_ebss>
    33e6:	00b57763          	bgeu	a0,a1,33f4 <handle_reset+0x56>
    33ea:	00052023          	sw	zero,0(a0)
    33ee:	0511                	addi	a0,a0,4
    33f0:	feb56de3          	bltu	a0,a1,33ea <handle_reset+0x4c>
    33f4:	42fd                	li	t0,31
    33f6:	bc029073          	csrw	0xbc0,t0
    33fa:	4289                	li	t0,2
    33fc:	80429073          	csrw	0x804,t0
    3400:	000022b7          	lui	t0,0x2
    3404:	80028293          	addi	t0,t0,-2048 # 1800 <xTaskResumeAll+0x6e>
    3408:	3002a073          	csrs	mstatus,t0
    340c:	ffffd297          	auipc	t0,0xffffd
    3410:	c2c28293          	addi	t0,t0,-980 # 38 <_einit>
    3414:	0032e293          	ori	t0,t0,3
    3418:	30529073          	csrw	mtvec,t0
    341c:	5ee010ef          	jal	ra,4a0a <SystemInit>
    3420:	00003297          	auipc	t0,0x3
    3424:	8dc28293          	addi	t0,t0,-1828 # 5cfc <main>
    3428:	34129073          	csrw	mepc,t0
    342c:	30200073          	mret

00003430 <ADC_Init>:
    3430:	415c                	lw	a5,4(a0)
    3432:	e0f10737          	lui	a4,0xe0f10
    3436:	eff70713          	addi	a4,a4,-257 # e0f0feff <__freertos_irq_stack_top+0xc0f0aeff>
    343a:	4d94                	lw	a3,24(a1)
    343c:	8f7d                	and	a4,a4,a5
    343e:	419c                	lw	a5,0(a1)
    3440:	8fd5                	or	a5,a5,a3
    3442:	4dd4                	lw	a3,28(a1)
    3444:	8fd5                	or	a5,a5,a3
    3446:	41d4                	lw	a3,4(a1)
    3448:	06a2                	slli	a3,a3,0x8
    344a:	8fd5                	or	a5,a5,a3
    344c:	8fd9                	or	a5,a5,a4
    344e:	c15c                	sw	a5,4(a0)
    3450:	451c                	lw	a5,8(a0)
    3452:	fff1f737          	lui	a4,0xfff1f
    3456:	7fd70713          	addi	a4,a4,2045 # fff1f7fd <__freertos_irq_stack_top+0xdff1a7fd>
    345a:	45d4                	lw	a3,12(a1)
    345c:	8f7d                	and	a4,a4,a5
    345e:	499c                	lw	a5,16(a1)
    3460:	8fd5                	or	a5,a5,a3
    3462:	4594                	lw	a3,8(a1)
    3464:	0686                	slli	a3,a3,0x1
    3466:	8fd5                	or	a5,a5,a3
    3468:	8fd9                	or	a5,a5,a4
    346a:	c51c                	sw	a5,8(a0)
    346c:	555c                	lw	a5,44(a0)
    346e:	ff100737          	lui	a4,0xff100
    3472:	177d                	addi	a4,a4,-1
    3474:	8f7d                	and	a4,a4,a5
    3476:	0145c783          	lbu	a5,20(a1)
    347a:	17fd                	addi	a5,a5,-1
    347c:	0ff7f793          	andi	a5,a5,255
    3480:	07d2                	slli	a5,a5,0x14
    3482:	8fd9                	or	a5,a5,a4
    3484:	d55c                	sw	a5,44(a0)
    3486:	8082                	ret

00003488 <ADC_Cmd>:
    3488:	451c                	lw	a5,8(a0)
    348a:	c589                	beqz	a1,3494 <ADC_Cmd+0xc>
    348c:	0017e793          	ori	a5,a5,1
    3490:	c51c                	sw	a5,8(a0)
    3492:	8082                	ret
    3494:	9bf9                	andi	a5,a5,-2
    3496:	bfed                	j	3490 <ADC_Cmd+0x8>

00003498 <ADC_SoftwareStartConvCmd>:
    3498:	451c                	lw	a5,8(a0)
    349a:	c591                	beqz	a1,34a6 <ADC_SoftwareStartConvCmd+0xe>
    349c:	00500737          	lui	a4,0x500
    34a0:	8fd9                	or	a5,a5,a4
    34a2:	c51c                	sw	a5,8(a0)
    34a4:	8082                	ret
    34a6:	ffb00737          	lui	a4,0xffb00
    34aa:	177d                	addi	a4,a4,-1
    34ac:	8ff9                	and	a5,a5,a4
    34ae:	bfd5                	j	34a2 <ADC_SoftwareStartConvCmd+0xa>

000034b0 <ADC_RegularChannelConfig>:
    34b0:	47a5                	li	a5,9
    34b2:	04b7f763          	bgeu	a5,a1,3500 <ADC_RegularChannelConfig+0x50>
    34b6:	478d                	li	a5,3
    34b8:	ff658713          	addi	a4,a1,-10
    34bc:	02f70733          	mul	a4,a4,a5
    34c0:	00c52803          	lw	a6,12(a0)
    34c4:	479d                	li	a5,7
    34c6:	00e797b3          	sll	a5,a5,a4
    34ca:	fff7c793          	not	a5,a5
    34ce:	0107f7b3          	and	a5,a5,a6
    34d2:	00e696b3          	sll	a3,a3,a4
    34d6:	8edd                	or	a3,a3,a5
    34d8:	c554                	sw	a3,12(a0)
    34da:	4799                	li	a5,6
    34dc:	04c7e363          	bltu	a5,a2,3522 <ADC_RegularChannelConfig+0x72>
    34e0:	4795                	li	a5,5
    34e2:	167d                	addi	a2,a2,-1
    34e4:	02f60633          	mul	a2,a2,a5
    34e8:	5958                	lw	a4,52(a0)
    34ea:	47fd                	li	a5,31
    34ec:	00c797b3          	sll	a5,a5,a2
    34f0:	fff7c793          	not	a5,a5
    34f4:	8ff9                	and	a5,a5,a4
    34f6:	00c59633          	sll	a2,a1,a2
    34fa:	8e5d                	or	a2,a2,a5
    34fc:	d950                	sw	a2,52(a0)
    34fe:	8082                	ret
    3500:	470d                	li	a4,3
    3502:	02e58733          	mul	a4,a1,a4
    3506:	01052803          	lw	a6,16(a0)
    350a:	479d                	li	a5,7
    350c:	00e797b3          	sll	a5,a5,a4
    3510:	fff7c793          	not	a5,a5
    3514:	0107f7b3          	and	a5,a5,a6
    3518:	00e696b3          	sll	a3,a3,a4
    351c:	8edd                	or	a3,a3,a5
    351e:	c914                	sw	a3,16(a0)
    3520:	bf6d                	j	34da <ADC_RegularChannelConfig+0x2a>
    3522:	47b1                	li	a5,12
    3524:	02c7e263          	bltu	a5,a2,3548 <ADC_RegularChannelConfig+0x98>
    3528:	4795                	li	a5,5
    352a:	1665                	addi	a2,a2,-7
    352c:	02f60633          	mul	a2,a2,a5
    3530:	5918                	lw	a4,48(a0)
    3532:	47fd                	li	a5,31
    3534:	00c797b3          	sll	a5,a5,a2
    3538:	fff7c793          	not	a5,a5
    353c:	8ff9                	and	a5,a5,a4
    353e:	00c59633          	sll	a2,a1,a2
    3542:	8e5d                	or	a2,a2,a5
    3544:	d910                	sw	a2,48(a0)
    3546:	8082                	ret
    3548:	4795                	li	a5,5
    354a:	164d                	addi	a2,a2,-13
    354c:	02f60633          	mul	a2,a2,a5
    3550:	5558                	lw	a4,44(a0)
    3552:	47fd                	li	a5,31
    3554:	00c797b3          	sll	a5,a5,a2
    3558:	fff7c793          	not	a5,a5
    355c:	8ff9                	and	a5,a5,a4
    355e:	00c595b3          	sll	a1,a1,a2
    3562:	8ddd                	or	a1,a1,a5
    3564:	d54c                	sw	a1,44(a0)
    3566:	8082                	ret

00003568 <ADC_GetConversionValue>:
    3568:	4568                	lw	a0,76(a0)
    356a:	0542                	slli	a0,a0,0x10
    356c:	8141                	srli	a0,a0,0x10
    356e:	8082                	ret

00003570 <ADC_GetFlagStatus>:
    3570:	4108                	lw	a0,0(a0)
    3572:	8d6d                	and	a0,a0,a1
    3574:	00a03533          	snez	a0,a0
    3578:	8082                	ret

0000357a <GPIO_Init>:
    357a:	459c                	lw	a5,8(a1)
    357c:	0107f713          	andi	a4,a5,16
    3580:	00f7f813          	andi	a6,a5,15
    3584:	c701                	beqz	a4,358c <GPIO_Init+0x12>
    3586:	41d8                	lw	a4,4(a1)
    3588:	00e86833          	or	a6,a6,a4
    358c:	40022737          	lui	a4,0x40022
    3590:	5b14                	lw	a3,48(a4)
    3592:	0f000737          	lui	a4,0xf000
    3596:	8f75                	and	a4,a4,a3
    3598:	ef55                	bnez	a4,3654 <GPIO_Init+0xda>
    359a:	20000737          	lui	a4,0x20000
    359e:	4685                	li	a3,1
    35a0:	12d70423          	sb	a3,296(a4) # 20000128 <MCU_Version>
    35a4:	40011737          	lui	a4,0x40011
    35a8:	00e51763          	bne	a0,a4,35b6 <GPIO_Init+0x3c>
    35ac:	0005d703          	lhu	a4,0(a1)
    35b0:	8335                	srli	a4,a4,0xd
    35b2:	00e59023          	sh	a4,0(a1)
    35b6:	0005d583          	lhu	a1,0(a1)
    35ba:	0ff5f713          	andi	a4,a1,255
    35be:	c339                	beqz	a4,3604 <GPIO_Init+0x8a>
    35c0:	4118                	lw	a4,0(a0)
    35c2:	4681                	li	a3,0
    35c4:	4e85                	li	t4,1
    35c6:	4f3d                	li	t5,15
    35c8:	02800f93          	li	t6,40
    35cc:	04800293          	li	t0,72
    35d0:	4e21                	li	t3,8
    35d2:	00de9633          	sll	a2,t4,a3
    35d6:	00c5f8b3          	and	a7,a1,a2
    35da:	03161163          	bne	a2,a7,35fc <GPIO_Init+0x82>
    35de:	00269893          	slli	a7,a3,0x2
    35e2:	011f1333          	sll	t1,t5,a7
    35e6:	fff34313          	not	t1,t1
    35ea:	00e37733          	and	a4,t1,a4
    35ee:	011818b3          	sll	a7,a6,a7
    35f2:	00e8e733          	or	a4,a7,a4
    35f6:	07f79963          	bne	a5,t6,3668 <GPIO_Init+0xee>
    35fa:	c950                	sw	a2,20(a0)
    35fc:	0685                	addi	a3,a3,1
    35fe:	fdc69ae3          	bne	a3,t3,35d2 <GPIO_Init+0x58>
    3602:	c118                	sw	a4,0(a0)
    3604:	0ff00713          	li	a4,255
    3608:	04b77563          	bgeu	a4,a1,3652 <GPIO_Init+0xd8>
    360c:	4154                	lw	a3,4(a0)
    360e:	4621                	li	a2,8
    3610:	4e85                	li	t4,1
    3612:	4f3d                	li	t5,15
    3614:	02800f93          	li	t6,40
    3618:	04800293          	li	t0,72
    361c:	4e41                	li	t3,16
    361e:	00ce98b3          	sll	a7,t4,a2
    3622:	0115f733          	and	a4,a1,a7
    3626:	02e89263          	bne	a7,a4,364a <GPIO_Init+0xd0>
    362a:	00261713          	slli	a4,a2,0x2
    362e:	1701                	addi	a4,a4,-32
    3630:	00ef1333          	sll	t1,t5,a4
    3634:	fff34313          	not	t1,t1
    3638:	00d376b3          	and	a3,t1,a3
    363c:	00e81733          	sll	a4,a6,a4
    3640:	8ed9                	or	a3,a3,a4
    3642:	03f79763          	bne	a5,t6,3670 <GPIO_Init+0xf6>
    3646:	01152a23          	sw	a7,20(a0)
    364a:	0605                	addi	a2,a2,1
    364c:	fdc619e3          	bne	a2,t3,361e <GPIO_Init+0xa4>
    3650:	c154                	sw	a3,4(a0)
    3652:	8082                	ret
    3654:	40011737          	lui	a4,0x40011
    3658:	f4e51fe3          	bne	a0,a4,35b6 <GPIO_Init+0x3c>
    365c:	20000737          	lui	a4,0x20000
    3660:	12874703          	lbu	a4,296(a4) # 20000128 <MCU_Version>
    3664:	db29                	beqz	a4,35b6 <GPIO_Init+0x3c>
    3666:	b799                	j	35ac <GPIO_Init+0x32>
    3668:	f8579ae3          	bne	a5,t0,35fc <GPIO_Init+0x82>
    366c:	c910                	sw	a2,16(a0)
    366e:	b779                	j	35fc <GPIO_Init+0x82>
    3670:	fc579de3          	bne	a5,t0,364a <GPIO_Init+0xd0>
    3674:	01152823          	sw	a7,16(a0)
    3678:	bfc9                	j	364a <GPIO_Init+0xd0>

0000367a <GPIO_SetBits>:
    367a:	400117b7          	lui	a5,0x40011
    367e:	00f51863          	bne	a0,a5,368e <GPIO_SetBits+0x14>
    3682:	200007b7          	lui	a5,0x20000
    3686:	1287c783          	lbu	a5,296(a5) # 20000128 <MCU_Version>
    368a:	c391                	beqz	a5,368e <GPIO_SetBits+0x14>
    368c:	81b5                	srli	a1,a1,0xd
    368e:	c90c                	sw	a1,16(a0)
    3690:	8082                	ret

00003692 <GPIO_ResetBits>:
    3692:	400117b7          	lui	a5,0x40011
    3696:	00f51863          	bne	a0,a5,36a6 <GPIO_ResetBits+0x14>
    369a:	200007b7          	lui	a5,0x20000
    369e:	1287c783          	lbu	a5,296(a5) # 20000128 <MCU_Version>
    36a2:	c391                	beqz	a5,36a6 <GPIO_ResetBits+0x14>
    36a4:	81b5                	srli	a1,a1,0xd
    36a6:	c94c                	sw	a1,20(a0)
    36a8:	8082                	ret

000036aa <I2C_Init>:
    36aa:	e75fc2ef          	jal	t0,51e <__riscv_save_0>
    36ae:	7179                	addi	sp,sp,-48
    36b0:	842a                	mv	s0,a0
    36b2:	00455483          	lhu	s1,4(a0)
    36b6:	0868                	addi	a0,sp,28
    36b8:	c62e                	sw	a1,12(sp)
    36ba:	24e9                	jal	3984 <RCC_GetClocksFreq>
    36bc:	5792                	lw	a5,36(sp)
    36be:	000f4737          	lui	a4,0xf4
    36c2:	24070713          	addi	a4,a4,576 # f4240 <_data_lma+0xe67dc>
    36c6:	02e7d733          	divu	a4,a5,a4
    36ca:	04c2                	slli	s1,s1,0x10
    36cc:	80c1                	srli	s1,s1,0x10
    36ce:	fc04f493          	andi	s1,s1,-64
    36d2:	04c2                	slli	s1,s1,0x10
    36d4:	80c1                	srli	s1,s1,0x10
    36d6:	45b2                	lw	a1,12(sp)
    36d8:	6561                	lui	a0,0x18
    36da:	6a050513          	addi	a0,a0,1696 # 186a0 <_data_lma+0xac3c>
    36de:	01071613          	slli	a2,a4,0x10
    36e2:	8241                	srli	a2,a2,0x10
    36e4:	8cd1                	or	s1,s1,a2
    36e6:	00941223          	sh	s1,4(s0)
    36ea:	00045683          	lhu	a3,0(s0)
    36ee:	06c2                	slli	a3,a3,0x10
    36f0:	82c1                	srli	a3,a3,0x10
    36f2:	9af9                	andi	a3,a3,-2
    36f4:	06c2                	slli	a3,a3,0x10
    36f6:	82c1                	srli	a3,a3,0x10
    36f8:	00d41023          	sh	a3,0(s0)
    36fc:	4194                	lw	a3,0(a1)
    36fe:	06d56463          	bltu	a0,a3,3766 <I2C_Init+0xbc>
    3702:	0686                	slli	a3,a3,0x1
    3704:	02d7d7b3          	divu	a5,a5,a3
    3708:	4691                	li	a3,4
    370a:	01079713          	slli	a4,a5,0x10
    370e:	8341                	srli	a4,a4,0x10
    3710:	87ba                	mv	a5,a4
    3712:	00d77363          	bgeu	a4,a3,3718 <I2C_Init+0x6e>
    3716:	4791                	li	a5,4
    3718:	0605                	addi	a2,a2,1
    371a:	0642                	slli	a2,a2,0x10
    371c:	07c2                	slli	a5,a5,0x10
    371e:	8241                	srli	a2,a2,0x10
    3720:	83c1                	srli	a5,a5,0x10
    3722:	02c41023          	sh	a2,32(s0)
    3726:	00f41e23          	sh	a5,28(s0)
    372a:	00045783          	lhu	a5,0(s0)
    372e:	0045d703          	lhu	a4,4(a1)
    3732:	00a5d683          	lhu	a3,10(a1)
    3736:	0017e793          	ori	a5,a5,1
    373a:	00f41023          	sh	a5,0(s0)
    373e:	00045783          	lhu	a5,0(s0)
    3742:	8f55                	or	a4,a4,a3
    3744:	07c2                	slli	a5,a5,0x10
    3746:	83c1                	srli	a5,a5,0x10
    3748:	bf57f793          	andi	a5,a5,-1035
    374c:	8fd9                	or	a5,a5,a4
    374e:	00f41023          	sh	a5,0(s0)
    3752:	0085d703          	lhu	a4,8(a1)
    3756:	00c5d783          	lhu	a5,12(a1)
    375a:	8fd9                	or	a5,a5,a4
    375c:	00f41423          	sh	a5,8(s0)
    3760:	6145                	addi	sp,sp,48
    3762:	de1fc06f          	j	542 <__riscv_restore_0>
    3766:	0065d503          	lhu	a0,6(a1)
    376a:	6631                	lui	a2,0xc
    376c:	167d                	addi	a2,a2,-1
    376e:	02c51e63          	bne	a0,a2,37aa <I2C_Init+0x100>
    3772:	460d                	li	a2,3
    3774:	02c686b3          	mul	a3,a3,a2
    3778:	02d7d7b3          	divu	a5,a5,a3
    377c:	07c2                	slli	a5,a5,0x10
    377e:	83c1                	srli	a5,a5,0x10
    3780:	01479693          	slli	a3,a5,0x14
    3784:	e299                	bnez	a3,378a <I2C_Init+0xe0>
    3786:	0017e793          	ori	a5,a5,1
    378a:	66a1                	lui	a3,0x8
    378c:	8fd5                	or	a5,a5,a3
    378e:	12c00693          	li	a3,300
    3792:	02d70733          	mul	a4,a4,a3
    3796:	3e800693          	li	a3,1000
    379a:	02d74733          	div	a4,a4,a3
    379e:	0705                	addi	a4,a4,1
    37a0:	0742                	slli	a4,a4,0x10
    37a2:	8341                	srli	a4,a4,0x10
    37a4:	02e41023          	sh	a4,32(s0)
    37a8:	bfbd                	j	3726 <I2C_Init+0x7c>
    37aa:	4665                	li	a2,25
    37ac:	02c686b3          	mul	a3,a3,a2
    37b0:	02d7d7b3          	divu	a5,a5,a3
    37b4:	6691                	lui	a3,0x4
    37b6:	07c2                	slli	a5,a5,0x10
    37b8:	83c1                	srli	a5,a5,0x10
    37ba:	8fd5                	or	a5,a5,a3
    37bc:	b7d1                	j	3780 <I2C_Init+0xd6>

000037be <I2C_Cmd>:
    37be:	00055783          	lhu	a5,0(a0)
    37c2:	c591                	beqz	a1,37ce <I2C_Cmd+0x10>
    37c4:	0017e793          	ori	a5,a5,1
    37c8:	00f51023          	sh	a5,0(a0)
    37cc:	8082                	ret
    37ce:	07c2                	slli	a5,a5,0x10
    37d0:	83c1                	srli	a5,a5,0x10
    37d2:	9bf9                	andi	a5,a5,-2
    37d4:	07c2                	slli	a5,a5,0x10
    37d6:	83c1                	srli	a5,a5,0x10
    37d8:	bfc5                	j	37c8 <I2C_Cmd+0xa>

000037da <I2C_GenerateSTART>:
    37da:	00055783          	lhu	a5,0(a0)
    37de:	c591                	beqz	a1,37ea <I2C_GenerateSTART+0x10>
    37e0:	1007e793          	ori	a5,a5,256
    37e4:	00f51023          	sh	a5,0(a0)
    37e8:	8082                	ret
    37ea:	07c2                	slli	a5,a5,0x10
    37ec:	83c1                	srli	a5,a5,0x10
    37ee:	eff7f793          	andi	a5,a5,-257
    37f2:	07c2                	slli	a5,a5,0x10
    37f4:	83c1                	srli	a5,a5,0x10
    37f6:	b7fd                	j	37e4 <I2C_GenerateSTART+0xa>

000037f8 <I2C_GenerateSTOP>:
    37f8:	00055783          	lhu	a5,0(a0)
    37fc:	c591                	beqz	a1,3808 <I2C_GenerateSTOP+0x10>
    37fe:	2007e793          	ori	a5,a5,512
    3802:	00f51023          	sh	a5,0(a0)
    3806:	8082                	ret
    3808:	07c2                	slli	a5,a5,0x10
    380a:	83c1                	srli	a5,a5,0x10
    380c:	dff7f793          	andi	a5,a5,-513
    3810:	07c2                	slli	a5,a5,0x10
    3812:	83c1                	srli	a5,a5,0x10
    3814:	b7fd                	j	3802 <I2C_GenerateSTOP+0xa>

00003816 <I2C_SendData>:
    3816:	00b51823          	sh	a1,16(a0)
    381a:	8082                	ret

0000381c <I2C_ReceiveData>:
    381c:	01055503          	lhu	a0,16(a0)
    3820:	0ff57513          	andi	a0,a0,255
    3824:	8082                	ret

00003826 <I2C_Send7bitAddress>:
    3826:	0fe5f793          	andi	a5,a1,254
    382a:	c219                	beqz	a2,3830 <I2C_Send7bitAddress+0xa>
    382c:	0015e793          	ori	a5,a1,1
    3830:	07c2                	slli	a5,a5,0x10
    3832:	83c1                	srli	a5,a5,0x10
    3834:	00f51823          	sh	a5,16(a0)
    3838:	8082                	ret

0000383a <I2C_NACKPositionConfig>:
    383a:	00055703          	lhu	a4,0(a0)
    383e:	80058593          	addi	a1,a1,-2048
    3842:	e991                	bnez	a1,3856 <I2C_NACKPositionConfig+0x1c>
    3844:	6785                	lui	a5,0x1
    3846:	80078793          	addi	a5,a5,-2048 # 800 <__stack_size>
    384a:	8fd9                	or	a5,a5,a4
    384c:	07c2                	slli	a5,a5,0x10
    384e:	83c1                	srli	a5,a5,0x10
    3850:	00f51023          	sh	a5,0(a0)
    3854:	8082                	ret
    3856:	77fd                	lui	a5,0xfffff
    3858:	7ff78793          	addi	a5,a5,2047 # fffff7ff <__freertos_irq_stack_top+0xdfffa7ff>
    385c:	8ff9                	and	a5,a5,a4
    385e:	bfcd                	j	3850 <I2C_NACKPositionConfig+0x16>

00003860 <I2C_CheckEvent>:
    3860:	01455783          	lhu	a5,20(a0)
    3864:	01855503          	lhu	a0,24(a0)
    3868:	0542                	slli	a0,a0,0x10
    386a:	8d5d                	or	a0,a0,a5
    386c:	8d6d                	and	a0,a0,a1
    386e:	0522                	slli	a0,a0,0x8
    3870:	8121                	srli	a0,a0,0x8
    3872:	8d0d                	sub	a0,a0,a1
    3874:	00153513          	seqz	a0,a0
    3878:	8082                	ret

0000387a <I2C_GetFlagStatus>:
    387a:	1141                	addi	sp,sp,-16
    387c:	c402                	sw	zero,8(sp)
    387e:	c602                	sw	zero,12(sp)
    3880:	01c5d793          	srli	a5,a1,0x1c
    3884:	c62a                	sw	a0,12(sp)
    3886:	c43e                	sw	a5,8(sp)
    3888:	47a2                	lw	a5,8(sp)
    388a:	05a2                	slli	a1,a1,0x8
    388c:	81a1                	srli	a1,a1,0x8
    388e:	cb99                	beqz	a5,38a4 <I2C_GetFlagStatus+0x2a>
    3890:	47b2                	lw	a5,12(sp)
    3892:	07d1                	addi	a5,a5,20
    3894:	c63e                	sw	a5,12(sp)
    3896:	47b2                	lw	a5,12(sp)
    3898:	4388                	lw	a0,0(a5)
    389a:	0141                	addi	sp,sp,16
    389c:	8d6d                	and	a0,a0,a1
    389e:	00a03533          	snez	a0,a0
    38a2:	8082                	ret
    38a4:	47b2                	lw	a5,12(sp)
    38a6:	81c1                	srli	a1,a1,0x10
    38a8:	07e1                	addi	a5,a5,24
    38aa:	b7ed                	j	3894 <I2C_GetFlagStatus+0x1a>

000038ac <NVIC_PriorityGroupConfig>:
    38ac:	200007b7          	lui	a5,0x20000
    38b0:	12a7a623          	sw	a0,300(a5) # 2000012c <NVIC_Priority_Group>
    38b4:	8082                	ret

000038b6 <NVIC_Init>:
    38b6:	200007b7          	lui	a5,0x20000
    38ba:	12c78793          	addi	a5,a5,300 # 2000012c <NVIC_Priority_Group>
    38be:	4394                	lw	a3,0(a5)
    38c0:	00054703          	lbu	a4,0(a0)
    38c4:	e689                	bnez	a3,38ce <NVIC_Init+0x18>
    38c6:	00254783          	lbu	a5,2(a0)
    38ca:	0792                	slli	a5,a5,0x4
    38cc:	a831                	j	38e8 <NVIC_Init+0x32>
    38ce:	4394                	lw	a3,0(a5)
    38d0:	4605                	li	a2,1
    38d2:	04c69163          	bne	a3,a2,3914 <NVIC_Init+0x5e>
    38d6:	00254783          	lbu	a5,2(a0)
    38da:	00154603          	lbu	a2,1(a0)
    38de:	0792                	slli	a5,a5,0x4
    38e0:	00d61463          	bne	a2,a3,38e8 <NVIC_Init+0x32>
    38e4:	f807e793          	ori	a5,a5,-128
    38e8:	e000e6b7          	lui	a3,0xe000e
    38ec:	0ff7f793          	andi	a5,a5,255
    38f0:	96ba                	add	a3,a3,a4
    38f2:	40f68023          	sb	a5,1024(a3) # e000e400 <__freertos_irq_stack_top+0xc0009400>
    38f6:	4685                	li	a3,1
    38f8:	00575793          	srli	a5,a4,0x5
    38fc:	00e69733          	sll	a4,a3,a4
    3900:	4154                	lw	a3,4(a0)
    3902:	c6ad                	beqz	a3,396c <NVIC_Init+0xb6>
    3904:	04078793          	addi	a5,a5,64
    3908:	078a                	slli	a5,a5,0x2
    390a:	e000e6b7          	lui	a3,0xe000e
    390e:	97b6                	add	a5,a5,a3
    3910:	c398                	sw	a4,0(a5)
    3912:	8082                	ret
    3914:	438c                	lw	a1,0(a5)
    3916:	4689                	li	a3,2
    3918:	02d59363          	bne	a1,a3,393e <NVIC_Init+0x88>
    391c:	00154683          	lbu	a3,1(a0)
    3920:	00254783          	lbu	a5,2(a0)
    3924:	00d66563          	bltu	a2,a3,392e <NVIC_Init+0x78>
    3928:	068a                	slli	a3,a3,0x2
    392a:	97b6                	add	a5,a5,a3
    392c:	bf79                	j	38ca <NVIC_Init+0x14>
    392e:	03e68693          	addi	a3,a3,62 # e000e03e <__freertos_irq_stack_top+0xc000903e>
    3932:	068a                	slli	a3,a3,0x2
    3934:	97b6                	add	a5,a5,a3
    3936:	0ff7f793          	andi	a5,a5,255
    393a:	0792                	slli	a5,a5,0x4
    393c:	b765                	j	38e4 <NVIC_Init+0x2e>
    393e:	4390                	lw	a2,0(a5)
    3940:	468d                	li	a3,3
    3942:	00d61e63          	bne	a2,a3,395e <NVIC_Init+0xa8>
    3946:	00154683          	lbu	a3,1(a0)
    394a:	00254783          	lbu	a5,2(a0)
    394e:	00d66463          	bltu	a2,a3,3956 <NVIC_Init+0xa0>
    3952:	0686                	slli	a3,a3,0x1
    3954:	bfd9                	j	392a <NVIC_Init+0x74>
    3956:	07c68693          	addi	a3,a3,124
    395a:	0686                	slli	a3,a3,0x1
    395c:	bfe1                	j	3934 <NVIC_Init+0x7e>
    395e:	4394                	lw	a3,0(a5)
    3960:	4791                	li	a5,4
    3962:	f8f69ae3          	bne	a3,a5,38f6 <NVIC_Init+0x40>
    3966:	00154783          	lbu	a5,1(a0)
    396a:	b785                	j	38ca <NVIC_Init+0x14>
    396c:	06078793          	addi	a5,a5,96
    3970:	bf61                	j	3908 <NVIC_Init+0x52>

00003972 <RCC_ADCCLKConfig>:
    3972:	400216b7          	lui	a3,0x40021
    3976:	42dc                	lw	a5,4(a3)
    3978:	7751                	lui	a4,0xffff4
    397a:	177d                	addi	a4,a4,-1
    397c:	8ff9                	and	a5,a5,a4
    397e:	8d5d                	or	a0,a0,a5
    3980:	c2c8                	sw	a0,4(a3)
    3982:	8082                	ret

00003984 <RCC_GetClocksFreq>:
    3984:	40021737          	lui	a4,0x40021
    3988:	435c                	lw	a5,4(a4)
    398a:	4691                	li	a3,4
    398c:	8bb1                	andi	a5,a5,12
    398e:	00d78563          	beq	a5,a3,3998 <RCC_GetClocksFreq+0x14>
    3992:	46a1                	li	a3,8
    3994:	06d78663          	beq	a5,a3,3a00 <RCC_GetClocksFreq+0x7c>
    3998:	007a17b7          	lui	a5,0x7a1
    399c:	20078793          	addi	a5,a5,512 # 7a1200 <_data_lma+0x79379c>
    39a0:	c11c                	sw	a5,0(a0)
    39a2:	40021637          	lui	a2,0x40021
    39a6:	425c                	lw	a5,4(a2)
    39a8:	20000737          	lui	a4,0x20000
    39ac:	00070713          	mv	a4,a4
    39b0:	8391                	srli	a5,a5,0x4
    39b2:	8bbd                	andi	a5,a5,15
    39b4:	97ba                	add	a5,a5,a4
    39b6:	0007c683          	lbu	a3,0(a5)
    39ba:	411c                	lw	a5,0(a0)
    39bc:	00d7d7b3          	srl	a5,a5,a3
    39c0:	c15c                	sw	a5,4(a0)
    39c2:	4254                	lw	a3,4(a2)
    39c4:	82a1                	srli	a3,a3,0x8
    39c6:	8a9d                	andi	a3,a3,7
    39c8:	96ba                	add	a3,a3,a4
    39ca:	0006c683          	lbu	a3,0(a3) # 40021000 <__freertos_irq_stack_top+0x2001c000>
    39ce:	00d7d6b3          	srl	a3,a5,a3
    39d2:	c514                	sw	a3,8(a0)
    39d4:	4254                	lw	a3,4(a2)
    39d6:	82ad                	srli	a3,a3,0xb
    39d8:	8a9d                	andi	a3,a3,7
    39da:	9736                	add	a4,a4,a3
    39dc:	00074703          	lbu	a4,0(a4) # 20000000 <_data_vma>
    39e0:	00e7d7b3          	srl	a5,a5,a4
    39e4:	c55c                	sw	a5,12(a0)
    39e6:	4258                	lw	a4,4(a2)
    39e8:	8339                	srli	a4,a4,0xe
    39ea:	00377693          	andi	a3,a4,3
    39ee:	80c18713          	addi	a4,gp,-2036 # 2000008c <ADCPrescTable>
    39f2:	9736                	add	a4,a4,a3
    39f4:	00074703          	lbu	a4,0(a4)
    39f8:	02e7d7b3          	divu	a5,a5,a4
    39fc:	c91c                	sw	a5,16(a0)
    39fe:	8082                	ret
    3a00:	435c                	lw	a5,4(a4)
    3a02:	4358                	lw	a4,4(a4)
    3a04:	66c1                	lui	a3,0x10
    3a06:	83c9                	srli	a5,a5,0x12
    3a08:	8bbd                	andi	a5,a5,15
    3a0a:	8f75                	and	a4,a4,a3
    3a0c:	0789                	addi	a5,a5,2
    3a0e:	46c5                	li	a3,17
    3a10:	00d79363          	bne	a5,a3,3a16 <RCC_GetClocksFreq+0x92>
    3a14:	47c9                	li	a5,18
    3a16:	ef01                	bnez	a4,3a2e <RCC_GetClocksFreq+0xaa>
    3a18:	40024737          	lui	a4,0x40024
    3a1c:	80072703          	lw	a4,-2048(a4) # 40023800 <__freertos_irq_stack_top+0x2001e800>
    3a20:	8b41                	andi	a4,a4,16
    3a22:	cf09                	beqz	a4,3a3c <RCC_GetClocksFreq+0xb8>
    3a24:	007a1737          	lui	a4,0x7a1
    3a28:	20070713          	addi	a4,a4,512 # 7a1200 <_data_lma+0x79379c>
    3a2c:	a821                	j	3a44 <RCC_GetClocksFreq+0xc0>
    3a2e:	40021737          	lui	a4,0x40021
    3a32:	4358                	lw	a4,4(a4)
    3a34:	00e71693          	slli	a3,a4,0xe
    3a38:	fe06d6e3          	bgez	a3,3a24 <RCC_GetClocksFreq+0xa0>
    3a3c:	003d1737          	lui	a4,0x3d1
    3a40:	90070713          	addi	a4,a4,-1792 # 3d0900 <_data_lma+0x3c2e9c>
    3a44:	02e787b3          	mul	a5,a5,a4
    3a48:	bfa1                	j	39a0 <RCC_GetClocksFreq+0x1c>

00003a4a <RCC_AHBPeriphClockCmd>:
    3a4a:	c599                	beqz	a1,3a58 <RCC_AHBPeriphClockCmd+0xe>
    3a4c:	40021737          	lui	a4,0x40021
    3a50:	4b5c                	lw	a5,20(a4)
    3a52:	8d5d                	or	a0,a0,a5
    3a54:	cb48                	sw	a0,20(a4)
    3a56:	8082                	ret
    3a58:	400217b7          	lui	a5,0x40021
    3a5c:	4bd8                	lw	a4,20(a5)
    3a5e:	fff54513          	not	a0,a0
    3a62:	8d79                	and	a0,a0,a4
    3a64:	cbc8                	sw	a0,20(a5)
    3a66:	8082                	ret

00003a68 <RCC_APB2PeriphClockCmd>:
    3a68:	c599                	beqz	a1,3a76 <RCC_APB2PeriphClockCmd+0xe>
    3a6a:	40021737          	lui	a4,0x40021
    3a6e:	4f1c                	lw	a5,24(a4)
    3a70:	8d5d                	or	a0,a0,a5
    3a72:	cf08                	sw	a0,24(a4)
    3a74:	8082                	ret
    3a76:	400217b7          	lui	a5,0x40021
    3a7a:	4f98                	lw	a4,24(a5)
    3a7c:	fff54513          	not	a0,a0
    3a80:	8d79                	and	a0,a0,a4
    3a82:	cf88                	sw	a0,24(a5)
    3a84:	8082                	ret

00003a86 <RCC_APB1PeriphClockCmd>:
    3a86:	c599                	beqz	a1,3a94 <RCC_APB1PeriphClockCmd+0xe>
    3a88:	40021737          	lui	a4,0x40021
    3a8c:	4f5c                	lw	a5,28(a4)
    3a8e:	8d5d                	or	a0,a0,a5
    3a90:	cf48                	sw	a0,28(a4)
    3a92:	8082                	ret
    3a94:	400217b7          	lui	a5,0x40021
    3a98:	4fd8                	lw	a4,28(a5)
    3a9a:	fff54513          	not	a0,a0
    3a9e:	8d79                	and	a0,a0,a4
    3aa0:	cfc8                	sw	a0,28(a5)
    3aa2:	8082                	ret

00003aa4 <SPI_Init>:
    3aa4:	00055703          	lhu	a4,0(a0)
    3aa8:	678d                	lui	a5,0x3
    3aaa:	04078793          	addi	a5,a5,64 # 3040 <TIM1_UP_IRQHandler+0x48>
    3aae:	0025d683          	lhu	a3,2(a1)
    3ab2:	8f7d                	and	a4,a4,a5
    3ab4:	0005d783          	lhu	a5,0(a1)
    3ab8:	8fd5                	or	a5,a5,a3
    3aba:	0045d683          	lhu	a3,4(a1)
    3abe:	8fd5                	or	a5,a5,a3
    3ac0:	0065d683          	lhu	a3,6(a1)
    3ac4:	8fd5                	or	a5,a5,a3
    3ac6:	0085d683          	lhu	a3,8(a1)
    3aca:	8fd5                	or	a5,a5,a3
    3acc:	00a5d683          	lhu	a3,10(a1)
    3ad0:	8fd5                	or	a5,a5,a3
    3ad2:	00c5d683          	lhu	a3,12(a1)
    3ad6:	8fd5                	or	a5,a5,a3
    3ad8:	00e5d683          	lhu	a3,14(a1)
    3adc:	8fd5                	or	a5,a5,a3
    3ade:	8fd9                	or	a5,a5,a4
    3ae0:	00f51023          	sh	a5,0(a0)
    3ae4:	01c55703          	lhu	a4,28(a0)
    3ae8:	77fd                	lui	a5,0xfffff
    3aea:	7ff78793          	addi	a5,a5,2047 # fffff7ff <__freertos_irq_stack_top+0xdfffa7ff>
    3aee:	8ff9                	and	a5,a5,a4
    3af0:	00f51e23          	sh	a5,28(a0)
    3af4:	0105d783          	lhu	a5,16(a1)
    3af8:	00f51823          	sh	a5,16(a0)
    3afc:	8082                	ret

00003afe <SPI_Cmd>:
    3afe:	00055783          	lhu	a5,0(a0)
    3b02:	c591                	beqz	a1,3b0e <SPI_Cmd+0x10>
    3b04:	0407e793          	ori	a5,a5,64
    3b08:	00f51023          	sh	a5,0(a0)
    3b0c:	8082                	ret
    3b0e:	07c2                	slli	a5,a5,0x10
    3b10:	83c1                	srli	a5,a5,0x10
    3b12:	fbf7f793          	andi	a5,a5,-65
    3b16:	07c2                	slli	a5,a5,0x10
    3b18:	83c1                	srli	a5,a5,0x10
    3b1a:	b7fd                	j	3b08 <SPI_Cmd+0xa>

00003b1c <SPI_I2S_SendData>:
    3b1c:	00b51623          	sh	a1,12(a0)
    3b20:	8082                	ret

00003b22 <SPI_I2S_ReceiveData>:
    3b22:	00c55503          	lhu	a0,12(a0)
    3b26:	8082                	ret

00003b28 <SPI_I2S_GetFlagStatus>:
    3b28:	00855503          	lhu	a0,8(a0)
    3b2c:	8d6d                	and	a0,a0,a1
    3b2e:	00a03533          	snez	a0,a0
    3b32:	8082                	ret

00003b34 <TI1_Config>:
    3b34:	02055783          	lhu	a5,32(a0)
    3b38:	0692                	slli	a3,a3,0x4
    3b3a:	8e55                	or	a2,a2,a3
    3b3c:	07c2                	slli	a5,a5,0x10
    3b3e:	83c1                	srli	a5,a5,0x10
    3b40:	9bf9                	andi	a5,a5,-2
    3b42:	07c2                	slli	a5,a5,0x10
    3b44:	83c1                	srli	a5,a5,0x10
    3b46:	02f51023          	sh	a5,32(a0)
    3b4a:	01855783          	lhu	a5,24(a0)
    3b4e:	02055703          	lhu	a4,32(a0)
    3b52:	400136b7          	lui	a3,0x40013
    3b56:	07c2                	slli	a5,a5,0x10
    3b58:	83c1                	srli	a5,a5,0x10
    3b5a:	f0c7f793          	andi	a5,a5,-244
    3b5e:	8fd1                	or	a5,a5,a2
    3b60:	0742                	slli	a4,a4,0x10
    3b62:	07c2                	slli	a5,a5,0x10
    3b64:	c0068693          	addi	a3,a3,-1024 # 40012c00 <__freertos_irq_stack_top+0x2000dc00>
    3b68:	8341                	srli	a4,a4,0x10
    3b6a:	83c1                	srli	a5,a5,0x10
    3b6c:	02d50463          	beq	a0,a3,3b94 <TI1_Config+0x60>
    3b70:	400006b7          	lui	a3,0x40000
    3b74:	02d50063          	beq	a0,a3,3b94 <TI1_Config+0x60>
    3b78:	40068693          	addi	a3,a3,1024 # 40000400 <__freertos_irq_stack_top+0x1fffb400>
    3b7c:	00d50c63          	beq	a0,a3,3b94 <TI1_Config+0x60>
    3b80:	400016b7          	lui	a3,0x40001
    3b84:	80068613          	addi	a2,a3,-2048 # 40000800 <__freertos_irq_stack_top+0x1fffb800>
    3b88:	00c50663          	beq	a0,a2,3b94 <TI1_Config+0x60>
    3b8c:	c0068693          	addi	a3,a3,-1024
    3b90:	00d51b63          	bne	a0,a3,3ba6 <TI1_Config+0x72>
    3b94:	9b75                	andi	a4,a4,-3
    3b96:	8dd9                	or	a1,a1,a4
    3b98:	0015e593          	ori	a1,a1,1
    3b9c:	00f51c23          	sh	a5,24(a0)
    3ba0:	02b51023          	sh	a1,32(a0)
    3ba4:	8082                	ret
    3ba6:	9b55                	andi	a4,a4,-11
    3ba8:	b7fd                	j	3b96 <TI1_Config+0x62>

00003baa <TI2_Config>:
    3baa:	02055783          	lhu	a5,32(a0)
    3bae:	06b2                	slli	a3,a3,0xc
    3bb0:	0622                	slli	a2,a2,0x8
    3bb2:	07c2                	slli	a5,a5,0x10
    3bb4:	83c1                	srli	a5,a5,0x10
    3bb6:	9bbd                	andi	a5,a5,-17
    3bb8:	07c2                	slli	a5,a5,0x10
    3bba:	83c1                	srli	a5,a5,0x10
    3bbc:	02f51023          	sh	a5,32(a0)
    3bc0:	01855883          	lhu	a7,24(a0)
    3bc4:	6785                	lui	a5,0x1
    3bc6:	02055703          	lhu	a4,32(a0)
    3bca:	cff78793          	addi	a5,a5,-769 # cff <xQueueGenericReset+0x1b>
    3bce:	8ed1                	or	a3,a3,a2
    3bd0:	0117f7b3          	and	a5,a5,a7
    3bd4:	8fd5                	or	a5,a5,a3
    3bd6:	00459813          	slli	a6,a1,0x4
    3bda:	400136b7          	lui	a3,0x40013
    3bde:	0742                	slli	a4,a4,0x10
    3be0:	0842                	slli	a6,a6,0x10
    3be2:	07c2                	slli	a5,a5,0x10
    3be4:	c0068693          	addi	a3,a3,-1024 # 40012c00 <__freertos_irq_stack_top+0x2000dc00>
    3be8:	8341                	srli	a4,a4,0x10
    3bea:	01085813          	srli	a6,a6,0x10
    3bee:	83c1                	srli	a5,a5,0x10
    3bf0:	02d50463          	beq	a0,a3,3c18 <TI2_Config+0x6e>
    3bf4:	400006b7          	lui	a3,0x40000
    3bf8:	02d50063          	beq	a0,a3,3c18 <TI2_Config+0x6e>
    3bfc:	40068693          	addi	a3,a3,1024 # 40000400 <__freertos_irq_stack_top+0x1fffb400>
    3c00:	00d50c63          	beq	a0,a3,3c18 <TI2_Config+0x6e>
    3c04:	400016b7          	lui	a3,0x40001
    3c08:	80068613          	addi	a2,a3,-2048 # 40000800 <__freertos_irq_stack_top+0x1fffb800>
    3c0c:	00c50663          	beq	a0,a2,3c18 <TI2_Config+0x6e>
    3c10:	c0068693          	addi	a3,a3,-1024
    3c14:	00d51d63          	bne	a0,a3,3c2e <TI2_Config+0x84>
    3c18:	fdf77713          	andi	a4,a4,-33
    3c1c:	00e86733          	or	a4,a6,a4
    3c20:	01076713          	ori	a4,a4,16
    3c24:	00f51c23          	sh	a5,24(a0)
    3c28:	02e51023          	sh	a4,32(a0)
    3c2c:	8082                	ret
    3c2e:	f5f77713          	andi	a4,a4,-161
    3c32:	8f4d                	or	a4,a4,a1
    3c34:	b7f5                	j	3c20 <TI2_Config+0x76>

00003c36 <TIM_TimeBaseInit>:
    3c36:	00055783          	lhu	a5,0(a0)
    3c3a:	40013737          	lui	a4,0x40013
    3c3e:	c0070713          	addi	a4,a4,-1024 # 40012c00 <__freertos_irq_stack_top+0x2000dc00>
    3c42:	07c2                	slli	a5,a5,0x10
    3c44:	83c1                	srli	a5,a5,0x10
    3c46:	02e50463          	beq	a0,a4,3c6e <TIM_TimeBaseInit+0x38>
    3c4a:	40000737          	lui	a4,0x40000
    3c4e:	02e50063          	beq	a0,a4,3c6e <TIM_TimeBaseInit+0x38>
    3c52:	40070713          	addi	a4,a4,1024 # 40000400 <__freertos_irq_stack_top+0x1fffb400>
    3c56:	00e50c63          	beq	a0,a4,3c6e <TIM_TimeBaseInit+0x38>
    3c5a:	40001737          	lui	a4,0x40001
    3c5e:	80070693          	addi	a3,a4,-2048 # 40000800 <__freertos_irq_stack_top+0x1fffb800>
    3c62:	00d50663          	beq	a0,a3,3c6e <TIM_TimeBaseInit+0x38>
    3c66:	c0070713          	addi	a4,a4,-1024
    3c6a:	00e51763          	bne	a0,a4,3c78 <TIM_TimeBaseInit+0x42>
    3c6e:	0025d703          	lhu	a4,2(a1)
    3c72:	f8f7f793          	andi	a5,a5,-113
    3c76:	8fd9                	or	a5,a5,a4
    3c78:	0065d703          	lhu	a4,6(a1)
    3c7c:	cff7f793          	andi	a5,a5,-769
    3c80:	07c2                	slli	a5,a5,0x10
    3c82:	83c1                	srli	a5,a5,0x10
    3c84:	8fd9                	or	a5,a5,a4
    3c86:	00f51023          	sh	a5,0(a0)
    3c8a:	0045d783          	lhu	a5,4(a1)
    3c8e:	02f51623          	sh	a5,44(a0)
    3c92:	0005d783          	lhu	a5,0(a1)
    3c96:	02f51423          	sh	a5,40(a0)
    3c9a:	400137b7          	lui	a5,0x40013
    3c9e:	c0078793          	addi	a5,a5,-1024 # 40012c00 <__freertos_irq_stack_top+0x2000dc00>
    3ca2:	00f51663          	bne	a0,a5,3cae <TIM_TimeBaseInit+0x78>
    3ca6:	0085c783          	lbu	a5,8(a1)
    3caa:	02f51823          	sh	a5,48(a0)
    3cae:	4785                	li	a5,1
    3cb0:	00f51a23          	sh	a5,20(a0)
    3cb4:	8082                	ret

00003cb6 <TIM_OC1Init>:
    3cb6:	02055783          	lhu	a5,32(a0)
    3cba:	0005d603          	lhu	a2,0(a1)
    3cbe:	0025d803          	lhu	a6,2(a1)
    3cc2:	07c2                	slli	a5,a5,0x10
    3cc4:	83c1                	srli	a5,a5,0x10
    3cc6:	9bf9                	andi	a5,a5,-2
    3cc8:	07c2                	slli	a5,a5,0x10
    3cca:	83c1                	srli	a5,a5,0x10
    3ccc:	02f51023          	sh	a5,32(a0)
    3cd0:	02055783          	lhu	a5,32(a0)
    3cd4:	00455683          	lhu	a3,4(a0)
    3cd8:	01855703          	lhu	a4,24(a0)
    3cdc:	07c2                	slli	a5,a5,0x10
    3cde:	83c1                	srli	a5,a5,0x10
    3ce0:	0742                	slli	a4,a4,0x10
    3ce2:	8341                	srli	a4,a4,0x10
    3ce4:	f8c77713          	andi	a4,a4,-116
    3ce8:	8f51                	or	a4,a4,a2
    3cea:	0085d603          	lhu	a2,8(a1)
    3cee:	9bf5                	andi	a5,a5,-3
    3cf0:	06c2                	slli	a3,a3,0x10
    3cf2:	01066633          	or	a2,a2,a6
    3cf6:	8fd1                	or	a5,a5,a2
    3cf8:	40013637          	lui	a2,0x40013
    3cfc:	c0060613          	addi	a2,a2,-1024 # 40012c00 <__freertos_irq_stack_top+0x2000dc00>
    3d00:	82c1                	srli	a3,a3,0x10
    3d02:	02c51363          	bne	a0,a2,3d28 <TIM_OC1Init+0x72>
    3d06:	00a5d603          	lhu	a2,10(a1)
    3d0a:	9bdd                	andi	a5,a5,-9
    3d0c:	00e5d803          	lhu	a6,14(a1)
    3d10:	8fd1                	or	a5,a5,a2
    3d12:	0045d603          	lhu	a2,4(a1)
    3d16:	9bed                	andi	a5,a5,-5
    3d18:	cff6f693          	andi	a3,a3,-769
    3d1c:	8fd1                	or	a5,a5,a2
    3d1e:	00c5d603          	lhu	a2,12(a1)
    3d22:	01066633          	or	a2,a2,a6
    3d26:	8ed1                	or	a3,a3,a2
    3d28:	00d51223          	sh	a3,4(a0)
    3d2c:	00e51c23          	sh	a4,24(a0)
    3d30:	0065d703          	lhu	a4,6(a1)
    3d34:	02e51a23          	sh	a4,52(a0)
    3d38:	02f51023          	sh	a5,32(a0)
    3d3c:	8082                	ret

00003d3e <TIM_OC2Init>:
    3d3e:	02055783          	lhu	a5,32(a0)
    3d42:	7765                	lui	a4,0xffff9
    3d44:	cff70713          	addi	a4,a4,-769 # ffff8cff <__freertos_irq_stack_top+0xdfff3cff>
    3d48:	07c2                	slli	a5,a5,0x10
    3d4a:	83c1                	srli	a5,a5,0x10
    3d4c:	9bbd                	andi	a5,a5,-17
    3d4e:	07c2                	slli	a5,a5,0x10
    3d50:	83c1                	srli	a5,a5,0x10
    3d52:	02f51023          	sh	a5,32(a0)
    3d56:	02055783          	lhu	a5,32(a0)
    3d5a:	00455683          	lhu	a3,4(a0)
    3d5e:	0085d803          	lhu	a6,8(a1)
    3d62:	07c2                	slli	a5,a5,0x10
    3d64:	01069613          	slli	a2,a3,0x10
    3d68:	01855683          	lhu	a3,24(a0)
    3d6c:	83c1                	srli	a5,a5,0x10
    3d6e:	fdf7f793          	andi	a5,a5,-33
    3d72:	8f75                	and	a4,a4,a3
    3d74:	0005d683          	lhu	a3,0(a1)
    3d78:	8241                	srli	a2,a2,0x10
    3d7a:	06a2                	slli	a3,a3,0x8
    3d7c:	8f55                	or	a4,a4,a3
    3d7e:	0025d683          	lhu	a3,2(a1)
    3d82:	0742                	slli	a4,a4,0x10
    3d84:	8341                	srli	a4,a4,0x10
    3d86:	0106e6b3          	or	a3,a3,a6
    3d8a:	0692                	slli	a3,a3,0x4
    3d8c:	8fd5                	or	a5,a5,a3
    3d8e:	400136b7          	lui	a3,0x40013
    3d92:	07c2                	slli	a5,a5,0x10
    3d94:	c0068693          	addi	a3,a3,-1024 # 40012c00 <__freertos_irq_stack_top+0x2000dc00>
    3d98:	83c1                	srli	a5,a5,0x10
    3d9a:	04d51163          	bne	a0,a3,3ddc <TIM_OC2Init+0x9e>
    3d9e:	00a5d683          	lhu	a3,10(a1)
    3da2:	f7f7f793          	andi	a5,a5,-129
    3da6:	00c5d803          	lhu	a6,12(a1)
    3daa:	0692                	slli	a3,a3,0x4
    3dac:	8fd5                	or	a5,a5,a3
    3dae:	0045d683          	lhu	a3,4(a1)
    3db2:	07c2                	slli	a5,a5,0x10
    3db4:	83c1                	srli	a5,a5,0x10
    3db6:	0692                	slli	a3,a3,0x4
    3db8:	fbf7f793          	andi	a5,a5,-65
    3dbc:	8fd5                	or	a5,a5,a3
    3dbe:	76fd                	lui	a3,0xfffff
    3dc0:	3ff68693          	addi	a3,a3,1023 # fffff3ff <__freertos_irq_stack_top+0xdfffa3ff>
    3dc4:	8ef1                	and	a3,a3,a2
    3dc6:	00e5d603          	lhu	a2,14(a1)
    3dca:	07c2                	slli	a5,a5,0x10
    3dcc:	83c1                	srli	a5,a5,0x10
    3dce:	01066633          	or	a2,a2,a6
    3dd2:	060a                	slli	a2,a2,0x2
    3dd4:	8ed1                	or	a3,a3,a2
    3dd6:	01069613          	slli	a2,a3,0x10
    3dda:	8241                	srli	a2,a2,0x10
    3ddc:	00c51223          	sh	a2,4(a0)
    3de0:	00e51c23          	sh	a4,24(a0)
    3de4:	0065d703          	lhu	a4,6(a1)
    3de8:	02e51c23          	sh	a4,56(a0)
    3dec:	02f51023          	sh	a5,32(a0)
    3df0:	8082                	ret

00003df2 <TIM_OC3Init>:
    3df2:	02055783          	lhu	a5,32(a0)
    3df6:	0085d803          	lhu	a6,8(a1)
    3dfa:	07c2                	slli	a5,a5,0x10
    3dfc:	83c1                	srli	a5,a5,0x10
    3dfe:	eff7f793          	andi	a5,a5,-257
    3e02:	07c2                	slli	a5,a5,0x10
    3e04:	83c1                	srli	a5,a5,0x10
    3e06:	02f51023          	sh	a5,32(a0)
    3e0a:	02055783          	lhu	a5,32(a0)
    3e0e:	00455683          	lhu	a3,4(a0)
    3e12:	01c55703          	lhu	a4,28(a0)
    3e16:	07c2                	slli	a5,a5,0x10
    3e18:	01069613          	slli	a2,a3,0x10
    3e1c:	0742                	slli	a4,a4,0x10
    3e1e:	0005d683          	lhu	a3,0(a1)
    3e22:	8341                	srli	a4,a4,0x10
    3e24:	f8c77713          	andi	a4,a4,-116
    3e28:	8f55                	or	a4,a4,a3
    3e2a:	0025d683          	lhu	a3,2(a1)
    3e2e:	83c1                	srli	a5,a5,0x10
    3e30:	dff7f793          	andi	a5,a5,-513
    3e34:	0106e6b3          	or	a3,a3,a6
    3e38:	06a2                	slli	a3,a3,0x8
    3e3a:	8fd5                	or	a5,a5,a3
    3e3c:	400136b7          	lui	a3,0x40013
    3e40:	07c2                	slli	a5,a5,0x10
    3e42:	c0068693          	addi	a3,a3,-1024 # 40012c00 <__freertos_irq_stack_top+0x2000dc00>
    3e46:	8241                	srli	a2,a2,0x10
    3e48:	83c1                	srli	a5,a5,0x10
    3e4a:	04d51263          	bne	a0,a3,3e8e <TIM_OC3Init+0x9c>
    3e4e:	76fd                	lui	a3,0xfffff
    3e50:	7ff68693          	addi	a3,a3,2047 # fffff7ff <__freertos_irq_stack_top+0xdfffa7ff>
    3e54:	8ff5                	and	a5,a5,a3
    3e56:	00a5d683          	lhu	a3,10(a1)
    3e5a:	00c5d803          	lhu	a6,12(a1)
    3e5e:	06a2                	slli	a3,a3,0x8
    3e60:	8fd5                	or	a5,a5,a3
    3e62:	0045d683          	lhu	a3,4(a1)
    3e66:	07c2                	slli	a5,a5,0x10
    3e68:	83c1                	srli	a5,a5,0x10
    3e6a:	06a2                	slli	a3,a3,0x8
    3e6c:	bff7f793          	andi	a5,a5,-1025
    3e70:	8fd5                	or	a5,a5,a3
    3e72:	76f5                	lui	a3,0xffffd
    3e74:	16fd                	addi	a3,a3,-1
    3e76:	8ef1                	and	a3,a3,a2
    3e78:	00e5d603          	lhu	a2,14(a1)
    3e7c:	07c2                	slli	a5,a5,0x10
    3e7e:	83c1                	srli	a5,a5,0x10
    3e80:	01066633          	or	a2,a2,a6
    3e84:	0612                	slli	a2,a2,0x4
    3e86:	8ed1                	or	a3,a3,a2
    3e88:	01069613          	slli	a2,a3,0x10
    3e8c:	8241                	srli	a2,a2,0x10
    3e8e:	00c51223          	sh	a2,4(a0)
    3e92:	00e51e23          	sh	a4,28(a0)
    3e96:	0065d703          	lhu	a4,6(a1)
    3e9a:	02e51e23          	sh	a4,60(a0)
    3e9e:	02f51023          	sh	a5,32(a0)
    3ea2:	8082                	ret

00003ea4 <TIM_OC4Init>:
    3ea4:	02055703          	lhu	a4,32(a0)
    3ea8:	77fd                	lui	a5,0xfffff
    3eaa:	17fd                	addi	a5,a5,-1
    3eac:	8ff9                	and	a5,a5,a4
    3eae:	02f51023          	sh	a5,32(a0)
    3eb2:	02055803          	lhu	a6,32(a0)
    3eb6:	00455683          	lhu	a3,4(a0)
    3eba:	01c55783          	lhu	a5,28(a0)
    3ebe:	7765                	lui	a4,0xffff9
    3ec0:	0005d603          	lhu	a2,0(a1)
    3ec4:	cff70713          	addi	a4,a4,-769 # ffff8cff <__freertos_irq_stack_top+0xdfff3cff>
    3ec8:	8f7d                	and	a4,a4,a5
    3eca:	77f9                	lui	a5,0xffffe
    3ecc:	0622                	slli	a2,a2,0x8
    3ece:	17fd                	addi	a5,a5,-1
    3ed0:	8f51                	or	a4,a4,a2
    3ed2:	0107f7b3          	and	a5,a5,a6
    3ed6:	0025d603          	lhu	a2,2(a1)
    3eda:	0085d803          	lhu	a6,8(a1)
    3ede:	06c2                	slli	a3,a3,0x10
    3ee0:	0742                	slli	a4,a4,0x10
    3ee2:	01066633          	or	a2,a2,a6
    3ee6:	0632                	slli	a2,a2,0xc
    3ee8:	8fd1                	or	a5,a5,a2
    3eea:	40013637          	lui	a2,0x40013
    3eee:	07c2                	slli	a5,a5,0x10
    3ef0:	c0060613          	addi	a2,a2,-1024 # 40012c00 <__freertos_irq_stack_top+0x2000dc00>
    3ef4:	82c1                	srli	a3,a3,0x10
    3ef6:	8341                	srli	a4,a4,0x10
    3ef8:	83c1                	srli	a5,a5,0x10
    3efa:	00c51b63          	bne	a0,a2,3f10 <TIM_OC4Init+0x6c>
    3efe:	7671                	lui	a2,0xffffc
    3f00:	167d                	addi	a2,a2,-1
    3f02:	8ef1                	and	a3,a3,a2
    3f04:	00c5d603          	lhu	a2,12(a1)
    3f08:	061a                	slli	a2,a2,0x6
    3f0a:	8ed1                	or	a3,a3,a2
    3f0c:	06c2                	slli	a3,a3,0x10
    3f0e:	82c1                	srli	a3,a3,0x10
    3f10:	00d51223          	sh	a3,4(a0)
    3f14:	00e51e23          	sh	a4,28(a0)
    3f18:	0065d703          	lhu	a4,6(a1)
    3f1c:	04e51023          	sh	a4,64(a0)
    3f20:	02f51023          	sh	a5,32(a0)
    3f24:	8082                	ret

00003f26 <TIM_Cmd>:
    3f26:	00055783          	lhu	a5,0(a0)
    3f2a:	c591                	beqz	a1,3f36 <TIM_Cmd+0x10>
    3f2c:	0017e793          	ori	a5,a5,1
    3f30:	00f51023          	sh	a5,0(a0)
    3f34:	8082                	ret
    3f36:	07c2                	slli	a5,a5,0x10
    3f38:	83c1                	srli	a5,a5,0x10
    3f3a:	9bf9                	andi	a5,a5,-2
    3f3c:	07c2                	slli	a5,a5,0x10
    3f3e:	83c1                	srli	a5,a5,0x10
    3f40:	bfc5                	j	3f30 <TIM_Cmd+0xa>

00003f42 <TIM_CtrlPWMOutputs>:
    3f42:	04455783          	lhu	a5,68(a0)
    3f46:	c591                	beqz	a1,3f52 <TIM_CtrlPWMOutputs+0x10>
    3f48:	6721                	lui	a4,0x8
    3f4a:	8fd9                	or	a5,a5,a4
    3f4c:	04f51223          	sh	a5,68(a0)
    3f50:	8082                	ret
    3f52:	07c6                	slli	a5,a5,0x11
    3f54:	83c5                	srli	a5,a5,0x11
    3f56:	bfdd                	j	3f4c <TIM_CtrlPWMOutputs+0xa>

00003f58 <TIM_ITConfig>:
    3f58:	00c55783          	lhu	a5,12(a0)
    3f5c:	c609                	beqz	a2,3f66 <TIM_ITConfig+0xe>
    3f5e:	8ddd                	or	a1,a1,a5
    3f60:	00b51623          	sh	a1,12(a0)
    3f64:	8082                	ret
    3f66:	fff5c593          	not	a1,a1
    3f6a:	8dfd                	and	a1,a1,a5
    3f6c:	bfd5                	j	3f60 <TIM_ITConfig+0x8>

00003f6e <TIM_SelectInputTrigger>:
    3f6e:	00855783          	lhu	a5,8(a0)
    3f72:	07c2                	slli	a5,a5,0x10
    3f74:	83c1                	srli	a5,a5,0x10
    3f76:	f8f7f793          	andi	a5,a5,-113
    3f7a:	8ddd                	or	a1,a1,a5
    3f7c:	00b51423          	sh	a1,8(a0)
    3f80:	8082                	ret

00003f82 <TIM_ARRPreloadConfig>:
    3f82:	00055783          	lhu	a5,0(a0)
    3f86:	c591                	beqz	a1,3f92 <TIM_ARRPreloadConfig+0x10>
    3f88:	0807e793          	ori	a5,a5,128
    3f8c:	00f51023          	sh	a5,0(a0)
    3f90:	8082                	ret
    3f92:	07c2                	slli	a5,a5,0x10
    3f94:	83c1                	srli	a5,a5,0x10
    3f96:	f7f7f793          	andi	a5,a5,-129
    3f9a:	07c2                	slli	a5,a5,0x10
    3f9c:	83c1                	srli	a5,a5,0x10
    3f9e:	b7fd                	j	3f8c <TIM_ARRPreloadConfig+0xa>

00003fa0 <TIM_OC1PreloadConfig>:
    3fa0:	01855783          	lhu	a5,24(a0)
    3fa4:	07c2                	slli	a5,a5,0x10
    3fa6:	83c1                	srli	a5,a5,0x10
    3fa8:	9bdd                	andi	a5,a5,-9
    3faa:	8ddd                	or	a1,a1,a5
    3fac:	00b51c23          	sh	a1,24(a0)
    3fb0:	8082                	ret

00003fb2 <TIM_OC2PreloadConfig>:
    3fb2:	01855703          	lhu	a4,24(a0)
    3fb6:	77fd                	lui	a5,0xfffff
    3fb8:	7ff78793          	addi	a5,a5,2047 # fffff7ff <__freertos_irq_stack_top+0xdfffa7ff>
    3fbc:	8ff9                	and	a5,a5,a4
    3fbe:	05a2                	slli	a1,a1,0x8
    3fc0:	8fcd                	or	a5,a5,a1
    3fc2:	07c2                	slli	a5,a5,0x10
    3fc4:	83c1                	srli	a5,a5,0x10
    3fc6:	00f51c23          	sh	a5,24(a0)
    3fca:	8082                	ret

00003fcc <TIM_OC3PreloadConfig>:
    3fcc:	01c55783          	lhu	a5,28(a0)
    3fd0:	07c2                	slli	a5,a5,0x10
    3fd2:	83c1                	srli	a5,a5,0x10
    3fd4:	9bdd                	andi	a5,a5,-9
    3fd6:	8ddd                	or	a1,a1,a5
    3fd8:	00b51e23          	sh	a1,28(a0)
    3fdc:	8082                	ret

00003fde <TIM_OC4PreloadConfig>:
    3fde:	01c55703          	lhu	a4,28(a0)
    3fe2:	77fd                	lui	a5,0xfffff
    3fe4:	7ff78793          	addi	a5,a5,2047 # fffff7ff <__freertos_irq_stack_top+0xdfffa7ff>
    3fe8:	8ff9                	and	a5,a5,a4
    3fea:	05a2                	slli	a1,a1,0x8
    3fec:	8fcd                	or	a5,a5,a1
    3fee:	07c2                	slli	a5,a5,0x10
    3ff0:	83c1                	srli	a5,a5,0x10
    3ff2:	00f51e23          	sh	a5,28(a0)
    3ff6:	8082                	ret

00003ff8 <TIM_UpdateDisableConfig>:
    3ff8:	00055783          	lhu	a5,0(a0)
    3ffc:	c591                	beqz	a1,4008 <TIM_UpdateDisableConfig+0x10>
    3ffe:	0027e793          	ori	a5,a5,2
    4002:	00f51023          	sh	a5,0(a0)
    4006:	8082                	ret
    4008:	07c2                	slli	a5,a5,0x10
    400a:	83c1                	srli	a5,a5,0x10
    400c:	9bf5                	andi	a5,a5,-3
    400e:	07c2                	slli	a5,a5,0x10
    4010:	83c1                	srli	a5,a5,0x10
    4012:	bfc5                	j	4002 <TIM_UpdateDisableConfig+0xa>

00004014 <TIM_UpdateRequestConfig>:
    4014:	00055783          	lhu	a5,0(a0)
    4018:	c591                	beqz	a1,4024 <TIM_UpdateRequestConfig+0x10>
    401a:	0047e793          	ori	a5,a5,4
    401e:	00f51023          	sh	a5,0(a0)
    4022:	8082                	ret
    4024:	07c2                	slli	a5,a5,0x10
    4026:	83c1                	srli	a5,a5,0x10
    4028:	9bed                	andi	a5,a5,-5
    402a:	07c2                	slli	a5,a5,0x10
    402c:	83c1                	srli	a5,a5,0x10
    402e:	bfc5                	j	401e <TIM_UpdateRequestConfig+0xa>

00004030 <TIM_SelectSlaveMode>:
    4030:	00855783          	lhu	a5,8(a0)
    4034:	07c2                	slli	a5,a5,0x10
    4036:	83c1                	srli	a5,a5,0x10
    4038:	9be1                	andi	a5,a5,-8
    403a:	07c2                	slli	a5,a5,0x10
    403c:	83c1                	srli	a5,a5,0x10
    403e:	00f51423          	sh	a5,8(a0)
    4042:	00855783          	lhu	a5,8(a0)
    4046:	8ddd                	or	a1,a1,a5
    4048:	00b51423          	sh	a1,8(a0)
    404c:	8082                	ret

0000404e <TIM_SelectMasterSlaveMode>:
    404e:	00855783          	lhu	a5,8(a0)
    4052:	07c2                	slli	a5,a5,0x10
    4054:	83c1                	srli	a5,a5,0x10
    4056:	f7f7f793          	andi	a5,a5,-129
    405a:	07c2                	slli	a5,a5,0x10
    405c:	83c1                	srli	a5,a5,0x10
    405e:	00f51423          	sh	a5,8(a0)
    4062:	00855783          	lhu	a5,8(a0)
    4066:	8ddd                	or	a1,a1,a5
    4068:	00b51423          	sh	a1,8(a0)
    406c:	8082                	ret

0000406e <TIM_SetCounter>:
    406e:	02b51223          	sh	a1,36(a0)
    4072:	8082                	ret

00004074 <TIM_SetCompare1>:
    4074:	02b51a23          	sh	a1,52(a0)
    4078:	8082                	ret

0000407a <TIM_SetIC1Prescaler>:
    407a:	01855783          	lhu	a5,24(a0)
    407e:	07c2                	slli	a5,a5,0x10
    4080:	83c1                	srli	a5,a5,0x10
    4082:	9bcd                	andi	a5,a5,-13
    4084:	07c2                	slli	a5,a5,0x10
    4086:	83c1                	srli	a5,a5,0x10
    4088:	00f51c23          	sh	a5,24(a0)
    408c:	01855783          	lhu	a5,24(a0)
    4090:	8ddd                	or	a1,a1,a5
    4092:	00b51c23          	sh	a1,24(a0)
    4096:	8082                	ret

00004098 <TIM_SetIC2Prescaler>:
    4098:	01855703          	lhu	a4,24(a0)
    409c:	77fd                	lui	a5,0xfffff
    409e:	3ff78793          	addi	a5,a5,1023 # fffff3ff <__freertos_irq_stack_top+0xdfffa3ff>
    40a2:	8ff9                	and	a5,a5,a4
    40a4:	00f51c23          	sh	a5,24(a0)
    40a8:	01855783          	lhu	a5,24(a0)
    40ac:	05a2                	slli	a1,a1,0x8
    40ae:	8ddd                	or	a1,a1,a5
    40b0:	05c2                	slli	a1,a1,0x10
    40b2:	81c1                	srli	a1,a1,0x10
    40b4:	00b51c23          	sh	a1,24(a0)
    40b8:	8082                	ret

000040ba <TIM_PWMIConfig>:
    40ba:	c4afc2ef          	jal	t0,504 <__riscv_save_4>
    40be:	842e                	mv	s0,a1
    40c0:	0025d583          	lhu	a1,2(a1)
    40c4:	00445603          	lhu	a2,4(s0)
    40c8:	4785                	li	a5,1
    40ca:	0015b913          	seqz	s2,a1
    40ce:	84aa                	mv	s1,a0
    40d0:	0906                	slli	s2,s2,0x1
    40d2:	4985                	li	s3,1
    40d4:	00f61363          	bne	a2,a5,40da <TIM_PWMIConfig+0x20>
    40d8:	4989                	li	s3,2
    40da:	00045783          	lhu	a5,0(s0)
    40de:	00845683          	lhu	a3,8(s0)
    40e2:	8526                	mv	a0,s1
    40e4:	e795                	bnez	a5,4110 <TIM_PWMIConfig+0x56>
    40e6:	a4fff0ef          	jal	ra,3b34 <TI1_Config>
    40ea:	00645583          	lhu	a1,6(s0)
    40ee:	8526                	mv	a0,s1
    40f0:	f8bff0ef          	jal	ra,407a <TIM_SetIC1Prescaler>
    40f4:	00845683          	lhu	a3,8(s0)
    40f8:	85ca                	mv	a1,s2
    40fa:	8526                	mv	a0,s1
    40fc:	864e                	mv	a2,s3
    40fe:	aadff0ef          	jal	ra,3baa <TI2_Config>
    4102:	00645583          	lhu	a1,6(s0)
    4106:	8526                	mv	a0,s1
    4108:	f91ff0ef          	jal	ra,4098 <TIM_SetIC2Prescaler>
    410c:	c2cfc06f          	j	538 <__riscv_restore_4>
    4110:	a9bff0ef          	jal	ra,3baa <TI2_Config>
    4114:	00645583          	lhu	a1,6(s0)
    4118:	8526                	mv	a0,s1
    411a:	f7fff0ef          	jal	ra,4098 <TIM_SetIC2Prescaler>
    411e:	00845683          	lhu	a3,8(s0)
    4122:	85ca                	mv	a1,s2
    4124:	8526                	mv	a0,s1
    4126:	864e                	mv	a2,s3
    4128:	a0dff0ef          	jal	ra,3b34 <TI1_Config>
    412c:	00645583          	lhu	a1,6(s0)
    4130:	8526                	mv	a0,s1
    4132:	f49ff0ef          	jal	ra,407a <TIM_SetIC1Prescaler>
    4136:	bfd9                	j	410c <TIM_PWMIConfig+0x52>

00004138 <TIM_GetCapture1>:
    4138:	03455503          	lhu	a0,52(a0)
    413c:	8082                	ret

0000413e <TIM_GetCapture2>:
    413e:	03855503          	lhu	a0,56(a0)
    4142:	8082                	ret

00004144 <TIM_GetCounter>:
    4144:	02455503          	lhu	a0,36(a0)
    4148:	8082                	ret

0000414a <TIM_ClearFlag>:
    414a:	fff5c593          	not	a1,a1
    414e:	05c2                	slli	a1,a1,0x10
    4150:	81c1                	srli	a1,a1,0x10
    4152:	00b51823          	sh	a1,16(a0)
    4156:	8082                	ret

00004158 <TIM_GetITStatus>:
    4158:	01055783          	lhu	a5,16(a0)
    415c:	00c55503          	lhu	a0,12(a0)
    4160:	8fed                	and	a5,a5,a1
    4162:	0542                	slli	a0,a0,0x10
    4164:	8141                	srli	a0,a0,0x10
    4166:	c789                	beqz	a5,4170 <TIM_GetITStatus+0x18>
    4168:	8d6d                	and	a0,a0,a1
    416a:	00a03533          	snez	a0,a0
    416e:	8082                	ret
    4170:	4501                	li	a0,0
    4172:	8082                	ret

00004174 <TIM_ClearITPendingBit>:
    4174:	fff5c593          	not	a1,a1
    4178:	05c2                	slli	a1,a1,0x10
    417a:	81c1                	srli	a1,a1,0x10
    417c:	00b51823          	sh	a1,16(a0)
    4180:	8082                	ret

00004182 <USART_Init>:
    4182:	b9cfc2ef          	jal	t0,51e <__riscv_save_0>
    4186:	01055683          	lhu	a3,16(a0)
    418a:	77f5                	lui	a5,0xffffd
    418c:	17fd                	addi	a5,a5,-1
    418e:	8ff5                	and	a5,a5,a3
    4190:	0065d683          	lhu	a3,6(a1)
    4194:	00c5d703          	lhu	a4,12(a1)
    4198:	7179                	addi	sp,sp,-48
    419a:	8fd5                	or	a5,a5,a3
    419c:	00f51823          	sh	a5,16(a0)
    41a0:	00c55683          	lhu	a3,12(a0)
    41a4:	77fd                	lui	a5,0xfffff
    41a6:	9f378793          	addi	a5,a5,-1549 # ffffe9f3 <__freertos_irq_stack_top+0xdfff99f3>
    41aa:	8ff5                	and	a5,a5,a3
    41ac:	0045d683          	lhu	a3,4(a1)
    41b0:	842a                	mv	s0,a0
    41b2:	c62e                	sw	a1,12(sp)
    41b4:	8fd5                	or	a5,a5,a3
    41b6:	0085d683          	lhu	a3,8(a1)
    41ba:	8fd5                	or	a5,a5,a3
    41bc:	00a5d683          	lhu	a3,10(a1)
    41c0:	8fd5                	or	a5,a5,a3
    41c2:	00f51623          	sh	a5,12(a0)
    41c6:	01455783          	lhu	a5,20(a0)
    41ca:	07c2                	slli	a5,a5,0x10
    41cc:	83c1                	srli	a5,a5,0x10
    41ce:	cff7f793          	andi	a5,a5,-769
    41d2:	8fd9                	or	a5,a5,a4
    41d4:	00f51a23          	sh	a5,20(a0)
    41d8:	0868                	addi	a0,sp,28
    41da:	faaff0ef          	jal	ra,3984 <RCC_GetClocksFreq>
    41de:	400147b7          	lui	a5,0x40014
    41e2:	80078793          	addi	a5,a5,-2048 # 40013800 <__freertos_irq_stack_top+0x2000e800>
    41e6:	45b2                	lw	a1,12(sp)
    41e8:	04f41d63          	bne	s0,a5,4242 <USART_Init+0xc0>
    41ec:	57a2                	lw	a5,40(sp)
    41ee:	00c45683          	lhu	a3,12(s0)
    41f2:	4765                	li	a4,25
    41f4:	02e787b3          	mul	a5,a5,a4
    41f8:	06c2                	slli	a3,a3,0x10
    41fa:	86c1                	srai	a3,a3,0x10
    41fc:	4198                	lw	a4,0(a1)
    41fe:	0406d463          	bgez	a3,4246 <USART_Init+0xc4>
    4202:	0706                	slli	a4,a4,0x1
    4204:	00c45603          	lhu	a2,12(s0)
    4208:	0642                	slli	a2,a2,0x10
    420a:	02e7d7b3          	divu	a5,a5,a4
    420e:	06400713          	li	a4,100
    4212:	8641                	srai	a2,a2,0x10
    4214:	02e7d6b3          	divu	a3,a5,a4
    4218:	02e7f7b3          	remu	a5,a5,a4
    421c:	0692                	slli	a3,a3,0x4
    421e:	02065663          	bgez	a2,424a <USART_Init+0xc8>
    4222:	078e                	slli	a5,a5,0x3
    4224:	03278793          	addi	a5,a5,50
    4228:	02e7d7b3          	divu	a5,a5,a4
    422c:	0077f713          	andi	a4,a5,7
    4230:	00d767b3          	or	a5,a4,a3
    4234:	07c2                	slli	a5,a5,0x10
    4236:	83c1                	srli	a5,a5,0x10
    4238:	00f41423          	sh	a5,8(s0)
    423c:	6145                	addi	sp,sp,48
    423e:	b04fc06f          	j	542 <__riscv_restore_0>
    4242:	5792                	lw	a5,36(sp)
    4244:	b76d                	j	41ee <USART_Init+0x6c>
    4246:	070a                	slli	a4,a4,0x2
    4248:	bf75                	j	4204 <USART_Init+0x82>
    424a:	0792                	slli	a5,a5,0x4
    424c:	03278793          	addi	a5,a5,50
    4250:	02e7d7b3          	divu	a5,a5,a4
    4254:	8bbd                	andi	a5,a5,15
    4256:	8fd5                	or	a5,a5,a3
    4258:	bff1                	j	4234 <USART_Init+0xb2>

0000425a <USART_Cmd>:
    425a:	c981                	beqz	a1,426a <USART_Cmd+0x10>
    425c:	00c55783          	lhu	a5,12(a0)
    4260:	6709                	lui	a4,0x2
    4262:	8fd9                	or	a5,a5,a4
    4264:	00f51623          	sh	a5,12(a0)
    4268:	8082                	ret
    426a:	00c55703          	lhu	a4,12(a0)
    426e:	77f9                	lui	a5,0xffffe
    4270:	17fd                	addi	a5,a5,-1
    4272:	8ff9                	and	a5,a5,a4
    4274:	bfc5                	j	4264 <USART_Cmd+0xa>

00004276 <USART_SendData>:
    4276:	1ff5f593          	andi	a1,a1,511
    427a:	00b51223          	sh	a1,4(a0)
    427e:	8082                	ret

00004280 <USART_ReceiveData>:
    4280:	00455503          	lhu	a0,4(a0)
    4284:	1ff57513          	andi	a0,a0,511
    4288:	8082                	ret

0000428a <USART_GetFlagStatus>:
    428a:	00055503          	lhu	a0,0(a0)
    428e:	8d6d                	and	a0,a0,a1
    4290:	00a03533          	snez	a0,a0
    4294:	8082                	ret

00004296 <USART_ClearFlag>:
    4296:	fff5c593          	not	a1,a1
    429a:	05c2                	slli	a1,a1,0x10
    429c:	81c1                	srli	a1,a1,0x10
    429e:	00b51023          	sh	a1,0(a0)
    42a2:	8082                	ret

000042a4 <USART_GetITStatus>:
    42a4:	0ff5f713          	andi	a4,a1,255
    42a8:	4685                	li	a3,1
    42aa:	8315                	srli	a4,a4,0x5
    42ac:	00b697b3          	sll	a5,a3,a1
    42b0:	02d71363          	bne	a4,a3,42d6 <USART_GetITStatus+0x32>
    42b4:	00c55703          	lhu	a4,12(a0)
    42b8:	8ff9                	and	a5,a5,a4
    42ba:	00055703          	lhu	a4,0(a0)
    42be:	4501                	li	a0,0
    42c0:	0742                	slli	a4,a4,0x10
    42c2:	8341                	srli	a4,a4,0x10
    42c4:	cb81                	beqz	a5,42d4 <USART_GetITStatus+0x30>
    42c6:	4505                	li	a0,1
    42c8:	81a1                	srli	a1,a1,0x8
    42ca:	00b515b3          	sll	a1,a0,a1
    42ce:	8f6d                	and	a4,a4,a1
    42d0:	00e03533          	snez	a0,a4
    42d4:	8082                	ret
    42d6:	4689                	li	a3,2
    42d8:	00d71563          	bne	a4,a3,42e2 <USART_GetITStatus+0x3e>
    42dc:	01055703          	lhu	a4,16(a0)
    42e0:	bfe1                	j	42b8 <USART_GetITStatus+0x14>
    42e2:	01455703          	lhu	a4,20(a0)
    42e6:	bfc9                	j	42b8 <USART_GetITStatus+0x14>

000042e8 <USART_Printf_Init>:
    42e8:	a36fc2ef          	jal	t0,51e <__riscv_save_0>
    42ec:	842a                	mv	s0,a0
    42ee:	6511                	lui	a0,0x4
    42f0:	1101                	addi	sp,sp,-32
    42f2:	4585                	li	a1,1
    42f4:	0511                	addi	a0,a0,4
    42f6:	f72ff0ef          	jal	ra,3a68 <RCC_APB2PeriphClockCmd>
    42fa:	20000793          	li	a5,512
    42fe:	00f11223          	sh	a5,4(sp)
    4302:	40011537          	lui	a0,0x40011
    4306:	478d                	li	a5,3
    4308:	c43e                	sw	a5,8(sp)
    430a:	004c                	addi	a1,sp,4
    430c:	47e1                	li	a5,24
    430e:	80050513          	addi	a0,a0,-2048 # 40010800 <__freertos_irq_stack_top+0x2000b800>
    4312:	c63e                	sw	a5,12(sp)
    4314:	a66ff0ef          	jal	ra,357a <GPIO_Init>
    4318:	c822                	sw	s0,16(sp)
    431a:	40014437          	lui	s0,0x40014
    431e:	000807b7          	lui	a5,0x80
    4322:	080c                	addi	a1,sp,16
    4324:	80040513          	addi	a0,s0,-2048 # 40013800 <__freertos_irq_stack_top+0x2000e800>
    4328:	cc3e                	sw	a5,24(sp)
    432a:	ca02                	sw	zero,20(sp)
    432c:	00011e23          	sh	zero,28(sp)
    4330:	e53ff0ef          	jal	ra,4182 <USART_Init>
    4334:	4585                	li	a1,1
    4336:	80040513          	addi	a0,s0,-2048
    433a:	f21ff0ef          	jal	ra,425a <USART_Cmd>
    433e:	6105                	addi	sp,sp,32
    4340:	a02fc06f          	j	542 <__riscv_restore_0>

00004344 <_write>:
    4344:	9c0fc2ef          	jal	t0,504 <__riscv_save_4>
    4348:	400144b7          	lui	s1,0x40014
    434c:	89ae                	mv	s3,a1
    434e:	8932                	mv	s2,a2
    4350:	4401                	li	s0,0
    4352:	80048493          	addi	s1,s1,-2048 # 40013800 <__freertos_irq_stack_top+0x2000e800>
    4356:	01244563          	blt	s0,s2,4360 <_write+0x1c>
    435a:	854a                	mv	a0,s2
    435c:	9dcfc06f          	j	538 <__riscv_restore_4>
    4360:	04000593          	li	a1,64
    4364:	8526                	mv	a0,s1
    4366:	f25ff0ef          	jal	ra,428a <USART_GetFlagStatus>
    436a:	d97d                	beqz	a0,4360 <_write+0x1c>
    436c:	008987b3          	add	a5,s3,s0
    4370:	00078583          	lb	a1,0(a5) # 80000 <_data_lma+0x7259c>
    4374:	8526                	mv	a0,s1
    4376:	0405                	addi	s0,s0,1
    4378:	05c2                	slli	a1,a1,0x10
    437a:	81c1                	srli	a1,a1,0x10
    437c:	efbff0ef          	jal	ra,4276 <USART_SendData>
    4380:	bfd9                	j	4356 <_write+0x12>

00004382 <_sbrk>:
    4382:	81018713          	addi	a4,gp,-2032 # 20000090 <curbrk.4666>
    4386:	431c                	lw	a5,0(a4)
    4388:	200036b7          	lui	a3,0x20003
    438c:	40868693          	addi	a3,a3,1032 # 20003408 <_ebss>
    4390:	953e                	add	a0,a0,a5
    4392:	00d56b63          	bltu	a0,a3,43a8 <_sbrk+0x26>
    4396:	200056b7          	lui	a3,0x20005
    439a:	80068693          	addi	a3,a3,-2048 # 20004800 <_heap_end>
    439e:	00a6e563          	bltu	a3,a0,43a8 <_sbrk+0x26>
    43a2:	c308                	sw	a0,0(a4)
    43a4:	853e                	mv	a0,a5
    43a6:	8082                	ret
    43a8:	57fd                	li	a5,-1
    43aa:	bfed                	j	43a4 <_sbrk+0x22>

000043ac <MCAL_Config_ConfigAllPins>:
    43ac:	942fc2ef          	jal	t0,4ee <__riscv_save_12>
    43b0:	7131                	addi	sp,sp,-192
    43b2:	4581                	li	a1,0
    43b4:	4505                	li	a0,1
    43b6:	e94ff0ef          	jal	ra,3a4a <RCC_AHBPeriphClockCmd>
    43ba:	4581                	li	a1,0
    43bc:	4509                	li	a0,2
    43be:	e8cff0ef          	jal	ra,3a4a <RCC_AHBPeriphClockCmd>
    43c2:	4581                	li	a1,0
    43c4:	4511                	li	a0,4
    43c6:	e84ff0ef          	jal	ra,3a4a <RCC_AHBPeriphClockCmd>
    43ca:	4581                	li	a1,0
    43cc:	04000513          	li	a0,64
    43d0:	e7aff0ef          	jal	ra,3a4a <RCC_AHBPeriphClockCmd>
    43d4:	4581                	li	a1,0
    43d6:	6505                	lui	a0,0x1
    43d8:	e72ff0ef          	jal	ra,3a4a <RCC_AHBPeriphClockCmd>
    43dc:	4581                	li	a1,0
    43de:	4505                	li	a0,1
    43e0:	e88ff0ef          	jal	ra,3a68 <RCC_APB2PeriphClockCmd>
    43e4:	4585                	li	a1,1
    43e6:	4511                	li	a0,4
    43e8:	e80ff0ef          	jal	ra,3a68 <RCC_APB2PeriphClockCmd>
    43ec:	4585                	li	a1,1
    43ee:	4521                	li	a0,8
    43f0:	e78ff0ef          	jal	ra,3a68 <RCC_APB2PeriphClockCmd>
    43f4:	4585                	li	a1,1
    43f6:	4541                	li	a0,16
    43f8:	e70ff0ef          	jal	ra,3a68 <RCC_APB2PeriphClockCmd>
    43fc:	4585                	li	a1,1
    43fe:	20000513          	li	a0,512
    4402:	e66ff0ef          	jal	ra,3a68 <RCC_APB2PeriphClockCmd>
    4406:	4581                	li	a1,0
    4408:	40000513          	li	a0,1024
    440c:	e5cff0ef          	jal	ra,3a68 <RCC_APB2PeriphClockCmd>
    4410:	6a85                	lui	s5,0x1
    4412:	800a8513          	addi	a0,s5,-2048 # 800 <__stack_size>
    4416:	4585                	li	a1,1
    4418:	e50ff0ef          	jal	ra,3a68 <RCC_APB2PeriphClockCmd>
    441c:	4585                	li	a1,1
    441e:	6505                	lui	a0,0x1
    4420:	e48ff0ef          	jal	ra,3a68 <RCC_APB2PeriphClockCmd>
    4424:	4581                	li	a1,0
    4426:	6509                	lui	a0,0x2
    4428:	e40ff0ef          	jal	ra,3a68 <RCC_APB2PeriphClockCmd>
    442c:	4581                	li	a1,0
    442e:	6511                	lui	a0,0x4
    4430:	e38ff0ef          	jal	ra,3a68 <RCC_APB2PeriphClockCmd>
    4434:	4585                	li	a1,1
    4436:	4505                	li	a0,1
    4438:	e4eff0ef          	jal	ra,3a86 <RCC_APB1PeriphClockCmd>
    443c:	4581                	li	a1,0
    443e:	4509                	li	a0,2
    4440:	e46ff0ef          	jal	ra,3a86 <RCC_APB1PeriphClockCmd>
    4444:	4585                	li	a1,1
    4446:	4511                	li	a0,4
    4448:	e3eff0ef          	jal	ra,3a86 <RCC_APB1PeriphClockCmd>
    444c:	4581                	li	a1,0
    444e:	4521                	li	a0,8
    4450:	e36ff0ef          	jal	ra,3a86 <RCC_APB1PeriphClockCmd>
    4454:	800a8513          	addi	a0,s5,-2048
    4458:	4581                	li	a1,0
    445a:	e2cff0ef          	jal	ra,3a86 <RCC_APB1PeriphClockCmd>
    445e:	4581                	li	a1,0
    4460:	6511                	lui	a0,0x4
    4462:	e24ff0ef          	jal	ra,3a86 <RCC_APB1PeriphClockCmd>
    4466:	4581                	li	a1,0
    4468:	00020537          	lui	a0,0x20
    446c:	e1aff0ef          	jal	ra,3a86 <RCC_APB1PeriphClockCmd>
    4470:	4581                	li	a1,0
    4472:	00040537          	lui	a0,0x40
    4476:	e10ff0ef          	jal	ra,3a86 <RCC_APB1PeriphClockCmd>
    447a:	4585                	li	a1,1
    447c:	00080537          	lui	a0,0x80
    4480:	e06ff0ef          	jal	ra,3a86 <RCC_APB1PeriphClockCmd>
    4484:	4581                	li	a1,0
    4486:	00200537          	lui	a0,0x200
    448a:	dfcff0ef          	jal	ra,3a86 <RCC_APB1PeriphClockCmd>
    448e:	4585                	li	a1,1
    4490:	00400537          	lui	a0,0x400
    4494:	df2ff0ef          	jal	ra,3a86 <RCC_APB1PeriphClockCmd>
    4498:	4581                	li	a1,0
    449a:	00800537          	lui	a0,0x800
    449e:	de8ff0ef          	jal	ra,3a86 <RCC_APB1PeriphClockCmd>
    44a2:	4581                	li	a1,0
    44a4:	02000537          	lui	a0,0x2000
    44a8:	ddeff0ef          	jal	ra,3a86 <RCC_APB1PeriphClockCmd>
    44ac:	4581                	li	a1,0
    44ae:	08000537          	lui	a0,0x8000
    44b2:	dd4ff0ef          	jal	ra,3a86 <RCC_APB1PeriphClockCmd>
    44b6:	4581                	li	a1,0
    44b8:	10000537          	lui	a0,0x10000
    44bc:	dcaff0ef          	jal	ra,3a86 <RCC_APB1PeriphClockCmd>
    44c0:	65b5                	lui	a1,0xd
    44c2:	4631                	li	a2,12
    44c4:	02c58593          	addi	a1,a1,44 # d02c <_read+0x12>
    44c8:	10c8                	addi	a0,sp,100
    44ca:	40011437          	lui	s0,0x40011
    44ce:	001070ef          	jal	ra,bcce <memcpy>
    44d2:	04800d93          	li	s11,72
    44d6:	10cc                	addi	a1,sp,100
    44d8:	80040513          	addi	a0,s0,-2048 # 40010800 <__freertos_irq_stack_top+0x2000b800>
    44dc:	d6ee                	sw	s11,108(sp)
    44de:	89cff0ef          	jal	ra,357a <GPIO_Init>
    44e2:	49c1                	li	s3,16
    44e4:	4c09                	li	s8,2
    44e6:	10cc                	addi	a1,sp,100
    44e8:	80040513          	addi	a0,s0,-2048
    44ec:	d6ce                	sw	s3,108(sp)
    44ee:	07811223          	sh	s8,100(sp)
    44f2:	888ff0ef          	jal	ra,357a <GPIO_Init>
    44f6:	4791                	li	a5,4
    44f8:	10cc                	addi	a1,sp,100
    44fa:	80040513          	addi	a0,s0,-2048
    44fe:	06f11223          	sh	a5,100(sp)
    4502:	d6ce                	sw	s3,108(sp)
    4504:	876ff0ef          	jal	ra,357a <GPIO_Init>
    4508:	4321                	li	t1,8
    450a:	10cc                	addi	a1,sp,100
    450c:	80040513          	addi	a0,s0,-2048
    4510:	06611223          	sh	t1,100(sp)
    4514:	ce1a                	sw	t1,28(sp)
    4516:	d6ce                	sw	s3,108(sp)
    4518:	862ff0ef          	jal	ra,357a <GPIO_Init>
    451c:	10cc                	addi	a1,sp,100
    451e:	80040513          	addi	a0,s0,-2048
    4522:	07311223          	sh	s3,100(sp)
    4526:	d682                	sw	zero,108(sp)
    4528:	852ff0ef          	jal	ra,357a <GPIO_Init>
    452c:	02000893          	li	a7,32
    4530:	4961                	li	s2,24
    4532:	10cc                	addi	a1,sp,100
    4534:	80040513          	addi	a0,s0,-2048
    4538:	07111223          	sh	a7,100(sp)
    453c:	cc46                	sw	a7,24(sp)
    453e:	d6ca                	sw	s2,108(sp)
    4540:	83aff0ef          	jal	ra,357a <GPIO_Init>
    4544:	04000813          	li	a6,64
    4548:	4491                	li	s1,4
    454a:	10cc                	addi	a1,sp,100
    454c:	80040513          	addi	a0,s0,-2048
    4550:	07011223          	sh	a6,100(sp)
    4554:	ca42                	sw	a6,20(sp)
    4556:	d6a6                	sw	s1,108(sp)
    4558:	822ff0ef          	jal	ra,357a <GPIO_Init>
    455c:	08000613          	li	a2,128
    4560:	10cc                	addi	a1,sp,100
    4562:	80040513          	addi	a0,s0,-2048
    4566:	06c11223          	sh	a2,100(sp)
    456a:	c832                	sw	a2,16(sp)
    456c:	d6ca                	sw	s2,108(sp)
    456e:	80cff0ef          	jal	ra,357a <GPIO_Init>
    4572:	10000693          	li	a3,256
    4576:	10cc                	addi	a1,sp,100
    4578:	80040513          	addi	a0,s0,-2048
    457c:	06d11223          	sh	a3,100(sp)
    4580:	c636                	sw	a3,12(sp)
    4582:	d6a6                	sw	s1,108(sp)
    4584:	ff7fe0ef          	jal	ra,357a <GPIO_Init>
    4588:	20000713          	li	a4,512
    458c:	10cc                	addi	a1,sp,100
    458e:	80040513          	addi	a0,s0,-2048
    4592:	06e11223          	sh	a4,100(sp)
    4596:	c43a                	sw	a4,8(sp)
    4598:	d6ca                	sw	s2,108(sp)
    459a:	fe1fe0ef          	jal	ra,357a <GPIO_Init>
    459e:	40000793          	li	a5,1024
    45a2:	10cc                	addi	a1,sp,100
    45a4:	80040513          	addi	a0,s0,-2048
    45a8:	06f11223          	sh	a5,100(sp)
    45ac:	c23e                	sw	a5,4(sp)
    45ae:	d6ca                	sw	s2,108(sp)
    45b0:	6b85                	lui	s7,0x1
    45b2:	fc9fe0ef          	jal	ra,357a <GPIO_Init>
    45b6:	800b8b93          	addi	s7,s7,-2048 # 800 <__stack_size>
    45ba:	10cc                	addi	a1,sp,100
    45bc:	80040513          	addi	a0,s0,-2048
    45c0:	d6ce                	sw	s3,108(sp)
    45c2:	07711223          	sh	s7,100(sp)
    45c6:	fb5fe0ef          	jal	ra,357a <GPIO_Init>
    45ca:	02800593          	li	a1,40
    45ce:	d6ae                	sw	a1,108(sp)
    45d0:	80040513          	addi	a0,s0,-2048
    45d4:	10cc                	addi	a1,sp,100
    45d6:	07511223          	sh	s5,100(sp)
    45da:	fa1fe0ef          	jal	ra,357a <GPIO_Init>
    45de:	6d09                	lui	s10,0x2
    45e0:	10cc                	addi	a1,sp,100
    45e2:	80040513          	addi	a0,s0,-2048
    45e6:	d6a6                	sw	s1,108(sp)
    45e8:	07a11223          	sh	s10,100(sp)
    45ec:	f8ffe0ef          	jal	ra,357a <GPIO_Init>
    45f0:	6c91                	lui	s9,0x4
    45f2:	10cc                	addi	a1,sp,100
    45f4:	80040513          	addi	a0,s0,-2048
    45f8:	d6a6                	sw	s1,108(sp)
    45fa:	07911223          	sh	s9,100(sp)
    45fe:	f7dfe0ef          	jal	ra,357a <GPIO_Init>
    4602:	7b61                	lui	s6,0xffff8
    4604:	10cc                	addi	a1,sp,100
    4606:	80040513          	addi	a0,s0,-2048
    460a:	d6ce                	sw	s3,108(sp)
    460c:	07611223          	sh	s6,100(sp)
    4610:	f6bfe0ef          	jal	ra,357a <GPIO_Init>
    4614:	4a05                	li	s4,1
    4616:	10cc                	addi	a1,sp,100
    4618:	c0040513          	addi	a0,s0,-1024
    461c:	d6ca                	sw	s2,108(sp)
    461e:	07411223          	sh	s4,100(sp)
    4622:	f59fe0ef          	jal	ra,357a <GPIO_Init>
    4626:	10cc                	addi	a1,sp,100
    4628:	c0040513          	addi	a0,s0,-1024
    462c:	d6a6                	sw	s1,108(sp)
    462e:	07811223          	sh	s8,100(sp)
    4632:	f49fe0ef          	jal	ra,357a <GPIO_Init>
    4636:	10cc                	addi	a1,sp,100
    4638:	c0040513          	addi	a0,s0,-1024
    463c:	d6ca                	sw	s2,108(sp)
    463e:	06911223          	sh	s1,100(sp)
    4642:	f39fe0ef          	jal	ra,357a <GPIO_Init>
    4646:	4372                	lw	t1,28(sp)
    4648:	10cc                	addi	a1,sp,100
    464a:	c0040513          	addi	a0,s0,-1024
    464e:	06611223          	sh	t1,100(sp)
    4652:	d6a6                	sw	s1,108(sp)
    4654:	f27fe0ef          	jal	ra,357a <GPIO_Init>
    4658:	10cc                	addi	a1,sp,100
    465a:	c0040513          	addi	a0,s0,-1024
    465e:	d6ca                	sw	s2,108(sp)
    4660:	07311223          	sh	s3,100(sp)
    4664:	f17fe0ef          	jal	ra,357a <GPIO_Init>
    4668:	48e2                	lw	a7,24(sp)
    466a:	10cc                	addi	a1,sp,100
    466c:	c0040513          	addi	a0,s0,-1024
    4670:	07111223          	sh	a7,100(sp)
    4674:	d6a6                	sw	s1,108(sp)
    4676:	f05fe0ef          	jal	ra,357a <GPIO_Init>
    467a:	4852                	lw	a6,20(sp)
    467c:	10cc                	addi	a1,sp,100
    467e:	c0040513          	addi	a0,s0,-1024
    4682:	07011223          	sh	a6,100(sp)
    4686:	d6ca                	sw	s2,108(sp)
    4688:	ef3fe0ef          	jal	ra,357a <GPIO_Init>
    468c:	4642                	lw	a2,16(sp)
    468e:	10cc                	addi	a1,sp,100
    4690:	c0040513          	addi	a0,s0,-1024
    4694:	06c11223          	sh	a2,100(sp)
    4698:	d6ca                	sw	s2,108(sp)
    469a:	ee1fe0ef          	jal	ra,357a <GPIO_Init>
    469e:	46b2                	lw	a3,12(sp)
    46a0:	10cc                	addi	a1,sp,100
    46a2:	c0040513          	addi	a0,s0,-1024
    46a6:	06d11223          	sh	a3,100(sp)
    46aa:	d6ca                	sw	s2,108(sp)
    46ac:	ecffe0ef          	jal	ra,357a <GPIO_Init>
    46b0:	4722                	lw	a4,8(sp)
    46b2:	10cc                	addi	a1,sp,100
    46b4:	c0040513          	addi	a0,s0,-1024
    46b8:	06e11223          	sh	a4,100(sp)
    46bc:	d6ca                	sw	s2,108(sp)
    46be:	ebdfe0ef          	jal	ra,357a <GPIO_Init>
    46c2:	4792                	lw	a5,4(sp)
    46c4:	4971                	li	s2,28
    46c6:	10cc                	addi	a1,sp,100
    46c8:	c0040513          	addi	a0,s0,-1024
    46cc:	06f11223          	sh	a5,100(sp)
    46d0:	d6ca                	sw	s2,108(sp)
    46d2:	ea9fe0ef          	jal	ra,357a <GPIO_Init>
    46d6:	10cc                	addi	a1,sp,100
    46d8:	c0040513          	addi	a0,s0,-1024
    46dc:	d6ca                	sw	s2,108(sp)
    46de:	07711223          	sh	s7,100(sp)
    46e2:	e99fe0ef          	jal	ra,357a <GPIO_Init>
    46e6:	10cc                	addi	a1,sp,100
    46e8:	c0040513          	addi	a0,s0,-1024
    46ec:	d6ee                	sw	s11,108(sp)
    46ee:	07511223          	sh	s5,100(sp)
    46f2:	e89fe0ef          	jal	ra,357a <GPIO_Init>
    46f6:	10cc                	addi	a1,sp,100
    46f8:	c0040513          	addi	a0,s0,-1024
    46fc:	d6a6                	sw	s1,108(sp)
    46fe:	07a11223          	sh	s10,100(sp)
    4702:	e79fe0ef          	jal	ra,357a <GPIO_Init>
    4706:	10cc                	addi	a1,sp,100
    4708:	c0040513          	addi	a0,s0,-1024
    470c:	d6a6                	sw	s1,108(sp)
    470e:	07911223          	sh	s9,100(sp)
    4712:	e69fe0ef          	jal	ra,357a <GPIO_Init>
    4716:	10cc                	addi	a1,sp,100
    4718:	c0040513          	addi	a0,s0,-1024
    471c:	d6a6                	sw	s1,108(sp)
    471e:	07611223          	sh	s6,100(sp)
    4722:	e59fe0ef          	jal	ra,357a <GPIO_Init>
    4726:	10cc                	addi	a1,sp,100
    4728:	40011537          	lui	a0,0x40011
    472c:	d6a6                	sw	s1,108(sp)
    472e:	07a11223          	sh	s10,100(sp)
    4732:	e49fe0ef          	jal	ra,357a <GPIO_Init>
    4736:	10cc                	addi	a1,sp,100
    4738:	40011537          	lui	a0,0x40011
    473c:	d6ce                	sw	s3,108(sp)
    473e:	07911223          	sh	s9,100(sp)
    4742:	e39fe0ef          	jal	ra,357a <GPIO_Init>
    4746:	10cc                	addi	a1,sp,100
    4748:	40011537          	lui	a0,0x40011
    474c:	d6ce                	sw	s3,108(sp)
    474e:	07611223          	sh	s6,100(sp)
    4752:	e29fe0ef          	jal	ra,357a <GPIO_Init>
    4756:	80040513          	addi	a0,s0,-2048
    475a:	65a1                	lui	a1,0x8
    475c:	f37fe0ef          	jal	ra,3692 <GPIO_ResetBits>
    4760:	200034b7          	lui	s1,0x20003
    4764:	38048493          	addi	s1,s1,896 # 20003380 <MCAL_CFG_adxlSPI>
    4768:	10400793          	li	a5,260
    476c:	6ac1                	lui	s5,0x10
    476e:	c4dc                	sw	a5,12(s1)
    4770:	002a8793          	addi	a5,s5,2 # 10002 <_data_lma+0x259e>
    4774:	c89c                	sw	a5,16(s1)
    4776:	200039b7          	lui	s3,0x20003
    477a:	003807b7          	lui	a5,0x380
    477e:	36498993          	addi	s3,s3,868 # 20003364 <MCAL_CFG_BMPSPI>
    4782:	20078793          	addi	a5,a5,512 # 380200 <_data_lma+0x37279c>
    4786:	c0c0                	sw	s0,4(s1)
    4788:	6b91                	lui	s7,0x4
    478a:	c8dc                	sw	a5,20(s1)
    478c:	0089a223          	sw	s0,4(s3)
    4790:	000507b7          	lui	a5,0x50
    4794:	00a48413          	addi	s0,s1,10
    4798:	4649                	li	a2,18
    479a:	40013937          	lui	s2,0x40013
    479e:	cc9c                	sw	a5,24(s1)
    47a0:	0174a423          	sw	s7,8(s1)
    47a4:	85a2                	mv	a1,s0
    47a6:	00a98513          	addi	a0,s3,10
    47aa:	0124a023          	sw	s2,0(s1)
    47ae:	0129a023          	sw	s2,0(s3)
    47b2:	01699423          	sh	s6,8(s3)
    47b6:	518070ef          	jal	ra,bcce <memcpy>
    47ba:	85a2                	mv	a1,s0
    47bc:	40013537          	lui	a0,0x40013
    47c0:	ae4ff0ef          	jal	ra,3aa4 <SPI_Init>
    47c4:	0084d583          	lhu	a1,8(s1)
    47c8:	40c8                	lw	a0,4(s1)
    47ca:	40006437          	lui	s0,0x40006
    47ce:	020024b7          	lui	s1,0x2002
    47d2:	ea9fe0ef          	jal	ra,367a <GPIO_SetBits>
    47d6:	0089d583          	lhu	a1,8(s3)
    47da:	0049a503          	lw	a0,4(s3)
    47de:	71048493          	addi	s1,s1,1808 # 2002710 <_data_lma+0x1ff4cac>
    47e2:	070a8a93          	addi	s5,s5,112
    47e6:	e95fe0ef          	jal	ra,367a <GPIO_SetBits>
    47ea:	4585                	li	a1,1
    47ec:	40013537          	lui	a0,0x40013
    47f0:	b0eff0ef          	jal	ra,3afe <SPI_Cmd>
    47f4:	000627b7          	lui	a5,0x62
    47f8:	a8078793          	addi	a5,a5,-1408 # 61a80 <_data_lma+0x5401c>
    47fc:	d8be                	sw	a5,112(sp)
    47fe:	bfff07b7          	lui	a5,0xbfff0
    4802:	dabe                	sw	a5,116(sp)
    4804:	040007b7          	lui	a5,0x4000
    4808:	02f78793          	addi	a5,a5,47 # 400002f <_data_lma+0x3ff25cb>
    480c:	188c                	addi	a1,sp,112
    480e:	80040513          	addi	a0,s0,-2048 # 40005800 <__freertos_irq_stack_top+0x20000800>
    4812:	dcbe                	sw	a5,120(sp)
    4814:	07711e23          	sh	s7,124(sp)
    4818:	e93fe0ef          	jal	ra,36aa <I2C_Init>
    481c:	80040513          	addi	a0,s0,-2048
    4820:	4585                	li	a1,1
    4822:	f9dfe0ef          	jal	ra,37be <I2C_Cmd>
    4826:	40001437          	lui	s0,0x40001
    482a:	002007b7          	lui	a5,0x200
    482e:	08f78793          	addi	a5,a5,143 # 20008f <_data_lma+0x1f262b>
    4832:	184c                	addi	a1,sp,52
    4834:	80040513          	addi	a0,s0,-2048 # 40000800 <__freertos_irq_stack_top+0x1fffb800>
    4838:	da3e                	sw	a5,52(sp)
    483a:	dc26                	sw	s1,56(sp)
    483c:	02011e23          	sh	zero,60(sp)
    4840:	bf6ff0ef          	jal	ra,3c36 <TIM_TimeBaseInit>
    4844:	010c                	addi	a1,sp,128
    4846:	c502                	sw	zero,136(sp)
    4848:	80040513          	addi	a0,s0,-2048
    484c:	c156                	sw	s5,128(sp)
    484e:	09811423          	sh	s8,136(sp)
    4852:	c302                	sw	zero,132(sp)
    4854:	c702                	sw	zero,140(sp)
    4856:	c60ff0ef          	jal	ra,3cb6 <TIM_OC1Init>
    485a:	010c                	addi	a1,sp,128
    485c:	80040513          	addi	a0,s0,-2048
    4860:	cdeff0ef          	jal	ra,3d3e <TIM_OC2Init>
    4864:	010c                	addi	a1,sp,128
    4866:	80040513          	addi	a0,s0,-2048
    486a:	d88ff0ef          	jal	ra,3df2 <TIM_OC3Init>
    486e:	010c                	addi	a1,sp,128
    4870:	80040513          	addi	a0,s0,-2048
    4874:	e30ff0ef          	jal	ra,3ea4 <TIM_OC4Init>
    4878:	80040513          	addi	a0,s0,-2048
    487c:	4585                	li	a1,1
    487e:	ec4ff0ef          	jal	ra,3f42 <TIM_CtrlPWMOutputs>
    4882:	80040513          	addi	a0,s0,-2048
    4886:	4581                	li	a1,0
    4888:	f18ff0ef          	jal	ra,3fa0 <TIM_OC1PreloadConfig>
    488c:	80040513          	addi	a0,s0,-2048
    4890:	4581                	li	a1,0
    4892:	f20ff0ef          	jal	ra,3fb2 <TIM_OC2PreloadConfig>
    4896:	80040513          	addi	a0,s0,-2048
    489a:	4581                	li	a1,0
    489c:	f30ff0ef          	jal	ra,3fcc <TIM_OC3PreloadConfig>
    48a0:	80040513          	addi	a0,s0,-2048
    48a4:	4581                	li	a1,0
    48a6:	f38ff0ef          	jal	ra,3fde <TIM_OC4PreloadConfig>
    48aa:	80040513          	addi	a0,s0,-2048
    48ae:	4585                	li	a1,1
    48b0:	ed2ff0ef          	jal	ra,3f82 <TIM_ARRPreloadConfig>
    48b4:	80040513          	addi	a0,s0,-2048
    48b8:	4585                	li	a1,1
    48ba:	e6cff0ef          	jal	ra,3f26 <TIM_Cmd>
    48be:	001007b7          	lui	a5,0x100
    48c2:	08f78793          	addi	a5,a5,143 # 10008f <_data_lma+0xf262b>
    48c6:	c0be                	sw	a5,64(sp)
    48c8:	020077b7          	lui	a5,0x2007
    48cc:	53078793          	addi	a5,a5,1328 # 2007530 <_data_lma+0x1ff9acc>
    48d0:	008c                	addi	a1,sp,64
    48d2:	40000537          	lui	a0,0x40000
    48d6:	c2be                	sw	a5,68(sp)
    48d8:	04011423          	sh	zero,72(sp)
    48dc:	b5aff0ef          	jal	ra,3c36 <TIM_TimeBaseInit>
    48e0:	4585                	li	a1,1
    48e2:	40000537          	lui	a0,0x40000
    48e6:	e9cff0ef          	jal	ra,3f82 <TIM_ARRPreloadConfig>
    48ea:	4585                	li	a1,1
    48ec:	40000537          	lui	a0,0x40000
    48f0:	f24ff0ef          	jal	ra,4014 <TIM_UpdateRequestConfig>
    48f4:	4585                	li	a1,1
    48f6:	40000537          	lui	a0,0x40000
    48fa:	efeff0ef          	jal	ra,3ff8 <TIM_UpdateDisableConfig>
    48fe:	08f00793          	li	a5,143
    4902:	00ec                	addi	a1,sp,76
    4904:	c0090513          	addi	a0,s2,-1024 # 40012c00 <__freertos_irq_stack_top+0x2000dc00>
    4908:	04f11623          	sh	a5,76(sp)
    490c:	c8a6                	sw	s1,80(sp)
    490e:	04011723          	sh	zero,78(sp)
    4912:	04011a23          	sh	zero,84(sp)
    4916:	b20ff0ef          	jal	ra,3c36 <TIM_TimeBaseInit>
    491a:	c0090513          	addi	a0,s2,-1024
    491e:	4585                	li	a1,1
    4920:	e62ff0ef          	jal	ra,3f82 <TIM_ARRPreloadConfig>
    4924:	c0090513          	addi	a0,s2,-1024
    4928:	4585                	li	a1,1
    492a:	eeaff0ef          	jal	ra,4014 <TIM_UpdateRequestConfig>
    492e:	08ac                	addi	a1,sp,88
    4930:	ce82                	sw	zero,92(sp)
    4932:	c0090513          	addi	a0,s2,-1024
    4936:	05411e23          	sh	s4,92(sp)
    493a:	cc82                	sw	zero,88(sp)
    493c:	06011023          	sh	zero,96(sp)
    4940:	f7aff0ef          	jal	ra,40ba <TIM_PWMIConfig>
    4944:	12b00793          	li	a5,299
    4948:	02011723          	sh	zero,46(sp)
    494c:	02f11623          	sh	a5,44(sp)
    4950:	1068                	addi	a0,sp,44
    4952:	4785                	li	a5,1
    4954:	03410723          	sb	s4,46(sp)
    4958:	d83e                	sw	a5,48(sp)
    495a:	f5dfe0ef          	jal	ra,38b6 <NVIC_Init>
    495e:	02900793          	li	a5,41
    4962:	1068                	addi	a0,sp,44
    4964:	02f10623          	sb	a5,44(sp)
    4968:	f4ffe0ef          	jal	ra,38b6 <NVIC_Init>
    496c:	4605                	li	a2,1
    496e:	c0090513          	addi	a0,s2,-1024
    4972:	459d                	li	a1,7
    4974:	de4ff0ef          	jal	ra,3f58 <TIM_ITConfig>
    4978:	c0090513          	addi	a0,s2,-1024
    497c:	05000593          	li	a1,80
    4980:	deeff0ef          	jal	ra,3f6e <TIM_SelectInputTrigger>
    4984:	c0090513          	addi	a0,s2,-1024
    4988:	4591                	li	a1,4
    498a:	ea6ff0ef          	jal	ra,4030 <TIM_SelectSlaveMode>
    498e:	c0090513          	addi	a0,s2,-1024
    4992:	08000593          	li	a1,128
    4996:	eb8ff0ef          	jal	ra,404e <TIM_SelectMasterSlaveMode>
    499a:	67f1                	lui	a5,0x1c
    499c:	20078793          	addi	a5,a5,512 # 1c200 <_data_lma+0xe79c>
    49a0:	cf02                	sw	zero,156(sp)
    49a2:	c93e                	sw	a5,144(sp)
    49a4:	40005437          	lui	s0,0x40005
    49a8:	30000793          	li	a5,768
    49ac:	cd02                	sw	zero,152(sp)
    49ae:	08f11e23          	sh	a5,156(sp)
    49b2:	090c                	addi	a1,sp,144
    49b4:	47b1                	li	a5,12
    49b6:	c0040513          	addi	a0,s0,-1024 # 40004c00 <__freertos_irq_stack_top+0x1ffffc00>
    49ba:	08f11d23          	sh	a5,154(sp)
    49be:	cb02                	sw	zero,148(sp)
    49c0:	fc2ff0ef          	jal	ra,4182 <USART_Init>
    49c4:	4585                	li	a1,1
    49c6:	c0040513          	addi	a0,s0,-1024
    49ca:	891ff0ef          	jal	ra,425a <USART_Cmd>
    49ce:	6531                	lui	a0,0xc
    49d0:	fa3fe0ef          	jal	ra,3972 <RCC_ADCCLKConfig>
    49d4:	02000613          	li	a2,32
    49d8:	4581                	li	a1,0
    49da:	1108                	addi	a0,sp,160
    49dc:	b73fb0ef          	jal	ra,54e <memset>
    49e0:	40012437          	lui	s0,0x40012
    49e4:	000e07b7          	lui	a5,0xe0
    49e8:	110c                	addi	a1,sp,160
    49ea:	40040513          	addi	a0,s0,1024 # 40012400 <__freertos_irq_stack_top+0x2000d400>
    49ee:	d73e                	sw	a5,172(sp)
    49f0:	0b410a23          	sb	s4,180(sp)
    49f4:	a3dfe0ef          	jal	ra,3430 <ADC_Init>
    49f8:	40040513          	addi	a0,s0,1024
    49fc:	4585                	li	a1,1
    49fe:	a8bfe0ef          	jal	ra,3488 <ADC_Cmd>
    4a02:	4501                	li	a0,0
    4a04:	6129                	addi	sp,sp,192
    4a06:	b25fb06f          	j	52a <__riscv_restore_12>

00004a0a <SystemInit>:
    4a0a:	400217b7          	lui	a5,0x40021
    4a0e:	4398                	lw	a4,0(a5)
    4a10:	f8ff06b7          	lui	a3,0xf8ff0
    4a14:	1141                	addi	sp,sp,-16
    4a16:	00176713          	ori	a4,a4,1
    4a1a:	c398                	sw	a4,0(a5)
    4a1c:	43d8                	lw	a4,4(a5)
    4a1e:	00020637          	lui	a2,0x20
    4a22:	8f75                	and	a4,a4,a3
    4a24:	c3d8                	sw	a4,4(a5)
    4a26:	4398                	lw	a4,0(a5)
    4a28:	fef706b7          	lui	a3,0xfef70
    4a2c:	16fd                	addi	a3,a3,-1
    4a2e:	8f75                	and	a4,a4,a3
    4a30:	c398                	sw	a4,0(a5)
    4a32:	4398                	lw	a4,0(a5)
    4a34:	fffc06b7          	lui	a3,0xfffc0
    4a38:	16fd                	addi	a3,a3,-1
    4a3a:	8f75                	and	a4,a4,a3
    4a3c:	c398                	sw	a4,0(a5)
    4a3e:	43d8                	lw	a4,4(a5)
    4a40:	ff8106b7          	lui	a3,0xff810
    4a44:	16fd                	addi	a3,a3,-1
    4a46:	8f75                	and	a4,a4,a3
    4a48:	c3d8                	sw	a4,4(a5)
    4a4a:	009f0737          	lui	a4,0x9f0
    4a4e:	c798                	sw	a4,8(a5)
    4a50:	c402                	sw	zero,8(sp)
    4a52:	c602                	sw	zero,12(sp)
    4a54:	4398                	lw	a4,0(a5)
    4a56:	66c1                	lui	a3,0x10
    4a58:	8f55                	or	a4,a4,a3
    4a5a:	c398                	sw	a4,0(a5)
    4a5c:	400216b7          	lui	a3,0x40021
    4a60:	6705                	lui	a4,0x1
    4a62:	429c                	lw	a5,0(a3)
    4a64:	8ff1                	and	a5,a5,a2
    4a66:	c63e                	sw	a5,12(sp)
    4a68:	47a2                	lw	a5,8(sp)
    4a6a:	0785                	addi	a5,a5,1
    4a6c:	c43e                	sw	a5,8(sp)
    4a6e:	47b2                	lw	a5,12(sp)
    4a70:	e781                	bnez	a5,4a78 <SystemInit+0x6e>
    4a72:	47a2                	lw	a5,8(sp)
    4a74:	fee797e3          	bne	a5,a4,4a62 <SystemInit+0x58>
    4a78:	400217b7          	lui	a5,0x40021
    4a7c:	439c                	lw	a5,0(a5)
    4a7e:	00e79713          	slli	a4,a5,0xe
    4a82:	06075563          	bgez	a4,4aec <SystemInit+0xe2>
    4a86:	4785                	li	a5,1
    4a88:	c63e                	sw	a5,12(sp)
    4a8a:	4732                	lw	a4,12(sp)
    4a8c:	4785                	li	a5,1
    4a8e:	04f71d63          	bne	a4,a5,4ae8 <SystemInit+0xde>
    4a92:	400217b7          	lui	a5,0x40021
    4a96:	43d8                	lw	a4,4(a5)
    4a98:	ffc106b7          	lui	a3,0xffc10
    4a9c:	16fd                	addi	a3,a3,-1
    4a9e:	c3d8                	sw	a4,4(a5)
    4aa0:	43d8                	lw	a4,4(a5)
    4aa2:	c3d8                	sw	a4,4(a5)
    4aa4:	43d8                	lw	a4,4(a5)
    4aa6:	c3d8                	sw	a4,4(a5)
    4aa8:	43d8                	lw	a4,4(a5)
    4aaa:	8f75                	and	a4,a4,a3
    4aac:	c3d8                	sw	a4,4(a5)
    4aae:	43d8                	lw	a4,4(a5)
    4ab0:	003d06b7          	lui	a3,0x3d0
    4ab4:	8f55                	or	a4,a4,a3
    4ab6:	c3d8                	sw	a4,4(a5)
    4ab8:	4398                	lw	a4,0(a5)
    4aba:	010006b7          	lui	a3,0x1000
    4abe:	8f55                	or	a4,a4,a3
    4ac0:	c398                	sw	a4,0(a5)
    4ac2:	4398                	lw	a4,0(a5)
    4ac4:	00671693          	slli	a3,a4,0x6
    4ac8:	fe06dde3          	bgez	a3,4ac2 <SystemInit+0xb8>
    4acc:	43d8                	lw	a4,4(a5)
    4ace:	400216b7          	lui	a3,0x40021
    4ad2:	9b71                	andi	a4,a4,-4
    4ad4:	c3d8                	sw	a4,4(a5)
    4ad6:	43d8                	lw	a4,4(a5)
    4ad8:	00276713          	ori	a4,a4,2
    4adc:	c3d8                	sw	a4,4(a5)
    4ade:	4721                	li	a4,8
    4ae0:	42dc                	lw	a5,4(a3)
    4ae2:	8bb1                	andi	a5,a5,12
    4ae4:	fee79ee3          	bne	a5,a4,4ae0 <SystemInit+0xd6>
    4ae8:	0141                	addi	sp,sp,16
    4aea:	8082                	ret
    4aec:	c602                	sw	zero,12(sp)
    4aee:	bf71                	j	4a8a <SystemInit+0x80>

00004af0 <SystemCoreClockUpdate>:
    4af0:	400216b7          	lui	a3,0x40021
    4af4:	42dc                	lw	a5,4(a3)
    4af6:	4611                	li	a2,4
    4af8:	8bb1                	andi	a5,a5,12
    4afa:	81418713          	addi	a4,gp,-2028 # 20000094 <SystemCoreClock>
    4afe:	00c78563          	beq	a5,a2,4b08 <SystemCoreClockUpdate+0x18>
    4b02:	4621                	li	a2,8
    4b04:	02c78963          	beq	a5,a2,4b36 <SystemCoreClockUpdate+0x46>
    4b08:	007a17b7          	lui	a5,0x7a1
    4b0c:	20078793          	addi	a5,a5,512 # 7a1200 <_data_lma+0x79379c>
    4b10:	c31c                	sw	a5,0(a4)
    4b12:	400217b7          	lui	a5,0x40021
    4b16:	43dc                	lw	a5,4(a5)
    4b18:	8391                	srli	a5,a5,0x4
    4b1a:	00f7f693          	andi	a3,a5,15
    4b1e:	200007b7          	lui	a5,0x20000
    4b22:	01078793          	addi	a5,a5,16 # 20000010 <AHBPrescTable>
    4b26:	97b6                	add	a5,a5,a3
    4b28:	0007c683          	lbu	a3,0(a5)
    4b2c:	431c                	lw	a5,0(a4)
    4b2e:	00d7d7b3          	srl	a5,a5,a3
    4b32:	c31c                	sw	a5,0(a4)
    4b34:	8082                	ret
    4b36:	42dc                	lw	a5,4(a3)
    4b38:	42d4                	lw	a3,4(a3)
    4b3a:	6641                	lui	a2,0x10
    4b3c:	83c9                	srli	a5,a5,0x12
    4b3e:	8bbd                	andi	a5,a5,15
    4b40:	8ef1                	and	a3,a3,a2
    4b42:	0789                	addi	a5,a5,2
    4b44:	4645                	li	a2,17
    4b46:	00c79363          	bne	a5,a2,4b4c <SystemCoreClockUpdate+0x5c>
    4b4a:	47c9                	li	a5,18
    4b4c:	ee81                	bnez	a3,4b64 <SystemCoreClockUpdate+0x74>
    4b4e:	400246b7          	lui	a3,0x40024
    4b52:	8006a683          	lw	a3,-2048(a3) # 40023800 <__freertos_irq_stack_top+0x2001e800>
    4b56:	8ac1                	andi	a3,a3,16
    4b58:	ce89                	beqz	a3,4b72 <SystemCoreClockUpdate+0x82>
    4b5a:	007a16b7          	lui	a3,0x7a1
    4b5e:	20068693          	addi	a3,a3,512 # 7a1200 <_data_lma+0x79379c>
    4b62:	a821                	j	4b7a <SystemCoreClockUpdate+0x8a>
    4b64:	400216b7          	lui	a3,0x40021
    4b68:	42d4                	lw	a3,4(a3)
    4b6a:	00e69613          	slli	a2,a3,0xe
    4b6e:	fe0656e3          	bgez	a2,4b5a <SystemCoreClockUpdate+0x6a>
    4b72:	003d16b7          	lui	a3,0x3d1
    4b76:	90068693          	addi	a3,a3,-1792 # 3d0900 <_data_lma+0x3c2e9c>
    4b7a:	02d787b3          	mul	a5,a5,a3
    4b7e:	bf49                	j	4b10 <SystemCoreClockUpdate+0x20>

00004b80 <HAL_WRAPPER_ReadAcc>:
    4b80:	cd15                	beqz	a0,4bbc <HAL_WRAPPER_ReadAcc+0x3c>
    4b82:	99dfb2ef          	jal	t0,51e <__riscv_save_0>
    4b86:	84aa                	mv	s1,a0
    4b88:	20003537          	lui	a0,0x20003
    4b8c:	3b450413          	addi	s0,a0,948 # 200033b4 <global_MPU6050ACC_t>
    4b90:	00840613          	addi	a2,s0,8
    4b94:	00440593          	addi	a1,s0,4
    4b98:	3b450513          	addi	a0,a0,948
    4b9c:	2c85                	jal	4e0c <mpu6050_accel_read>
    4b9e:	405c                	lw	a5,4(s0)
    4ba0:	800006b7          	lui	a3,0x80000
    4ba4:	4018                	lw	a4,0(s0)
    4ba6:	8fb5                	xor	a5,a5,a3
    4ba8:	c05c                	sw	a5,4(s0)
    4baa:	c0dc                	sw	a5,4(s1)
    4bac:	441c                	lw	a5,8(s0)
    4bae:	8f35                	xor	a4,a4,a3
    4bb0:	c018                	sw	a4,0(s0)
    4bb2:	c098                	sw	a4,0(s1)
    4bb4:	c49c                	sw	a5,8(s1)
    4bb6:	4501                	li	a0,0
    4bb8:	98bfb06f          	j	542 <__riscv_restore_0>
    4bbc:	4505                	li	a0,1
    4bbe:	8082                	ret

00004bc0 <HAL_WRAPPER_ReadGyro>:
    4bc0:	95ffb2ef          	jal	t0,51e <__riscv_save_0>
    4bc4:	84aa                	mv	s1,a0
    4bc6:	20003537          	lui	a0,0x20003
    4bca:	3c050413          	addi	s0,a0,960 # 200033c0 <global_MPU6050GYRO_t>
    4bce:	00840613          	addi	a2,s0,8
    4bd2:	00440593          	addi	a1,s0,4
    4bd6:	3c050513          	addi	a0,a0,960
    4bda:	2ce1                	jal	4eb2 <mpu6050_gyro_read>
    4bdc:	4058                	lw	a4,4(s0)
    4bde:	401c                	lw	a5,0(s0)
    4be0:	800006b7          	lui	a3,0x80000
    4be4:	8f35                	xor	a4,a4,a3
    4be6:	8fb5                	xor	a5,a5,a3
    4be8:	c01c                	sw	a5,0(s0)
    4bea:	c058                	sw	a4,4(s0)
    4bec:	c09c                	sw	a5,0(s1)
    4bee:	441c                	lw	a5,8(s0)
    4bf0:	c0d8                	sw	a4,4(s1)
    4bf2:	4501                	li	a0,0
    4bf4:	c49c                	sw	a5,8(s1)
    4bf6:	94dfb06f          	j	542 <__riscv_restore_0>

00004bfa <HAL_WRAPPER_ReadMagnet>:
    4bfa:	925fb2ef          	jal	t0,51e <__riscv_save_0>
    4bfe:	20003937          	lui	s2,0x20003
    4c02:	84aa                	mv	s1,a0
    4c04:	39c90513          	addi	a0,s2,924 # 2000339c <global_HMC5883MAGNET_t>
    4c08:	39c90413          	addi	s0,s2,924
    4c0c:	2b91                	jal	5160 <hmc5883l_read>
    4c0e:	00045783          	lhu	a5,0(s0)
    4c12:	00245703          	lhu	a4,2(s0)
    4c16:	39c90513          	addi	a0,s2,924
    4c1a:	40f007b3          	neg	a5,a5
    4c1e:	40e00733          	neg	a4,a4
    4c22:	00f41123          	sh	a5,2(s0)
    4c26:	00e41023          	sh	a4,0(s0)
    4c2a:	592000ef          	jal	ra,51bc <hmc5883l_normalize>
    4c2e:	441c                	lw	a5,8(s0)
    4c30:	4501                	li	a0,0
    4c32:	c09c                	sw	a5,0(s1)
    4c34:	445c                	lw	a5,12(s0)
    4c36:	c0dc                	sw	a5,4(s1)
    4c38:	481c                	lw	a5,16(s0)
    4c3a:	c49c                	sw	a5,8(s1)
    4c3c:	907fb06f          	j	542 <__riscv_restore_0>

00004c40 <HAL_WRAPPER_SetESCSpeeds>:
    4c40:	00054583          	lbu	a1,0(a0)
    4c44:	06400713          	li	a4,100
    4c48:	04b76863          	bltu	a4,a1,4c98 <HAL_WRAPPER_SetESCSpeeds+0x58>
    4c4c:	00154683          	lbu	a3,1(a0)
    4c50:	4785                	li	a5,1
    4c52:	04d76463          	bltu	a4,a3,4c9a <HAL_WRAPPER_SetESCSpeeds+0x5a>
    4c56:	00254683          	lbu	a3,2(a0)
    4c5a:	04d76063          	bltu	a4,a3,4c9a <HAL_WRAPPER_SetESCSpeeds+0x5a>
    4c5e:	00354683          	lbu	a3,3(a0)
    4c62:	02d76c63          	bltu	a4,a3,4c9a <HAL_WRAPPER_SetESCSpeeds+0x5a>
    4c66:	8b9fb2ef          	jal	t0,51e <__riscv_save_0>
    4c6a:	842a                	mv	s0,a0
    4c6c:	4501                	li	a0,0
    4c6e:	60a000ef          	jal	ra,5278 <HAL_ESC_setSpeed>
    4c72:	00144583          	lbu	a1,1(s0)
    4c76:	4505                	li	a0,1
    4c78:	600000ef          	jal	ra,5278 <HAL_ESC_setSpeed>
    4c7c:	00244583          	lbu	a1,2(s0)
    4c80:	4509                	li	a0,2
    4c82:	5f6000ef          	jal	ra,5278 <HAL_ESC_setSpeed>
    4c86:	00344583          	lbu	a1,3(s0)
    4c8a:	450d                	li	a0,3
    4c8c:	5ec000ef          	jal	ra,5278 <HAL_ESC_setSpeed>
    4c90:	4781                	li	a5,0
    4c92:	853e                	mv	a0,a5
    4c94:	8affb06f          	j	542 <__riscv_restore_0>
    4c98:	4785                	li	a5,1
    4c9a:	853e                	mv	a0,a5
    4c9c:	8082                	ret

00004c9e <HAL_WRAPPER_GetCommMessage>:
    4c9e:	881fb2ef          	jal	t0,51e <__riscv_save_0>
    4ca2:	4585                	li	a1,1
    4ca4:	d76fe0ef          	jal	ra,321a <MCAL_WRAPPER_ReceiveDataThroughUART4>
    4ca8:	c111                	beqz	a0,4cac <HAL_WRAPPER_GetCommMessage+0xe>
    4caa:	450d                	li	a0,3
    4cac:	897fb06f          	j	542 <__riscv_restore_0>

00004cb0 <HAL_WRAPPER_SendCommMessage>:
    4cb0:	86ffb2ef          	jal	t0,51e <__riscv_save_0>
    4cb4:	1141                	addi	sp,sp,-16
    4cb6:	00a107a3          	sb	a0,15(sp)
    4cba:	4585                	li	a1,1
    4cbc:	00f10513          	addi	a0,sp,15
    4cc0:	d08fe0ef          	jal	ra,31c8 <MCAL_WRAPPER_SendDataThroughUART4>
    4cc4:	c111                	beqz	a0,4cc8 <HAL_WRAPPER_SendCommMessage+0x18>
    4cc6:	4509                	li	a0,2
    4cc8:	0141                	addi	sp,sp,16
    4cca:	879fb06f          	j	542 <__riscv_restore_0>

00004cce <HAL_WRAPPER_ReadPressure>:
    4cce:	851fb2ef          	jal	t0,51e <__riscv_save_0>
    4cd2:	842a                	mv	s0,a0
    4cd4:	25d000ef          	jal	ra,5730 <BMP280_get_pressure>
    4cd8:	c008                	sw	a0,0(s0)
    4cda:	4501                	li	a0,0
    4cdc:	867fb06f          	j	542 <__riscv_restore_0>

00004ce0 <HAL_WRAPPER_ReadTemperature>:
    4ce0:	83ffb2ef          	jal	t0,51e <__riscv_save_0>
    4ce4:	842a                	mv	s0,a0
    4ce6:	233000ef          	jal	ra,5718 <BMP280_get_temperature>
    4cea:	c008                	sw	a0,0(s0)
    4cec:	4501                	li	a0,0
    4cee:	855fb06f          	j	542 <__riscv_restore_0>

00004cf2 <HAL_WRAPPER_ReadAltitude>:
    4cf2:	82dfb2ef          	jal	t0,51e <__riscv_save_0>
    4cf6:	842a                	mv	s0,a0
    4cf8:	4188                	lw	a0,0(a1)
    4cfa:	253000ef          	jal	ra,574c <BMP280_get_altitude>
    4cfe:	c008                	sw	a0,0(s0)
    4d00:	00440513          	addi	a0,s0,4
    4d04:	2b15                	jal	5238 <HAL_HCSR04_GetDistance>
    4d06:	4501                	li	a0,0
    4d08:	83bfb06f          	j	542 <__riscv_restore_0>

00004d0c <HAL_WRAPPER_GetBatteryCharge>:
    4d0c:	813fb2ef          	jal	t0,51e <__riscv_save_0>
    4d10:	1141                	addi	sp,sp,-16
    4d12:	842a                	mv	s0,a0
    4d14:	00e10513          	addi	a0,sp,14
    4d18:	00011723          	sh	zero,14(sp)
    4d1c:	ddcfe0ef          	jal	ra,32f8 <MCAL_WRAPPER_GetADCBattery>
    4d20:	00e15503          	lhu	a0,14(sp)
    4d24:	50d050ef          	jal	ra,aa30 <__floatsidf>
    4d28:	0000d7b7          	lui	a5,0xd
    4d2c:	1c07a603          	lw	a2,448(a5) # d1c0 <_read+0x1a6>
    4d30:	1c47a683          	lw	a3,452(a5)
    4d34:	062050ef          	jal	ra,9d96 <__muldf3>
    4d38:	0000d7b7          	lui	a5,0xd
    4d3c:	1c87a603          	lw	a2,456(a5) # d1c8 <_read+0x1ae>
    4d40:	1cc7a683          	lw	a3,460(a5)
    4d44:	052050ef          	jal	ra,9d96 <__muldf3>
    4d48:	58b060ef          	jal	ra,bad2 <__truncdfsf2>
    4d4c:	4db060ef          	jal	ra,ba26 <__extendsfdf2>
    4d50:	0000d7b7          	lui	a5,0xd
    4d54:	1d07a603          	lw	a2,464(a5) # d1d0 <_read+0x1b6>
    4d58:	1d47a683          	lw	a3,468(a5)
    4d5c:	03a050ef          	jal	ra,9d96 <__muldf3>
    4d60:	0000d7b7          	lui	a5,0xd
    4d64:	1d87a603          	lw	a2,472(a5) # d1d8 <_read+0x1be>
    4d68:	1dc7a683          	lw	a3,476(a5)
    4d6c:	0a9040ef          	jal	ra,9614 <__divdf3>
    4d70:	563060ef          	jal	ra,bad2 <__truncdfsf2>
    4d74:	0000d7b7          	lui	a5,0xd
    4d78:	1b47a583          	lw	a1,436(a5) # d1b4 <_read+0x19a>
    4d7c:	6c4060ef          	jal	ra,b440 <__subsf3>
    4d80:	4a7060ef          	jal	ra,ba26 <__extendsfdf2>
    4d84:	0000d7b7          	lui	a5,0xd
    4d88:	1e07a603          	lw	a2,480(a5) # d1e0 <_read+0x1c6>
    4d8c:	1e47a683          	lw	a3,484(a5)
    4d90:	085040ef          	jal	ra,9614 <__divdf3>
    4d94:	53f060ef          	jal	ra,bad2 <__truncdfsf2>
    4d98:	0000d7b7          	lui	a5,0xd
    4d9c:	1b87a583          	lw	a1,440(a5) # d1b8 <_read+0x19e>
    4da0:	40c060ef          	jal	ra,b1ac <__mulsf3>
    4da4:	225060ef          	jal	ra,b7c8 <__fixunssfsi>
    4da8:	00a40023          	sb	a0,0(s0)
    4dac:	4501                	li	a0,0
    4dae:	0141                	addi	sp,sp,16
    4db0:	f92fb06f          	j	542 <__riscv_restore_0>

00004db4 <mpu6050_accel_setup>:
    4db4:	f6afb2ef          	jal	t0,51e <__riscv_save_0>
    4db8:	4581                	li	a1,0
    4dba:	06800513          	li	a0,104
    4dbe:	850fe0ef          	jal	ra,2e0e <I2C_start_transmission>
    4dc2:	06b00513          	li	a0,107
    4dc6:	8c2fe0ef          	jal	ra,2e88 <I2C_write>
    4dca:	4501                	li	a0,0
    4dcc:	8bcfe0ef          	jal	ra,2e88 <I2C_write>
    4dd0:	8eafe0ef          	jal	ra,2eba <I2C_stop>
    4dd4:	4581                	li	a1,0
    4dd6:	06800513          	li	a0,104
    4dda:	834fe0ef          	jal	ra,2e0e <I2C_start_transmission>
    4dde:	4569                	li	a0,26
    4de0:	8a8fe0ef          	jal	ra,2e88 <I2C_write>
    4de4:	4515                	li	a0,5
    4de6:	8a2fe0ef          	jal	ra,2e88 <I2C_write>
    4dea:	8d0fe0ef          	jal	ra,2eba <I2C_stop>
    4dee:	4581                	li	a1,0
    4df0:	06800513          	li	a0,104
    4df4:	81afe0ef          	jal	ra,2e0e <I2C_start_transmission>
    4df8:	4571                	li	a0,28
    4dfa:	88efe0ef          	jal	ra,2e88 <I2C_write>
    4dfe:	4541                	li	a0,16
    4e00:	888fe0ef          	jal	ra,2e88 <I2C_write>
    4e04:	8b6fe0ef          	jal	ra,2eba <I2C_stop>
    4e08:	f3afb06f          	j	542 <__riscv_restore_0>

00004e0c <mpu6050_accel_read>:
    4e0c:	ef8fb2ef          	jal	t0,504 <__riscv_save_4>
    4e10:	1141                	addi	sp,sp,-16
    4e12:	8aaa                	mv	s5,a0
    4e14:	8a2e                	mv	s4,a1
    4e16:	06800513          	li	a0,104
    4e1a:	4581                	li	a1,0
    4e1c:	c632                	sw	a2,12(sp)
    4e1e:	ff1fd0ef          	jal	ra,2e0e <I2C_start_transmission>
    4e22:	03b00513          	li	a0,59
    4e26:	862fe0ef          	jal	ra,2e88 <I2C_write>
    4e2a:	890fe0ef          	jal	ra,2eba <I2C_stop>
    4e2e:	4599                	li	a1,6
    4e30:	06800513          	li	a0,104
    4e34:	8defe0ef          	jal	ra,2f12 <I2C_requestFrom>
    4e38:	8b2fe0ef          	jal	ra,2eea <I2C_read>
    4e3c:	84aa                	mv	s1,a0
    4e3e:	04a2                	slli	s1,s1,0x8
    4e40:	8aafe0ef          	jal	ra,2eea <I2C_read>
    4e44:	8cc9                	or	s1,s1,a0
    4e46:	8a4fe0ef          	jal	ra,2eea <I2C_read>
    4e4a:	842a                	mv	s0,a0
    4e4c:	0422                	slli	s0,s0,0x8
    4e4e:	89cfe0ef          	jal	ra,2eea <I2C_read>
    4e52:	8c49                	or	s0,s0,a0
    4e54:	04c2                	slli	s1,s1,0x10
    4e56:	894fe0ef          	jal	ra,2eea <I2C_read>
    4e5a:	892a                	mv	s2,a0
    4e5c:	84c1                	srai	s1,s1,0x10
    4e5e:	88cfe0ef          	jal	ra,2eea <I2C_read>
    4e62:	89aa                	mv	s3,a0
    4e64:	8526                	mv	a0,s1
    4e66:	1b9060ef          	jal	ra,b81e <__floatsisf>
    4e6a:	0000d4b7          	lui	s1,0xd
    4e6e:	1e84a583          	lw	a1,488(s1) # d1e8 <_read+0x1ce>
    4e72:	0442                	slli	s0,s0,0x10
    4e74:	8441                	srai	s0,s0,0x10
    4e76:	336060ef          	jal	ra,b1ac <__mulsf3>
    4e7a:	00aaa023          	sw	a0,0(s5)
    4e7e:	8522                	mv	a0,s0
    4e80:	19f060ef          	jal	ra,b81e <__floatsisf>
    4e84:	1e84a583          	lw	a1,488(s1)
    4e88:	324060ef          	jal	ra,b1ac <__mulsf3>
    4e8c:	00aa2023          	sw	a0,0(s4)
    4e90:	00891513          	slli	a0,s2,0x8
    4e94:	01356533          	or	a0,a0,s3
    4e98:	0542                	slli	a0,a0,0x10
    4e9a:	8541                	srai	a0,a0,0x10
    4e9c:	183060ef          	jal	ra,b81e <__floatsisf>
    4ea0:	1e84a583          	lw	a1,488(s1)
    4ea4:	308060ef          	jal	ra,b1ac <__mulsf3>
    4ea8:	4632                	lw	a2,12(sp)
    4eaa:	c208                	sw	a0,0(a2)
    4eac:	0141                	addi	sp,sp,16
    4eae:	e8afb06f          	j	538 <__riscv_restore_4>

00004eb2 <mpu6050_gyro_read>:
    4eb2:	e44fb2ef          	jal	t0,4f6 <__riscv_save_10>
    4eb6:	8b2a                	mv	s6,a0
    4eb8:	8aae                	mv	s5,a1
    4eba:	06800513          	li	a0,104
    4ebe:	4581                	li	a1,0
    4ec0:	89b2                	mv	s3,a2
    4ec2:	f4dfd0ef          	jal	ra,2e0e <I2C_start_transmission>
    4ec6:	04300513          	li	a0,67
    4eca:	fbffd0ef          	jal	ra,2e88 <I2C_write>
    4ece:	fedfd0ef          	jal	ra,2eba <I2C_stop>
    4ed2:	4599                	li	a1,6
    4ed4:	06800513          	li	a0,104
    4ed8:	83afe0ef          	jal	ra,2f12 <I2C_requestFrom>
    4edc:	80efe0ef          	jal	ra,2eea <I2C_read>
    4ee0:	84aa                	mv	s1,a0
    4ee2:	04a2                	slli	s1,s1,0x8
    4ee4:	806fe0ef          	jal	ra,2eea <I2C_read>
    4ee8:	8cc9                	or	s1,s1,a0
    4eea:	800fe0ef          	jal	ra,2eea <I2C_read>
    4eee:	842a                	mv	s0,a0
    4ef0:	0422                	slli	s0,s0,0x8
    4ef2:	ff9fd0ef          	jal	ra,2eea <I2C_read>
    4ef6:	8c49                	or	s0,s0,a0
    4ef8:	04c2                	slli	s1,s1,0x10
    4efa:	ff1fd0ef          	jal	ra,2eea <I2C_read>
    4efe:	892a                	mv	s2,a0
    4f00:	84c1                	srai	s1,s1,0x10
    4f02:	fe9fd0ef          	jal	ra,2eea <I2C_read>
    4f06:	8a2a                	mv	s4,a0
    4f08:	8526                	mv	a0,s1
    4f0a:	115060ef          	jal	ra,b81e <__floatsisf>
    4f0e:	319060ef          	jal	ra,ba26 <__extendsfdf2>
    4f12:	0000d4b7          	lui	s1,0xd
    4f16:	1f04a603          	lw	a2,496(s1) # d1f0 <_read+0x1d6>
    4f1a:	1f44a683          	lw	a3,500(s1)
    4f1e:	0442                	slli	s0,s0,0x10
    4f20:	8441                	srai	s0,s0,0x10
    4f22:	6f2040ef          	jal	ra,9614 <__divdf3>
    4f26:	200007b7          	lui	a5,0x20000
    4f2a:	8c2a                	mv	s8,a0
    4f2c:	13c7a503          	lw	a0,316(a5) # 2000013c <roll_calibration>
    4f30:	8cae                	mv	s9,a1
    4f32:	2f5060ef          	jal	ra,ba26 <__extendsfdf2>
    4f36:	862a                	mv	a2,a0
    4f38:	86ae                	mv	a3,a1
    4f3a:	8562                	mv	a0,s8
    4f3c:	85e6                	mv	a1,s9
    4f3e:	310050ef          	jal	ra,a24e <__subdf3>
    4f42:	391060ef          	jal	ra,bad2 <__truncdfsf2>
    4f46:	00ab2023          	sw	a0,0(s6) # ffff8000 <__freertos_irq_stack_top+0xdfff3000>
    4f4a:	8522                	mv	a0,s0
    4f4c:	0d3060ef          	jal	ra,b81e <__floatsisf>
    4f50:	2d7060ef          	jal	ra,ba26 <__extendsfdf2>
    4f54:	1f04a603          	lw	a2,496(s1)
    4f58:	1f44a683          	lw	a3,500(s1)
    4f5c:	6b8040ef          	jal	ra,9614 <__divdf3>
    4f60:	200007b7          	lui	a5,0x20000
    4f64:	8b2a                	mv	s6,a0
    4f66:	1387a503          	lw	a0,312(a5) # 20000138 <pitch_calibration>
    4f6a:	8bae                	mv	s7,a1
    4f6c:	2bb060ef          	jal	ra,ba26 <__extendsfdf2>
    4f70:	862a                	mv	a2,a0
    4f72:	86ae                	mv	a3,a1
    4f74:	855a                	mv	a0,s6
    4f76:	85de                	mv	a1,s7
    4f78:	2d6050ef          	jal	ra,a24e <__subdf3>
    4f7c:	357060ef          	jal	ra,bad2 <__truncdfsf2>
    4f80:	00aaa023          	sw	a0,0(s5)
    4f84:	00891513          	slli	a0,s2,0x8
    4f88:	01456533          	or	a0,a0,s4
    4f8c:	0542                	slli	a0,a0,0x10
    4f8e:	8541                	srai	a0,a0,0x10
    4f90:	08f060ef          	jal	ra,b81e <__floatsisf>
    4f94:	293060ef          	jal	ra,ba26 <__extendsfdf2>
    4f98:	1f04a603          	lw	a2,496(s1)
    4f9c:	1f44a683          	lw	a3,500(s1)
    4fa0:	674040ef          	jal	ra,9614 <__divdf3>
    4fa4:	200007b7          	lui	a5,0x20000
    4fa8:	842a                	mv	s0,a0
    4faa:	1407a503          	lw	a0,320(a5) # 20000140 <yaw_calibration>
    4fae:	84ae                	mv	s1,a1
    4fb0:	277060ef          	jal	ra,ba26 <__extendsfdf2>
    4fb4:	862a                	mv	a2,a0
    4fb6:	86ae                	mv	a3,a1
    4fb8:	8522                	mv	a0,s0
    4fba:	85a6                	mv	a1,s1
    4fbc:	292050ef          	jal	ra,a24e <__subdf3>
    4fc0:	313060ef          	jal	ra,bad2 <__truncdfsf2>
    4fc4:	00a9a023          	sw	a0,0(s3)
    4fc8:	d66fb06f          	j	52e <__riscv_restore_10>

00004fcc <mpu6050_gyro_setup>:
    4fcc:	d38fb2ef          	jal	t0,504 <__riscv_save_4>
    4fd0:	1141                	addi	sp,sp,-16
    4fd2:	4581                	li	a1,0
    4fd4:	06800513          	li	a0,104
    4fd8:	e37fd0ef          	jal	ra,2e0e <I2C_start_transmission>
    4fdc:	06b00513          	li	a0,107
    4fe0:	ea9fd0ef          	jal	ra,2e88 <I2C_write>
    4fe4:	4501                	li	a0,0
    4fe6:	ea3fd0ef          	jal	ra,2e88 <I2C_write>
    4fea:	ed1fd0ef          	jal	ra,2eba <I2C_stop>
    4fee:	4581                	li	a1,0
    4ff0:	06800513          	li	a0,104
    4ff4:	e1bfd0ef          	jal	ra,2e0e <I2C_start_transmission>
    4ff8:	4569                	li	a0,26
    4ffa:	e8ffd0ef          	jal	ra,2e88 <I2C_write>
    4ffe:	4515                	li	a0,5
    5000:	e89fd0ef          	jal	ra,2e88 <I2C_write>
    5004:	eb7fd0ef          	jal	ra,2eba <I2C_stop>
    5008:	4581                	li	a1,0
    500a:	06800513          	li	a0,104
    500e:	e01fd0ef          	jal	ra,2e0e <I2C_start_transmission>
    5012:	456d                	li	a0,27
    5014:	e75fd0ef          	jal	ra,2e88 <I2C_write>
    5018:	4521                	li	a0,8
    501a:	00000493          	li	s1,0
    501e:	e6bfd0ef          	jal	ra,2e88 <I2C_write>
    5022:	7d100413          	li	s0,2001
    5026:	e95fd0ef          	jal	ra,2eba <I2C_stop>
    502a:	8926                	mv	s2,s1
    502c:	89a6                	mv	s3,s1
    502e:	147d                	addi	s0,s0,-1
    5030:	0442                	slli	s0,s0,0x10
    5032:	8041                	srli	s0,s0,0x10
    5034:	e029                	bnez	s0,5076 <mpu6050_gyro_setup+0xaa>
    5036:	0000d437          	lui	s0,0xd
    503a:	1f842583          	lw	a1,504(s0) # d1f8 <_read+0x1de>
    503e:	854e                	mv	a0,s3
    5040:	20000a37          	lui	s4,0x20000
    5044:	631050ef          	jal	ra,ae74 <__divsf3>
    5048:	1f842583          	lw	a1,504(s0)
    504c:	12aa2e23          	sw	a0,316(s4) # 2000013c <roll_calibration>
    5050:	854a                	mv	a0,s2
    5052:	623050ef          	jal	ra,ae74 <__divsf3>
    5056:	1f842583          	lw	a1,504(s0)
    505a:	200009b7          	lui	s3,0x20000
    505e:	12a9ac23          	sw	a0,312(s3) # 20000138 <pitch_calibration>
    5062:	8526                	mv	a0,s1
    5064:	611050ef          	jal	ra,ae74 <__divsf3>
    5068:	20000937          	lui	s2,0x20000
    506c:	14a92023          	sw	a0,320(s2) # 20000140 <yaw_calibration>
    5070:	0141                	addi	sp,sp,16
    5072:	cc6fb06f          	j	538 <__riscv_restore_4>
    5076:	0070                	addi	a2,sp,12
    5078:	002c                	addi	a1,sp,8
    507a:	0048                	addi	a0,sp,4
    507c:	e37ff0ef          	jal	ra,4eb2 <mpu6050_gyro_read>
    5080:	4592                	lw	a1,4(sp)
    5082:	854e                	mv	a0,s3
    5084:	287050ef          	jal	ra,ab0a <__addsf3>
    5088:	45a2                	lw	a1,8(sp)
    508a:	89aa                	mv	s3,a0
    508c:	854a                	mv	a0,s2
    508e:	27d050ef          	jal	ra,ab0a <__addsf3>
    5092:	45b2                	lw	a1,12(sp)
    5094:	892a                	mv	s2,a0
    5096:	8526                	mv	a0,s1
    5098:	273050ef          	jal	ra,ab0a <__addsf3>
    509c:	84aa                	mv	s1,a0
    509e:	3e800513          	li	a0,1000
    50a2:	9c8fe0ef          	jal	ra,326a <MCAL_WRAPPER_DelayUS>
    50a6:	b761                	j	502e <mpu6050_gyro_setup+0x62>

000050a8 <mpu6050_init>:
    50a8:	c76fb2ef          	jal	t0,51e <__riscv_save_0>
    50ac:	f21ff0ef          	jal	ra,4fcc <mpu6050_gyro_setup>
    50b0:	d05ff0ef          	jal	ra,4db4 <mpu6050_accel_setup>
    50b4:	c8efb06f          	j	542 <__riscv_restore_0>

000050b8 <hmc5883l_init>:
    50b8:	c66fb2ef          	jal	t0,51e <__riscv_save_0>
    50bc:	4581                	li	a1,0
    50be:	06800513          	li	a0,104
    50c2:	d4dfd0ef          	jal	ra,2e0e <I2C_start_transmission>
    50c6:	06a00513          	li	a0,106
    50ca:	dbffd0ef          	jal	ra,2e88 <I2C_write>
    50ce:	4501                	li	a0,0
    50d0:	db9fd0ef          	jal	ra,2e88 <I2C_write>
    50d4:	de7fd0ef          	jal	ra,2eba <I2C_stop>
    50d8:	4581                	li	a1,0
    50da:	06800513          	li	a0,104
    50de:	d31fd0ef          	jal	ra,2e0e <I2C_start_transmission>
    50e2:	03700513          	li	a0,55
    50e6:	da3fd0ef          	jal	ra,2e88 <I2C_write>
    50ea:	4509                	li	a0,2
    50ec:	d9dfd0ef          	jal	ra,2e88 <I2C_write>
    50f0:	dcbfd0ef          	jal	ra,2eba <I2C_stop>
    50f4:	4581                	li	a1,0
    50f6:	06800513          	li	a0,104
    50fa:	d15fd0ef          	jal	ra,2e0e <I2C_start_transmission>
    50fe:	06b00513          	li	a0,107
    5102:	d87fd0ef          	jal	ra,2e88 <I2C_write>
    5106:	4501                	li	a0,0
    5108:	d81fd0ef          	jal	ra,2e88 <I2C_write>
    510c:	daffd0ef          	jal	ra,2eba <I2C_stop>
    5110:	4581                	li	a1,0
    5112:	4579                	li	a0,30
    5114:	cfbfd0ef          	jal	ra,2e0e <I2C_start_transmission>
    5118:	4509                	li	a0,2
    511a:	d6ffd0ef          	jal	ra,2e88 <I2C_write>
    511e:	4501                	li	a0,0
    5120:	d69fd0ef          	jal	ra,2e88 <I2C_write>
    5124:	d97fd0ef          	jal	ra,2eba <I2C_stop>
    5128:	4581                	li	a1,0
    512a:	4579                	li	a0,30
    512c:	ce3fd0ef          	jal	ra,2e0e <I2C_start_transmission>
    5130:	4501                	li	a0,0
    5132:	d57fd0ef          	jal	ra,2e88 <I2C_write>
    5136:	07000513          	li	a0,112
    513a:	d4ffd0ef          	jal	ra,2e88 <I2C_write>
    513e:	d7dfd0ef          	jal	ra,2eba <I2C_stop>
    5142:	4581                	li	a1,0
    5144:	4579                	li	a0,30
    5146:	cc9fd0ef          	jal	ra,2e0e <I2C_start_transmission>
    514a:	4505                	li	a0,1
    514c:	d3dfd0ef          	jal	ra,2e88 <I2C_write>
    5150:	02000513          	li	a0,32
    5154:	d35fd0ef          	jal	ra,2e88 <I2C_write>
    5158:	d63fd0ef          	jal	ra,2eba <I2C_stop>
    515c:	be6fb06f          	j	542 <__riscv_restore_0>

00005160 <hmc5883l_read>:
    5160:	bbefb2ef          	jal	t0,51e <__riscv_save_0>
    5164:	84aa                	mv	s1,a0
    5166:	4581                	li	a1,0
    5168:	4579                	li	a0,30
    516a:	ca5fd0ef          	jal	ra,2e0e <I2C_start_transmission>
    516e:	450d                	li	a0,3
    5170:	d19fd0ef          	jal	ra,2e88 <I2C_write>
    5174:	d47fd0ef          	jal	ra,2eba <I2C_stop>
    5178:	4599                	li	a1,6
    517a:	4579                	li	a0,30
    517c:	d97fd0ef          	jal	ra,2f12 <I2C_requestFrom>
    5180:	d6bfd0ef          	jal	ra,2eea <I2C_read>
    5184:	842a                	mv	s0,a0
    5186:	0422                	slli	s0,s0,0x8
    5188:	d63fd0ef          	jal	ra,2eea <I2C_read>
    518c:	8c49                	or	s0,s0,a0
    518e:	00849023          	sh	s0,0(s1)
    5192:	d59fd0ef          	jal	ra,2eea <I2C_read>
    5196:	842a                	mv	s0,a0
    5198:	0422                	slli	s0,s0,0x8
    519a:	d51fd0ef          	jal	ra,2eea <I2C_read>
    519e:	8c49                	or	s0,s0,a0
    51a0:	00849223          	sh	s0,4(s1)
    51a4:	d47fd0ef          	jal	ra,2eea <I2C_read>
    51a8:	842a                	mv	s0,a0
    51aa:	d41fd0ef          	jal	ra,2eea <I2C_read>
    51ae:	00841793          	slli	a5,s0,0x8
    51b2:	8d5d                	or	a0,a0,a5
    51b4:	00a49123          	sh	a0,2(s1)
    51b8:	b8afb06f          	j	542 <__riscv_restore_0>

000051bc <hmc5883l_normalize>:
    51bc:	b62fb2ef          	jal	t0,51e <__riscv_save_0>
    51c0:	842a                	mv	s0,a0
    51c2:	00051503          	lh	a0,0(a0)
    51c6:	0000d4b7          	lui	s1,0xd
    51ca:	067050ef          	jal	ra,aa30 <__floatsidf>
    51ce:	0000d7b7          	lui	a5,0xd
    51d2:	2007a603          	lw	a2,512(a5) # d200 <_read+0x1e6>
    51d6:	2047a683          	lw	a3,516(a5)
    51da:	074050ef          	jal	ra,a24e <__subdf3>
    51de:	2084a603          	lw	a2,520(s1) # d208 <_read+0x1ee>
    51e2:	20c4a683          	lw	a3,524(s1)
    51e6:	42e040ef          	jal	ra,9614 <__divdf3>
    51ea:	0e9060ef          	jal	ra,bad2 <__truncdfsf2>
    51ee:	c408                	sw	a0,8(s0)
    51f0:	00241503          	lh	a0,2(s0)
    51f4:	03d050ef          	jal	ra,aa30 <__floatsidf>
    51f8:	0000d7b7          	lui	a5,0xd
    51fc:	2107a603          	lw	a2,528(a5) # d210 <_read+0x1f6>
    5200:	2147a683          	lw	a3,532(a5)
    5204:	4e1030ef          	jal	ra,8ee4 <__adddf3>
    5208:	2084a603          	lw	a2,520(s1)
    520c:	20c4a683          	lw	a3,524(s1)
    5210:	404040ef          	jal	ra,9614 <__divdf3>
    5214:	0bf060ef          	jal	ra,bad2 <__truncdfsf2>
    5218:	c448                	sw	a0,12(s0)
    521a:	00441503          	lh	a0,4(s0)
    521e:	013050ef          	jal	ra,aa30 <__floatsidf>
    5222:	2084a603          	lw	a2,520(s1)
    5226:	20c4a683          	lw	a3,524(s1)
    522a:	3ea040ef          	jal	ra,9614 <__divdf3>
    522e:	0a5060ef          	jal	ra,bad2 <__truncdfsf2>
    5232:	c808                	sw	a0,16(s0)
    5234:	b0efb06f          	j	542 <__riscv_restore_0>

00005238 <HAL_HCSR04_GetDistance>:
    5238:	ae6fb2ef          	jal	t0,51e <__riscv_save_0>
    523c:	1141                	addi	sp,sp,-16
    523e:	842a                	mv	s0,a0
    5240:	4529                	li	a0,10
    5242:	c602                	sw	zero,12(sp)
    5244:	88efe0ef          	jal	ra,32d2 <MCAL_WRAPPER_HCSR04Trig>
    5248:	0068                	addi	a0,sp,12
    524a:	f19fd0ef          	jal	ra,3162 <MCAL_WRAPPER_TIM1GetWidthOfPulse>
    524e:	e11d                	bnez	a0,5274 <HAL_HCSR04_GetDistance+0x3c>
    5250:	4532                	lw	a0,12(sp)
    5252:	051050ef          	jal	ra,aaa2 <__floatunsidf>
    5256:	0000d7b7          	lui	a5,0xd
    525a:	2187a603          	lw	a2,536(a5) # d218 <_read+0x1fe>
    525e:	21c7a683          	lw	a3,540(a5)
    5262:	335040ef          	jal	ra,9d96 <__muldf3>
    5266:	06d060ef          	jal	ra,bad2 <__truncdfsf2>
    526a:	c008                	sw	a0,0(s0)
    526c:	4501                	li	a0,0
    526e:	0141                	addi	sp,sp,16
    5270:	ad2fb06f          	j	542 <__riscv_restore_0>
    5274:	4509                	li	a0,2
    5276:	bfe5                	j	526e <HAL_HCSR04_GetDistance+0x36>

00005278 <HAL_ESC_setSpeed>:
    5278:	468d                	li	a3,3
    527a:	02a6e863          	bltu	a3,a0,52aa <HAL_ESC_setSpeed+0x32>
    527e:	06400613          	li	a2,100
    5282:	4785                	li	a5,1
    5284:	02b66463          	bltu	a2,a1,52ac <HAL_ESC_setSpeed+0x34>
    5288:	a96fb2ef          	jal	t0,51e <__riscv_save_0>
    528c:	4709                	li	a4,2
    528e:	00e50863          	beq	a0,a4,529e <HAL_ESC_setSpeed+0x26>
    5292:	00d50663          	beq	a0,a3,529e <HAL_ESC_setSpeed+0x26>
    5296:	4705                	li	a4,1
    5298:	00e50363          	beq	a0,a4,529e <HAL_ESC_setSpeed+0x26>
    529c:	4501                	li	a0,0
    529e:	cfffd0ef          	jal	ra,2f9c <MCAL_WRAPEPR_TIM4_PWM_OUT>
    52a2:	4781                	li	a5,0
    52a4:	853e                	mv	a0,a5
    52a6:	a9cfb06f          	j	542 <__riscv_restore_0>
    52aa:	4785                	li	a5,1
    52ac:	853e                	mv	a0,a5
    52ae:	8082                	ret

000052b0 <HAL_Config_ConfigAllHW>:
    52b0:	a6efb2ef          	jal	t0,51e <__riscv_save_0>
    52b4:	200007b7          	lui	a5,0x20000
    52b8:	01020737          	lui	a4,0x1020
    52bc:	14478793          	addi	a5,a5,324 # 20000144 <global_adxl345Config_t>
    52c0:	70d70713          	addi	a4,a4,1805 # 102070d <_data_lma+0x1012ca9>
    52c4:	c398                	sw	a4,0(a5)
    52c6:	10200713          	li	a4,258
    52ca:	00e79223          	sh	a4,4(a5)
    52ce:	ddbff0ef          	jal	ra,50a8 <mpu6050_init>
    52d2:	de7ff0ef          	jal	ra,50b8 <hmc5883l_init>
    52d6:	2911                	jal	56ea <BMP280_Init>
    52d8:	4501                	li	a0,0
    52da:	a68fb06f          	j	542 <__riscv_restore_0>

000052de <BMP280_ReadRegister>:
    52de:	a40fb2ef          	jal	t0,51e <__riscv_save_0>
    52e2:	1141                	addi	sp,sp,-16
    52e4:	f8056513          	ori	a0,a0,-128
    52e8:	0074                	addi	a3,sp,12
    52ea:	00a10623          	sb	a0,12(sp)
    52ee:	20003537          	lui	a0,0x20003
    52f2:	4609                	li	a2,2
    52f4:	85b6                	mv	a1,a3
    52f6:	36450513          	addi	a0,a0,868 # 20003364 <MCAL_CFG_BMPSPI>
    52fa:	000106a3          	sb	zero,13(sp)
    52fe:	a9ffd0ef          	jal	ra,2d9c <MCAL_WRAPEPR_SPI_POLL_TRANSFER>
    5302:	00d14503          	lbu	a0,13(sp)
    5306:	0141                	addi	sp,sp,16
    5308:	a3afb06f          	j	542 <__riscv_restore_0>

0000530c <BMP280_WriteRegister>:
    530c:	a12fb2ef          	jal	t0,51e <__riscv_save_0>
    5310:	1141                	addi	sp,sp,-16
    5312:	07f57513          	andi	a0,a0,127
    5316:	00a10623          	sb	a0,12(sp)
    531a:	20003537          	lui	a0,0x20003
    531e:	00b106a3          	sb	a1,13(sp)
    5322:	4681                	li	a3,0
    5324:	006c                	addi	a1,sp,12
    5326:	4609                	li	a2,2
    5328:	36450513          	addi	a0,a0,868 # 20003364 <MCAL_CFG_BMPSPI>
    532c:	a71fd0ef          	jal	ra,2d9c <MCAL_WRAPEPR_SPI_POLL_TRANSFER>
    5330:	0141                	addi	sp,sp,16
    5332:	a10fb06f          	j	542 <__riscv_restore_0>

00005336 <BMP280_ReadUnsignedShort>:
    5336:	9e8fb2ef          	jal	t0,51e <__riscv_save_0>
    533a:	842a                	mv	s0,a0
    533c:	fa3ff0ef          	jal	ra,52de <BMP280_ReadRegister>
    5340:	84aa                	mv	s1,a0
    5342:	00140513          	addi	a0,s0,1
    5346:	0ff57513          	andi	a0,a0,255
    534a:	f95ff0ef          	jal	ra,52de <BMP280_ReadRegister>
    534e:	0522                	slli	a0,a0,0x8
    5350:	8d45                	or	a0,a0,s1
    5352:	0542                	slli	a0,a0,0x10
    5354:	8141                	srli	a0,a0,0x10
    5356:	9ecfb06f          	j	542 <__riscv_restore_0>

0000535a <BMP280_ReadSignedShort>:
    535a:	9c4fb2ef          	jal	t0,51e <__riscv_save_0>
    535e:	842a                	mv	s0,a0
    5360:	f7fff0ef          	jal	ra,52de <BMP280_ReadRegister>
    5364:	84aa                	mv	s1,a0
    5366:	00140513          	addi	a0,s0,1
    536a:	0ff57513          	andi	a0,a0,255
    536e:	f71ff0ef          	jal	ra,52de <BMP280_ReadRegister>
    5372:	0522                	slli	a0,a0,0x8
    5374:	8d45                	or	a0,a0,s1
    5376:	0542                	slli	a0,a0,0x10
    5378:	8541                	srai	a0,a0,0x10
    537a:	9c8fb06f          	j	542 <__riscv_restore_0>

0000537e <BMP280_get_trimming_parameters>:
    537e:	9a0fb2ef          	jal	t0,51e <__riscv_save_0>
    5382:	08800513          	li	a0,136
    5386:	20003437          	lui	s0,0x20003
    538a:	3cc40413          	addi	s0,s0,972 # 200033cc <trimmingParameter>
    538e:	fa9ff0ef          	jal	ra,5336 <BMP280_ReadUnsignedShort>
    5392:	00a41023          	sh	a0,0(s0)
    5396:	08e00513          	li	a0,142
    539a:	f9dff0ef          	jal	ra,5336 <BMP280_ReadUnsignedShort>
    539e:	00a41323          	sh	a0,6(s0)
    53a2:	08a00513          	li	a0,138
    53a6:	fb5ff0ef          	jal	ra,535a <BMP280_ReadSignedShort>
    53aa:	00a41123          	sh	a0,2(s0)
    53ae:	08c00513          	li	a0,140
    53b2:	fa9ff0ef          	jal	ra,535a <BMP280_ReadSignedShort>
    53b6:	00a41223          	sh	a0,4(s0)
    53ba:	09000513          	li	a0,144
    53be:	f9dff0ef          	jal	ra,535a <BMP280_ReadSignedShort>
    53c2:	00a41423          	sh	a0,8(s0)
    53c6:	09200513          	li	a0,146
    53ca:	f91ff0ef          	jal	ra,535a <BMP280_ReadSignedShort>
    53ce:	00a41523          	sh	a0,10(s0)
    53d2:	09400513          	li	a0,148
    53d6:	f85ff0ef          	jal	ra,535a <BMP280_ReadSignedShort>
    53da:	00a41623          	sh	a0,12(s0)
    53de:	09600513          	li	a0,150
    53e2:	f79ff0ef          	jal	ra,535a <BMP280_ReadSignedShort>
    53e6:	00a41723          	sh	a0,14(s0)
    53ea:	09800513          	li	a0,152
    53ee:	f6dff0ef          	jal	ra,535a <BMP280_ReadSignedShort>
    53f2:	00a41823          	sh	a0,16(s0)
    53f6:	09a00513          	li	a0,154
    53fa:	f61ff0ef          	jal	ra,535a <BMP280_ReadSignedShort>
    53fe:	00a41923          	sh	a0,18(s0)
    5402:	09c00513          	li	a0,156
    5406:	f55ff0ef          	jal	ra,535a <BMP280_ReadSignedShort>
    540a:	00a41a23          	sh	a0,20(s0)
    540e:	09e00513          	li	a0,158
    5412:	f49ff0ef          	jal	ra,535a <BMP280_ReadSignedShort>
    5416:	00a41b23          	sh	a0,22(s0)
    541a:	928fb06f          	j	542 <__riscv_restore_0>

0000541e <BMP280_ReadDataRegisters>:
    541e:	900fb2ef          	jal	t0,51e <__riscv_save_0>
    5422:	84aa                	mv	s1,a0
    5424:	ebbff0ef          	jal	ra,52de <BMP280_ReadRegister>
    5428:	842a                	mv	s0,a0
    542a:	00148513          	addi	a0,s1,1
    542e:	0ff57513          	andi	a0,a0,255
    5432:	eadff0ef          	jal	ra,52de <BMP280_ReadRegister>
    5436:	892a                	mv	s2,a0
    5438:	00248513          	addi	a0,s1,2
    543c:	0922                	slli	s2,s2,0x8
    543e:	0ff57513          	andi	a0,a0,255
    5442:	0442                	slli	s0,s0,0x10
    5444:	e9bff0ef          	jal	ra,52de <BMP280_ReadRegister>
    5448:	01246433          	or	s0,s0,s2
    544c:	8d41                	or	a0,a0,s0
    544e:	8f4fb06f          	j	542 <__riscv_restore_0>

00005452 <BMP280_GetTemperatureRawData>:
    5452:	8ccfb2ef          	jal	t0,51e <__riscv_save_0>
    5456:	842a                	mv	s0,a0
    5458:	0fa00513          	li	a0,250
    545c:	fc3ff0ef          	jal	ra,541e <BMP280_ReadDataRegisters>
    5460:	8511                	srai	a0,a0,0x4
    5462:	c008                	sw	a0,0(s0)
    5464:	8defb06f          	j	542 <__riscv_restore_0>

00005468 <BMP280_GetPressureRawData>:
    5468:	8b6fb2ef          	jal	t0,51e <__riscv_save_0>
    546c:	842a                	mv	s0,a0
    546e:	0f700513          	li	a0,247
    5472:	fadff0ef          	jal	ra,541e <BMP280_ReadDataRegisters>
    5476:	8511                	srai	a0,a0,0x4
    5478:	c008                	sw	a0,0(s0)
    547a:	8c8fb06f          	j	542 <__riscv_restore_0>

0000547e <BMP280_CompensateTemperature>:
    547e:	8a0fb2ef          	jal	t0,51e <__riscv_save_0>
    5482:	20003737          	lui	a4,0x20003
    5486:	3cc70713          	addi	a4,a4,972 # 200033cc <trimmingParameter>
    548a:	00075683          	lhu	a3,0(a4)
    548e:	40455793          	srai	a5,a0,0x4
    5492:	850d                	srai	a0,a0,0x3
    5494:	8f95                	sub	a5,a5,a3
    5496:	02f787b3          	mul	a5,a5,a5
    549a:	0686                	slli	a3,a3,0x1
    549c:	8d15                	sub	a0,a0,a3
    549e:	00271683          	lh	a3,2(a4)
    54a2:	00471703          	lh	a4,4(a4)
    54a6:	87b1                	srai	a5,a5,0xc
    54a8:	02d50533          	mul	a0,a0,a3
    54ac:	02e787b3          	mul	a5,a5,a4
    54b0:	852d                	srai	a0,a0,0xb
    54b2:	87b9                	srai	a5,a5,0xe
    54b4:	953e                	add	a0,a0,a5
    54b6:	200007b7          	lui	a5,0x20000
    54ba:	14a7a623          	sw	a0,332(a5) # 2000014c <t_fine>
    54be:	4795                	li	a5,5
    54c0:	02f50533          	mul	a0,a0,a5
    54c4:	08050513          	addi	a0,a0,128
    54c8:	8521                	srai	a0,a0,0x8
    54ca:	354060ef          	jal	ra,b81e <__floatsisf>
    54ce:	0000d7b7          	lui	a5,0xd
    54d2:	1b87a583          	lw	a1,440(a5) # d1b8 <_read+0x19e>
    54d6:	19f050ef          	jal	ra,ae74 <__divsf3>
    54da:	868fb06f          	j	542 <__riscv_restore_0>

000054de <BMP280_CompensatePressure>:
    54de:	840fb2ef          	jal	t0,51e <__riscv_save_0>
    54e2:	200007b7          	lui	a5,0x20000
    54e6:	14c7a583          	lw	a1,332(a5) # 2000014c <t_fine>
    54ea:	7705                	lui	a4,0xfffe1
    54ec:	c0070713          	addi	a4,a4,-1024 # fffe0c00 <__freertos_irq_stack_top+0xdffdbc00>
    54f0:	972e                	add	a4,a4,a1
    54f2:	41f5d793          	srai	a5,a1,0x1f
    54f6:	17fd                	addi	a5,a5,-1
    54f8:	00b735b3          	sltu	a1,a4,a1
    54fc:	95be                	add	a1,a1,a5
    54fe:	02e588b3          	mul	a7,a1,a4
    5502:	20003437          	lui	s0,0x20003
    5506:	3cc40413          	addi	s0,s0,972 # 200033cc <trimmingParameter>
    550a:	00841803          	lh	a6,8(s0)
    550e:	41f85693          	srai	a3,a6,0x1f
    5512:	02e737b3          	mulhu	a5,a4,a4
    5516:	0886                	slli	a7,a7,0x1
    5518:	98be                	add	a7,a7,a5
    551a:	02e686b3          	mul	a3,a3,a4
    551e:	030587b3          	mul	a5,a1,a6
    5522:	02e80633          	mul	a2,a6,a4
    5526:	96be                	add	a3,a3,a5
    5528:	02e83833          	mulhu	a6,a6,a4
    552c:	01465793          	srli	a5,a2,0x14
    5530:	00c61e13          	slli	t3,a2,0xc
    5534:	02e70333          	mul	t1,a4,a4
    5538:	96c2                	add	a3,a3,a6
    553a:	00c69813          	slli	a6,a3,0xc
    553e:	00a41683          	lh	a3,10(s0)
    5542:	0107e833          	or	a6,a5,a6
    5546:	41f6d613          	srai	a2,a3,0x1f
    554a:	02d887b3          	mul	a5,a7,a3
    554e:	02660633          	mul	a2,a2,t1
    5552:	963e                	add	a2,a2,a5
    5554:	026687b3          	mul	a5,a3,t1
    5558:	0266b6b3          	mulhu	a3,a3,t1
    555c:	83a1                	srli	a5,a5,0x8
    555e:	9636                	add	a2,a2,a3
    5560:	01861693          	slli	a3,a2,0x18
    5564:	8fd5                	or	a5,a5,a3
    5566:	40865693          	srai	a3,a2,0x8
    556a:	01c78633          	add	a2,a5,t3
    556e:	00f637b3          	sltu	a5,a2,a5
    5572:	96c2                	add	a3,a3,a6
    5574:	96be                	add	a3,a3,a5
    5576:	67a1                	lui	a5,0x8
    5578:	96be                	add	a3,a3,a5
    557a:	00645783          	lhu	a5,6(s0)
    557e:	02f63633          	mulhu	a2,a2,a5
    5582:	02f686b3          	mul	a3,a3,a5
    5586:	96b2                	add	a3,a3,a2
    5588:	4016d613          	srai	a2,a3,0x1
    558c:	86fd                	srai	a3,a3,0x1f
    558e:	00d667b3          	or	a5,a2,a3
    5592:	14078963          	beqz	a5,56e4 <BMP280_CompensatePressure+0x206>
    5596:	01041e03          	lh	t3,16(s0)
    559a:	41fe5813          	srai	a6,t3,0x1f
    559e:	02680833          	mul	a6,a6,t1
    55a2:	03c888b3          	mul	a7,a7,t3
    55a6:	98c2                	add	a7,a7,a6
    55a8:	026e0833          	mul	a6,t3,t1
    55ac:	026e3333          	mulhu	t1,t3,t1
    55b0:	9346                	add	t1,t1,a7
    55b2:	00e41883          	lh	a7,14(s0)
    55b6:	41f8d793          	srai	a5,a7,0x1f
    55ba:	031585b3          	mul	a1,a1,a7
    55be:	02e787b3          	mul	a5,a5,a4
    55c2:	97ae                	add	a5,a5,a1
    55c4:	02e885b3          	mul	a1,a7,a4
    55c8:	02e8b733          	mulhu	a4,a7,a4
    55cc:	973e                	add	a4,a4,a5
    55ce:	0746                	slli	a4,a4,0x11
    55d0:	00f5d793          	srli	a5,a1,0xf
    55d4:	05c6                	slli	a1,a1,0x11
    55d6:	8f5d                	or	a4,a4,a5
    55d8:	982e                	add	a6,a6,a1
    55da:	00b835b3          	sltu	a1,a6,a1
    55de:	971a                	add	a4,a4,t1
    55e0:	972e                	add	a4,a4,a1
    55e2:	001005b7          	lui	a1,0x100
    55e6:	40a58533          	sub	a0,a1,a0
    55ea:	41f55793          	srai	a5,a0,0x1f
    55ee:	00155593          	srli	a1,a0,0x1
    55f2:	07fe                	slli	a5,a5,0x1f
    55f4:	8fcd                	or	a5,a5,a1
    55f6:	00c41583          	lh	a1,12(s0)
    55fa:	057e                	slli	a0,a0,0x1f
    55fc:	41050833          	sub	a6,a0,a6
    5600:	058e                	slli	a1,a1,0x3
    5602:	972e                	add	a4,a4,a1
    5604:	01053533          	sltu	a0,a0,a6
    5608:	8f99                	sub	a5,a5,a4
    560a:	8f89                	sub	a5,a5,a0
    560c:	6505                	lui	a0,0x1
    560e:	c3550513          	addi	a0,a0,-971 # c35 <prvCopyDataToQueue+0x57>
    5612:	02a787b3          	mul	a5,a5,a0
    5616:	02a835b3          	mulhu	a1,a6,a0
    561a:	02a80533          	mul	a0,a6,a0
    561e:	95be                	add	a1,a1,a5
    5620:	4ec030ef          	jal	ra,8b0c <__divdi3>
    5624:	01641703          	lh	a4,22(s0)
    5628:	01359793          	slli	a5,a1,0x13
    562c:	00d55693          	srli	a3,a0,0xd
    5630:	8edd                	or	a3,a3,a5
    5632:	40d5d813          	srai	a6,a1,0xd
    5636:	41f75793          	srai	a5,a4,0x1f
    563a:	02e80633          	mul	a2,a6,a4
    563e:	02d787b3          	mul	a5,a5,a3
    5642:	97b2                	add	a5,a5,a2
    5644:	02d70633          	mul	a2,a4,a3
    5648:	02d73733          	mulhu	a4,a4,a3
    564c:	97ba                	add	a5,a5,a4
    564e:	02c80833          	mul	a6,a6,a2
    5652:	02d787b3          	mul	a5,a5,a3
    5656:	02d60733          	mul	a4,a2,a3
    565a:	97c2                	add	a5,a5,a6
    565c:	02d636b3          	mulhu	a3,a2,a3
    5660:	8365                	srli	a4,a4,0x19
    5662:	01441603          	lh	a2,20(s0)
    5666:	97b6                	add	a5,a5,a3
    5668:	00779693          	slli	a3,a5,0x7
    566c:	8f55                	or	a4,a4,a3
    566e:	00a706b3          	add	a3,a4,a0
    5672:	87e5                	srai	a5,a5,0x19
    5674:	00e6b733          	sltu	a4,a3,a4
    5678:	97ae                	add	a5,a5,a1
    567a:	97ba                	add	a5,a5,a4
    567c:	41f65713          	srai	a4,a2,0x1f
    5680:	02a70733          	mul	a4,a4,a0
    5684:	02b605b3          	mul	a1,a2,a1
    5688:	95ba                	add	a1,a1,a4
    568a:	02a60733          	mul	a4,a2,a0
    568e:	02a63633          	mulhu	a2,a2,a0
    5692:	01375513          	srli	a0,a4,0x13
    5696:	95b2                	add	a1,a1,a2
    5698:	00d59613          	slli	a2,a1,0xd
    569c:	8d51                	or	a0,a0,a2
    569e:	85cd                	srai	a1,a1,0x13
    56a0:	9536                	add	a0,a0,a3
    56a2:	00d536b3          	sltu	a3,a0,a3
    56a6:	97ae                	add	a5,a5,a1
    56a8:	97b6                	add	a5,a5,a3
    56aa:	01879713          	slli	a4,a5,0x18
    56ae:	8121                	srli	a0,a0,0x8
    56b0:	8d59                	or	a0,a0,a4
    56b2:	01241703          	lh	a4,18(s0)
    56b6:	87a1                	srai	a5,a5,0x8
    56b8:	41f75593          	srai	a1,a4,0x1f
    56bc:	01c75693          	srli	a3,a4,0x1c
    56c0:	0592                	slli	a1,a1,0x4
    56c2:	0712                	slli	a4,a4,0x4
    56c4:	8dd5                	or	a1,a1,a3
    56c6:	953a                	add	a0,a0,a4
    56c8:	95be                	add	a1,a1,a5
    56ca:	00e53733          	sltu	a4,a0,a4
    56ce:	95ba                	add	a1,a1,a4
    56d0:	214060ef          	jal	ra,b8e4 <__floatdisf>
    56d4:	0000d7b7          	lui	a5,0xd
    56d8:	2207a583          	lw	a1,544(a5) # d220 <_read+0x206>
    56dc:	798050ef          	jal	ra,ae74 <__divsf3>
    56e0:	e63fa06f          	j	542 <__riscv_restore_0>
    56e4:	00000513          	li	a0,0
    56e8:	bfe5                	j	56e0 <BMP280_CompensatePressure+0x202>

000056ea <BMP280_Init>:
    56ea:	e35fa2ef          	jal	t0,51e <__riscv_save_0>
    56ee:	c91ff0ef          	jal	ra,537e <BMP280_get_trimming_parameters>
    56f2:	4581                	li	a1,0
    56f4:	0f500513          	li	a0,245
    56f8:	c15ff0ef          	jal	ra,530c <BMP280_WriteRegister>
    56fc:	0b700593          	li	a1,183
    5700:	0f400513          	li	a0,244
    5704:	c09ff0ef          	jal	ra,530c <BMP280_WriteRegister>
    5708:	00025537          	lui	a0,0x25
    570c:	9f050513          	addi	a0,a0,-1552 # 249f0 <_data_lma+0x16f8c>
    5710:	b5bfd0ef          	jal	ra,326a <MCAL_WRAPPER_DelayUS>
    5714:	e2ffa06f          	j	542 <__riscv_restore_0>

00005718 <BMP280_get_temperature>:
    5718:	e07fa2ef          	jal	t0,51e <__riscv_save_0>
    571c:	1141                	addi	sp,sp,-16
    571e:	0068                	addi	a0,sp,12
    5720:	d33ff0ef          	jal	ra,5452 <BMP280_GetTemperatureRawData>
    5724:	4532                	lw	a0,12(sp)
    5726:	d59ff0ef          	jal	ra,547e <BMP280_CompensateTemperature>
    572a:	0141                	addi	sp,sp,16
    572c:	e17fa06f          	j	542 <__riscv_restore_0>

00005730 <BMP280_get_pressure>:
    5730:	deffa2ef          	jal	t0,51e <__riscv_save_0>
    5734:	1141                	addi	sp,sp,-16
    5736:	fe3ff0ef          	jal	ra,5718 <BMP280_get_temperature>
    573a:	0068                	addi	a0,sp,12
    573c:	d2dff0ef          	jal	ra,5468 <BMP280_GetPressureRawData>
    5740:	4532                	lw	a0,12(sp)
    5742:	d9dff0ef          	jal	ra,54de <BMP280_CompensatePressure>
    5746:	0141                	addi	sp,sp,16
    5748:	dfbfa06f          	j	542 <__riscv_restore_0>

0000574c <BMP280_get_altitude>:
    574c:	dd3fa2ef          	jal	t0,51e <__riscv_save_0>
    5750:	1141                	addi	sp,sp,-16
    5752:	c62a                	sw	a0,12(sp)
    5754:	fddff0ef          	jal	ra,5730 <BMP280_get_pressure>
    5758:	45b2                	lw	a1,12(sp)
    575a:	0000d437          	lui	s0,0xd
    575e:	716050ef          	jal	ra,ae74 <__divsf3>
    5762:	2c4060ef          	jal	ra,ba26 <__extendsfdf2>
    5766:	22842603          	lw	a2,552(s0) # d228 <_read+0x20e>
    576a:	22c42683          	lw	a3,556(s0)
    576e:	2d9000ef          	jal	ra,6246 <pow>
    5772:	0000d7b7          	lui	a5,0xd
    5776:	862a                	mv	a2,a0
    5778:	86ae                	mv	a3,a1
    577a:	2307a503          	lw	a0,560(a5) # d230 <_read+0x216>
    577e:	2347a583          	lw	a1,564(a5)
    5782:	2cd040ef          	jal	ra,a24e <__subdf3>
    5786:	0000d7b7          	lui	a5,0xd
    578a:	2387a603          	lw	a2,568(a5) # d238 <_read+0x21e>
    578e:	23c7a683          	lw	a3,572(a5)
    5792:	604040ef          	jal	ra,9d96 <__muldf3>
    5796:	33c060ef          	jal	ra,bad2 <__truncdfsf2>
    579a:	00000593          	li	a1,0
    579e:	842a                	mv	s0,a0
    57a0:	187050ef          	jal	ra,b126 <__gesf2>
    57a4:	00a04463          	bgtz	a0,57ac <BMP280_get_altitude+0x60>
    57a8:	00000413          	li	s0,0
    57ac:	8522                	mv	a0,s0
    57ae:	0141                	addi	sp,sp,16
    57b0:	d93fa06f          	j	542 <__riscv_restore_0>

000057b4 <NMI_Handler>:
    57b4:	a001                	j	57b4 <NMI_Handler>

000057b6 <HardFault_Handler>:
    57b6:	a001                	j	57b6 <HardFault_Handler>

000057b8 <Task_CollectSensorData>:
    57b8:	d67fa2ef          	jal	t0,51e <__riscv_save_0>
    57bc:	7119                	addi	sp,sp,-128
    57be:	00000793          	li	a5,0
    57c2:	03800613          	li	a2,56
    57c6:	4581                	li	a1,0
    57c8:	00a8                	addi	a0,sp,72
    57ca:	c83e                	sw	a5,16(sp)
    57cc:	ca3e                	sw	a5,20(sp)
    57ce:	cc3e                	sw	a5,24(sp)
    57d0:	d202                	sw	zero,36(sp)
    57d2:	d402                	sw	zero,40(sp)
    57d4:	d602                	sw	zero,44(sp)
    57d6:	d802                	sw	zero,48(sp)
    57d8:	da02                	sw	zero,52(sp)
    57da:	dc02                	sw	zero,56(sp)
    57dc:	de02                	sw	zero,60(sp)
    57de:	c082                	sw	zero,64(sp)
    57e0:	c282                	sw	zero,68(sp)
    57e2:	ce02                	sw	zero,28(sp)
    57e4:	d002                	sw	zero,32(sp)
    57e6:	00010623          	sb	zero,12(sp)
    57ea:	d65fa0ef          	jal	ra,54e <memset>
    57ee:	0848                	addi	a0,sp,20
    57f0:	cdeff0ef          	jal	ra,4cce <HAL_WRAPPER_ReadPressure>
    57f4:	20000437          	lui	s0,0x20000
    57f8:	1048                	addi	a0,sp,36
    57fa:	b86ff0ef          	jal	ra,4b80 <HAL_WRAPPER_ReadAcc>
    57fe:	1808                	addi	a0,sp,48
    5800:	bc0ff0ef          	jal	ra,4bc0 <HAL_WRAPPER_ReadGyro>
    5804:	1868                	addi	a0,sp,60
    5806:	bf4ff0ef          	jal	ra,4bfa <HAL_WRAPPER_ReadMagnet>
    580a:	0808                	addi	a0,sp,16
    580c:	cc2ff0ef          	jal	ra,4cce <HAL_WRAPPER_ReadPressure>
    5810:	0828                	addi	a0,sp,24
    5812:	cceff0ef          	jal	ra,4ce0 <HAL_WRAPPER_ReadTemperature>
    5816:	084c                	addi	a1,sp,20
    5818:	0868                	addi	a0,sp,28
    581a:	cd8ff0ef          	jal	ra,4cf2 <HAL_WRAPPER_ReadAltitude>
    581e:	0068                	addi	a0,sp,12
    5820:	cecff0ef          	jal	ra,4d0c <HAL_WRAPPER_GetBatteryCharge>
    5824:	104c                	addi	a1,sp,36
    5826:	4631                	li	a2,12
    5828:	00a8                	addi	a0,sp,72
    582a:	4a4060ef          	jal	ra,bcce <memcpy>
    582e:	180c                	addi	a1,sp,48
    5830:	4631                	li	a2,12
    5832:	08c8                	addi	a0,sp,84
    5834:	49a060ef          	jal	ra,bcce <memcpy>
    5838:	186c                	addi	a1,sp,60
    583a:	4631                	li	a2,12
    583c:	1088                	addi	a0,sp,96
    583e:	490060ef          	jal	ra,bcce <memcpy>
    5842:	47c2                	lw	a5,16(sp)
    5844:	16042603          	lw	a2,352(s0) # 20000160 <queue_RawSensorData_Handle_t>
    5848:	00ac                	addi	a1,sp,72
    584a:	d6be                	sw	a5,108(sp)
    584c:	47e2                	lw	a5,24(sp)
    584e:	3e800513          	li	a0,1000
    5852:	d8be                	sw	a5,112(sp)
    5854:	47f2                	lw	a5,28(sp)
    5856:	dabe                	sw	a5,116(sp)
    5858:	5782                	lw	a5,32(sp)
    585a:	dcbe                	sw	a5,120(sp)
    585c:	00c14783          	lbu	a5,12(sp)
    5860:	06f10e23          	sb	a5,124(sp)
    5864:	de3fa0ef          	jal	ra,646 <SERVICE_RTOS_AppendToBlockingQueue>
    5868:	4515                	li	a0,5
    586a:	e3dfa0ef          	jal	ra,6a6 <SERVICE_RTOS_BlockFor>
    586e:	b769                	j	57f8 <Task_CollectSensorData+0x40>

00005870 <Task_SensorFusion>:
    5870:	c95fa2ef          	jal	t0,504 <__riscv_save_4>
    5874:	7175                	addi	sp,sp,-144
    5876:	03800613          	li	a2,56
    587a:	4581                	li	a1,0
    587c:	08a8                	addi	a0,sp,88
    587e:	cd1fa0ef          	jal	ra,54e <memset>
    5882:	02000613          	li	a2,32
    5886:	4581                	li	a1,0
    5888:	0828                	addi	a0,sp,24
    588a:	cc5fa0ef          	jal	ra,54e <memset>
    588e:	02000613          	li	a2,32
    5892:	4581                	li	a1,0
    5894:	1828                	addi	a0,sp,56
    5896:	cb9fa0ef          	jal	ra,54e <memset>
    589a:	4401                	li	s0,0
    589c:	c402                	sw	zero,8(sp)
    589e:	c602                	sw	zero,12(sp)
    58a0:	c802                	sw	zero,16(sp)
    58a2:	00011a23          	sh	zero,20(sp)
    58a6:	000101a3          	sb	zero,3(sp)
    58aa:	c202                	sw	zero,4(sp)
    58ac:	200009b7          	lui	s3,0x20000
    58b0:	20000a37          	lui	s4,0x20000
    58b4:	20000ab7          	lui	s5,0x20000
    58b8:	20000937          	lui	s2,0x20000
    58bc:	200004b7          	lui	s1,0x20000
    58c0:	1609a603          	lw	a2,352(s3) # 20000160 <queue_RawSensorData_Handle_t>
    58c4:	00310693          	addi	a3,sp,3
    58c8:	08ac                	addi	a1,sp,88
    58ca:	3e800513          	li	a0,1000
    58ce:	da3fa0ef          	jal	ra,670 <SERVICE_RTOS_ReadFromBlockingQueue>
    58d2:	f57d                	bnez	a0,58c0 <Task_SensorFusion+0x50>
    58d4:	082c                	addi	a1,sp,24
    58d6:	08a8                	addi	a0,sp,88
    58d8:	df3fc0ef          	jal	ra,26ca <SensorFuseWithKalman>
    58dc:	5782                	lw	a5,32(sp)
    58de:	80000737          	lui	a4,0x80000
    58e2:	0048                	addi	a0,sp,4
    58e4:	8fb9                	xor	a5,a5,a4
    58e6:	c4be                	sw	a5,72(sp)
    58e8:	57a2                	lw	a5,40(sp)
    58ea:	c0be                	sw	a5,64(sp)
    58ec:	5792                	lw	a5,36(sp)
    58ee:	c2be                	sw	a5,68(sp)
    58f0:	47e2                	lw	a5,24(sp)
    58f2:	dc3e                	sw	a5,56(sp)
    58f4:	47f2                	lw	a5,28(sp)
    58f6:	de3e                	sw	a5,60(sp)
    58f8:	e09fa0ef          	jal	ra,700 <SERVICE_RTOS_CurrentMSTime>
    58fc:	4792                	lw	a5,4(sp)
    58fe:	3e800713          	li	a4,1000
    5902:	8f81                	sub	a5,a5,s0
    5904:	08f77063          	bgeu	a4,a5,5984 <Task_SensorFusion+0x114>
    5908:	faa00793          	li	a5,-86
    590c:	00f10423          	sb	a5,8(sp)
    5910:	478a                	lw	a5,128(sp)
    5912:	158a2603          	lw	a2,344(s4) # 20000158 <queue_DroneCommToApp_Handle_t>
    5916:	002c                	addi	a1,sp,8
    5918:	0087d713          	srli	a4,a5,0x8
    591c:	00f108a3          	sb	a5,17(sp)
    5920:	00e10923          	sb	a4,18(sp)
    5924:	0107d713          	srli	a4,a5,0x10
    5928:	83e1                	srli	a5,a5,0x18
    592a:	00f10a23          	sb	a5,20(sp)
    592e:	08c14783          	lbu	a5,140(sp)
    5932:	00e109a3          	sb	a4,19(sp)
    5936:	3e800513          	li	a0,1000
    593a:	00f10aa3          	sb	a5,21(sp)
    593e:	47e2                	lw	a5,24(sp)
    5940:	000104a3          	sb	zero,9(sp)
    5944:	00010523          	sb	zero,10(sp)
    5948:	0087d713          	srli	a4,a5,0x8
    594c:	00f106a3          	sb	a5,13(sp)
    5950:	00e10723          	sb	a4,14(sp)
    5954:	0107d713          	srli	a4,a5,0x10
    5958:	83e1                	srli	a5,a5,0x18
    595a:	00f10823          	sb	a5,16(sp)
    595e:	fc000793          	li	a5,-64
    5962:	00f105a3          	sb	a5,11(sp)
    5966:	03f00793          	li	a5,63
    596a:	00e107a3          	sb	a4,15(sp)
    596e:	00f10623          	sb	a5,12(sp)
    5972:	cd5fa0ef          	jal	ra,646 <SERVICE_RTOS_AppendToBlockingQueue>
    5976:	164aa503          	lw	a0,356(s5) # 20000164 <task_AppComm_Handle_t>
    597a:	4581                	li	a1,0
    597c:	3e840413          	addi	s0,s0,1000
    5980:	d55fa0ef          	jal	ra,6d4 <SERVICE_RTOS_Notify>
    5984:	15c92603          	lw	a2,348(s2) # 2000015c <queue_FusedSensorData_Handle_t>
    5988:	182c                	addi	a1,sp,56
    598a:	3e800513          	li	a0,1000
    598e:	cb9fa0ef          	jal	ra,646 <SERVICE_RTOS_AppendToBlockingQueue>
    5992:	16c4a503          	lw	a0,364(s1) # 2000016c <task_Master_Handle_t>
    5996:	4581                	li	a1,0
    5998:	d3dfa0ef          	jal	ra,6d4 <SERVICE_RTOS_Notify>
    599c:	b715                	j	58c0 <Task_SensorFusion+0x50>

0000599e <Task_Master>:
    599e:	b59fa2ef          	jal	t0,4f6 <__riscv_save_10>
    59a2:	7171                	addi	sp,sp,-176
    59a4:	02000613          	li	a2,32
    59a8:	4581                	li	a1,0
    59aa:	0908                	addi	a0,sp,144
    59ac:	c602                	sw	zero,12(sp)
    59ae:	ba1fa0ef          	jal	ra,54e <memset>
    59b2:	200037b7          	lui	a5,0x20003
    59b6:	20003737          	lui	a4,0x20003
    59ba:	3e478793          	addi	a5,a5,996 # 200033e4 <global_AppCommMsg_t>
    59be:	3f470713          	addi	a4,a4,1012 # 200033f4 <global_MsgToRec_t>
    59c2:	c3d8                	sw	a4,4(a5)
    59c4:	4739                	li	a4,14
    59c6:	00e79523          	sh	a4,10(a5)
    59ca:	00078623          	sb	zero,12(a5)
    59ce:	00078723          	sb	zero,14(a5)
    59d2:	0000d7b7          	lui	a5,0xd
    59d6:	2407a783          	lw	a5,576(a5) # d240 <_read+0x226>
    59da:	000105a3          	sb	zero,11(sp)
    59de:	c802                	sw	zero,16(sp)
    59e0:	d03e                	sw	a5,32(sp)
    59e2:	d23e                	sw	a5,36(sp)
    59e4:	d43e                	sw	a5,40(sp)
    59e6:	de3e                	sw	a5,60(sp)
    59e8:	c0be                	sw	a5,64(sp)
    59ea:	c2be                	sw	a5,68(sp)
    59ec:	ca02                	sw	zero,20(sp)
    59ee:	cc02                	sw	zero,24(sp)
    59f0:	00011e23          	sh	zero,28(sp)
    59f4:	d602                	sw	zero,44(sp)
    59f6:	d802                	sw	zero,48(sp)
    59f8:	da02                	sw	zero,52(sp)
    59fa:	dc02                	sw	zero,56(sp)
    59fc:	c482                	sw	zero,72(sp)
    59fe:	c682                	sw	zero,76(sp)
    5a00:	c882                	sw	zero,80(sp)
    5a02:	ca82                	sw	zero,84(sp)
    5a04:	d282                	sw	zero,100(sp)
    5a06:	d482                	sw	zero,104(sp)
    5a08:	d682                	sw	zero,108(sp)
    5a0a:	d882                	sw	zero,112(sp)
    5a0c:	c102                	sw	zero,128(sp)
    5a0e:	c302                	sw	zero,132(sp)
    5a10:	c502                	sw	zero,136(sp)
    5a12:	c702                	sw	zero,140(sp)
    5a14:	ccbe                	sw	a5,88(sp)
    5a16:	cebe                	sw	a5,92(sp)
    5a18:	d0be                	sw	a5,96(sp)
    5a1a:	dabe                	sw	a5,116(sp)
    5a1c:	dcbe                	sw	a5,120(sp)
    5a1e:	debe                	sw	a5,124(sp)
    5a20:	febfe0ef          	jal	ra,4a0a <SystemInit>
    5a24:	8ccff0ef          	jal	ra,4af0 <SystemCoreClockUpdate>
    5a28:	4509                	li	a0,2
    5a2a:	e83fd0ef          	jal	ra,38ac <NVIC_PriorityGroupConfig>
    5a2e:	97ffe0ef          	jal	ra,43ac <MCAL_Config_ConfigAllPins>
    5a32:	87fff0ef          	jal	ra,52b0 <HAL_Config_ConfigAllHW>
    5a36:	6571                	lui	a0,0x1c
    5a38:	20050513          	addi	a0,a0,512 # 1c200 <_data_lma+0xe79c>
    5a3c:	8adfe0ef          	jal	ra,42e8 <USART_Printf_Init>
    5a40:	20000ab7          	lui	s5,0x20000
    5a44:	f41fc0ef          	jal	ra,2984 <Altitude_Kalman_2D_init>
    5a48:	20000b37          	lui	s6,0x20000
    5a4c:	3e800513          	li	a0,1000
    5a50:	c65fa0ef          	jal	ra,6b4 <SERVICE_RTOS_WaitForNotification>
    5a54:	154aa603          	lw	a2,340(s5) # 20000154 <queue_AppCommToDrone_Handle_t>
    5a58:	00b10693          	addi	a3,sp,11
    5a5c:	080c                	addi	a1,sp,16
    5a5e:	4501                	li	a0,0
    5a60:	c11fa0ef          	jal	ra,670 <SERVICE_RTOS_ReadFromBlockingQueue>
    5a64:	e901                	bnez	a0,5a74 <Task_Master+0xd6>
    5a66:	01714783          	lbu	a5,23(sp)
    5a6a:	e789                	bnez	a5,5a74 <Task_Master+0xd6>
    5a6c:	0068                	addi	a0,sp,12
    5a6e:	c602                	sw	zero,12(sp)
    5a70:	9d0ff0ef          	jal	ra,4c40 <HAL_WRAPPER_SetESCSpeeds>
    5a74:	15cb2603          	lw	a2,348(s6) # 2000015c <queue_FusedSensorData_Handle_t>
    5a78:	00b10693          	addi	a3,sp,11
    5a7c:	090c                	addi	a1,sp,144
    5a7e:	4501                	li	a0,0
    5a80:	bf1fa0ef          	jal	ra,670 <SERVICE_RTOS_ReadFromBlockingQueue>
    5a84:	f561                	bnez	a0,5a4c <Task_Master+0xae>
    5a86:	01714783          	lbu	a5,23(sp)
    5a8a:	d3e9                	beqz	a5,5a4c <Task_Master+0xae>
    5a8c:	01110503          	lb	a0,17(sp)
    5a90:	58f050ef          	jal	ra,b81e <__floatsisf>
    5a94:	45ea                	lw	a1,152(sp)
    5a96:	1ab050ef          	jal	ra,b440 <__subsf3>
    5a9a:	d62a                	sw	a0,44(sp)
    5a9c:	01210503          	lb	a0,18(sp)
    5aa0:	57f050ef          	jal	ra,b81e <__floatsisf>
    5aa4:	558a                	lw	a1,160(sp)
    5aa6:	19b050ef          	jal	ra,b440 <__subsf3>
    5aaa:	c4aa                	sw	a0,72(sp)
    5aac:	01410503          	lb	a0,20(sp)
    5ab0:	56f050ef          	jal	ra,b81e <__floatsisf>
    5ab4:	45fa                	lw	a1,156(sp)
    5ab6:	18b050ef          	jal	ra,b440 <__subsf3>
    5aba:	d2aa                	sw	a0,100(sp)
    5abc:	01310503          	lb	a0,19(sp)
    5ac0:	55f050ef          	jal	ra,b81e <__floatsisf>
    5ac4:	45da                	lw	a1,148(sp)
    5ac6:	17b050ef          	jal	ra,b440 <__subsf3>
    5aca:	c12a                	sw	a0,128(sp)
    5acc:	1008                	addi	a0,sp,32
    5ace:	85cfd0ef          	jal	ra,2b2a <pid_ctrl>
    5ad2:	1868                	addi	a0,sp,60
    5ad4:	856fd0ef          	jal	ra,2b2a <pid_ctrl>
    5ad8:	08a8                	addi	a0,sp,88
    5ada:	850fd0ef          	jal	ra,2b2a <pid_ctrl>
    5ade:	18c8                	addi	a0,sp,116
    5ae0:	84afd0ef          	jal	ra,2b2a <pid_ctrl>
    5ae4:	493a                	lw	s2,140(sp)
    5ae6:	59e2                	lw	s3,56(sp)
    5ae8:	854a                	mv	a0,s2
    5aea:	85ce                	mv	a1,s3
    5aec:	155050ef          	jal	ra,b440 <__subsf3>
    5af0:	44d6                	lw	s1,84(sp)
    5af2:	5446                	lw	s0,112(sp)
    5af4:	8c2a                	mv	s8,a0
    5af6:	85a6                	mv	a1,s1
    5af8:	012050ef          	jal	ra,ab0a <__addsf3>
    5afc:	85a2                	mv	a1,s0
    5afe:	143050ef          	jal	ra,b440 <__subsf3>
    5b02:	4c7050ef          	jal	ra,b7c8 <__fixunssfsi>
    5b06:	85ce                	mv	a1,s3
    5b08:	0ff57a13          	andi	s4,a0,255
    5b0c:	854a                	mv	a0,s2
    5b0e:	01410623          	sb	s4,12(sp)
    5b12:	7f9040ef          	jal	ra,ab0a <__addsf3>
    5b16:	85aa                	mv	a1,a0
    5b18:	8baa                	mv	s7,a0
    5b1a:	8526                	mv	a0,s1
    5b1c:	7ef040ef          	jal	ra,ab0a <__addsf3>
    5b20:	85a2                	mv	a1,s0
    5b22:	7e9040ef          	jal	ra,ab0a <__addsf3>
    5b26:	4a3050ef          	jal	ra,b7c8 <__fixunssfsi>
    5b2a:	0ff57993          	andi	s3,a0,255
    5b2e:	85a6                	mv	a1,s1
    5b30:	8562                	mv	a0,s8
    5b32:	013106a3          	sb	s3,13(sp)
    5b36:	10b050ef          	jal	ra,b440 <__subsf3>
    5b3a:	85a2                	mv	a1,s0
    5b3c:	7cf040ef          	jal	ra,ab0a <__addsf3>
    5b40:	489050ef          	jal	ra,b7c8 <__fixunssfsi>
    5b44:	0ff57913          	andi	s2,a0,255
    5b48:	85a6                	mv	a1,s1
    5b4a:	855e                	mv	a0,s7
    5b4c:	01210723          	sb	s2,14(sp)
    5b50:	0f1050ef          	jal	ra,b440 <__subsf3>
    5b54:	85a2                	mv	a1,s0
    5b56:	0eb050ef          	jal	ra,b440 <__subsf3>
    5b5a:	46f050ef          	jal	ra,b7c8 <__fixunssfsi>
    5b5e:	0ff57513          	andi	a0,a0,255
    5b62:	00a107a3          	sb	a0,15(sp)
    5b66:	04b00793          	li	a5,75
    5b6a:	0147f463          	bgeu	a5,s4,5b72 <Task_Master+0x1d4>
    5b6e:	00f10623          	sb	a5,12(sp)
    5b72:	04b00793          	li	a5,75
    5b76:	0137f463          	bgeu	a5,s3,5b7e <Task_Master+0x1e0>
    5b7a:	00f106a3          	sb	a5,13(sp)
    5b7e:	04b00793          	li	a5,75
    5b82:	0127f463          	bgeu	a5,s2,5b8a <Task_Master+0x1ec>
    5b86:	00f10723          	sb	a5,14(sp)
    5b8a:	04b00793          	li	a5,75
    5b8e:	00a7f463          	bgeu	a5,a0,5b96 <Task_Master+0x1f8>
    5b92:	00f107a3          	sb	a5,15(sp)
    5b96:	0068                	addi	a0,sp,12
    5b98:	8a8ff0ef          	jal	ra,4c40 <HAL_WRAPPER_SetESCSpeeds>
    5b9c:	bd45                	j	5a4c <Task_Master+0xae>

00005b9e <UARTReceivedISR>:
    5b9e:	981fa2ef          	jal	t0,51e <__riscv_save_0>
    5ba2:	20000537          	lui	a0,0x20000
    5ba6:	15250413          	addi	s0,a0,338 # 20000152 <local_u8Dummy.5047>
    5baa:	15250513          	addi	a0,a0,338
    5bae:	8f0ff0ef          	jal	ra,4c9e <HAL_WRAPPER_GetCommMessage>
    5bb2:	e915                	bnez	a0,5be6 <UARTReceivedISR+0x48>
    5bb4:	200037b7          	lui	a5,0x20003
    5bb8:	3e478793          	addi	a5,a5,996 # 200033e4 <global_AppCommMsg_t>
    5bbc:	00c7c703          	lbu	a4,12(a5)
    5bc0:	00044583          	lbu	a1,0(s0)
    5bc4:	0ff77713          	andi	a4,a4,255
    5bc8:	e30d                	bnez	a4,5bea <UARTReceivedISR+0x4c>
    5bca:	05500713          	li	a4,85
    5bce:	00e59c63          	bne	a1,a4,5be6 <UARTReceivedISR+0x48>
    5bd2:	4705                	li	a4,1
    5bd4:	00e78623          	sb	a4,12(a5)
    5bd8:	43dc                	lw	a5,4(a5)
    5bda:	200006b7          	lui	a3,0x20000
    5bde:	14e69823          	sh	a4,336(a3) # 20000150 <local_u16CurrentItem.5045>
    5be2:	00b78023          	sb	a1,0(a5)
    5be6:	95dfa06f          	j	542 <__riscv_restore_0>
    5bea:	200006b7          	lui	a3,0x20000
    5bee:	15068693          	addi	a3,a3,336 # 20000150 <local_u16CurrentItem.5045>
    5bf2:	0006d703          	lhu	a4,0(a3)
    5bf6:	43d0                	lw	a2,4(a5)
    5bf8:	963a                	add	a2,a2,a4
    5bfa:	0705                	addi	a4,a4,1
    5bfc:	0742                	slli	a4,a4,0x10
    5bfe:	00b60023          	sb	a1,0(a2) # 10000 <_data_lma+0x259c>
    5c02:	8341                	srli	a4,a4,0x10
    5c04:	00e69023          	sh	a4,0(a3)
    5c08:	00a7d683          	lhu	a3,10(a5)
    5c0c:	fce69de3          	bne	a3,a4,5be6 <UARTReceivedISR+0x48>
    5c10:	4705                	li	a4,1
    5c12:	00e78723          	sb	a4,14(a5)
    5c16:	bfc1                	j	5be6 <UARTReceivedISR+0x48>

00005c18 <Task_AppComm>:
    5c18:	8dffa2ef          	jal	t0,4f6 <__riscv_save_10>
    5c1c:	1101                	addi	sp,sp,-32
    5c1e:	20003437          	lui	s0,0x20003
    5c22:	3e440793          	addi	a5,s0,996 # 200033e4 <global_AppCommMsg_t>
    5c26:	01010913          	addi	s2,sp,16
    5c2a:	4739                	li	a4,14
    5c2c:	c802                	sw	zero,16(sp)
    5c2e:	ca02                	sw	zero,20(sp)
    5c30:	cc02                	sw	zero,24(sp)
    5c32:	00011e23          	sh	zero,28(sp)
    5c36:	000107a3          	sb	zero,15(sp)
    5c3a:	0127a023          	sw	s2,0(a5)
    5c3e:	00e79423          	sh	a4,8(a5)
    5c42:	3e440413          	addi	s0,s0,996
    5c46:	20000ab7          	lui	s5,0x20000
    5c4a:	20003a37          	lui	s4,0x20003
    5c4e:	200009b7          	lui	s3,0x20000
    5c52:	20000b37          	lui	s6,0x20000
    5c56:	158b2603          	lw	a2,344(s6) # 20000158 <queue_DroneCommToApp_Handle_t>
    5c5a:	00f10693          	addi	a3,sp,15
    5c5e:	85ca                	mv	a1,s2
    5c60:	4501                	li	a0,0
    5c62:	a0ffa0ef          	jal	ra,670 <SERVICE_RTOS_ReadFromBlockingQueue>
    5c66:	158b0b93          	addi	s7,s6,344
    5c6a:	00f14783          	lbu	a5,15(sp)
    5c6e:	c391                	beqz	a5,5c72 <Task_AppComm+0x5a>
    5c70:	c541                	beqz	a0,5cf8 <Task_AppComm+0xe0>
    5c72:	f2dff0ef          	jal	ra,5b9e <UARTReceivedISR>
    5c76:	00e44783          	lbu	a5,14(s0)
    5c7a:	dff1                	beqz	a5,5c56 <Task_AppComm+0x3e>
    5c7c:	154aa603          	lw	a2,340(s5) # 20000154 <queue_AppCommToDrone_Handle_t>
    5c80:	3f4a0593          	addi	a1,s4,1012 # 200033f4 <global_MsgToRec_t>
    5c84:	3e800513          	li	a0,1000
    5c88:	9bffa0ef          	jal	ra,646 <SERVICE_RTOS_AppendToBlockingQueue>
    5c8c:	16c9a503          	lw	a0,364(s3) # 2000016c <task_Master_Handle_t>
    5c90:	4581                	li	a1,0
    5c92:	a43fa0ef          	jal	ra,6d4 <SERVICE_RTOS_Notify>
    5c96:	00040623          	sb	zero,12(s0)
    5c9a:	00040723          	sb	zero,14(s0)
    5c9e:	bf55                	j	5c52 <Task_AppComm+0x3a>
    5ca0:	401c                	lw	a5,0(s0)
    5ca2:	97a6                	add	a5,a5,s1
    5ca4:	0007c503          	lbu	a0,0(a5)
    5ca8:	808ff0ef          	jal	ra,4cb0 <HAL_WRAPPER_SendCommMessage>
    5cac:	ed19                	bnez	a0,5cca <Task_AppComm+0xb2>
    5cae:	0485                	addi	s1,s1,1
    5cb0:	00845783          	lhu	a5,8(s0)
    5cb4:	fef4e6e3          	bltu	s1,a5,5ca0 <Task_AppComm+0x88>
    5cb8:	000ba603          	lw	a2,0(s7) # 4000 <TIM_UpdateDisableConfig+0x8>
    5cbc:	00f10693          	addi	a3,sp,15
    5cc0:	85ca                	mv	a1,s2
    5cc2:	4501                	li	a0,0
    5cc4:	9adfa0ef          	jal	ra,670 <SERVICE_RTOS_ReadFromBlockingQueue>
    5cc8:	b74d                	j	5c6a <Task_AppComm+0x52>
    5cca:	ed5ff0ef          	jal	ra,5b9e <UARTReceivedISR>
    5cce:	00e44783          	lbu	a5,14(s0)
    5cd2:	dff9                	beqz	a5,5cb0 <Task_AppComm+0x98>
    5cd4:	154aa603          	lw	a2,340(s5)
    5cd8:	3f4a0593          	addi	a1,s4,1012
    5cdc:	3e800513          	li	a0,1000
    5ce0:	967fa0ef          	jal	ra,646 <SERVICE_RTOS_AppendToBlockingQueue>
    5ce4:	16c9a503          	lw	a0,364(s3)
    5ce8:	4581                	li	a1,0
    5cea:	9ebfa0ef          	jal	ra,6d4 <SERVICE_RTOS_Notify>
    5cee:	00040623          	sb	zero,12(s0)
    5cf2:	00040723          	sb	zero,14(s0)
    5cf6:	bf6d                	j	5cb0 <Task_AppComm+0x98>
    5cf8:	4481                	li	s1,0
    5cfa:	bf5d                	j	5cb0 <Task_AppComm+0x98>

00005cfc <main>:
    5cfc:	823fa2ef          	jal	t0,51e <__riscv_save_0>
    5d00:	20000637          	lui	a2,0x20000
    5d04:	16060613          	addi	a2,a2,352 # 20000160 <queue_RawSensorData_Handle_t>
    5d08:	03800593          	li	a1,56
    5d0c:	4529                	li	a0,10
    5d0e:	917fa0ef          	jal	ra,624 <SERVICE_RTOS_CreateBlockingQueue>
    5d12:	20000637          	lui	a2,0x20000
    5d16:	15c60613          	addi	a2,a2,348 # 2000015c <queue_FusedSensorData_Handle_t>
    5d1a:	02000593          	li	a1,32
    5d1e:	4529                	li	a0,10
    5d20:	905fa0ef          	jal	ra,624 <SERVICE_RTOS_CreateBlockingQueue>
    5d24:	20000637          	lui	a2,0x20000
    5d28:	15460613          	addi	a2,a2,340 # 20000154 <queue_AppCommToDrone_Handle_t>
    5d2c:	45b9                	li	a1,14
    5d2e:	4529                	li	a0,10
    5d30:	8f5fa0ef          	jal	ra,624 <SERVICE_RTOS_CreateBlockingQueue>
    5d34:	20000637          	lui	a2,0x20000
    5d38:	15860613          	addi	a2,a2,344 # 20000158 <queue_DroneCommToApp_Handle_t>
    5d3c:	45b9                	li	a1,14
    5d3e:	4529                	li	a0,10
    5d40:	8e5fa0ef          	jal	ra,624 <SERVICE_RTOS_CreateBlockingQueue>
    5d44:	20000737          	lui	a4,0x20000
    5d48:	0000d5b7          	lui	a1,0xd
    5d4c:	00005537          	lui	a0,0x5
    5d50:	16870713          	addi	a4,a4,360 # 20000168 <task_CollectSensorData_Handle_t>
    5d54:	4691                	li	a3,4
    5d56:	10000613          	li	a2,256
    5d5a:	24458593          	addi	a1,a1,580 # d244 <_read+0x22a>
    5d5e:	7b850513          	addi	a0,a0,1976 # 57b8 <Task_CollectSensorData>
    5d62:	895fa0ef          	jal	ra,5f6 <SERVICE_RTOS_TaskCreate>
    5d66:	20000737          	lui	a4,0x20000
    5d6a:	0000d5b7          	lui	a1,0xd
    5d6e:	00006537          	lui	a0,0x6
    5d72:	17070713          	addi	a4,a4,368 # 20000170 <task_SensorFusion_Handle_t>
    5d76:	468d                	li	a3,3
    5d78:	10000613          	li	a2,256
    5d7c:	25858593          	addi	a1,a1,600 # d258 <_read+0x23e>
    5d80:	87050513          	addi	a0,a0,-1936 # 5870 <Task_SensorFusion>
    5d84:	873fa0ef          	jal	ra,5f6 <SERVICE_RTOS_TaskCreate>
    5d88:	20000737          	lui	a4,0x20000
    5d8c:	0000d5b7          	lui	a1,0xd
    5d90:	00006537          	lui	a0,0x6
    5d94:	16470713          	addi	a4,a4,356 # 20000164 <task_AppComm_Handle_t>
    5d98:	4689                	li	a3,2
    5d9a:	10000613          	li	a2,256
    5d9e:	26858593          	addi	a1,a1,616 # d268 <_read+0x24e>
    5da2:	c1850513          	addi	a0,a0,-1000 # 5c18 <Task_AppComm>
    5da6:	851fa0ef          	jal	ra,5f6 <SERVICE_RTOS_TaskCreate>
    5daa:	20000737          	lui	a4,0x20000
    5dae:	0000d5b7          	lui	a1,0xd
    5db2:	00006537          	lui	a0,0x6
    5db6:	16c70713          	addi	a4,a4,364 # 2000016c <task_Master_Handle_t>
    5dba:	4695                	li	a3,5
    5dbc:	10000613          	li	a2,256
    5dc0:	27c58593          	addi	a1,a1,636 # d27c <_read+0x262>
    5dc4:	99e50513          	addi	a0,a0,-1634 # 599e <Task_Master>
    5dc8:	82ffa0ef          	jal	ra,5f6 <SERVICE_RTOS_TaskCreate>
    5dcc:	84dfa0ef          	jal	ra,618 <SERVICE_RTOS_StartSchedular>
    5dd0:	0000d437          	lui	s0,0xd
    5dd4:	28440513          	addi	a0,s0,644 # d284 <_read+0x26a>
    5dd8:	25a060ef          	jal	ra,c032 <puts>
    5ddc:	bfe5                	j	5dd4 <main+0xd8>

00005dde <atan>:
    5dde:	7179                	addi	sp,sp,-48
    5de0:	d04a                	sw	s2,32(sp)
    5de2:	00159913          	slli	s2,a1,0x1
    5de6:	d422                	sw	s0,40(sp)
    5de8:	d226                	sw	s1,36(sp)
    5dea:	ca56                	sw	s5,20(sp)
    5dec:	d606                	sw	ra,44(sp)
    5dee:	ce4e                	sw	s3,28(sp)
    5df0:	cc52                	sw	s4,24(sp)
    5df2:	c85a                	sw	s6,16(sp)
    5df4:	c65e                	sw	s7,12(sp)
    5df6:	00195913          	srli	s2,s2,0x1
    5dfa:	441007b7          	lui	a5,0x44100
    5dfe:	842e                	mv	s0,a1
    5e00:	84aa                	mv	s1,a0
    5e02:	8aae                	mv	s5,a1
    5e04:	04f94763          	blt	s2,a5,5e52 <atan+0x74>
    5e08:	7ff007b7          	lui	a5,0x7ff00
    5e0c:	0127ce63          	blt	a5,s2,5e28 <atan+0x4a>
    5e10:	00f90b63          	beq	s2,a5,5e26 <atan+0x48>
    5e14:	1f505b63          	blez	s5,600a <atan+0x22c>
    5e18:	00007797          	auipc	a5,0x7
    5e1c:	48878793          	addi	a5,a5,1160 # d2a0 <_read+0x286>
    5e20:	4384                	lw	s1,0(a5)
    5e22:	43c0                	lw	s0,4(a5)
    5e24:	a811                	j	5e38 <atan+0x5a>
    5e26:	d57d                	beqz	a0,5e14 <atan+0x36>
    5e28:	8626                	mv	a2,s1
    5e2a:	8526                	mv	a0,s1
    5e2c:	86a2                	mv	a3,s0
    5e2e:	85a2                	mv	a1,s0
    5e30:	0b4030ef          	jal	ra,8ee4 <__adddf3>
    5e34:	84aa                	mv	s1,a0
    5e36:	842e                	mv	s0,a1
    5e38:	85a2                	mv	a1,s0
    5e3a:	50b2                	lw	ra,44(sp)
    5e3c:	5422                	lw	s0,40(sp)
    5e3e:	8526                	mv	a0,s1
    5e40:	5902                	lw	s2,32(sp)
    5e42:	5492                	lw	s1,36(sp)
    5e44:	49f2                	lw	s3,28(sp)
    5e46:	4a62                	lw	s4,24(sp)
    5e48:	4ad2                	lw	s5,20(sp)
    5e4a:	4b42                	lw	s6,16(sp)
    5e4c:	4bb2                	lw	s7,12(sp)
    5e4e:	6145                	addi	sp,sp,48
    5e50:	8082                	ret
    5e52:	3fdc07b7          	lui	a5,0x3fdc0
    5e56:	1cf95863          	bge	s2,a5,6026 <atan+0x248>
    5e5a:	3e2007b7          	lui	a5,0x3e200
    5e5e:	18f94363          	blt	s2,a5,5fe4 <atan+0x206>
    5e62:	5a7d                	li	s4,-1
    5e64:	8626                	mv	a2,s1
    5e66:	86a2                	mv	a3,s0
    5e68:	8526                	mv	a0,s1
    5e6a:	85a2                	mv	a1,s0
    5e6c:	72b030ef          	jal	ra,9d96 <__muldf3>
    5e70:	862a                	mv	a2,a0
    5e72:	86ae                	mv	a3,a1
    5e74:	8b2a                	mv	s6,a0
    5e76:	8bae                	mv	s7,a1
    5e78:	71f030ef          	jal	ra,9d96 <__muldf3>
    5e7c:	00007797          	auipc	a5,0x7
    5e80:	45478793          	addi	a5,a5,1108 # d2d0 <_read+0x2b6>
    5e84:	4390                	lw	a2,0(a5)
    5e86:	43d4                	lw	a3,4(a5)
    5e88:	892a                	mv	s2,a0
    5e8a:	89ae                	mv	s3,a1
    5e8c:	70b030ef          	jal	ra,9d96 <__muldf3>
    5e90:	00007797          	auipc	a5,0x7
    5e94:	44878793          	addi	a5,a5,1096 # d2d8 <_read+0x2be>
    5e98:	4390                	lw	a2,0(a5)
    5e9a:	43d4                	lw	a3,4(a5)
    5e9c:	048030ef          	jal	ra,8ee4 <__adddf3>
    5ea0:	864a                	mv	a2,s2
    5ea2:	86ce                	mv	a3,s3
    5ea4:	6f3030ef          	jal	ra,9d96 <__muldf3>
    5ea8:	00007797          	auipc	a5,0x7
    5eac:	43878793          	addi	a5,a5,1080 # d2e0 <_read+0x2c6>
    5eb0:	4390                	lw	a2,0(a5)
    5eb2:	43d4                	lw	a3,4(a5)
    5eb4:	030030ef          	jal	ra,8ee4 <__adddf3>
    5eb8:	864a                	mv	a2,s2
    5eba:	86ce                	mv	a3,s3
    5ebc:	6db030ef          	jal	ra,9d96 <__muldf3>
    5ec0:	00007797          	auipc	a5,0x7
    5ec4:	42878793          	addi	a5,a5,1064 # d2e8 <_read+0x2ce>
    5ec8:	4390                	lw	a2,0(a5)
    5eca:	43d4                	lw	a3,4(a5)
    5ecc:	018030ef          	jal	ra,8ee4 <__adddf3>
    5ed0:	864a                	mv	a2,s2
    5ed2:	86ce                	mv	a3,s3
    5ed4:	6c3030ef          	jal	ra,9d96 <__muldf3>
    5ed8:	00007797          	auipc	a5,0x7
    5edc:	41878793          	addi	a5,a5,1048 # d2f0 <_read+0x2d6>
    5ee0:	4390                	lw	a2,0(a5)
    5ee2:	43d4                	lw	a3,4(a5)
    5ee4:	000030ef          	jal	ra,8ee4 <__adddf3>
    5ee8:	864a                	mv	a2,s2
    5eea:	86ce                	mv	a3,s3
    5eec:	6ab030ef          	jal	ra,9d96 <__muldf3>
    5ef0:	00007797          	auipc	a5,0x7
    5ef4:	40878793          	addi	a5,a5,1032 # d2f8 <_read+0x2de>
    5ef8:	4390                	lw	a2,0(a5)
    5efa:	43d4                	lw	a3,4(a5)
    5efc:	7e9020ef          	jal	ra,8ee4 <__adddf3>
    5f00:	865a                	mv	a2,s6
    5f02:	86de                	mv	a3,s7
    5f04:	693030ef          	jal	ra,9d96 <__muldf3>
    5f08:	00007797          	auipc	a5,0x7
    5f0c:	3f878793          	addi	a5,a5,1016 # d300 <_read+0x2e6>
    5f10:	4390                	lw	a2,0(a5)
    5f12:	43d4                	lw	a3,4(a5)
    5f14:	8b2a                	mv	s6,a0
    5f16:	8bae                	mv	s7,a1
    5f18:	854a                	mv	a0,s2
    5f1a:	85ce                	mv	a1,s3
    5f1c:	67b030ef          	jal	ra,9d96 <__muldf3>
    5f20:	00007797          	auipc	a5,0x7
    5f24:	3e878793          	addi	a5,a5,1000 # d308 <_read+0x2ee>
    5f28:	4390                	lw	a2,0(a5)
    5f2a:	43d4                	lw	a3,4(a5)
    5f2c:	322040ef          	jal	ra,a24e <__subdf3>
    5f30:	864a                	mv	a2,s2
    5f32:	86ce                	mv	a3,s3
    5f34:	663030ef          	jal	ra,9d96 <__muldf3>
    5f38:	00007797          	auipc	a5,0x7
    5f3c:	3d878793          	addi	a5,a5,984 # d310 <_read+0x2f6>
    5f40:	4390                	lw	a2,0(a5)
    5f42:	43d4                	lw	a3,4(a5)
    5f44:	30a040ef          	jal	ra,a24e <__subdf3>
    5f48:	864a                	mv	a2,s2
    5f4a:	86ce                	mv	a3,s3
    5f4c:	64b030ef          	jal	ra,9d96 <__muldf3>
    5f50:	00007797          	auipc	a5,0x7
    5f54:	3c878793          	addi	a5,a5,968 # d318 <_read+0x2fe>
    5f58:	4390                	lw	a2,0(a5)
    5f5a:	43d4                	lw	a3,4(a5)
    5f5c:	2f2040ef          	jal	ra,a24e <__subdf3>
    5f60:	864a                	mv	a2,s2
    5f62:	86ce                	mv	a3,s3
    5f64:	633030ef          	jal	ra,9d96 <__muldf3>
    5f68:	00007797          	auipc	a5,0x7
    5f6c:	3b878793          	addi	a5,a5,952 # d320 <_read+0x306>
    5f70:	4390                	lw	a2,0(a5)
    5f72:	43d4                	lw	a3,4(a5)
    5f74:	2da040ef          	jal	ra,a24e <__subdf3>
    5f78:	864a                	mv	a2,s2
    5f7a:	86ce                	mv	a3,s3
    5f7c:	61b030ef          	jal	ra,9d96 <__muldf3>
    5f80:	862a                	mv	a2,a0
    5f82:	86ae                	mv	a3,a1
    5f84:	855a                	mv	a0,s6
    5f86:	85de                	mv	a1,s7
    5f88:	75d020ef          	jal	ra,8ee4 <__adddf3>
    5f8c:	8626                	mv	a2,s1
    5f8e:	86a2                	mv	a3,s0
    5f90:	607030ef          	jal	ra,9d96 <__muldf3>
    5f94:	57fd                	li	a5,-1
    5f96:	862a                	mv	a2,a0
    5f98:	86ae                	mv	a3,a1
    5f9a:	06fa0f63          	beq	s4,a5,6018 <atan+0x23a>
    5f9e:	0a0e                	slli	s4,s4,0x3
    5fa0:	00007797          	auipc	a5,0x7
    5fa4:	3a878793          	addi	a5,a5,936 # d348 <atanlo>
    5fa8:	97d2                	add	a5,a5,s4
    5faa:	4390                	lw	a2,0(a5)
    5fac:	43d4                	lw	a3,4(a5)
    5fae:	00007797          	auipc	a5,0x7
    5fb2:	37a78793          	addi	a5,a5,890 # d328 <atanhi>
    5fb6:	9a3e                	add	s4,s4,a5
    5fb8:	296040ef          	jal	ra,a24e <__subdf3>
    5fbc:	8626                	mv	a2,s1
    5fbe:	86a2                	mv	a3,s0
    5fc0:	28e040ef          	jal	ra,a24e <__subdf3>
    5fc4:	862a                	mv	a2,a0
    5fc6:	86ae                	mv	a3,a1
    5fc8:	000a2503          	lw	a0,0(s4)
    5fcc:	004a2583          	lw	a1,4(s4)
    5fd0:	27e040ef          	jal	ra,a24e <__subdf3>
    5fd4:	84aa                	mv	s1,a0
    5fd6:	842e                	mv	s0,a1
    5fd8:	e60ad0e3          	bgez	s5,5e38 <atan+0x5a>
    5fdc:	80000437          	lui	s0,0x80000
    5fe0:	8c2d                	xor	s0,s0,a1
    5fe2:	bd99                	j	5e38 <atan+0x5a>
    5fe4:	00007797          	auipc	a5,0x7
    5fe8:	2cc78793          	addi	a5,a5,716 # d2b0 <_read+0x296>
    5fec:	4390                	lw	a2,0(a5)
    5fee:	43d4                	lw	a3,4(a5)
    5ff0:	6f5020ef          	jal	ra,8ee4 <__adddf3>
    5ff4:	00007797          	auipc	a5,0x7
    5ff8:	23c78793          	addi	a5,a5,572 # d230 <_read+0x216>
    5ffc:	4390                	lw	a2,0(a5)
    5ffe:	43d4                	lw	a3,4(a5)
    6000:	433030ef          	jal	ra,9c32 <__gedf2>
    6004:	e4a05fe3          	blez	a0,5e62 <atan+0x84>
    6008:	bd05                	j	5e38 <atan+0x5a>
    600a:	00007797          	auipc	a5,0x7
    600e:	29e78793          	addi	a5,a5,670 # d2a8 <_read+0x28e>
    6012:	4384                	lw	s1,0(a5)
    6014:	43c0                	lw	s0,4(a5)
    6016:	b50d                	j	5e38 <atan+0x5a>
    6018:	8526                	mv	a0,s1
    601a:	85a2                	mv	a1,s0
    601c:	232040ef          	jal	ra,a24e <__subdf3>
    6020:	84aa                	mv	s1,a0
    6022:	842e                	mv	s0,a1
    6024:	bd11                	j	5e38 <atan+0x5a>
    6026:	2251                	jal	61aa <fabs>
    6028:	3ff307b7          	lui	a5,0x3ff30
    602c:	842a                	mv	s0,a0
    602e:	84ae                	mv	s1,a1
    6030:	04f95863          	bge	s2,a5,6080 <atan+0x2a2>
    6034:	3fe607b7          	lui	a5,0x3fe60
    6038:	0af95c63          	bge	s2,a5,60f0 <atan+0x312>
    603c:	862a                	mv	a2,a0
    603e:	86ae                	mv	a3,a1
    6040:	6a5020ef          	jal	ra,8ee4 <__adddf3>
    6044:	00007797          	auipc	a5,0x7
    6048:	1ec78793          	addi	a5,a5,492 # d230 <_read+0x216>
    604c:	4390                	lw	a2,0(a5)
    604e:	43d4                	lw	a3,4(a5)
    6050:	4a01                	li	s4,0
    6052:	1fc040ef          	jal	ra,a24e <__subdf3>
    6056:	00007797          	auipc	a5,0x7
    605a:	26278793          	addi	a5,a5,610 # d2b8 <_read+0x29e>
    605e:	4390                	lw	a2,0(a5)
    6060:	43d4                	lw	a3,4(a5)
    6062:	892a                	mv	s2,a0
    6064:	89ae                	mv	s3,a1
    6066:	8522                	mv	a0,s0
    6068:	85a6                	mv	a1,s1
    606a:	67b020ef          	jal	ra,8ee4 <__adddf3>
    606e:	862a                	mv	a2,a0
    6070:	86ae                	mv	a3,a1
    6072:	854a                	mv	a0,s2
    6074:	85ce                	mv	a1,s3
    6076:	59e030ef          	jal	ra,9614 <__divdf3>
    607a:	84aa                	mv	s1,a0
    607c:	842e                	mv	s0,a1
    607e:	b3dd                	j	5e64 <atan+0x86>
    6080:	400387b7          	lui	a5,0x40038
    6084:	04f95863          	bge	s2,a5,60d4 <atan+0x2f6>
    6088:	00007917          	auipc	s2,0x7
    608c:	23890913          	addi	s2,s2,568 # d2c0 <_read+0x2a6>
    6090:	00092603          	lw	a2,0(s2)
    6094:	00492683          	lw	a3,4(s2)
    6098:	4a09                	li	s4,2
    609a:	1b4040ef          	jal	ra,a24e <__subdf3>
    609e:	00092603          	lw	a2,0(s2)
    60a2:	00492683          	lw	a3,4(s2)
    60a6:	8b2a                	mv	s6,a0
    60a8:	8bae                	mv	s7,a1
    60aa:	8522                	mv	a0,s0
    60ac:	85a6                	mv	a1,s1
    60ae:	4e9030ef          	jal	ra,9d96 <__muldf3>
    60b2:	00007797          	auipc	a5,0x7
    60b6:	17e78793          	addi	a5,a5,382 # d230 <_read+0x216>
    60ba:	4390                	lw	a2,0(a5)
    60bc:	43d4                	lw	a3,4(a5)
    60be:	627020ef          	jal	ra,8ee4 <__adddf3>
    60c2:	862a                	mv	a2,a0
    60c4:	86ae                	mv	a3,a1
    60c6:	855a                	mv	a0,s6
    60c8:	85de                	mv	a1,s7
    60ca:	54a030ef          	jal	ra,9614 <__divdf3>
    60ce:	84aa                	mv	s1,a0
    60d0:	842e                	mv	s0,a1
    60d2:	bb49                	j	5e64 <atan+0x86>
    60d4:	00007797          	auipc	a5,0x7
    60d8:	1f478793          	addi	a5,a5,500 # d2c8 <_read+0x2ae>
    60dc:	4388                	lw	a0,0(a5)
    60de:	43cc                	lw	a1,4(a5)
    60e0:	8622                	mv	a2,s0
    60e2:	86a6                	mv	a3,s1
    60e4:	530030ef          	jal	ra,9614 <__divdf3>
    60e8:	4a0d                	li	s4,3
    60ea:	84aa                	mv	s1,a0
    60ec:	842e                	mv	s0,a1
    60ee:	bb9d                	j	5e64 <atan+0x86>
    60f0:	00007917          	auipc	s2,0x7
    60f4:	14090913          	addi	s2,s2,320 # d230 <_read+0x216>
    60f8:	00092603          	lw	a2,0(s2)
    60fc:	00492683          	lw	a3,4(s2)
    6100:	4a05                	li	s4,1
    6102:	14c040ef          	jal	ra,a24e <__subdf3>
    6106:	8b2a                	mv	s6,a0
    6108:	8bae                	mv	s7,a1
    610a:	00092603          	lw	a2,0(s2)
    610e:	00492683          	lw	a3,4(s2)
    6112:	8522                	mv	a0,s0
    6114:	85a6                	mv	a1,s1
    6116:	b765                	j	60be <atan+0x2e0>

00006118 <cos>:
    6118:	1101                	addi	sp,sp,-32
    611a:	cc22                	sw	s0,24(sp)
    611c:	80000437          	lui	s0,0x80000
    6120:	fff44793          	not	a5,s0
    6124:	3fe92737          	lui	a4,0x3fe92
    6128:	ce06                	sw	ra,28(sp)
    612a:	8fed                	and	a5,a5,a1
    612c:	1fb70713          	addi	a4,a4,507 # 3fe921fb <__freertos_irq_stack_top+0x1fe8d1fb>
    6130:	04f75163          	bge	a4,a5,6172 <cos+0x5a>
    6134:	7ff00737          	lui	a4,0x7ff00
    6138:	00e7ca63          	blt	a5,a4,614c <cos+0x34>
    613c:	86ae                	mv	a3,a1
    613e:	862a                	mv	a2,a0
    6140:	10e040ef          	jal	ra,a24e <__subdf3>
    6144:	40f2                	lw	ra,28(sp)
    6146:	4462                	lw	s0,24(sp)
    6148:	6105                	addi	sp,sp,32
    614a:	8082                	ret
    614c:	860a                	mv	a2,sp
    614e:	192010ef          	jal	ra,72e0 <__ieee754_rem_pio2>
    6152:	890d                	andi	a0,a0,3
    6154:	4785                	li	a5,1
    6156:	02f50663          	beq	a0,a5,6182 <cos+0x6a>
    615a:	4789                	li	a5,2
    615c:	4622                	lw	a2,8(sp)
    615e:	46b2                	lw	a3,12(sp)
    6160:	02f50f63          	beq	a0,a5,619e <cos+0x86>
    6164:	c905                	beqz	a0,6194 <cos+0x7c>
    6166:	4502                	lw	a0,0(sp)
    6168:	4592                	lw	a1,4(sp)
    616a:	4705                	li	a4,1
    616c:	3ba020ef          	jal	ra,8526 <__kernel_sin>
    6170:	bfd1                	j	6144 <cos+0x2c>
    6172:	4601                	li	a2,0
    6174:	4681                	li	a3,0
    6176:	7a6010ef          	jal	ra,791c <__kernel_cos>
    617a:	40f2                	lw	ra,28(sp)
    617c:	4462                	lw	s0,24(sp)
    617e:	6105                	addi	sp,sp,32
    6180:	8082                	ret
    6182:	4622                	lw	a2,8(sp)
    6184:	46b2                	lw	a3,12(sp)
    6186:	4502                	lw	a0,0(sp)
    6188:	4592                	lw	a1,4(sp)
    618a:	4705                	li	a4,1
    618c:	39a020ef          	jal	ra,8526 <__kernel_sin>
    6190:	8da1                	xor	a1,a1,s0
    6192:	bf4d                	j	6144 <cos+0x2c>
    6194:	4502                	lw	a0,0(sp)
    6196:	4592                	lw	a1,4(sp)
    6198:	784010ef          	jal	ra,791c <__kernel_cos>
    619c:	b765                	j	6144 <cos+0x2c>
    619e:	4502                	lw	a0,0(sp)
    61a0:	4592                	lw	a1,4(sp)
    61a2:	77a010ef          	jal	ra,791c <__kernel_cos>
    61a6:	8da1                	xor	a1,a1,s0
    61a8:	bf71                	j	6144 <cos+0x2c>

000061aa <fabs>:
    61aa:	0586                	slli	a1,a1,0x1
    61ac:	8185                	srli	a1,a1,0x1
    61ae:	8082                	ret

000061b0 <sin>:
    61b0:	1101                	addi	sp,sp,-32
    61b2:	cc22                	sw	s0,24(sp)
    61b4:	80000437          	lui	s0,0x80000
    61b8:	fff44793          	not	a5,s0
    61bc:	3fe92737          	lui	a4,0x3fe92
    61c0:	ce06                	sw	ra,28(sp)
    61c2:	8fed                	and	a5,a5,a1
    61c4:	1fb70713          	addi	a4,a4,507 # 3fe921fb <__freertos_irq_stack_top+0x1fe8d1fb>
    61c8:	04f75163          	bge	a4,a5,620a <sin+0x5a>
    61cc:	7ff00737          	lui	a4,0x7ff00
    61d0:	00e7ca63          	blt	a5,a4,61e4 <sin+0x34>
    61d4:	86ae                	mv	a3,a1
    61d6:	862a                	mv	a2,a0
    61d8:	076040ef          	jal	ra,a24e <__subdf3>
    61dc:	40f2                	lw	ra,28(sp)
    61de:	4462                	lw	s0,24(sp)
    61e0:	6105                	addi	sp,sp,32
    61e2:	8082                	ret
    61e4:	860a                	mv	a2,sp
    61e6:	0fa010ef          	jal	ra,72e0 <__ieee754_rem_pio2>
    61ea:	890d                	andi	a0,a0,3
    61ec:	4785                	li	a5,1
    61ee:	02f50763          	beq	a0,a5,621c <sin+0x6c>
    61f2:	4789                	li	a5,2
    61f4:	4622                	lw	a2,8(sp)
    61f6:	46b2                	lw	a3,12(sp)
    61f8:	02f50f63          	beq	a0,a5,6236 <sin+0x86>
    61fc:	c51d                	beqz	a0,622a <sin+0x7a>
    61fe:	4502                	lw	a0,0(sp)
    6200:	4592                	lw	a1,4(sp)
    6202:	71a010ef          	jal	ra,791c <__kernel_cos>
    6206:	8da1                	xor	a1,a1,s0
    6208:	bfd1                	j	61dc <sin+0x2c>
    620a:	4701                	li	a4,0
    620c:	4601                	li	a2,0
    620e:	4681                	li	a3,0
    6210:	316020ef          	jal	ra,8526 <__kernel_sin>
    6214:	40f2                	lw	ra,28(sp)
    6216:	4462                	lw	s0,24(sp)
    6218:	6105                	addi	sp,sp,32
    621a:	8082                	ret
    621c:	4622                	lw	a2,8(sp)
    621e:	46b2                	lw	a3,12(sp)
    6220:	4502                	lw	a0,0(sp)
    6222:	4592                	lw	a1,4(sp)
    6224:	6f8010ef          	jal	ra,791c <__kernel_cos>
    6228:	bf55                	j	61dc <sin+0x2c>
    622a:	4502                	lw	a0,0(sp)
    622c:	4592                	lw	a1,4(sp)
    622e:	4705                	li	a4,1
    6230:	2f6020ef          	jal	ra,8526 <__kernel_sin>
    6234:	b765                	j	61dc <sin+0x2c>
    6236:	4502                	lw	a0,0(sp)
    6238:	4592                	lw	a1,4(sp)
    623a:	4705                	li	a4,1
    623c:	2ea020ef          	jal	ra,8526 <__kernel_sin>
    6240:	8da1                	xor	a1,a1,s0
    6242:	bf69                	j	61dc <sin+0x2c>

00006244 <atan2>:
    6244:	a6c5                	j	6624 <__ieee754_atan2>

00006246 <pow>:
    6246:	711d                	addi	sp,sp,-96
    6248:	de5e                	sw	s7,60(sp)
    624a:	81818b93          	addi	s7,gp,-2024 # 20000098 <__fdlib_version>
    624e:	cca2                	sw	s0,88(sp)
    6250:	caa6                	sw	s1,84(sp)
    6252:	c8ca                	sw	s2,80(sp)
    6254:	c6ce                	sw	s3,76(sp)
    6256:	c4d2                	sw	s4,72(sp)
    6258:	c2d6                	sw	s5,68(sp)
    625a:	c0da                	sw	s6,64(sp)
    625c:	ce86                	sw	ra,92(sp)
    625e:	892a                	mv	s2,a0
    6260:	89ae                	mv	s3,a1
    6262:	8432                	mv	s0,a2
    6264:	84b6                	mv	s1,a3
    6266:	234d                	jal	6808 <__ieee754_pow>
    6268:	000bab03          	lw	s6,0(s7)
    626c:	57fd                	li	a5,-1
    626e:	8aaa                	mv	s5,a0
    6270:	8a2e                	mv	s4,a1
    6272:	06fb0763          	beq	s6,a5,62e0 <pow+0x9a>
    6276:	8622                	mv	a2,s0
    6278:	86a6                	mv	a3,s1
    627a:	8522                	mv	a0,s0
    627c:	85a6                	mv	a1,s1
    627e:	70e040ef          	jal	ra,a98c <__unorddf2>
    6282:	ed39                	bnez	a0,62e0 <pow+0x9a>
    6284:	864a                	mv	a2,s2
    6286:	86ce                	mv	a3,s3
    6288:	854a                	mv	a0,s2
    628a:	85ce                	mv	a1,s3
    628c:	700040ef          	jal	ra,a98c <__unorddf2>
    6290:	4601                	li	a2,0
    6292:	4681                	li	a3,0
    6294:	10051b63          	bnez	a0,63aa <pow+0x164>
    6298:	854a                	mv	a0,s2
    629a:	85ce                	mv	a1,s3
    629c:	12d030ef          	jal	ra,9bc8 <__eqdf2>
    62a0:	ed29                	bnez	a0,62fa <pow+0xb4>
    62a2:	4601                	li	a2,0
    62a4:	4681                	li	a3,0
    62a6:	8522                	mv	a0,s0
    62a8:	85a6                	mv	a1,s1
    62aa:	11f030ef          	jal	ra,9bc8 <__eqdf2>
    62ae:	e14d                	bnez	a0,6350 <pow+0x10a>
    62b0:	4785                	li	a5,1
    62b2:	c43e                	sw	a5,8(sp)
    62b4:	00007797          	auipc	a5,0x7
    62b8:	0d478793          	addi	a5,a5,212 # d388 <atanlo+0x40>
    62bc:	c63e                	sw	a5,12(sp)
    62be:	d402                	sw	zero,40(sp)
    62c0:	c84a                	sw	s2,16(sp)
    62c2:	ca4e                	sw	s3,20(sp)
    62c4:	cc22                	sw	s0,24(sp)
    62c6:	ce26                	sw	s1,28(sp)
    62c8:	d002                	sw	zero,32(sp)
    62ca:	d202                	sw	zero,36(sp)
    62cc:	100b0d63          	beqz	s6,63e6 <pow+0x1a0>
    62d0:	00007797          	auipc	a5,0x7
    62d4:	f6078793          	addi	a5,a5,-160 # d230 <_read+0x216>
    62d8:	0007aa83          	lw	s5,0(a5)
    62dc:	0047aa03          	lw	s4,4(a5)
    62e0:	40f6                	lw	ra,92(sp)
    62e2:	4466                	lw	s0,88(sp)
    62e4:	8556                	mv	a0,s5
    62e6:	85d2                	mv	a1,s4
    62e8:	44d6                	lw	s1,84(sp)
    62ea:	4946                	lw	s2,80(sp)
    62ec:	49b6                	lw	s3,76(sp)
    62ee:	4a26                	lw	s4,72(sp)
    62f0:	4a96                	lw	s5,68(sp)
    62f2:	4b06                	lw	s6,64(sp)
    62f4:	5bf2                	lw	s7,60(sp)
    62f6:	6125                	addi	sp,sp,96
    62f8:	8082                	ret
    62fa:	8556                	mv	a0,s5
    62fc:	85d2                	mv	a1,s4
    62fe:	3c2020ef          	jal	ra,86c0 <finite>
    6302:	0e050f63          	beqz	a0,6400 <pow+0x1ba>
    6306:	8556                	mv	a0,s5
    6308:	85d2                	mv	a1,s4
    630a:	4601                	li	a2,0
    630c:	4681                	li	a3,0
    630e:	0bb030ef          	jal	ra,9bc8 <__eqdf2>
    6312:	f579                	bnez	a0,62e0 <pow+0x9a>
    6314:	854a                	mv	a0,s2
    6316:	85ce                	mv	a1,s3
    6318:	3a8020ef          	jal	ra,86c0 <finite>
    631c:	d171                	beqz	a0,62e0 <pow+0x9a>
    631e:	8522                	mv	a0,s0
    6320:	85a6                	mv	a1,s1
    6322:	39e020ef          	jal	ra,86c0 <finite>
    6326:	dd4d                	beqz	a0,62e0 <pow+0x9a>
    6328:	4791                	li	a5,4
    632a:	000ba703          	lw	a4,0(s7)
    632e:	c43e                	sw	a5,8(sp)
    6330:	00007797          	auipc	a5,0x7
    6334:	05878793          	addi	a5,a5,88 # d388 <atanlo+0x40>
    6338:	c63e                	sw	a5,12(sp)
    633a:	d402                	sw	zero,40(sp)
    633c:	c84a                	sw	s2,16(sp)
    633e:	ca4e                	sw	s3,20(sp)
    6340:	cc22                	sw	s0,24(sp)
    6342:	ce26                	sw	s1,28(sp)
    6344:	d002                	sw	zero,32(sp)
    6346:	d202                	sw	zero,36(sp)
    6348:	4789                	li	a5,2
    634a:	12f71b63          	bne	a4,a5,6480 <pow+0x23a>
    634e:	aa35                	j	648a <pow+0x244>
    6350:	8522                	mv	a0,s0
    6352:	85a6                	mv	a1,s1
    6354:	36c020ef          	jal	ra,86c0 <finite>
    6358:	d541                	beqz	a0,62e0 <pow+0x9a>
    635a:	4601                	li	a2,0
    635c:	4681                	li	a3,0
    635e:	8522                	mv	a0,s0
    6360:	85a6                	mv	a1,s1
    6362:	17f030ef          	jal	ra,9ce0 <__ledf2>
    6366:	f6055de3          	bgez	a0,62e0 <pow+0x9a>
    636a:	4705                	li	a4,1
    636c:	000ba783          	lw	a5,0(s7)
    6370:	c43a                	sw	a4,8(sp)
    6372:	00007717          	auipc	a4,0x7
    6376:	01670713          	addi	a4,a4,22 # d388 <atanlo+0x40>
    637a:	c63a                	sw	a4,12(sp)
    637c:	d402                	sw	zero,40(sp)
    637e:	c84a                	sw	s2,16(sp)
    6380:	ca4e                	sw	s3,20(sp)
    6382:	cc22                	sw	s0,24(sp)
    6384:	ce26                	sw	s1,28(sp)
    6386:	10079863          	bnez	a5,6496 <pow+0x250>
    638a:	d002                	sw	zero,32(sp)
    638c:	d202                	sw	zero,36(sp)
    638e:	0028                	addi	a0,sp,8
    6390:	490020ef          	jal	ra,8820 <matherr>
    6394:	10050c63          	beqz	a0,64ac <pow+0x266>
    6398:	57a2                	lw	a5,40(sp)
    639a:	c789                	beqz	a5,63a4 <pow+0x15e>
    639c:	117050ef          	jal	ra,bcb2 <__errno>
    63a0:	57a2                	lw	a5,40(sp)
    63a2:	c11c                	sw	a5,0(a0)
    63a4:	5a82                	lw	s5,32(sp)
    63a6:	5a12                	lw	s4,36(sp)
    63a8:	bf25                	j	62e0 <pow+0x9a>
    63aa:	8522                	mv	a0,s0
    63ac:	85a6                	mv	a1,s1
    63ae:	01b030ef          	jal	ra,9bc8 <__eqdf2>
    63b2:	f51d                	bnez	a0,62e0 <pow+0x9a>
    63b4:	00007797          	auipc	a5,0x7
    63b8:	e7c78793          	addi	a5,a5,-388 # d230 <_read+0x216>
    63bc:	0047aa03          	lw	s4,4(a5)
    63c0:	0007aa83          	lw	s5,0(a5)
    63c4:	4685                	li	a3,1
    63c6:	c436                	sw	a3,8(sp)
    63c8:	00007697          	auipc	a3,0x7
    63cc:	fc068693          	addi	a3,a3,-64 # d388 <atanlo+0x40>
    63d0:	c636                	sw	a3,12(sp)
    63d2:	d402                	sw	zero,40(sp)
    63d4:	c84a                	sw	s2,16(sp)
    63d6:	ca4e                	sw	s3,20(sp)
    63d8:	cc22                	sw	s0,24(sp)
    63da:	ce26                	sw	s1,28(sp)
    63dc:	d056                	sw	s5,32(sp)
    63de:	d252                	sw	s4,36(sp)
    63e0:	4789                	li	a5,2
    63e2:	eefb0fe3          	beq	s6,a5,62e0 <pow+0x9a>
    63e6:	0028                	addi	a0,sp,8
    63e8:	438020ef          	jal	ra,8820 <matherr>
    63ec:	c571                	beqz	a0,64b8 <pow+0x272>
    63ee:	57a2                	lw	a5,40(sp)
    63f0:	dbd5                	beqz	a5,63a4 <pow+0x15e>
    63f2:	0c1050ef          	jal	ra,bcb2 <__errno>
    63f6:	57a2                	lw	a5,40(sp)
    63f8:	5a82                	lw	s5,32(sp)
    63fa:	5a12                	lw	s4,36(sp)
    63fc:	c11c                	sw	a5,0(a0)
    63fe:	b5cd                	j	62e0 <pow+0x9a>
    6400:	854a                	mv	a0,s2
    6402:	85ce                	mv	a1,s3
    6404:	2bc020ef          	jal	ra,86c0 <finite>
    6408:	ee050fe3          	beqz	a0,6306 <pow+0xc0>
    640c:	8522                	mv	a0,s0
    640e:	85a6                	mv	a1,s1
    6410:	2b0020ef          	jal	ra,86c0 <finite>
    6414:	ee0509e3          	beqz	a0,6306 <pow+0xc0>
    6418:	86d2                	mv	a3,s4
    641a:	85d2                	mv	a1,s4
    641c:	8656                	mv	a2,s5
    641e:	8556                	mv	a0,s5
    6420:	000baa03          	lw	s4,0(s7)
    6424:	568040ef          	jal	ra,a98c <__unorddf2>
    6428:	10051763          	bnez	a0,6536 <pow+0x2f0>
    642c:	00007797          	auipc	a5,0x7
    6430:	d5c78793          	addi	a5,a5,-676 # d188 <_read+0x16e>
    6434:	4390                	lw	a2,0(a5)
    6436:	43d4                	lw	a3,4(a5)
    6438:	478d                	li	a5,3
    643a:	8522                	mv	a0,s0
    643c:	85a6                	mv	a1,s1
    643e:	c43e                	sw	a5,8(sp)
    6440:	00007797          	auipc	a5,0x7
    6444:	f4878793          	addi	a5,a5,-184 # d388 <atanlo+0x40>
    6448:	cc22                	sw	s0,24(sp)
    644a:	ce26                	sw	s1,28(sp)
    644c:	c63e                	sw	a5,12(sp)
    644e:	d402                	sw	zero,40(sp)
    6450:	c84a                	sw	s2,16(sp)
    6452:	ca4e                	sw	s3,20(sp)
    6454:	143030ef          	jal	ra,9d96 <__muldf3>
    6458:	842a                	mv	s0,a0
    645a:	84ae                	mv	s1,a1
    645c:	060a1463          	bnez	s4,64c4 <pow+0x27e>
    6460:	00007797          	auipc	a5,0x7
    6464:	f1078793          	addi	a5,a5,-240 # d370 <atanlo+0x28>
    6468:	4398                	lw	a4,0(a5)
    646a:	43dc                	lw	a5,4(a5)
    646c:	4601                	li	a2,0
    646e:	4681                	li	a3,0
    6470:	854a                	mv	a0,s2
    6472:	85ce                	mv	a1,s3
    6474:	d03a                	sw	a4,32(sp)
    6476:	d23e                	sw	a5,36(sp)
    6478:	069030ef          	jal	ra,9ce0 <__ledf2>
    647c:	06054863          	bltz	a0,64ec <pow+0x2a6>
    6480:	0028                	addi	a0,sp,8
    6482:	39e020ef          	jal	ra,8820 <matherr>
    6486:	f00519e3          	bnez	a0,6398 <pow+0x152>
    648a:	029050ef          	jal	ra,bcb2 <__errno>
    648e:	02200793          	li	a5,34
    6492:	c11c                	sw	a5,0(a0)
    6494:	b711                	j	6398 <pow+0x152>
    6496:	00007697          	auipc	a3,0x7
    649a:	ed268693          	addi	a3,a3,-302 # d368 <atanlo+0x20>
    649e:	4290                	lw	a2,0(a3)
    64a0:	42d4                	lw	a3,4(a3)
    64a2:	4709                	li	a4,2
    64a4:	d032                	sw	a2,32(sp)
    64a6:	d236                	sw	a3,36(sp)
    64a8:	eee793e3          	bne	a5,a4,638e <pow+0x148>
    64ac:	007050ef          	jal	ra,bcb2 <__errno>
    64b0:	02100793          	li	a5,33
    64b4:	c11c                	sw	a5,0(a0)
    64b6:	b5cd                	j	6398 <pow+0x152>
    64b8:	7fa050ef          	jal	ra,bcb2 <__errno>
    64bc:	02100793          	li	a5,33
    64c0:	c11c                	sw	a5,0(a0)
    64c2:	b735                	j	63ee <pow+0x1a8>
    64c4:	00007797          	auipc	a5,0x7
    64c8:	ebc78793          	addi	a5,a5,-324 # d380 <atanlo+0x38>
    64cc:	4398                	lw	a4,0(a5)
    64ce:	43dc                	lw	a5,4(a5)
    64d0:	4601                	li	a2,0
    64d2:	4681                	li	a3,0
    64d4:	854a                	mv	a0,s2
    64d6:	85ce                	mv	a1,s3
    64d8:	d03a                	sw	a4,32(sp)
    64da:	d23e                	sw	a5,36(sp)
    64dc:	005030ef          	jal	ra,9ce0 <__ledf2>
    64e0:	02054a63          	bltz	a0,6514 <pow+0x2ce>
    64e4:	4789                	li	a5,2
    64e6:	fafa02e3          	beq	s4,a5,648a <pow+0x244>
    64ea:	bf59                	j	6480 <pow+0x23a>
    64ec:	8522                	mv	a0,s0
    64ee:	85a6                	mv	a1,s1
    64f0:	342020ef          	jal	ra,8832 <rint>
    64f4:	8622                	mv	a2,s0
    64f6:	86a6                	mv	a3,s1
    64f8:	6d0030ef          	jal	ra,9bc8 <__eqdf2>
    64fc:	c915                	beqz	a0,6530 <pow+0x2ea>
    64fe:	00007797          	auipc	a5,0x7
    6502:	e7a78793          	addi	a5,a5,-390 # d378 <atanlo+0x30>
    6506:	4398                	lw	a4,0(a5)
    6508:	43dc                	lw	a5,4(a5)
    650a:	000baa03          	lw	s4,0(s7)
    650e:	d03a                	sw	a4,32(sp)
    6510:	d23e                	sw	a5,36(sp)
    6512:	bfc9                	j	64e4 <pow+0x29e>
    6514:	8522                	mv	a0,s0
    6516:	85a6                	mv	a1,s1
    6518:	31a020ef          	jal	ra,8832 <rint>
    651c:	8622                	mv	a2,s0
    651e:	86a6                	mv	a3,s1
    6520:	6a8030ef          	jal	ra,9bc8 <__eqdf2>
    6524:	c511                	beqz	a0,6530 <pow+0x2ea>
    6526:	00007797          	auipc	a5,0x7
    652a:	e4278793          	addi	a5,a5,-446 # d368 <atanlo+0x20>
    652e:	bfe1                	j	6506 <pow+0x2c0>
    6530:	000baa03          	lw	s4,0(s7)
    6534:	bf45                	j	64e4 <pow+0x29e>
    6536:	4785                	li	a5,1
    6538:	c43e                	sw	a5,8(sp)
    653a:	00007797          	auipc	a5,0x7
    653e:	e4e78793          	addi	a5,a5,-434 # d388 <atanlo+0x40>
    6542:	c63e                	sw	a5,12(sp)
    6544:	d402                	sw	zero,40(sp)
    6546:	c84a                	sw	s2,16(sp)
    6548:	ca4e                	sw	s3,20(sp)
    654a:	cc22                	sw	s0,24(sp)
    654c:	ce26                	sw	s1,28(sp)
    654e:	e20a0ee3          	beqz	s4,638a <pow+0x144>
    6552:	4601                	li	a2,0
    6554:	4681                	li	a3,0
    6556:	8532                	mv	a0,a2
    6558:	85b6                	mv	a1,a3
    655a:	0ba030ef          	jal	ra,9614 <__divdf3>
    655e:	d02a                	sw	a0,32(sp)
    6560:	d22e                	sw	a1,36(sp)
    6562:	4789                	li	a5,2
    6564:	f4fa04e3          	beq	s4,a5,64ac <pow+0x266>
    6568:	b51d                	j	638e <pow+0x148>

0000656a <sqrt>:
    656a:	715d                	addi	sp,sp,-80
    656c:	c4a2                	sw	s0,72(sp)
    656e:	c2a6                	sw	s1,68(sp)
    6570:	c0ca                	sw	s2,64(sp)
    6572:	de52                	sw	s4,60(sp)
    6574:	dc56                	sw	s5,56(sp)
    6576:	c686                	sw	ra,76(sp)
    6578:	842a                	mv	s0,a0
    657a:	84ae                	mv	s1,a1
    657c:	1ca010ef          	jal	ra,7746 <__ieee754_sqrt>
    6580:	81818793          	addi	a5,gp,-2024 # 20000098 <__fdlib_version>
    6584:	0007a903          	lw	s2,0(a5)
    6588:	57fd                	li	a5,-1
    658a:	8a2a                	mv	s4,a0
    658c:	8aae                	mv	s5,a1
    658e:	02f90163          	beq	s2,a5,65b0 <sqrt+0x46>
    6592:	8622                	mv	a2,s0
    6594:	86a6                	mv	a3,s1
    6596:	8522                	mv	a0,s0
    6598:	85a6                	mv	a1,s1
    659a:	3f2040ef          	jal	ra,a98c <__unorddf2>
    659e:	e909                	bnez	a0,65b0 <sqrt+0x46>
    65a0:	4601                	li	a2,0
    65a2:	4681                	li	a3,0
    65a4:	8522                	mv	a0,s0
    65a6:	85a6                	mv	a1,s1
    65a8:	738030ef          	jal	ra,9ce0 <__ledf2>
    65ac:	00054c63          	bltz	a0,65c4 <sqrt+0x5a>
    65b0:	40b6                	lw	ra,76(sp)
    65b2:	4426                	lw	s0,72(sp)
    65b4:	8552                	mv	a0,s4
    65b6:	85d6                	mv	a1,s5
    65b8:	4496                	lw	s1,68(sp)
    65ba:	4906                	lw	s2,64(sp)
    65bc:	5a72                	lw	s4,60(sp)
    65be:	5ae2                	lw	s5,56(sp)
    65c0:	6161                	addi	sp,sp,80
    65c2:	8082                	ret
    65c4:	4785                	li	a5,1
    65c6:	c43e                	sw	a5,8(sp)
    65c8:	00007797          	auipc	a5,0x7
    65cc:	dc478793          	addi	a5,a5,-572 # d38c <atanlo+0x44>
    65d0:	c63e                	sw	a5,12(sp)
    65d2:	d402                	sw	zero,40(sp)
    65d4:	cc22                	sw	s0,24(sp)
    65d6:	ce26                	sw	s1,28(sp)
    65d8:	c822                	sw	s0,16(sp)
    65da:	ca26                	sw	s1,20(sp)
    65dc:	02090763          	beqz	s2,660a <sqrt+0xa0>
    65e0:	4601                	li	a2,0
    65e2:	4681                	li	a3,0
    65e4:	8532                	mv	a0,a2
    65e6:	85b6                	mv	a1,a3
    65e8:	02c030ef          	jal	ra,9614 <__divdf3>
    65ec:	d02a                	sw	a0,32(sp)
    65ee:	d22e                	sw	a1,36(sp)
    65f0:	4789                	li	a5,2
    65f2:	00f91e63          	bne	s2,a5,660e <sqrt+0xa4>
    65f6:	6bc050ef          	jal	ra,bcb2 <__errno>
    65fa:	02100793          	li	a5,33
    65fe:	c11c                	sw	a5,0(a0)
    6600:	57a2                	lw	a5,40(sp)
    6602:	ef81                	bnez	a5,661a <sqrt+0xb0>
    6604:	5a02                	lw	s4,32(sp)
    6606:	5a92                	lw	s5,36(sp)
    6608:	b765                	j	65b0 <sqrt+0x46>
    660a:	d002                	sw	zero,32(sp)
    660c:	d202                	sw	zero,36(sp)
    660e:	0028                	addi	a0,sp,8
    6610:	210020ef          	jal	ra,8820 <matherr>
    6614:	d16d                	beqz	a0,65f6 <sqrt+0x8c>
    6616:	57a2                	lw	a5,40(sp)
    6618:	d7f5                	beqz	a5,6604 <sqrt+0x9a>
    661a:	698050ef          	jal	ra,bcb2 <__errno>
    661e:	57a2                	lw	a5,40(sp)
    6620:	c11c                	sw	a5,0(a0)
    6622:	b7cd                	j	6604 <sqrt+0x9a>

00006624 <__ieee754_atan2>:
    6624:	40c007b3          	neg	a5,a2
    6628:	80000737          	lui	a4,0x80000
    662c:	fff74713          	not	a4,a4
    6630:	8fd1                	or	a5,a5,a2
    6632:	1141                	addi	sp,sp,-16
    6634:	00d77e33          	and	t3,a4,a3
    6638:	83fd                	srli	a5,a5,0x1f
    663a:	c606                	sw	ra,12(sp)
    663c:	c422                	sw	s0,8(sp)
    663e:	01c7e7b3          	or	a5,a5,t3
    6642:	7ff00337          	lui	t1,0x7ff00
    6646:	88aa                	mv	a7,a0
    6648:	882e                	mv	a6,a1
    664a:	04f36763          	bltu	t1,a5,6698 <__ieee754_atan2+0x74>
    664e:	40a007b3          	neg	a5,a0
    6652:	8fc9                	or	a5,a5,a0
    6654:	8f6d                	and	a4,a4,a1
    6656:	83fd                	srli	a5,a5,0x1f
    6658:	8fd9                	or	a5,a5,a4
    665a:	8f2e                	mv	t5,a1
    665c:	02f36e63          	bltu	t1,a5,6698 <__ieee754_atan2+0x74>
    6660:	c01007b7          	lui	a5,0xc0100
    6664:	97b6                	add	a5,a5,a3
    6666:	8fd1                	or	a5,a5,a2
    6668:	c7f1                	beqz	a5,6734 <__ieee754_atan2+0x110>
    666a:	41e6d413          	srai	s0,a3,0x1e
    666e:	00247593          	andi	a1,s0,2
    6672:	00a767b3          	or	a5,a4,a0
    6676:	01f85413          	srli	s0,a6,0x1f
    667a:	8c4d                	or	s0,s0,a1
    667c:	eb85                	bnez	a5,66ac <__ieee754_atan2+0x88>
    667e:	4789                	li	a5,2
    6680:	0af40f63          	beq	s0,a5,673e <__ieee754_atan2+0x11a>
    6684:	478d                	li	a5,3
    6686:	0af41263          	bne	s0,a5,672a <__ieee754_atan2+0x106>
    668a:	00007797          	auipc	a5,0x7
    668e:	d1678793          	addi	a5,a5,-746 # d3a0 <atanlo+0x58>
    6692:	4388                	lw	a0,0(a5)
    6694:	43cc                	lw	a1,4(a5)
    6696:	a039                	j	66a4 <__ieee754_atan2+0x80>
    6698:	8532                	mv	a0,a2
    669a:	85b6                	mv	a1,a3
    669c:	8646                	mv	a2,a7
    669e:	86c2                	mv	a3,a6
    66a0:	045020ef          	jal	ra,8ee4 <__adddf3>
    66a4:	40b2                	lw	ra,12(sp)
    66a6:	4422                	lw	s0,8(sp)
    66a8:	0141                	addi	sp,sp,16
    66aa:	8082                	ret
    66ac:	00ce67b3          	or	a5,t3,a2
    66b0:	c7a5                	beqz	a5,6718 <__ieee754_atan2+0xf4>
    66b2:	0a6e0463          	beq	t3,t1,675a <__ieee754_atan2+0x136>
    66b6:	06670163          	beq	a4,t1,6718 <__ieee754_atan2+0xf4>
    66ba:	41c70733          	sub	a4,a4,t3
    66be:	8751                	srai	a4,a4,0x14
    66c0:	03c00793          	li	a5,60
    66c4:	08e7c463          	blt	a5,a4,674c <__ieee754_atan2+0x128>
    66c8:	0006d863          	bgez	a3,66d8 <__ieee754_atan2+0xb4>
    66cc:	fc400793          	li	a5,-60
    66d0:	4501                	li	a0,0
    66d2:	4581                	li	a1,0
    66d4:	00f74a63          	blt	a4,a5,66e8 <__ieee754_atan2+0xc4>
    66d8:	8546                	mv	a0,a7
    66da:	85c2                	mv	a1,a6
    66dc:	739020ef          	jal	ra,9614 <__divdf3>
    66e0:	acbff0ef          	jal	ra,61aa <fabs>
    66e4:	efaff0ef          	jal	ra,5dde <atan>
    66e8:	4785                	li	a5,1
    66ea:	0cf40063          	beq	s0,a5,67aa <__ieee754_atan2+0x186>
    66ee:	4789                	li	a5,2
    66f0:	08f40a63          	beq	s0,a5,6784 <__ieee754_atan2+0x160>
    66f4:	d845                	beqz	s0,66a4 <__ieee754_atan2+0x80>
    66f6:	00007797          	auipc	a5,0x7
    66fa:	cda78793          	addi	a5,a5,-806 # d3d0 <atanlo+0x88>
    66fe:	4390                	lw	a2,0(a5)
    6700:	43d4                	lw	a3,4(a5)
    6702:	34d030ef          	jal	ra,a24e <__subdf3>
    6706:	00007797          	auipc	a5,0x7
    670a:	c9278793          	addi	a5,a5,-878 # d398 <atanlo+0x50>
    670e:	4390                	lw	a2,0(a5)
    6710:	43d4                	lw	a3,4(a5)
    6712:	33d030ef          	jal	ra,a24e <__subdf3>
    6716:	b779                	j	66a4 <__ieee754_atan2+0x80>
    6718:	040f4f63          	bltz	t5,6776 <__ieee754_atan2+0x152>
    671c:	00007797          	auipc	a5,0x7
    6720:	b8478793          	addi	a5,a5,-1148 # d2a0 <_read+0x286>
    6724:	4388                	lw	a0,0(a5)
    6726:	43cc                	lw	a1,4(a5)
    6728:	bfb5                	j	66a4 <__ieee754_atan2+0x80>
    672a:	40b2                	lw	ra,12(sp)
    672c:	4422                	lw	s0,8(sp)
    672e:	85c2                	mv	a1,a6
    6730:	0141                	addi	sp,sp,16
    6732:	8082                	ret
    6734:	4422                	lw	s0,8(sp)
    6736:	40b2                	lw	ra,12(sp)
    6738:	0141                	addi	sp,sp,16
    673a:	ea4ff06f          	j	5dde <atan>
    673e:	00007797          	auipc	a5,0x7
    6742:	c5a78793          	addi	a5,a5,-934 # d398 <atanlo+0x50>
    6746:	4388                	lw	a0,0(a5)
    6748:	43cc                	lw	a1,4(a5)
    674a:	bfa9                	j	66a4 <__ieee754_atan2+0x80>
    674c:	00007797          	auipc	a5,0x7
    6750:	b5478793          	addi	a5,a5,-1196 # d2a0 <_read+0x286>
    6754:	4388                	lw	a0,0(a5)
    6756:	43cc                	lw	a1,4(a5)
    6758:	bf41                	j	66e8 <__ieee754_atan2+0xc4>
    675a:	4789                	li	a5,2
    675c:	05c70b63          	beq	a4,t3,67b2 <__ieee754_atan2+0x18e>
    6760:	fcf40fe3          	beq	s0,a5,673e <__ieee754_atan2+0x11a>
    6764:	478d                	li	a5,3
    6766:	f2f402e3          	beq	s0,a5,668a <__ieee754_atan2+0x66>
    676a:	4785                	li	a5,1
    676c:	06f40263          	beq	s0,a5,67d0 <__ieee754_atan2+0x1ac>
    6770:	4501                	li	a0,0
    6772:	4581                	li	a1,0
    6774:	bf05                	j	66a4 <__ieee754_atan2+0x80>
    6776:	00007797          	auipc	a5,0x7
    677a:	b3278793          	addi	a5,a5,-1230 # d2a8 <_read+0x28e>
    677e:	4388                	lw	a0,0(a5)
    6780:	43cc                	lw	a1,4(a5)
    6782:	b70d                	j	66a4 <__ieee754_atan2+0x80>
    6784:	00007797          	auipc	a5,0x7
    6788:	c4c78793          	addi	a5,a5,-948 # d3d0 <atanlo+0x88>
    678c:	4390                	lw	a2,0(a5)
    678e:	43d4                	lw	a3,4(a5)
    6790:	2bf030ef          	jal	ra,a24e <__subdf3>
    6794:	00007797          	auipc	a5,0x7
    6798:	c0478793          	addi	a5,a5,-1020 # d398 <atanlo+0x50>
    679c:	862a                	mv	a2,a0
    679e:	86ae                	mv	a3,a1
    67a0:	4388                	lw	a0,0(a5)
    67a2:	43cc                	lw	a1,4(a5)
    67a4:	2ab030ef          	jal	ra,a24e <__subdf3>
    67a8:	bdf5                	j	66a4 <__ieee754_atan2+0x80>
    67aa:	800007b7          	lui	a5,0x80000
    67ae:	8dbd                	xor	a1,a1,a5
    67b0:	bdd5                	j	66a4 <__ieee754_atan2+0x80>
    67b2:	04f40463          	beq	s0,a5,67fa <__ieee754_atan2+0x1d6>
    67b6:	478d                	li	a5,3
    67b8:	02f40a63          	beq	s0,a5,67ec <__ieee754_atan2+0x1c8>
    67bc:	4785                	li	a5,1
    67be:	02f40063          	beq	s0,a5,67de <__ieee754_atan2+0x1ba>
    67c2:	00007797          	auipc	a5,0x7
    67c6:	bfe78793          	addi	a5,a5,-1026 # d3c0 <atanlo+0x78>
    67ca:	4388                	lw	a0,0(a5)
    67cc:	43cc                	lw	a1,4(a5)
    67ce:	bdd9                	j	66a4 <__ieee754_atan2+0x80>
    67d0:	00007797          	auipc	a5,0x7
    67d4:	bd878793          	addi	a5,a5,-1064 # d3a8 <atanlo+0x60>
    67d8:	4388                	lw	a0,0(a5)
    67da:	43cc                	lw	a1,4(a5)
    67dc:	b5e1                	j	66a4 <__ieee754_atan2+0x80>
    67de:	00007797          	auipc	a5,0x7
    67e2:	bea78793          	addi	a5,a5,-1046 # d3c8 <atanlo+0x80>
    67e6:	4388                	lw	a0,0(a5)
    67e8:	43cc                	lw	a1,4(a5)
    67ea:	bd6d                	j	66a4 <__ieee754_atan2+0x80>
    67ec:	00007797          	auipc	a5,0x7
    67f0:	bcc78793          	addi	a5,a5,-1076 # d3b8 <atanlo+0x70>
    67f4:	4388                	lw	a0,0(a5)
    67f6:	43cc                	lw	a1,4(a5)
    67f8:	b575                	j	66a4 <__ieee754_atan2+0x80>
    67fa:	00007797          	auipc	a5,0x7
    67fe:	bb678793          	addi	a5,a5,-1098 # d3b0 <atanlo+0x68>
    6802:	4388                	lw	a0,0(a5)
    6804:	43cc                	lw	a1,4(a5)
    6806:	bd79                	j	66a4 <__ieee754_atan2+0x80>

00006808 <__ieee754_pow>:
    6808:	80000837          	lui	a6,0x80000
    680c:	7119                	addi	sp,sp,-128
    680e:	fff84813          	not	a6,a6
    6812:	d8ca                	sw	s2,112(sp)
    6814:	0106f933          	and	s2,a3,a6
    6818:	de86                	sw	ra,124(sp)
    681a:	dca2                	sw	s0,120(sp)
    681c:	daa6                	sw	s1,116(sp)
    681e:	d6ce                	sw	s3,108(sp)
    6820:	d4d2                	sw	s4,104(sp)
    6822:	d2d6                	sw	s5,100(sp)
    6824:	d0da                	sw	s6,96(sp)
    6826:	cede                	sw	s7,92(sp)
    6828:	cce2                	sw	s8,88(sp)
    682a:	cae6                	sw	s9,84(sp)
    682c:	c8ea                	sw	s10,80(sp)
    682e:	c6ee                	sw	s11,76(sp)
    6830:	00c967b3          	or	a5,s2,a2
    6834:	c7dd                	beqz	a5,68e2 <__ieee754_pow+0xda>
    6836:	00b87433          	and	s0,a6,a1
    683a:	7ff007b7          	lui	a5,0x7ff00
    683e:	8aae                	mv	s5,a1
    6840:	8a2a                	mv	s4,a0
    6842:	0287db63          	bge	a5,s0,6878 <__ieee754_pow+0x70>
    6846:	c0100837          	lui	a6,0xc0100
    684a:	9822                	add	a6,a6,s0
    684c:	00a86833          	or	a6,a6,a0
    6850:	3ff005b7          	lui	a1,0x3ff00
    6854:	4501                	li	a0,0
    6856:	08081d63          	bnez	a6,68f0 <__ieee754_pow+0xe8>
    685a:	50f6                	lw	ra,124(sp)
    685c:	5466                	lw	s0,120(sp)
    685e:	54d6                	lw	s1,116(sp)
    6860:	5946                	lw	s2,112(sp)
    6862:	59b6                	lw	s3,108(sp)
    6864:	5a26                	lw	s4,104(sp)
    6866:	5a96                	lw	s5,100(sp)
    6868:	5b06                	lw	s6,96(sp)
    686a:	4bf6                	lw	s7,92(sp)
    686c:	4c66                	lw	s8,88(sp)
    686e:	4cd6                	lw	s9,84(sp)
    6870:	4d46                	lw	s10,80(sp)
    6872:	4db6                	lw	s11,76(sp)
    6874:	6109                	addi	sp,sp,128
    6876:	8082                	ret
    6878:	06f40963          	beq	s0,a5,68ea <__ieee754_pow+0xe2>
    687c:	fd27c5e3          	blt	a5,s2,6846 <__ieee754_pow+0x3e>
    6880:	7ff007b7          	lui	a5,0x7ff00
    6884:	1af90f63          	beq	s2,a5,6a42 <__ieee754_pow+0x23a>
    6888:	84ae                	mv	s1,a1
    688a:	89aa                	mv	s3,a0
    688c:	8cb2                	mv	s9,a2
    688e:	8db6                	mv	s11,a3
    6890:	4d01                	li	s10,0
    6892:	080ac363          	bltz	s5,6918 <__ieee754_pow+0x110>
    6896:	0c0c9063          	bnez	s9,6956 <__ieee754_pow+0x14e>
    689a:	7ff006b7          	lui	a3,0x7ff00
    689e:	14d90163          	beq	s2,a3,69e0 <__ieee754_pow+0x1d8>
    68a2:	3ff006b7          	lui	a3,0x3ff00
    68a6:	14d90f63          	beq	s2,a3,6a04 <__ieee754_pow+0x1fc>
    68aa:	400006b7          	lui	a3,0x40000
    68ae:	18dd84e3          	beq	s11,a3,7236 <__ieee754_pow+0xa2e>
    68b2:	3fe006b7          	lui	a3,0x3fe00
    68b6:	0add9063          	bne	s11,a3,6956 <__ieee754_pow+0x14e>
    68ba:	080ace63          	bltz	s5,6956 <__ieee754_pow+0x14e>
    68be:	5466                	lw	s0,120(sp)
    68c0:	50f6                	lw	ra,124(sp)
    68c2:	5946                	lw	s2,112(sp)
    68c4:	5a26                	lw	s4,104(sp)
    68c6:	5a96                	lw	s5,100(sp)
    68c8:	5b06                	lw	s6,96(sp)
    68ca:	4bf6                	lw	s7,92(sp)
    68cc:	4c66                	lw	s8,88(sp)
    68ce:	4cd6                	lw	s9,84(sp)
    68d0:	4d46                	lw	s10,80(sp)
    68d2:	4db6                	lw	s11,76(sp)
    68d4:	854e                	mv	a0,s3
    68d6:	85a6                	mv	a1,s1
    68d8:	59b6                	lw	s3,108(sp)
    68da:	54d6                	lw	s1,116(sp)
    68dc:	6109                	addi	sp,sp,128
    68de:	6690006f          	j	7746 <__ieee754_sqrt>
    68e2:	4501                	li	a0,0
    68e4:	3ff005b7          	lui	a1,0x3ff00
    68e8:	bf8d                	j	685a <__ieee754_pow+0x52>
    68ea:	e119                	bnez	a0,68f0 <__ieee754_pow+0xe8>
    68ec:	f9245ae3          	bge	s0,s2,6880 <__ieee754_pow+0x78>
    68f0:	5466                	lw	s0,120(sp)
    68f2:	50f6                	lw	ra,124(sp)
    68f4:	54d6                	lw	s1,116(sp)
    68f6:	5946                	lw	s2,112(sp)
    68f8:	59b6                	lw	s3,108(sp)
    68fa:	5a26                	lw	s4,104(sp)
    68fc:	5a96                	lw	s5,100(sp)
    68fe:	5b06                	lw	s6,96(sp)
    6900:	4bf6                	lw	s7,92(sp)
    6902:	4c66                	lw	s8,88(sp)
    6904:	4cd6                	lw	s9,84(sp)
    6906:	4d46                	lw	s10,80(sp)
    6908:	4db6                	lw	s11,76(sp)
    690a:	00006517          	auipc	a0,0x6
    690e:	78250513          	addi	a0,a0,1922 # d08c <_read+0x72>
    6912:	6109                	addi	sp,sp,128
    6914:	7110106f          	j	8824 <nan>
    6918:	434006b7          	lui	a3,0x43400
    691c:	12d95663          	bge	s2,a3,6a48 <__ieee754_pow+0x240>
    6920:	3ff006b7          	lui	a3,0x3ff00
    6924:	02d94763          	blt	s2,a3,6952 <__ieee754_pow+0x14a>
    6928:	41495693          	srai	a3,s2,0x14
    692c:	c0168693          	addi	a3,a3,-1023 # 3feffc01 <__freertos_irq_stack_top+0x1fefac01>
    6930:	4651                	li	a2,20
    6932:	10d65ae3          	bge	a2,a3,7246 <__ieee754_pow+0xa3e>
    6936:	03400613          	li	a2,52
    693a:	40d606b3          	sub	a3,a2,a3
    693e:	00dcd633          	srl	a2,s9,a3
    6942:	00d616b3          	sll	a3,a2,a3
    6946:	01969663          	bne	a3,s9,6952 <__ieee754_pow+0x14a>
    694a:	8a05                	andi	a2,a2,1
    694c:	4309                	li	t1,2
    694e:	40c30d33          	sub	s10,t1,a2
    6952:	f40c88e3          	beqz	s9,68a2 <__ieee754_pow+0x9a>
    6956:	854e                	mv	a0,s3
    6958:	85a6                	mv	a1,s1
    695a:	851ff0ef          	jal	ra,61aa <fabs>
    695e:	040a0563          	beqz	s4,69a8 <__ieee754_pow+0x1a0>
    6962:	01f4de13          	srli	t3,s1,0x1f
    6966:	1e7d                	addi	t3,t3,-1
    6968:	01cd66b3          	or	a3,s10,t3
    696c:	c2e5                	beqz	a3,6a4c <__ieee754_pow+0x244>
    696e:	41e006b7          	lui	a3,0x41e00
    6972:	0f26d863          	bge	a3,s2,6a62 <__ieee754_pow+0x25a>
    6976:	43f006b7          	lui	a3,0x43f00
    697a:	7b26d963          	bge	a3,s2,712c <__ieee754_pow+0x924>
    697e:	3ff00737          	lui	a4,0x3ff00
    6982:	0ae45063          	bge	s0,a4,6a22 <__ieee754_pow+0x21a>
    6986:	060ddc63          	bgez	s11,69fe <__ieee754_pow+0x1f6>
    698a:	00007797          	auipc	a5,0x7
    698e:	92678793          	addi	a5,a5,-1754 # d2b0 <_read+0x296>
    6992:	4390                	lw	a2,0(a5)
    6994:	43d4                	lw	a3,4(a5)
    6996:	8532                	mv	a0,a2
    6998:	85b6                	mv	a1,a3
    699a:	3fc030ef          	jal	ra,9d96 <__muldf3>
    699e:	bd75                	j	685a <__ieee754_pow+0x52>
    69a0:	80bff0ef          	jal	ra,61aa <fabs>
    69a4:	0a0a1463          	bnez	s4,6a4c <__ieee754_pow+0x244>
    69a8:	c801                	beqz	s0,69b8 <__ieee754_pow+0x1b0>
    69aa:	00249693          	slli	a3,s1,0x2
    69ae:	8289                	srli	a3,a3,0x2
    69b0:	3ff00637          	lui	a2,0x3ff00
    69b4:	fac697e3          	bne	a3,a2,6962 <__ieee754_pow+0x15a>
    69b8:	060dc863          	bltz	s11,6a28 <__ieee754_pow+0x220>
    69bc:	e80adfe3          	bgez	s5,685a <__ieee754_pow+0x52>
    69c0:	c01007b7          	lui	a5,0xc0100
    69c4:	97a2                	add	a5,a5,s0
    69c6:	01a7e7b3          	or	a5,a5,s10
    69ca:	0a079ce3          	bnez	a5,7282 <__ieee754_pow+0xa7a>
    69ce:	862a                	mv	a2,a0
    69d0:	86ae                	mv	a3,a1
    69d2:	07d030ef          	jal	ra,a24e <__subdf3>
    69d6:	862a                	mv	a2,a0
    69d8:	86ae                	mv	a3,a1
    69da:	43b020ef          	jal	ra,9614 <__divdf3>
    69de:	bdb5                	j	685a <__ieee754_pow+0x52>
    69e0:	c0100537          	lui	a0,0xc0100
    69e4:	9522                	add	a0,a0,s0
    69e6:	01356533          	or	a0,a0,s3
    69ea:	ee050ce3          	beqz	a0,68e2 <__ieee754_pow+0xda>
    69ee:	3ff00737          	lui	a4,0x3ff00
    69f2:	70e44f63          	blt	s0,a4,7110 <__ieee754_pow+0x908>
    69f6:	85ee                	mv	a1,s11
    69f8:	4501                	li	a0,0
    69fa:	e60dd0e3          	bgez	s11,685a <__ieee754_pow+0x52>
    69fe:	4501                	li	a0,0
    6a00:	4581                	li	a1,0
    6a02:	bda1                	j	685a <__ieee754_pow+0x52>
    6a04:	854e                	mv	a0,s3
    6a06:	85a6                	mv	a1,s1
    6a08:	e40dd9e3          	bgez	s11,685a <__ieee754_pow+0x52>
    6a0c:	00007797          	auipc	a5,0x7
    6a10:	82478793          	addi	a5,a5,-2012 # d230 <_read+0x216>
    6a14:	4388                	lw	a0,0(a5)
    6a16:	43cc                	lw	a1,4(a5)
    6a18:	864e                	mv	a2,s3
    6a1a:	86a6                	mv	a3,s1
    6a1c:	3f9020ef          	jal	ra,9614 <__divdf3>
    6a20:	bd2d                	j	685a <__ieee754_pow+0x52>
    6a22:	f7b044e3          	bgtz	s11,698a <__ieee754_pow+0x182>
    6a26:	bfe1                	j	69fe <__ieee754_pow+0x1f6>
    6a28:	00007717          	auipc	a4,0x7
    6a2c:	80870713          	addi	a4,a4,-2040 # d230 <_read+0x216>
    6a30:	8caa                	mv	s9,a0
    6a32:	87ae                	mv	a5,a1
    6a34:	4308                	lw	a0,0(a4)
    6a36:	434c                	lw	a1,4(a4)
    6a38:	8666                	mv	a2,s9
    6a3a:	86be                	mv	a3,a5
    6a3c:	3d9020ef          	jal	ra,9614 <__divdf3>
    6a40:	bfb5                	j	69bc <__ieee754_pow+0x1b4>
    6a42:	e40603e3          	beqz	a2,6888 <__ieee754_pow+0x80>
    6a46:	b501                	j	6846 <__ieee754_pow+0x3e>
    6a48:	4d09                	li	s10,2
    6a4a:	b5b1                	j	6896 <__ieee754_pow+0x8e>
    6a4c:	864e                	mv	a2,s3
    6a4e:	86a6                	mv	a3,s1
    6a50:	854e                	mv	a0,s3
    6a52:	85a6                	mv	a1,s1
    6a54:	7fa030ef          	jal	ra,a24e <__subdf3>
    6a58:	862a                	mv	a2,a0
    6a5a:	86ae                	mv	a3,a1
    6a5c:	3b9020ef          	jal	ra,9614 <__divdf3>
    6a60:	bbed                	j	685a <__ieee754_pow+0x52>
    6a62:	7ff006b7          	lui	a3,0x7ff00
    6a66:	8cf5                	and	s1,s1,a3
    6a68:	4601                	li	a2,0
    6a6a:	ec91                	bnez	s1,6a86 <__ieee754_pow+0x27e>
    6a6c:	00007697          	auipc	a3,0x7
    6a70:	9a468693          	addi	a3,a3,-1628 # d410 <atanlo+0xc8>
    6a74:	4290                	lw	a2,0(a3)
    6a76:	42d4                	lw	a3,4(a3)
    6a78:	c472                	sw	t3,8(sp)
    6a7a:	31c030ef          	jal	ra,9d96 <__muldf3>
    6a7e:	4e22                	lw	t3,8(sp)
    6a80:	842e                	mv	s0,a1
    6a82:	fcb00613          	li	a2,-53
    6a86:	001005b7          	lui	a1,0x100
    6a8a:	41445e93          	srai	t4,s0,0x14
    6a8e:	fff58813          	addi	a6,a1,-1 # fffff <_data_lma+0xf259b>
    6a92:	0003a6b7          	lui	a3,0x3a
    6a96:	c01e8e93          	addi	t4,t4,-1023
    6a9a:	01047833          	and	a6,s0,a6
    6a9e:	3ff00c37          	lui	s8,0x3ff00
    6aa2:	88e68693          	addi	a3,a3,-1906 # 3988e <_data_lma+0x2be2a>
    6aa6:	9eb2                	add	t4,t4,a2
    6aa8:	01886c33          	or	s8,a6,s8
    6aac:	6706db63          	bge	a3,a6,7122 <__ieee754_pow+0x91a>
    6ab0:	000bb6b7          	lui	a3,0xbb
    6ab4:	67968693          	addi	a3,a3,1657 # bb679 <_data_lma+0xadc15>
    6ab8:	7d06dd63          	bge	a3,a6,7292 <__ieee754_pow+0xa8a>
    6abc:	00006a97          	auipc	s5,0x6
    6ac0:	774a8a93          	addi	s5,s5,1908 # d230 <_read+0x216>
    6ac4:	0e85                	addi	t4,t4,1
    6ac6:	40bc0c33          	sub	s8,s8,a1
    6aca:	000aa783          	lw	a5,0(s5)
    6ace:	004aa803          	lw	a6,4(s5)
    6ad2:	c802                	sw	zero,16(sp)
    6ad4:	ca02                	sw	zero,20(sp)
    6ad6:	dc02                	sw	zero,56(sp)
    6ad8:	de02                	sw	zero,60(sp)
    6ada:	4981                	li	s3,0
    6adc:	c43e                	sw	a5,8(sp)
    6ade:	c642                	sw	a6,12(sp)
    6ae0:	4422                	lw	s0,8(sp)
    6ae2:	44b2                	lw	s1,12(sp)
    6ae4:	85e2                	mv	a1,s8
    6ae6:	8622                	mv	a2,s0
    6ae8:	86a6                	mv	a3,s1
    6aea:	da76                	sw	t4,52(sp)
    6aec:	d872                	sw	t3,48(sp)
    6aee:	892a                	mv	s2,a0
    6af0:	75e030ef          	jal	ra,a24e <__subdf3>
    6af4:	8b2a                	mv	s6,a0
    6af6:	8bae                	mv	s7,a1
    6af8:	8622                	mv	a2,s0
    6afa:	86a6                	mv	a3,s1
    6afc:	854a                	mv	a0,s2
    6afe:	85e2                	mv	a1,s8
    6b00:	c422                	sw	s0,8(sp)
    6b02:	c626                	sw	s1,12(sp)
    6b04:	3e0020ef          	jal	ra,8ee4 <__adddf3>
    6b08:	862a                	mv	a2,a0
    6b0a:	86ae                	mv	a3,a1
    6b0c:	000aa503          	lw	a0,0(s5)
    6b10:	004aa583          	lw	a1,4(s5)
    6b14:	4481                	li	s1,0
    6b16:	2ff020ef          	jal	ra,9614 <__divdf3>
    6b1a:	862a                	mv	a2,a0
    6b1c:	86ae                	mv	a3,a1
    6b1e:	cc2a                	sw	a0,24(sp)
    6b20:	ce2e                	sw	a1,28(sp)
    6b22:	855a                	mv	a0,s6
    6b24:	85de                	mv	a1,s7
    6b26:	270030ef          	jal	ra,9d96 <__muldf3>
    6b2a:	401c5f13          	srai	t5,s8,0x1
    6b2e:	200006b7          	lui	a3,0x20000
    6b32:	00df6f33          	or	t5,t5,a3
    6b36:	000806b7          	lui	a3,0x80
    6b3a:	9f36                	add	t5,t5,a3
    6b3c:	99fa                	add	s3,s3,t5
    6b3e:	8a2a                	mv	s4,a0
    6b40:	86ce                	mv	a3,s3
    6b42:	4601                	li	a2,0
    6b44:	8526                	mv	a0,s1
    6b46:	842e                	mv	s0,a1
    6b48:	24e030ef          	jal	ra,9d96 <__muldf3>
    6b4c:	862a                	mv	a2,a0
    6b4e:	86ae                	mv	a3,a1
    6b50:	855a                	mv	a0,s6
    6b52:	85de                	mv	a1,s7
    6b54:	6fa030ef          	jal	ra,a24e <__subdf3>
    6b58:	4622                	lw	a2,8(sp)
    6b5a:	46b2                	lw	a3,12(sp)
    6b5c:	8b2a                	mv	s6,a0
    6b5e:	8bae                	mv	s7,a1
    6b60:	4501                	li	a0,0
    6b62:	85ce                	mv	a1,s3
    6b64:	6ea030ef          	jal	ra,a24e <__subdf3>
    6b68:	862a                	mv	a2,a0
    6b6a:	86ae                	mv	a3,a1
    6b6c:	854a                	mv	a0,s2
    6b6e:	85e2                	mv	a1,s8
    6b70:	6de030ef          	jal	ra,a24e <__subdf3>
    6b74:	8626                	mv	a2,s1
    6b76:	86a2                	mv	a3,s0
    6b78:	21e030ef          	jal	ra,9d96 <__muldf3>
    6b7c:	862a                	mv	a2,a0
    6b7e:	86ae                	mv	a3,a1
    6b80:	855a                	mv	a0,s6
    6b82:	85de                	mv	a1,s7
    6b84:	6ca030ef          	jal	ra,a24e <__subdf3>
    6b88:	4862                	lw	a6,24(sp)
    6b8a:	48f2                	lw	a7,28(sp)
    6b8c:	00007b97          	auipc	s7,0x7
    6b90:	8bcb8b93          	addi	s7,s7,-1860 # d448 <atanlo+0x100>
    6b94:	8642                	mv	a2,a6
    6b96:	86c6                	mv	a3,a7
    6b98:	1fe030ef          	jal	ra,9d96 <__muldf3>
    6b9c:	8652                	mv	a2,s4
    6b9e:	86a2                	mv	a3,s0
    6ba0:	c42a                	sw	a0,8(sp)
    6ba2:	c62e                	sw	a1,12(sp)
    6ba4:	8552                	mv	a0,s4
    6ba6:	85a2                	mv	a1,s0
    6ba8:	1ee030ef          	jal	ra,9d96 <__muldf3>
    6bac:	00007697          	auipc	a3,0x7
    6bb0:	86c68693          	addi	a3,a3,-1940 # d418 <atanlo+0xd0>
    6bb4:	4290                	lw	a2,0(a3)
    6bb6:	42d4                	lw	a3,4(a3)
    6bb8:	892a                	mv	s2,a0
    6bba:	89ae                	mv	s3,a1
    6bbc:	1da030ef          	jal	ra,9d96 <__muldf3>
    6bc0:	00007697          	auipc	a3,0x7
    6bc4:	86068693          	addi	a3,a3,-1952 # d420 <atanlo+0xd8>
    6bc8:	4290                	lw	a2,0(a3)
    6bca:	42d4                	lw	a3,4(a3)
    6bcc:	4b01                	li	s6,0
    6bce:	4c01                	li	s8,0
    6bd0:	314020ef          	jal	ra,8ee4 <__adddf3>
    6bd4:	864a                	mv	a2,s2
    6bd6:	86ce                	mv	a3,s3
    6bd8:	1be030ef          	jal	ra,9d96 <__muldf3>
    6bdc:	00007697          	auipc	a3,0x7
    6be0:	84c68693          	addi	a3,a3,-1972 # d428 <atanlo+0xe0>
    6be4:	4290                	lw	a2,0(a3)
    6be6:	42d4                	lw	a3,4(a3)
    6be8:	2fc020ef          	jal	ra,8ee4 <__adddf3>
    6bec:	864a                	mv	a2,s2
    6bee:	86ce                	mv	a3,s3
    6bf0:	1a6030ef          	jal	ra,9d96 <__muldf3>
    6bf4:	00007697          	auipc	a3,0x7
    6bf8:	83c68693          	addi	a3,a3,-1988 # d430 <atanlo+0xe8>
    6bfc:	4290                	lw	a2,0(a3)
    6bfe:	42d4                	lw	a3,4(a3)
    6c00:	2e4020ef          	jal	ra,8ee4 <__adddf3>
    6c04:	864a                	mv	a2,s2
    6c06:	86ce                	mv	a3,s3
    6c08:	18e030ef          	jal	ra,9d96 <__muldf3>
    6c0c:	00007697          	auipc	a3,0x7
    6c10:	82c68693          	addi	a3,a3,-2004 # d438 <atanlo+0xf0>
    6c14:	4290                	lw	a2,0(a3)
    6c16:	42d4                	lw	a3,4(a3)
    6c18:	2cc020ef          	jal	ra,8ee4 <__adddf3>
    6c1c:	864a                	mv	a2,s2
    6c1e:	86ce                	mv	a3,s3
    6c20:	176030ef          	jal	ra,9d96 <__muldf3>
    6c24:	00007697          	auipc	a3,0x7
    6c28:	81c68693          	addi	a3,a3,-2020 # d440 <atanlo+0xf8>
    6c2c:	4290                	lw	a2,0(a3)
    6c2e:	42d4                	lw	a3,4(a3)
    6c30:	2b4020ef          	jal	ra,8ee4 <__adddf3>
    6c34:	864a                	mv	a2,s2
    6c36:	86ce                	mv	a3,s3
    6c38:	cc2a                	sw	a0,24(sp)
    6c3a:	ce2e                	sw	a1,28(sp)
    6c3c:	854a                	mv	a0,s2
    6c3e:	85ce                	mv	a1,s3
    6c40:	156030ef          	jal	ra,9d96 <__muldf3>
    6c44:	4762                	lw	a4,24(sp)
    6c46:	47f2                	lw	a5,28(sp)
    6c48:	862a                	mv	a2,a0
    6c4a:	86ae                	mv	a3,a1
    6c4c:	853a                	mv	a0,a4
    6c4e:	85be                	mv	a1,a5
    6c50:	146030ef          	jal	ra,9d96 <__muldf3>
    6c54:	892a                	mv	s2,a0
    6c56:	89ae                	mv	s3,a1
    6c58:	8626                	mv	a2,s1
    6c5a:	86a2                	mv	a3,s0
    6c5c:	8552                	mv	a0,s4
    6c5e:	85a2                	mv	a1,s0
    6c60:	284020ef          	jal	ra,8ee4 <__adddf3>
    6c64:	4622                	lw	a2,8(sp)
    6c66:	46b2                	lw	a3,12(sp)
    6c68:	12e030ef          	jal	ra,9d96 <__muldf3>
    6c6c:	864a                	mv	a2,s2
    6c6e:	86ce                	mv	a3,s3
    6c70:	274020ef          	jal	ra,8ee4 <__adddf3>
    6c74:	892a                	mv	s2,a0
    6c76:	89ae                	mv	s3,a1
    6c78:	8626                	mv	a2,s1
    6c7a:	86a2                	mv	a3,s0
    6c7c:	8526                	mv	a0,s1
    6c7e:	85a2                	mv	a1,s0
    6c80:	116030ef          	jal	ra,9d96 <__muldf3>
    6c84:	000ba603          	lw	a2,0(s7)
    6c88:	004ba683          	lw	a3,4(s7)
    6c8c:	d42a                	sw	a0,40(sp)
    6c8e:	d62e                	sw	a1,44(sp)
    6c90:	254020ef          	jal	ra,8ee4 <__adddf3>
    6c94:	864a                	mv	a2,s2
    6c96:	86ce                	mv	a3,s3
    6c98:	cc4a                	sw	s2,24(sp)
    6c9a:	ce4e                	sw	s3,28(sp)
    6c9c:	248020ef          	jal	ra,8ee4 <__adddf3>
    6ca0:	892e                	mv	s2,a1
    6ca2:	865a                	mv	a2,s6
    6ca4:	86ae                	mv	a3,a1
    6ca6:	8526                	mv	a0,s1
    6ca8:	85a2                	mv	a1,s0
    6caa:	0ec030ef          	jal	ra,9d96 <__muldf3>
    6cae:	000ba603          	lw	a2,0(s7)
    6cb2:	004ba683          	lw	a3,4(s7)
    6cb6:	d02a                	sw	a0,32(sp)
    6cb8:	d22e                	sw	a1,36(sp)
    6cba:	855a                	mv	a0,s6
    6cbc:	85ca                	mv	a1,s2
    6cbe:	590030ef          	jal	ra,a24e <__subdf3>
    6cc2:	5f22                	lw	t5,40(sp)
    6cc4:	5fb2                	lw	t6,44(sp)
    6cc6:	867a                	mv	a2,t5
    6cc8:	86fe                	mv	a3,t6
    6cca:	584030ef          	jal	ra,a24e <__subdf3>
    6cce:	862a                	mv	a2,a0
    6cd0:	86ae                	mv	a3,a1
    6cd2:	4562                	lw	a0,24(sp)
    6cd4:	45f2                	lw	a1,28(sp)
    6cd6:	578030ef          	jal	ra,a24e <__subdf3>
    6cda:	8652                	mv	a2,s4
    6cdc:	86a2                	mv	a3,s0
    6cde:	0b8030ef          	jal	ra,9d96 <__muldf3>
    6ce2:	842a                	mv	s0,a0
    6ce4:	84ae                	mv	s1,a1
    6ce6:	4522                	lw	a0,8(sp)
    6ce8:	45b2                	lw	a1,12(sp)
    6cea:	865a                	mv	a2,s6
    6cec:	86ca                	mv	a3,s2
    6cee:	0a8030ef          	jal	ra,9d96 <__muldf3>
    6cf2:	862a                	mv	a2,a0
    6cf4:	86ae                	mv	a3,a1
    6cf6:	8522                	mv	a0,s0
    6cf8:	85a6                	mv	a1,s1
    6cfa:	1ea020ef          	jal	ra,8ee4 <__adddf3>
    6cfe:	5b02                	lw	s6,32(sp)
    6d00:	5b92                	lw	s7,36(sp)
    6d02:	842a                	mv	s0,a0
    6d04:	84ae                	mv	s1,a1
    6d06:	862a                	mv	a2,a0
    6d08:	86ae                	mv	a3,a1
    6d0a:	855a                	mv	a0,s6
    6d0c:	85de                	mv	a1,s7
    6d0e:	1d6020ef          	jal	ra,8ee4 <__adddf3>
    6d12:	00006697          	auipc	a3,0x6
    6d16:	73e68693          	addi	a3,a3,1854 # d450 <atanlo+0x108>
    6d1a:	4290                	lw	a2,0(a3)
    6d1c:	42d4                	lw	a3,4(a3)
    6d1e:	8562                	mv	a0,s8
    6d20:	8a2e                	mv	s4,a1
    6d22:	074030ef          	jal	ra,9d96 <__muldf3>
    6d26:	892a                	mv	s2,a0
    6d28:	89ae                	mv	s3,a1
    6d2a:	865a                	mv	a2,s6
    6d2c:	86de                	mv	a3,s7
    6d2e:	8562                	mv	a0,s8
    6d30:	85d2                	mv	a1,s4
    6d32:	51c030ef          	jal	ra,a24e <__subdf3>
    6d36:	862a                	mv	a2,a0
    6d38:	86ae                	mv	a3,a1
    6d3a:	8522                	mv	a0,s0
    6d3c:	85a6                	mv	a1,s1
    6d3e:	510030ef          	jal	ra,a24e <__subdf3>
    6d42:	00006697          	auipc	a3,0x6
    6d46:	71668693          	addi	a3,a3,1814 # d458 <atanlo+0x110>
    6d4a:	4290                	lw	a2,0(a3)
    6d4c:	42d4                	lw	a3,4(a3)
    6d4e:	048030ef          	jal	ra,9d96 <__muldf3>
    6d52:	00006697          	auipc	a3,0x6
    6d56:	70e68693          	addi	a3,a3,1806 # d460 <atanlo+0x118>
    6d5a:	4290                	lw	a2,0(a3)
    6d5c:	42d4                	lw	a3,4(a3)
    6d5e:	842a                	mv	s0,a0
    6d60:	84ae                	mv	s1,a1
    6d62:	8562                	mv	a0,s8
    6d64:	85d2                	mv	a1,s4
    6d66:	030030ef          	jal	ra,9d96 <__muldf3>
    6d6a:	862a                	mv	a2,a0
    6d6c:	86ae                	mv	a3,a1
    6d6e:	8522                	mv	a0,s0
    6d70:	85a6                	mv	a1,s1
    6d72:	172020ef          	jal	ra,8ee4 <__adddf3>
    6d76:	5662                	lw	a2,56(sp)
    6d78:	56f2                	lw	a3,60(sp)
    6d7a:	16a020ef          	jal	ra,8ee4 <__adddf3>
    6d7e:	5ed2                	lw	t4,52(sp)
    6d80:	8b2a                	mv	s6,a0
    6d82:	8bae                	mv	s7,a1
    6d84:	8576                	mv	a0,t4
    6d86:	4ab030ef          	jal	ra,aa30 <__floatsidf>
    6d8a:	842a                	mv	s0,a0
    6d8c:	84ae                	mv	s1,a1
    6d8e:	865a                	mv	a2,s6
    6d90:	86de                	mv	a3,s7
    6d92:	854a                	mv	a0,s2
    6d94:	85ce                	mv	a1,s3
    6d96:	14e020ef          	jal	ra,8ee4 <__adddf3>
    6d9a:	4642                	lw	a2,16(sp)
    6d9c:	46d2                	lw	a3,20(sp)
    6d9e:	146020ef          	jal	ra,8ee4 <__adddf3>
    6da2:	8622                	mv	a2,s0
    6da4:	86a6                	mv	a3,s1
    6da6:	13e020ef          	jal	ra,8ee4 <__adddf3>
    6daa:	4601                	li	a2,0
    6dac:	8532                	mv	a0,a2
    6dae:	86a6                	mv	a3,s1
    6db0:	8622                	mv	a2,s0
    6db2:	84ae                	mv	s1,a1
    6db4:	842a                	mv	s0,a0
    6db6:	498030ef          	jal	ra,a24e <__subdf3>
    6dba:	4642                	lw	a2,16(sp)
    6dbc:	46d2                	lw	a3,20(sp)
    6dbe:	490030ef          	jal	ra,a24e <__subdf3>
    6dc2:	864a                	mv	a2,s2
    6dc4:	86ce                	mv	a3,s3
    6dc6:	488030ef          	jal	ra,a24e <__subdf3>
    6dca:	862a                	mv	a2,a0
    6dcc:	86ae                	mv	a3,a1
    6dce:	855a                	mv	a0,s6
    6dd0:	85de                	mv	a1,s7
    6dd2:	47c030ef          	jal	ra,a24e <__subdf3>
    6dd6:	5e42                	lw	t3,48(sp)
    6dd8:	892a                	mv	s2,a0
    6dda:	89ae                	mv	s3,a1
    6ddc:	fffd0313          	addi	t1,s10,-1 # 1fff <vTaskGenericNotifyGiveFromISR+0x61>
    6de0:	01c36e33          	or	t3,t1,t3
    6de4:	300e1f63          	bnez	t3,7102 <__ieee754_pow+0x8fa>
    6de8:	00006697          	auipc	a3,0x6
    6dec:	4e068693          	addi	a3,a3,1248 # d2c8 <_read+0x2ae>
    6df0:	429c                	lw	a5,0(a3)
    6df2:	0046a803          	lw	a6,4(a3)
    6df6:	c43e                	sw	a5,8(sp)
    6df8:	c642                	sw	a6,12(sp)
    6dfa:	4c01                	li	s8,0
    6dfc:	8662                	mv	a2,s8
    6dfe:	86ee                	mv	a3,s11
    6e00:	8566                	mv	a0,s9
    6e02:	85ee                	mv	a1,s11
    6e04:	44a030ef          	jal	ra,a24e <__subdf3>
    6e08:	8622                	mv	a2,s0
    6e0a:	86a6                	mv	a3,s1
    6e0c:	78b020ef          	jal	ra,9d96 <__muldf3>
    6e10:	8b2a                	mv	s6,a0
    6e12:	8bae                	mv	s7,a1
    6e14:	8666                	mv	a2,s9
    6e16:	86ee                	mv	a3,s11
    6e18:	854a                	mv	a0,s2
    6e1a:	85ce                	mv	a1,s3
    6e1c:	77b020ef          	jal	ra,9d96 <__muldf3>
    6e20:	862a                	mv	a2,a0
    6e22:	86ae                	mv	a3,a1
    6e24:	855a                	mv	a0,s6
    6e26:	85de                	mv	a1,s7
    6e28:	0bc020ef          	jal	ra,8ee4 <__adddf3>
    6e2c:	892a                	mv	s2,a0
    6e2e:	89ae                	mv	s3,a1
    6e30:	8662                	mv	a2,s8
    6e32:	86ee                	mv	a3,s11
    6e34:	8522                	mv	a0,s0
    6e36:	85a6                	mv	a1,s1
    6e38:	75f020ef          	jal	ra,9d96 <__muldf3>
    6e3c:	862a                	mv	a2,a0
    6e3e:	86ae                	mv	a3,a1
    6e40:	842a                	mv	s0,a0
    6e42:	84ae                	mv	s1,a1
    6e44:	854a                	mv	a0,s2
    6e46:	85ce                	mv	a1,s3
    6e48:	09c020ef          	jal	ra,8ee4 <__adddf3>
    6e4c:	409007b7          	lui	a5,0x40900
    6e50:	8a2a                	mv	s4,a0
    6e52:	8b2e                	mv	s6,a1
    6e54:	8bae                	mv	s7,a1
    6e56:	24f5cc63          	blt	a1,a5,70ae <__ieee754_pow+0x8a6>
    6e5a:	40f587b3          	sub	a5,a1,a5
    6e5e:	8fc9                	or	a5,a5,a0
    6e60:	40079c63          	bnez	a5,7278 <__ieee754_pow+0xa70>
    6e64:	00006797          	auipc	a5,0x6
    6e68:	60478793          	addi	a5,a5,1540 # d468 <atanlo+0x120>
    6e6c:	4390                	lw	a2,0(a5)
    6e6e:	43d4                	lw	a3,4(a5)
    6e70:	854a                	mv	a0,s2
    6e72:	85ce                	mv	a1,s3
    6e74:	070020ef          	jal	ra,8ee4 <__adddf3>
    6e78:	8d2a                	mv	s10,a0
    6e7a:	8dae                	mv	s11,a1
    6e7c:	8622                	mv	a2,s0
    6e7e:	86a6                	mv	a3,s1
    6e80:	8552                	mv	a0,s4
    6e82:	85da                	mv	a1,s6
    6e84:	3ca030ef          	jal	ra,a24e <__subdf3>
    6e88:	862a                	mv	a2,a0
    6e8a:	86ae                	mv	a3,a1
    6e8c:	856a                	mv	a0,s10
    6e8e:	85ee                	mv	a1,s11
    6e90:	5a3020ef          	jal	ra,9c32 <__gedf2>
    6e94:	3ea04263          	bgtz	a0,7278 <__ieee754_pow+0xa70>
    6e98:	414bd793          	srai	a5,s7,0x14
    6e9c:	7ff7f793          	andi	a5,a5,2047
    6ea0:	00100537          	lui	a0,0x100
    6ea4:	c0278793          	addi	a5,a5,-1022
    6ea8:	40f557b3          	sra	a5,a0,a5
    6eac:	97de                	add	a5,a5,s7
    6eae:	4147d713          	srai	a4,a5,0x14
    6eb2:	7ff77713          	andi	a4,a4,2047
    6eb6:	c0170713          	addi	a4,a4,-1023
    6eba:	fff50a13          	addi	s4,a0,-1 # fffff <_data_lma+0xf259b>
    6ebe:	40ea55b3          	sra	a1,s4,a4
    6ec2:	fff5c593          	not	a1,a1
    6ec6:	8dfd                	and	a1,a1,a5
    6ec8:	0147fa33          	and	s4,a5,s4
    6ecc:	47d1                	li	a5,20
    6ece:	00aa6a33          	or	s4,s4,a0
    6ed2:	40e78733          	sub	a4,a5,a4
    6ed6:	4601                	li	a2,0
    6ed8:	86ae                	mv	a3,a1
    6eda:	40ea5a33          	sra	s4,s4,a4
    6ede:	000bd463          	bgez	s7,6ee6 <__ieee754_pow+0x6de>
    6ee2:	41400a33          	neg	s4,s4
    6ee6:	8522                	mv	a0,s0
    6ee8:	85a6                	mv	a1,s1
    6eea:	364030ef          	jal	ra,a24e <__subdf3>
    6eee:	862a                	mv	a2,a0
    6ef0:	86ae                	mv	a3,a1
    6ef2:	842a                	mv	s0,a0
    6ef4:	84ae                	mv	s1,a1
    6ef6:	854a                	mv	a0,s2
    6ef8:	85ce                	mv	a1,s3
    6efa:	7eb010ef          	jal	ra,8ee4 <__adddf3>
    6efe:	8b2e                	mv	s6,a1
    6f00:	014a1d93          	slli	s11,s4,0x14
    6f04:	00006717          	auipc	a4,0x6
    6f08:	57470713          	addi	a4,a4,1396 # d478 <atanlo+0x130>
    6f0c:	4310                	lw	a2,0(a4)
    6f0e:	4354                	lw	a3,4(a4)
    6f10:	4c01                	li	s8,0
    6f12:	8562                	mv	a0,s8
    6f14:	85da                	mv	a1,s6
    6f16:	681020ef          	jal	ra,9d96 <__muldf3>
    6f1a:	8d5a                	mv	s10,s6
    6f1c:	8bae                	mv	s7,a1
    6f1e:	8b2a                	mv	s6,a0
    6f20:	8622                	mv	a2,s0
    6f22:	86a6                	mv	a3,s1
    6f24:	8562                	mv	a0,s8
    6f26:	85ea                	mv	a1,s10
    6f28:	326030ef          	jal	ra,a24e <__subdf3>
    6f2c:	862a                	mv	a2,a0
    6f2e:	86ae                	mv	a3,a1
    6f30:	854a                	mv	a0,s2
    6f32:	85ce                	mv	a1,s3
    6f34:	31a030ef          	jal	ra,a24e <__subdf3>
    6f38:	00006717          	auipc	a4,0x6
    6f3c:	54870713          	addi	a4,a4,1352 # d480 <atanlo+0x138>
    6f40:	4310                	lw	a2,0(a4)
    6f42:	4354                	lw	a3,4(a4)
    6f44:	653020ef          	jal	ra,9d96 <__muldf3>
    6f48:	00006717          	auipc	a4,0x6
    6f4c:	54070713          	addi	a4,a4,1344 # d488 <atanlo+0x140>
    6f50:	4310                	lw	a2,0(a4)
    6f52:	4354                	lw	a3,4(a4)
    6f54:	842a                	mv	s0,a0
    6f56:	84ae                	mv	s1,a1
    6f58:	8562                	mv	a0,s8
    6f5a:	85ea                	mv	a1,s10
    6f5c:	63b020ef          	jal	ra,9d96 <__muldf3>
    6f60:	862a                	mv	a2,a0
    6f62:	86ae                	mv	a3,a1
    6f64:	8522                	mv	a0,s0
    6f66:	85a6                	mv	a1,s1
    6f68:	77d010ef          	jal	ra,8ee4 <__adddf3>
    6f6c:	892a                	mv	s2,a0
    6f6e:	89ae                	mv	s3,a1
    6f70:	862a                	mv	a2,a0
    6f72:	86ae                	mv	a3,a1
    6f74:	855a                	mv	a0,s6
    6f76:	85de                	mv	a1,s7
    6f78:	76d010ef          	jal	ra,8ee4 <__adddf3>
    6f7c:	865a                	mv	a2,s6
    6f7e:	86de                	mv	a3,s7
    6f80:	842a                	mv	s0,a0
    6f82:	84ae                	mv	s1,a1
    6f84:	2ca030ef          	jal	ra,a24e <__subdf3>
    6f88:	862a                	mv	a2,a0
    6f8a:	86ae                	mv	a3,a1
    6f8c:	854a                	mv	a0,s2
    6f8e:	85ce                	mv	a1,s3
    6f90:	2be030ef          	jal	ra,a24e <__subdf3>
    6f94:	8b2a                	mv	s6,a0
    6f96:	8bae                	mv	s7,a1
    6f98:	8622                	mv	a2,s0
    6f9a:	86a6                	mv	a3,s1
    6f9c:	8522                	mv	a0,s0
    6f9e:	85a6                	mv	a1,s1
    6fa0:	5f7020ef          	jal	ra,9d96 <__muldf3>
    6fa4:	00006797          	auipc	a5,0x6
    6fa8:	4ec78793          	addi	a5,a5,1260 # d490 <atanlo+0x148>
    6fac:	4390                	lw	a2,0(a5)
    6fae:	43d4                	lw	a3,4(a5)
    6fb0:	892a                	mv	s2,a0
    6fb2:	89ae                	mv	s3,a1
    6fb4:	5e3020ef          	jal	ra,9d96 <__muldf3>
    6fb8:	00006797          	auipc	a5,0x6
    6fbc:	4e078793          	addi	a5,a5,1248 # d498 <atanlo+0x150>
    6fc0:	4390                	lw	a2,0(a5)
    6fc2:	43d4                	lw	a3,4(a5)
    6fc4:	28a030ef          	jal	ra,a24e <__subdf3>
    6fc8:	864a                	mv	a2,s2
    6fca:	86ce                	mv	a3,s3
    6fcc:	5cb020ef          	jal	ra,9d96 <__muldf3>
    6fd0:	00006797          	auipc	a5,0x6
    6fd4:	4d078793          	addi	a5,a5,1232 # d4a0 <atanlo+0x158>
    6fd8:	4390                	lw	a2,0(a5)
    6fda:	43d4                	lw	a3,4(a5)
    6fdc:	709010ef          	jal	ra,8ee4 <__adddf3>
    6fe0:	864a                	mv	a2,s2
    6fe2:	86ce                	mv	a3,s3
    6fe4:	5b3020ef          	jal	ra,9d96 <__muldf3>
    6fe8:	00006797          	auipc	a5,0x6
    6fec:	4c078793          	addi	a5,a5,1216 # d4a8 <atanlo+0x160>
    6ff0:	4390                	lw	a2,0(a5)
    6ff2:	43d4                	lw	a3,4(a5)
    6ff4:	25a030ef          	jal	ra,a24e <__subdf3>
    6ff8:	864a                	mv	a2,s2
    6ffa:	86ce                	mv	a3,s3
    6ffc:	59b020ef          	jal	ra,9d96 <__muldf3>
    7000:	00006797          	auipc	a5,0x6
    7004:	4b078793          	addi	a5,a5,1200 # d4b0 <atanlo+0x168>
    7008:	4390                	lw	a2,0(a5)
    700a:	43d4                	lw	a3,4(a5)
    700c:	6d9010ef          	jal	ra,8ee4 <__adddf3>
    7010:	864a                	mv	a2,s2
    7012:	86ce                	mv	a3,s3
    7014:	583020ef          	jal	ra,9d96 <__muldf3>
    7018:	862a                	mv	a2,a0
    701a:	86ae                	mv	a3,a1
    701c:	8522                	mv	a0,s0
    701e:	85a6                	mv	a1,s1
    7020:	22e030ef          	jal	ra,a24e <__subdf3>
    7024:	862a                	mv	a2,a0
    7026:	86ae                	mv	a3,a1
    7028:	8c2a                	mv	s8,a0
    702a:	8cae                	mv	s9,a1
    702c:	8522                	mv	a0,s0
    702e:	85a6                	mv	a1,s1
    7030:	567020ef          	jal	ra,9d96 <__muldf3>
    7034:	00006697          	auipc	a3,0x6
    7038:	28468693          	addi	a3,a3,644 # d2b8 <_read+0x29e>
    703c:	4290                	lw	a2,0(a3)
    703e:	42d4                	lw	a3,4(a3)
    7040:	892a                	mv	s2,a0
    7042:	89ae                	mv	s3,a1
    7044:	8562                	mv	a0,s8
    7046:	85e6                	mv	a1,s9
    7048:	206030ef          	jal	ra,a24e <__subdf3>
    704c:	862a                	mv	a2,a0
    704e:	86ae                	mv	a3,a1
    7050:	854a                	mv	a0,s2
    7052:	85ce                	mv	a1,s3
    7054:	5c0020ef          	jal	ra,9614 <__divdf3>
    7058:	892a                	mv	s2,a0
    705a:	89ae                	mv	s3,a1
    705c:	865a                	mv	a2,s6
    705e:	86de                	mv	a3,s7
    7060:	8522                	mv	a0,s0
    7062:	85a6                	mv	a1,s1
    7064:	533020ef          	jal	ra,9d96 <__muldf3>
    7068:	865a                	mv	a2,s6
    706a:	86de                	mv	a3,s7
    706c:	679010ef          	jal	ra,8ee4 <__adddf3>
    7070:	862a                	mv	a2,a0
    7072:	86ae                	mv	a3,a1
    7074:	854a                	mv	a0,s2
    7076:	85ce                	mv	a1,s3
    7078:	1d6030ef          	jal	ra,a24e <__subdf3>
    707c:	8622                	mv	a2,s0
    707e:	86a6                	mv	a3,s1
    7080:	1ce030ef          	jal	ra,a24e <__subdf3>
    7084:	86ae                	mv	a3,a1
    7086:	862a                	mv	a2,a0
    7088:	004aa583          	lw	a1,4(s5)
    708c:	000aa503          	lw	a0,0(s5)
    7090:	1be030ef          	jal	ra,a24e <__subdf3>
    7094:	00bd87b3          	add	a5,s11,a1
    7098:	4147d693          	srai	a3,a5,0x14
    709c:	22d05e63          	blez	a3,72d8 <__ieee754_pow+0xad0>
    70a0:	85be                	mv	a1,a5
    70a2:	4622                	lw	a2,8(sp)
    70a4:	46b2                	lw	a3,12(sp)
    70a6:	4f1020ef          	jal	ra,9d96 <__muldf3>
    70aa:	fb0ff06f          	j	685a <__ieee754_pow+0x52>
    70ae:	00159793          	slli	a5,a1,0x1
    70b2:	4090d6b7          	lui	a3,0x4090d
    70b6:	8385                	srli	a5,a5,0x1
    70b8:	bff68693          	addi	a3,a3,-1025 # 4090cbff <__freertos_irq_stack_top+0x20907bff>
    70bc:	1af6d663          	bge	a3,a5,7268 <__ieee754_pow+0xa60>
    70c0:	3f6f37b7          	lui	a5,0x3f6f3
    70c4:	40078793          	addi	a5,a5,1024 # 3f6f3400 <__freertos_irq_stack_top+0x1f6ee400>
    70c8:	97ae                	add	a5,a5,a1
    70ca:	8fc9                	or	a5,a5,a0
    70cc:	eb99                	bnez	a5,70e2 <__ieee754_pow+0x8da>
    70ce:	8622                	mv	a2,s0
    70d0:	86a6                	mv	a3,s1
    70d2:	17c030ef          	jal	ra,a24e <__subdf3>
    70d6:	864a                	mv	a2,s2
    70d8:	86ce                	mv	a3,s3
    70da:	359020ef          	jal	ra,9c32 <__gedf2>
    70de:	da054de3          	bltz	a0,6e98 <__ieee754_pow+0x690>
    70e2:	00006417          	auipc	s0,0x6
    70e6:	38e40413          	addi	s0,s0,910 # d470 <atanlo+0x128>
    70ea:	4010                	lw	a2,0(s0)
    70ec:	4054                	lw	a3,4(s0)
    70ee:	4522                	lw	a0,8(sp)
    70f0:	45b2                	lw	a1,12(sp)
    70f2:	4a5020ef          	jal	ra,9d96 <__muldf3>
    70f6:	4010                	lw	a2,0(s0)
    70f8:	4054                	lw	a3,4(s0)
    70fa:	49d020ef          	jal	ra,9d96 <__muldf3>
    70fe:	f5cff06f          	j	685a <__ieee754_pow+0x52>
    7102:	000aa783          	lw	a5,0(s5)
    7106:	004aa803          	lw	a6,4(s5)
    710a:	c43e                	sw	a5,8(sp)
    710c:	c642                	sw	a6,12(sp)
    710e:	b1f5                	j	6dfa <__ieee754_pow+0x5f2>
    7110:	8e0dd7e3          	bgez	s11,69fe <__ieee754_pow+0x1f6>
    7114:	800005b7          	lui	a1,0x80000
    7118:	4501                	li	a0,0
    711a:	01b5c5b3          	xor	a1,a1,s11
    711e:	f3cff06f          	j	685a <__ieee754_pow+0x52>
    7122:	00006a97          	auipc	s5,0x6
    7126:	10ea8a93          	addi	s5,s5,270 # d230 <_read+0x216>
    712a:	b245                	j	6aca <__ieee754_pow+0x2c2>
    712c:	3ff006b7          	lui	a3,0x3ff00
    7130:	ffe68613          	addi	a2,a3,-2 # 3feffffe <__freertos_irq_stack_top+0x1fefaffe>
    7134:	848659e3          	bge	a2,s0,6986 <__ieee754_pow+0x17e>
    7138:	8e86c5e3          	blt	a3,s0,6a22 <__ieee754_pow+0x21a>
    713c:	00006a97          	auipc	s5,0x6
    7140:	0f4a8a93          	addi	s5,s5,244 # d230 <_read+0x216>
    7144:	000aa603          	lw	a2,0(s5)
    7148:	004aa683          	lw	a3,4(s5)
    714c:	c872                	sw	t3,16(sp)
    714e:	100030ef          	jal	ra,a24e <__subdf3>
    7152:	00006697          	auipc	a3,0x6
    7156:	29668693          	addi	a3,a3,662 # d3e8 <atanlo+0xa0>
    715a:	4290                	lw	a2,0(a3)
    715c:	42d4                	lw	a3,4(a3)
    715e:	842a                	mv	s0,a0
    7160:	84ae                	mv	s1,a1
    7162:	435020ef          	jal	ra,9d96 <__muldf3>
    7166:	00006697          	auipc	a3,0x6
    716a:	28a68693          	addi	a3,a3,650 # d3f0 <atanlo+0xa8>
    716e:	4290                	lw	a2,0(a3)
    7170:	42d4                	lw	a3,4(a3)
    7172:	892a                	mv	s2,a0
    7174:	89ae                	mv	s3,a1
    7176:	8522                	mv	a0,s0
    7178:	85a6                	mv	a1,s1
    717a:	41d020ef          	jal	ra,9d96 <__muldf3>
    717e:	00006697          	auipc	a3,0x6
    7182:	27a68693          	addi	a3,a3,634 # d3f8 <atanlo+0xb0>
    7186:	4290                	lw	a2,0(a3)
    7188:	42d4                	lw	a3,4(a3)
    718a:	c42a                	sw	a0,8(sp)
    718c:	c62e                	sw	a1,12(sp)
    718e:	8522                	mv	a0,s0
    7190:	85a6                	mv	a1,s1
    7192:	405020ef          	jal	ra,9d96 <__muldf3>
    7196:	86ae                	mv	a3,a1
    7198:	00006597          	auipc	a1,0x6
    719c:	26858593          	addi	a1,a1,616 # d400 <atanlo+0xb8>
    71a0:	862a                	mv	a2,a0
    71a2:	4188                	lw	a0,0(a1)
    71a4:	41cc                	lw	a1,4(a1)
    71a6:	0a8030ef          	jal	ra,a24e <__subdf3>
    71aa:	8622                	mv	a2,s0
    71ac:	86a6                	mv	a3,s1
    71ae:	3e9020ef          	jal	ra,9d96 <__muldf3>
    71b2:	86ae                	mv	a3,a1
    71b4:	00006597          	auipc	a1,0x6
    71b8:	fd458593          	addi	a1,a1,-44 # d188 <_read+0x16e>
    71bc:	862a                	mv	a2,a0
    71be:	4188                	lw	a0,0(a1)
    71c0:	41cc                	lw	a1,4(a1)
    71c2:	08c030ef          	jal	ra,a24e <__subdf3>
    71c6:	8b2a                	mv	s6,a0
    71c8:	8bae                	mv	s7,a1
    71ca:	8622                	mv	a2,s0
    71cc:	86a6                	mv	a3,s1
    71ce:	8522                	mv	a0,s0
    71d0:	85a6                	mv	a1,s1
    71d2:	3c5020ef          	jal	ra,9d96 <__muldf3>
    71d6:	862a                	mv	a2,a0
    71d8:	86ae                	mv	a3,a1
    71da:	855a                	mv	a0,s6
    71dc:	85de                	mv	a1,s7
    71de:	3b9020ef          	jal	ra,9d96 <__muldf3>
    71e2:	00006697          	auipc	a3,0x6
    71e6:	22668693          	addi	a3,a3,550 # d408 <atanlo+0xc0>
    71ea:	4290                	lw	a2,0(a3)
    71ec:	42d4                	lw	a3,4(a3)
    71ee:	3a9020ef          	jal	ra,9d96 <__muldf3>
    71f2:	4722                	lw	a4,8(sp)
    71f4:	47b2                	lw	a5,12(sp)
    71f6:	862a                	mv	a2,a0
    71f8:	86ae                	mv	a3,a1
    71fa:	853a                	mv	a0,a4
    71fc:	85be                	mv	a1,a5
    71fe:	050030ef          	jal	ra,a24e <__subdf3>
    7202:	862a                	mv	a2,a0
    7204:	86ae                	mv	a3,a1
    7206:	8b2a                	mv	s6,a0
    7208:	8bae                	mv	s7,a1
    720a:	854a                	mv	a0,s2
    720c:	85ce                	mv	a1,s3
    720e:	4d7010ef          	jal	ra,8ee4 <__adddf3>
    7212:	4601                	li	a2,0
    7214:	86ce                	mv	a3,s3
    7216:	8532                	mv	a0,a2
    7218:	8432                	mv	s0,a2
    721a:	864a                	mv	a2,s2
    721c:	84ae                	mv	s1,a1
    721e:	030030ef          	jal	ra,a24e <__subdf3>
    7222:	862a                	mv	a2,a0
    7224:	86ae                	mv	a3,a1
    7226:	855a                	mv	a0,s6
    7228:	85de                	mv	a1,s7
    722a:	024030ef          	jal	ra,a24e <__subdf3>
    722e:	892a                	mv	s2,a0
    7230:	89ae                	mv	s3,a1
    7232:	4e42                	lw	t3,16(sp)
    7234:	b665                	j	6ddc <__ieee754_pow+0x5d4>
    7236:	864e                	mv	a2,s3
    7238:	854e                	mv	a0,s3
    723a:	86a6                	mv	a3,s1
    723c:	85a6                	mv	a1,s1
    723e:	359020ef          	jal	ra,9d96 <__muldf3>
    7242:	e18ff06f          	j	685a <__ieee754_pow+0x52>
    7246:	f40c9d63          	bnez	s9,69a0 <__ieee754_pow+0x198>
    724a:	40d606b3          	sub	a3,a2,a3
    724e:	40d95633          	sra	a2,s2,a3
    7252:	00d616b3          	sll	a3,a2,a3
    7256:	8d66                	mv	s10,s9
    7258:	e5269563          	bne	a3,s2,68a2 <__ieee754_pow+0x9a>
    725c:	8a05                	andi	a2,a2,1
    725e:	4309                	li	t1,2
    7260:	40c30d33          	sub	s10,t1,a2
    7264:	e3eff06f          	j	68a2 <__ieee754_pow+0x9a>
    7268:	3fe00737          	lui	a4,0x3fe00
    726c:	4d81                	li	s11,0
    726e:	4a01                	li	s4,0
    7270:	c8f75ae3          	bge	a4,a5,6f04 <__ieee754_pow+0x6fc>
    7274:	87d1                	srai	a5,a5,0x14
    7276:	b12d                	j	6ea0 <__ieee754_pow+0x698>
    7278:	00006417          	auipc	s0,0x6
    727c:	03840413          	addi	s0,s0,56 # d2b0 <_read+0x296>
    7280:	b5ad                	j	70ea <__ieee754_pow+0x8e2>
    7282:	4785                	li	a5,1
    7284:	dcfd1b63          	bne	s10,a5,685a <__ieee754_pow+0x52>
    7288:	800007b7          	lui	a5,0x80000
    728c:	8dbd                	xor	a1,a1,a5
    728e:	dccff06f          	j	685a <__ieee754_pow+0x52>
    7292:	00006697          	auipc	a3,0x6
    7296:	14668693          	addi	a3,a3,326 # d3d8 <atanlo+0x90>
    729a:	429c                	lw	a5,0(a3)
    729c:	0046a803          	lw	a6,4(a3)
    72a0:	00006697          	auipc	a3,0x6
    72a4:	14068693          	addi	a3,a3,320 # d3e0 <atanlo+0x98>
    72a8:	c83e                	sw	a5,16(sp)
    72aa:	ca42                	sw	a6,20(sp)
    72ac:	429c                	lw	a5,0(a3)
    72ae:	0046a803          	lw	a6,4(a3)
    72b2:	00006697          	auipc	a3,0x6
    72b6:	00e68693          	addi	a3,a3,14 # d2c0 <_read+0x2a6>
    72ba:	dc3e                	sw	a5,56(sp)
    72bc:	de42                	sw	a6,60(sp)
    72be:	429c                	lw	a5,0(a3)
    72c0:	0046a803          	lw	a6,4(a3)
    72c4:	000409b7          	lui	s3,0x40
    72c8:	c43e                	sw	a5,8(sp)
    72ca:	c642                	sw	a6,12(sp)
    72cc:	00006a97          	auipc	s5,0x6
    72d0:	f64a8a93          	addi	s5,s5,-156 # d230 <_read+0x216>
    72d4:	80dff06f          	j	6ae0 <__ieee754_pow+0x2d8>
    72d8:	8652                	mv	a2,s4
    72da:	6de010ef          	jal	ra,89b8 <scalbn>
    72de:	b3d1                	j	70a2 <__ieee754_pow+0x89a>

000072e0 <__ieee754_rem_pio2>:
    72e0:	7159                	addi	sp,sp,-112
    72e2:	d4a2                	sw	s0,104(sp)
    72e4:	3fe92737          	lui	a4,0x3fe92
    72e8:	00159413          	slli	s0,a1,0x1
    72ec:	d686                	sw	ra,108(sp)
    72ee:	d2a6                	sw	s1,100(sp)
    72f0:	d0ca                	sw	s2,96(sp)
    72f2:	cece                	sw	s3,92(sp)
    72f4:	ccd2                	sw	s4,88(sp)
    72f6:	cad6                	sw	s5,84(sp)
    72f8:	c8da                	sw	s6,80(sp)
    72fa:	c6de                	sw	s7,76(sp)
    72fc:	c4e2                	sw	s8,72(sp)
    72fe:	c2e6                	sw	s9,68(sp)
    7300:	c0ea                	sw	s10,64(sp)
    7302:	de6e                	sw	s11,60(sp)
    7304:	8005                	srli	s0,s0,0x1
    7306:	1fb70713          	addi	a4,a4,507 # 3fe921fb <__freertos_irq_stack_top+0x1fe8d1fb>
    730a:	14875c63          	bge	a4,s0,7462 <__ieee754_rem_pio2+0x182>
    730e:	4002e737          	lui	a4,0x4002e
    7312:	97b70713          	addi	a4,a4,-1669 # 4002d97b <__freertos_irq_stack_top+0x2002897b>
    7316:	89b2                	mv	s3,a2
    7318:	06874f63          	blt	a4,s0,7396 <__ieee754_rem_pio2+0xb6>
    731c:	00006797          	auipc	a5,0x6
    7320:	19c78793          	addi	a5,a5,412 # d4b8 <atanlo+0x170>
    7324:	4390                	lw	a2,0(a5)
    7326:	43d4                	lw	a3,4(a5)
    7328:	3ab05763          	blez	a1,76d6 <__ieee754_rem_pio2+0x3f6>
    732c:	723020ef          	jal	ra,a24e <__subdf3>
    7330:	3ff927b7          	lui	a5,0x3ff92
    7334:	1fb78793          	addi	a5,a5,507 # 3ff921fb <__freertos_irq_stack_top+0x1ff8d1fb>
    7338:	8a2a                	mv	s4,a0
    733a:	8aae                	mv	s5,a1
    733c:	14f40963          	beq	s0,a5,748e <__ieee754_rem_pio2+0x1ae>
    7340:	00006417          	auipc	s0,0x6
    7344:	18040413          	addi	s0,s0,384 # d4c0 <atanlo+0x178>
    7348:	4010                	lw	a2,0(s0)
    734a:	4054                	lw	a3,4(s0)
    734c:	4485                	li	s1,1
    734e:	701020ef          	jal	ra,a24e <__subdf3>
    7352:	862a                	mv	a2,a0
    7354:	86ae                	mv	a3,a1
    7356:	00a9a023          	sw	a0,0(s3) # 40000 <_data_lma+0x3259c>
    735a:	00b9a223          	sw	a1,4(s3)
    735e:	8552                	mv	a0,s4
    7360:	85d6                	mv	a1,s5
    7362:	6ed020ef          	jal	ra,a24e <__subdf3>
    7366:	4010                	lw	a2,0(s0)
    7368:	4054                	lw	a3,4(s0)
    736a:	6e5020ef          	jal	ra,a24e <__subdf3>
    736e:	00a9a423          	sw	a0,8(s3)
    7372:	00b9a623          	sw	a1,12(s3)
    7376:	50b6                	lw	ra,108(sp)
    7378:	5426                	lw	s0,104(sp)
    737a:	8526                	mv	a0,s1
    737c:	5906                	lw	s2,96(sp)
    737e:	5496                	lw	s1,100(sp)
    7380:	49f6                	lw	s3,92(sp)
    7382:	4a66                	lw	s4,88(sp)
    7384:	4ad6                	lw	s5,84(sp)
    7386:	4b46                	lw	s6,80(sp)
    7388:	4bb6                	lw	s7,76(sp)
    738a:	4c26                	lw	s8,72(sp)
    738c:	4c96                	lw	s9,68(sp)
    738e:	4d06                	lw	s10,64(sp)
    7390:	5df2                	lw	s11,60(sp)
    7392:	6165                	addi	sp,sp,112
    7394:	8082                	ret
    7396:	41392737          	lui	a4,0x41392
    739a:	1fb70713          	addi	a4,a4,507 # 413921fb <__freertos_irq_stack_top+0x2138d1fb>
    739e:	892e                	mv	s2,a1
    73a0:	10875963          	bge	a4,s0,74b2 <__ieee754_rem_pio2+0x1d2>
    73a4:	7ff00737          	lui	a4,0x7ff00
    73a8:	0ce45563          	bge	s0,a4,7472 <__ieee754_rem_pio2+0x192>
    73ac:	41445a13          	srai	s4,s0,0x14
    73b0:	beaa0a13          	addi	s4,s4,-1046
    73b4:	014a1793          	slli	a5,s4,0x14
    73b8:	8c1d                	sub	s0,s0,a5
    73ba:	85a2                	mv	a1,s0
    73bc:	84aa                	mv	s1,a0
    73be:	60a030ef          	jal	ra,a9c8 <__fixdfsi>
    73c2:	66e030ef          	jal	ra,aa30 <__floatsidf>
    73c6:	872a                	mv	a4,a0
    73c8:	87ae                	mv	a5,a1
    73ca:	863a                	mv	a2,a4
    73cc:	86be                	mv	a3,a5
    73ce:	8526                	mv	a0,s1
    73d0:	85a2                	mv	a1,s0
    73d2:	cc3a                	sw	a4,24(sp)
    73d4:	ce3e                	sw	a5,28(sp)
    73d6:	00006497          	auipc	s1,0x6
    73da:	11a48493          	addi	s1,s1,282 # d4f0 <atanlo+0x1a8>
    73de:	671020ef          	jal	ra,a24e <__subdf3>
    73e2:	4090                	lw	a2,0(s1)
    73e4:	40d4                	lw	a3,4(s1)
    73e6:	1b1020ef          	jal	ra,9d96 <__muldf3>
    73ea:	8bae                	mv	s7,a1
    73ec:	8b2a                	mv	s6,a0
    73ee:	5da030ef          	jal	ra,a9c8 <__fixdfsi>
    73f2:	842a                	mv	s0,a0
    73f4:	63c030ef          	jal	ra,aa30 <__floatsidf>
    73f8:	872a                	mv	a4,a0
    73fa:	87ae                	mv	a5,a1
    73fc:	862a                	mv	a2,a0
    73fe:	86ae                	mv	a3,a1
    7400:	855a                	mv	a0,s6
    7402:	85de                	mv	a1,s7
    7404:	d03a                	sw	a4,32(sp)
    7406:	d23e                	sw	a5,36(sp)
    7408:	647020ef          	jal	ra,a24e <__subdf3>
    740c:	4090                	lw	a2,0(s1)
    740e:	40d4                	lw	a3,4(s1)
    7410:	187020ef          	jal	ra,9d96 <__muldf3>
    7414:	4681                	li	a3,0
    7416:	4601                	li	a2,0
    7418:	d42a                	sw	a0,40(sp)
    741a:	d62e                	sw	a1,44(sp)
    741c:	7ac020ef          	jal	ra,9bc8 <__eqdf2>
    7420:	008036b3          	snez	a3,s0
    7424:	0685                	addi	a3,a3,1
    7426:	22051863          	bnez	a0,7656 <__ieee754_rem_pio2+0x376>
    742a:	00006797          	auipc	a5,0x6
    742e:	14e78793          	addi	a5,a5,334 # d578 <two_over_pi>
    7432:	4709                	li	a4,2
    7434:	8652                	mv	a2,s4
    7436:	85ce                	mv	a1,s3
    7438:	0828                	addi	a0,sp,24
    743a:	79a000ef          	jal	ra,7bd4 <__kernel_rem_pio2>
    743e:	84aa                	mv	s1,a0
    7440:	f2095be3          	bgez	s2,7376 <__ieee754_rem_pio2+0x96>
    7444:	0049a703          	lw	a4,4(s3)
    7448:	00c9a783          	lw	a5,12(s3)
    744c:	800006b7          	lui	a3,0x80000
    7450:	8f35                	xor	a4,a4,a3
    7452:	8fb5                	xor	a5,a5,a3
    7454:	00e9a223          	sw	a4,4(s3)
    7458:	00f9a623          	sw	a5,12(s3)
    745c:	40a004b3          	neg	s1,a0
    7460:	bf19                	j	7376 <__ieee754_rem_pio2+0x96>
    7462:	c208                	sw	a0,0(a2)
    7464:	c24c                	sw	a1,4(a2)
    7466:	00062423          	sw	zero,8(a2) # 3ff00008 <__freertos_irq_stack_top+0x1fefb008>
    746a:	00062623          	sw	zero,12(a2)
    746e:	4481                	li	s1,0
    7470:	b719                	j	7376 <__ieee754_rem_pio2+0x96>
    7472:	862a                	mv	a2,a0
    7474:	86ae                	mv	a3,a1
    7476:	5d9020ef          	jal	ra,a24e <__subdf3>
    747a:	00a9a423          	sw	a0,8(s3)
    747e:	00b9a623          	sw	a1,12(s3)
    7482:	00a9a023          	sw	a0,0(s3)
    7486:	00b9a223          	sw	a1,4(s3)
    748a:	4481                	li	s1,0
    748c:	b5ed                	j	7376 <__ieee754_rem_pio2+0x96>
    748e:	00006797          	auipc	a5,0x6
    7492:	03a78793          	addi	a5,a5,58 # d4c8 <atanlo+0x180>
    7496:	4390                	lw	a2,0(a5)
    7498:	43d4                	lw	a3,4(a5)
    749a:	00006417          	auipc	s0,0x6
    749e:	03640413          	addi	s0,s0,54 # d4d0 <atanlo+0x188>
    74a2:	4485                	li	s1,1
    74a4:	5ab020ef          	jal	ra,a24e <__subdf3>
    74a8:	8a2a                	mv	s4,a0
    74aa:	8aae                	mv	s5,a1
    74ac:	4010                	lw	a2,0(s0)
    74ae:	4054                	lw	a3,4(s0)
    74b0:	bd79                	j	734e <__ieee754_rem_pio2+0x6e>
    74b2:	cf9fe0ef          	jal	ra,61aa <fabs>
    74b6:	00006797          	auipc	a5,0x6
    74ba:	02278793          	addi	a5,a5,34 # d4d8 <atanlo+0x190>
    74be:	4390                	lw	a2,0(a5)
    74c0:	43d4                	lw	a3,4(a5)
    74c2:	8a2a                	mv	s4,a0
    74c4:	8aae                	mv	s5,a1
    74c6:	0d1020ef          	jal	ra,9d96 <__muldf3>
    74ca:	00006797          	auipc	a5,0x6
    74ce:	cbe78793          	addi	a5,a5,-834 # d188 <_read+0x16e>
    74d2:	4390                	lw	a2,0(a5)
    74d4:	43d4                	lw	a3,4(a5)
    74d6:	20f010ef          	jal	ra,8ee4 <__adddf3>
    74da:	4ee030ef          	jal	ra,a9c8 <__fixdfsi>
    74de:	84aa                	mv	s1,a0
    74e0:	550030ef          	jal	ra,aa30 <__floatsidf>
    74e4:	00006797          	auipc	a5,0x6
    74e8:	fd478793          	addi	a5,a5,-44 # d4b8 <atanlo+0x170>
    74ec:	4390                	lw	a2,0(a5)
    74ee:	43d4                	lw	a3,4(a5)
    74f0:	8b2a                	mv	s6,a0
    74f2:	8bae                	mv	s7,a1
    74f4:	0a3020ef          	jal	ra,9d96 <__muldf3>
    74f8:	862a                	mv	a2,a0
    74fa:	86ae                	mv	a3,a1
    74fc:	8552                	mv	a0,s4
    74fe:	85d6                	mv	a1,s5
    7500:	54f020ef          	jal	ra,a24e <__subdf3>
    7504:	00006797          	auipc	a5,0x6
    7508:	fbc78793          	addi	a5,a5,-68 # d4c0 <atanlo+0x178>
    750c:	4390                	lw	a2,0(a5)
    750e:	43d4                	lw	a3,4(a5)
    7510:	8d2a                	mv	s10,a0
    7512:	8cae                	mv	s9,a1
    7514:	855a                	mv	a0,s6
    7516:	85de                	mv	a1,s7
    7518:	07f020ef          	jal	ra,9d96 <__muldf3>
    751c:	8a2a                	mv	s4,a0
    751e:	8aae                	mv	s5,a1
    7520:	47fd                	li	a5,31
    7522:	856a                	mv	a0,s10
    7524:	85e6                	mv	a1,s9
    7526:	8652                	mv	a2,s4
    7528:	86d6                	mv	a3,s5
    752a:	0297c763          	blt	a5,s1,7558 <__ieee754_rem_pio2+0x278>
    752e:	521020ef          	jal	ra,a24e <__subdf3>
    7532:	fff48793          	addi	a5,s1,-1
    7536:	00279713          	slli	a4,a5,0x2
    753a:	00006797          	auipc	a5,0x6
    753e:	fbe78793          	addi	a5,a5,-66 # d4f8 <npio2_hw>
    7542:	97ba                	add	a5,a5,a4
    7544:	439c                	lw	a5,0(a5)
    7546:	8daa                	mv	s11,a0
    7548:	8c2e                	mv	s8,a1
    754a:	00878b63          	beq	a5,s0,7560 <__ieee754_rem_pio2+0x280>
    754e:	00a9a023          	sw	a0,0(s3)
    7552:	00b9a223          	sw	a1,4(s3)
    7556:	a025                	j	757e <__ieee754_rem_pio2+0x29e>
    7558:	4f7020ef          	jal	ra,a24e <__subdf3>
    755c:	8daa                	mv	s11,a0
    755e:	8c2e                	mv	s8,a1
    7560:	014c5793          	srli	a5,s8,0x14
    7564:	41445813          	srai	a6,s0,0x14
    7568:	7ff7f793          	andi	a5,a5,2047
    756c:	40f807b3          	sub	a5,a6,a5
    7570:	46c1                	li	a3,16
    7572:	04f6c663          	blt	a3,a5,75be <__ieee754_rem_pio2+0x2de>
    7576:	01b9a023          	sw	s11,0(s3)
    757a:	0189a223          	sw	s8,4(s3)
    757e:	866e                	mv	a2,s11
    7580:	86e2                	mv	a3,s8
    7582:	856a                	mv	a0,s10
    7584:	85e6                	mv	a1,s9
    7586:	4c9020ef          	jal	ra,a24e <__subdf3>
    758a:	8652                	mv	a2,s4
    758c:	86d6                	mv	a3,s5
    758e:	4c1020ef          	jal	ra,a24e <__subdf3>
    7592:	00a9a423          	sw	a0,8(s3)
    7596:	00b9a623          	sw	a1,12(s3)
    759a:	dc095ee3          	bgez	s2,7376 <__ieee754_rem_pio2+0x96>
    759e:	800007b7          	lui	a5,0x80000
    75a2:	0187cc33          	xor	s8,a5,s8
    75a6:	8dbd                	xor	a1,a1,a5
    75a8:	01b9a023          	sw	s11,0(s3)
    75ac:	0189a223          	sw	s8,4(s3)
    75b0:	00a9a423          	sw	a0,8(s3)
    75b4:	00b9a623          	sw	a1,12(s3)
    75b8:	409004b3          	neg	s1,s1
    75bc:	bb6d                	j	7376 <__ieee754_rem_pio2+0x96>
    75be:	00006797          	auipc	a5,0x6
    75c2:	f0a78793          	addi	a5,a5,-246 # d4c8 <atanlo+0x180>
    75c6:	4390                	lw	a2,0(a5)
    75c8:	43d4                	lw	a3,4(a5)
    75ca:	855a                	mv	a0,s6
    75cc:	85de                	mv	a1,s7
    75ce:	c442                	sw	a6,8(sp)
    75d0:	7c6020ef          	jal	ra,9d96 <__muldf3>
    75d4:	8a2a                	mv	s4,a0
    75d6:	8aae                	mv	s5,a1
    75d8:	862a                	mv	a2,a0
    75da:	86ae                	mv	a3,a1
    75dc:	856a                	mv	a0,s10
    75de:	85e6                	mv	a1,s9
    75e0:	46f020ef          	jal	ra,a24e <__subdf3>
    75e4:	8c2e                	mv	s8,a1
    75e6:	862a                	mv	a2,a0
    75e8:	86ae                	mv	a3,a1
    75ea:	842a                	mv	s0,a0
    75ec:	c62e                	sw	a1,12(sp)
    75ee:	856a                	mv	a0,s10
    75f0:	85e6                	mv	a1,s9
    75f2:	45d020ef          	jal	ra,a24e <__subdf3>
    75f6:	8652                	mv	a2,s4
    75f8:	86d6                	mv	a3,s5
    75fa:	455020ef          	jal	ra,a24e <__subdf3>
    75fe:	00006797          	auipc	a5,0x6
    7602:	ed278793          	addi	a5,a5,-302 # d4d0 <atanlo+0x188>
    7606:	4390                	lw	a2,0(a5)
    7608:	43d4                	lw	a3,4(a5)
    760a:	8a2a                	mv	s4,a0
    760c:	8aae                	mv	s5,a1
    760e:	855a                	mv	a0,s6
    7610:	85de                	mv	a1,s7
    7612:	784020ef          	jal	ra,9d96 <__muldf3>
    7616:	8652                	mv	a2,s4
    7618:	86d6                	mv	a3,s5
    761a:	435020ef          	jal	ra,a24e <__subdf3>
    761e:	862a                	mv	a2,a0
    7620:	86ae                	mv	a3,a1
    7622:	8a2a                	mv	s4,a0
    7624:	8aae                	mv	s5,a1
    7626:	8522                	mv	a0,s0
    7628:	85e2                	mv	a1,s8
    762a:	425020ef          	jal	ra,a24e <__subdf3>
    762e:	4822                	lw	a6,8(sp)
    7630:	0145d793          	srli	a5,a1,0x14
    7634:	7ff7f793          	andi	a5,a5,2047
    7638:	40f80833          	sub	a6,a6,a5
    763c:	03100793          	li	a5,49
    7640:	8ce2                	mv	s9,s8
    7642:	8daa                	mv	s11,a0
    7644:	8c2e                	mv	s8,a1
    7646:	0107ca63          	blt	a5,a6,765a <__ieee754_rem_pio2+0x37a>
    764a:	00a9a023          	sw	a0,0(s3)
    764e:	00b9a223          	sw	a1,4(s3)
    7652:	8d22                	mv	s10,s0
    7654:	b72d                	j	757e <__ieee754_rem_pio2+0x29e>
    7656:	468d                	li	a3,3
    7658:	bbc9                	j	742a <__ieee754_rem_pio2+0x14a>
    765a:	00006797          	auipc	a5,0x6
    765e:	e8678793          	addi	a5,a5,-378 # d4e0 <atanlo+0x198>
    7662:	4390                	lw	a2,0(a5)
    7664:	43d4                	lw	a3,4(a5)
    7666:	855a                	mv	a0,s6
    7668:	85de                	mv	a1,s7
    766a:	72c020ef          	jal	ra,9d96 <__muldf3>
    766e:	4c32                	lw	s8,12(sp)
    7670:	8a2a                	mv	s4,a0
    7672:	8aae                	mv	s5,a1
    7674:	862a                	mv	a2,a0
    7676:	86ae                	mv	a3,a1
    7678:	8522                	mv	a0,s0
    767a:	85e2                	mv	a1,s8
    767c:	3d3020ef          	jal	ra,a24e <__subdf3>
    7680:	862a                	mv	a2,a0
    7682:	86ae                	mv	a3,a1
    7684:	8d2a                	mv	s10,a0
    7686:	8cae                	mv	s9,a1
    7688:	8522                	mv	a0,s0
    768a:	85e2                	mv	a1,s8
    768c:	3c3020ef          	jal	ra,a24e <__subdf3>
    7690:	8652                	mv	a2,s4
    7692:	86d6                	mv	a3,s5
    7694:	3bb020ef          	jal	ra,a24e <__subdf3>
    7698:	00006797          	auipc	a5,0x6
    769c:	e5078793          	addi	a5,a5,-432 # d4e8 <atanlo+0x1a0>
    76a0:	4390                	lw	a2,0(a5)
    76a2:	43d4                	lw	a3,4(a5)
    76a4:	8a2a                	mv	s4,a0
    76a6:	8aae                	mv	s5,a1
    76a8:	855a                	mv	a0,s6
    76aa:	85de                	mv	a1,s7
    76ac:	6ea020ef          	jal	ra,9d96 <__muldf3>
    76b0:	8652                	mv	a2,s4
    76b2:	86d6                	mv	a3,s5
    76b4:	39b020ef          	jal	ra,a24e <__subdf3>
    76b8:	862a                	mv	a2,a0
    76ba:	86ae                	mv	a3,a1
    76bc:	8a2a                	mv	s4,a0
    76be:	8aae                	mv	s5,a1
    76c0:	856a                	mv	a0,s10
    76c2:	85e6                	mv	a1,s9
    76c4:	38b020ef          	jal	ra,a24e <__subdf3>
    76c8:	8daa                	mv	s11,a0
    76ca:	8c2e                	mv	s8,a1
    76cc:	00a9a023          	sw	a0,0(s3)
    76d0:	00b9a223          	sw	a1,4(s3)
    76d4:	b56d                	j	757e <__ieee754_rem_pio2+0x29e>
    76d6:	00f010ef          	jal	ra,8ee4 <__adddf3>
    76da:	3ff927b7          	lui	a5,0x3ff92
    76de:	1fb78793          	addi	a5,a5,507 # 3ff921fb <__freertos_irq_stack_top+0x1ff8d1fb>
    76e2:	8a2a                	mv	s4,a0
    76e4:	8aae                	mv	s5,a1
    76e6:	02f40e63          	beq	s0,a5,7722 <__ieee754_rem_pio2+0x442>
    76ea:	00006417          	auipc	s0,0x6
    76ee:	dd640413          	addi	s0,s0,-554 # d4c0 <atanlo+0x178>
    76f2:	4010                	lw	a2,0(s0)
    76f4:	4054                	lw	a3,4(s0)
    76f6:	54fd                	li	s1,-1
    76f8:	7ec010ef          	jal	ra,8ee4 <__adddf3>
    76fc:	862a                	mv	a2,a0
    76fe:	86ae                	mv	a3,a1
    7700:	00a9a023          	sw	a0,0(s3)
    7704:	00b9a223          	sw	a1,4(s3)
    7708:	8552                	mv	a0,s4
    770a:	85d6                	mv	a1,s5
    770c:	343020ef          	jal	ra,a24e <__subdf3>
    7710:	4010                	lw	a2,0(s0)
    7712:	4054                	lw	a3,4(s0)
    7714:	7d0010ef          	jal	ra,8ee4 <__adddf3>
    7718:	00a9a423          	sw	a0,8(s3)
    771c:	00b9a623          	sw	a1,12(s3)
    7720:	b999                	j	7376 <__ieee754_rem_pio2+0x96>
    7722:	00006797          	auipc	a5,0x6
    7726:	da678793          	addi	a5,a5,-602 # d4c8 <atanlo+0x180>
    772a:	4390                	lw	a2,0(a5)
    772c:	43d4                	lw	a3,4(a5)
    772e:	00006417          	auipc	s0,0x6
    7732:	da240413          	addi	s0,s0,-606 # d4d0 <atanlo+0x188>
    7736:	54fd                	li	s1,-1
    7738:	7ac010ef          	jal	ra,8ee4 <__adddf3>
    773c:	8a2a                	mv	s4,a0
    773e:	8aae                	mv	s5,a1
    7740:	4010                	lw	a2,0(s0)
    7742:	4054                	lw	a3,4(s0)
    7744:	bf55                	j	76f8 <__ieee754_rem_pio2+0x418>

00007746 <__ieee754_sqrt>:
    7746:	1141                	addi	sp,sp,-16
    7748:	7ff00737          	lui	a4,0x7ff00
    774c:	c422                	sw	s0,8(sp)
    774e:	c226                	sw	s1,4(sp)
    7750:	c606                	sw	ra,12(sp)
    7752:	00b77833          	and	a6,a4,a1
    7756:	842e                	mv	s0,a1
    7758:	84aa                	mv	s1,a0
    775a:	16e80d63          	beq	a6,a4,78d4 <__ieee754_sqrt+0x18e>
    775e:	87ae                	mv	a5,a1
    7760:	86aa                	mv	a3,a0
    7762:	0eb05f63          	blez	a1,7860 <__ieee754_sqrt+0x11a>
    7766:	4145de13          	srai	t3,a1,0x14
    776a:	1a0e0163          	beqz	t3,790c <__ieee754_sqrt+0x1c6>
    776e:	00100737          	lui	a4,0x100
    7772:	fff70613          	addi	a2,a4,-1 # fffff <_data_lma+0xf259b>
    7776:	8ff1                	and	a5,a5,a2
    7778:	8fd9                	or	a5,a5,a4
    777a:	c01e0e13          	addi	t3,t3,-1023
    777e:	00179713          	slli	a4,a5,0x1
    7782:	001e7613          	andi	a2,t3,1
    7786:	01f6d793          	srli	a5,a3,0x1f
    778a:	97ba                	add	a5,a5,a4
    778c:	00169713          	slli	a4,a3,0x1
    7790:	c611                	beqz	a2,779c <__ieee754_sqrt+0x56>
    7792:	837d                	srli	a4,a4,0x1f
    7794:	0786                	slli	a5,a5,0x1
    7796:	97ba                	add	a5,a5,a4
    7798:	00269713          	slli	a4,a3,0x2
    779c:	401e5e13          	srai	t3,t3,0x1
    77a0:	45d9                	li	a1,22
    77a2:	4e81                	li	t4,0
    77a4:	4681                	li	a3,0
    77a6:	00200637          	lui	a2,0x200
    77aa:	00c68533          	add	a0,a3,a2
    77ae:	01f75813          	srli	a6,a4,0x1f
    77b2:	15fd                	addi	a1,a1,-1
    77b4:	00a7c663          	blt	a5,a0,77c0 <__ieee754_sqrt+0x7a>
    77b8:	8f89                	sub	a5,a5,a0
    77ba:	00c506b3          	add	a3,a0,a2
    77be:	9eb2                	add	t4,t4,a2
    77c0:	0786                	slli	a5,a5,0x1
    77c2:	97c2                	add	a5,a5,a6
    77c4:	0706                	slli	a4,a4,0x1
    77c6:	8205                	srli	a2,a2,0x1
    77c8:	f1ed                	bnez	a1,77aa <__ieee754_sqrt+0x64>
    77ca:	02000513          	li	a0,32
    77ce:	4301                	li	t1,0
    77d0:	4881                	li	a7,0
    77d2:	80000637          	lui	a2,0x80000
    77d6:	a819                	j	77ec <__ieee754_sqrt+0xa6>
    77d8:	0ed78563          	beq	a5,a3,78c2 <__ieee754_sqrt+0x17c>
    77dc:	01f75593          	srli	a1,a4,0x1f
    77e0:	0786                	slli	a5,a5,0x1
    77e2:	157d                	addi	a0,a0,-1
    77e4:	97ae                	add	a5,a5,a1
    77e6:	0706                	slli	a4,a4,0x1
    77e8:	8205                	srli	a2,a2,0x1
    77ea:	c90d                	beqz	a0,781c <__ieee754_sqrt+0xd6>
    77ec:	011605b3          	add	a1,a2,a7
    77f0:	fef6d4e3          	bge	a3,a5,77d8 <__ieee754_sqrt+0x92>
    77f4:	00c588b3          	add	a7,a1,a2
    77f8:	8836                	mv	a6,a3
    77fa:	0a05ce63          	bltz	a1,78b6 <__ieee754_sqrt+0x170>
    77fe:	8f95                	sub	a5,a5,a3
    7800:	00b736b3          	sltu	a3,a4,a1
    7804:	8f95                	sub	a5,a5,a3
    7806:	8f0d                	sub	a4,a4,a1
    7808:	01f75593          	srli	a1,a4,0x1f
    780c:	0786                	slli	a5,a5,0x1
    780e:	157d                	addi	a0,a0,-1
    7810:	9332                	add	t1,t1,a2
    7812:	86c2                	mv	a3,a6
    7814:	97ae                	add	a5,a5,a1
    7816:	0706                	slli	a4,a4,0x1
    7818:	8205                	srli	a2,a2,0x1
    781a:	f969                	bnez	a0,77ec <__ieee754_sqrt+0xa6>
    781c:	8fd9                	or	a5,a5,a4
    781e:	00135493          	srli	s1,t1,0x1
    7822:	cb89                	beqz	a5,7834 <__ieee754_sqrt+0xee>
    7824:	00130493          	addi	s1,t1,1 # 7ff00001 <__freertos_irq_stack_top+0x5fefb001>
    7828:	57fd                	li	a5,-1
    782a:	8085                	srli	s1,s1,0x1
    782c:	00f31463          	bne	t1,a5,7834 <__ieee754_sqrt+0xee>
    7830:	0e85                	addi	t4,t4,1
    7832:	4481                	li	s1,0
    7834:	401ed713          	srai	a4,t4,0x1
    7838:	3fe00437          	lui	s0,0x3fe00
    783c:	001efe93          	andi	t4,t4,1
    7840:	943a                	add	s0,s0,a4
    7842:	000e8563          	beqz	t4,784c <__ieee754_sqrt+0x106>
    7846:	800007b7          	lui	a5,0x80000
    784a:	8cdd                	or	s1,s1,a5
    784c:	014e1713          	slli	a4,t3,0x14
    7850:	9722                	add	a4,a4,s0
    7852:	40b2                	lw	ra,12(sp)
    7854:	4422                	lw	s0,8(sp)
    7856:	8526                	mv	a0,s1
    7858:	85ba                	mv	a1,a4
    785a:	4492                	lw	s1,4(sp)
    785c:	0141                	addi	sp,sp,16
    785e:	8082                	ret
    7860:	00159713          	slli	a4,a1,0x1
    7864:	8305                	srli	a4,a4,0x1
    7866:	00a76833          	or	a6,a4,a0
    786a:	872e                	mv	a4,a1
    786c:	fe0803e3          	beqz	a6,7852 <__ieee754_sqrt+0x10c>
    7870:	e1d9                	bnez	a1,78f6 <__ieee754_sqrt+0x1b0>
    7872:	00b6d593          	srli	a1,a3,0xb
    7876:	17ad                	addi	a5,a5,-21
    7878:	872e                	mv	a4,a1
    787a:	06d6                	slli	a3,a3,0x15
    787c:	d9fd                	beqz	a1,7872 <__ieee754_sqrt+0x12c>
    787e:	0145d613          	srli	a2,a1,0x14
    7882:	ea41                	bnez	a2,7912 <__ieee754_sqrt+0x1cc>
    7884:	4601                	li	a2,0
    7886:	a011                	j	788a <__ieee754_sqrt+0x144>
    7888:	862a                	mv	a2,a0
    788a:	0706                	slli	a4,a4,0x1
    788c:	00b71593          	slli	a1,a4,0xb
    7890:	00160513          	addi	a0,a2,1 # 80000001 <__freertos_irq_stack_top+0x5fffb001>
    7894:	fe05dae3          	bgez	a1,7888 <__ieee754_sqrt+0x142>
    7898:	02000893          	li	a7,32
    789c:	8836                	mv	a6,a3
    789e:	40a888b3          	sub	a7,a7,a0
    78a2:	85ba                	mv	a1,a4
    78a4:	00a696b3          	sll	a3,a3,a0
    78a8:	01185733          	srl	a4,a6,a7
    78ac:	40c78e33          	sub	t3,a5,a2
    78b0:	00b767b3          	or	a5,a4,a1
    78b4:	bd6d                	j	776e <__ieee754_sqrt+0x28>
    78b6:	fff8c813          	not	a6,a7
    78ba:	01f85813          	srli	a6,a6,0x1f
    78be:	9836                	add	a6,a6,a3
    78c0:	bf3d                	j	77fe <__ieee754_sqrt+0xb8>
    78c2:	f0b76de3          	bltu	a4,a1,77dc <__ieee754_sqrt+0x96>
    78c6:	00c588b3          	add	a7,a1,a2
    78ca:	fe05c6e3          	bltz	a1,78b6 <__ieee754_sqrt+0x170>
    78ce:	883e                	mv	a6,a5
    78d0:	4781                	li	a5,0
    78d2:	bf15                	j	7806 <__ieee754_sqrt+0xc0>
    78d4:	862a                	mv	a2,a0
    78d6:	86ae                	mv	a3,a1
    78d8:	4be020ef          	jal	ra,9d96 <__muldf3>
    78dc:	8626                	mv	a2,s1
    78de:	86a2                	mv	a3,s0
    78e0:	604010ef          	jal	ra,8ee4 <__adddf3>
    78e4:	40b2                	lw	ra,12(sp)
    78e6:	4422                	lw	s0,8(sp)
    78e8:	84aa                	mv	s1,a0
    78ea:	872e                	mv	a4,a1
    78ec:	8526                	mv	a0,s1
    78ee:	85ba                	mv	a1,a4
    78f0:	4492                	lw	s1,4(sp)
    78f2:	0141                	addi	sp,sp,16
    78f4:	8082                	ret
    78f6:	862a                	mv	a2,a0
    78f8:	86ae                	mv	a3,a1
    78fa:	155020ef          	jal	ra,a24e <__subdf3>
    78fe:	862a                	mv	a2,a0
    7900:	86ae                	mv	a3,a1
    7902:	513010ef          	jal	ra,9614 <__divdf3>
    7906:	84aa                	mv	s1,a0
    7908:	872e                	mv	a4,a1
    790a:	b7a1                	j	7852 <__ieee754_sqrt+0x10c>
    790c:	872e                	mv	a4,a1
    790e:	4781                	li	a5,0
    7910:	bf95                	j	7884 <__ieee754_sqrt+0x13e>
    7912:	8836                	mv	a6,a3
    7914:	02000893          	li	a7,32
    7918:	567d                	li	a2,-1
    791a:	b779                	j	78a8 <__ieee754_sqrt+0x162>

0000791c <__kernel_cos>:
    791c:	7139                	addi	sp,sp,-64
    791e:	d05a                	sw	s6,32(sp)
    7920:	00159b13          	slli	s6,a1,0x1
    7924:	d84a                	sw	s2,48(sp)
    7926:	d64e                	sw	s3,44(sp)
    7928:	cc62                	sw	s8,24(sp)
    792a:	ca66                	sw	s9,20(sp)
    792c:	de06                	sw	ra,60(sp)
    792e:	dc22                	sw	s0,56(sp)
    7930:	da26                	sw	s1,52(sp)
    7932:	d452                	sw	s4,40(sp)
    7934:	d256                	sw	s5,36(sp)
    7936:	ce5e                	sw	s7,28(sp)
    7938:	c86a                	sw	s10,16(sp)
    793a:	c66e                	sw	s11,12(sp)
    793c:	001b5b13          	srli	s6,s6,0x1
    7940:	3e4007b7          	lui	a5,0x3e400
    7944:	8c2e                	mv	s8,a1
    7946:	8caa                	mv	s9,a0
    7948:	8932                	mv	s2,a2
    794a:	89b6                	mv	s3,a3
    794c:	10fb5563          	bge	s6,a5,7a56 <__kernel_cos+0x13a>
    7950:	078030ef          	jal	ra,a9c8 <__fixdfsi>
    7954:	26050963          	beqz	a0,7bc6 <__kernel_cos+0x2aa>
    7958:	8666                	mv	a2,s9
    795a:	86e2                	mv	a3,s8
    795c:	8566                	mv	a0,s9
    795e:	85e2                	mv	a1,s8
    7960:	436020ef          	jal	ra,9d96 <__muldf3>
    7964:	00006797          	auipc	a5,0x6
    7968:	d2c78793          	addi	a5,a5,-724 # d690 <two_over_pi+0x118>
    796c:	4390                	lw	a2,0(a5)
    796e:	43d4                	lw	a3,4(a5)
    7970:	842a                	mv	s0,a0
    7972:	84ae                	mv	s1,a1
    7974:	422020ef          	jal	ra,9d96 <__muldf3>
    7978:	00006797          	auipc	a5,0x6
    797c:	d2078793          	addi	a5,a5,-736 # d698 <two_over_pi+0x120>
    7980:	4390                	lw	a2,0(a5)
    7982:	43d4                	lw	a3,4(a5)
    7984:	560010ef          	jal	ra,8ee4 <__adddf3>
    7988:	8622                	mv	a2,s0
    798a:	86a6                	mv	a3,s1
    798c:	40a020ef          	jal	ra,9d96 <__muldf3>
    7990:	00006797          	auipc	a5,0x6
    7994:	d1078793          	addi	a5,a5,-752 # d6a0 <two_over_pi+0x128>
    7998:	4390                	lw	a2,0(a5)
    799a:	43d4                	lw	a3,4(a5)
    799c:	0b3020ef          	jal	ra,a24e <__subdf3>
    79a0:	8622                	mv	a2,s0
    79a2:	86a6                	mv	a3,s1
    79a4:	3f2020ef          	jal	ra,9d96 <__muldf3>
    79a8:	00006797          	auipc	a5,0x6
    79ac:	d0078793          	addi	a5,a5,-768 # d6a8 <two_over_pi+0x130>
    79b0:	4390                	lw	a2,0(a5)
    79b2:	43d4                	lw	a3,4(a5)
    79b4:	530010ef          	jal	ra,8ee4 <__adddf3>
    79b8:	8622                	mv	a2,s0
    79ba:	86a6                	mv	a3,s1
    79bc:	3da020ef          	jal	ra,9d96 <__muldf3>
    79c0:	00006797          	auipc	a5,0x6
    79c4:	cf078793          	addi	a5,a5,-784 # d6b0 <two_over_pi+0x138>
    79c8:	4390                	lw	a2,0(a5)
    79ca:	43d4                	lw	a3,4(a5)
    79cc:	083020ef          	jal	ra,a24e <__subdf3>
    79d0:	8622                	mv	a2,s0
    79d2:	86a6                	mv	a3,s1
    79d4:	3c2020ef          	jal	ra,9d96 <__muldf3>
    79d8:	00006797          	auipc	a5,0x6
    79dc:	ce078793          	addi	a5,a5,-800 # d6b8 <two_over_pi+0x140>
    79e0:	4390                	lw	a2,0(a5)
    79e2:	43d4                	lw	a3,4(a5)
    79e4:	500010ef          	jal	ra,8ee4 <__adddf3>
    79e8:	8622                	mv	a2,s0
    79ea:	86a6                	mv	a3,s1
    79ec:	3aa020ef          	jal	ra,9d96 <__muldf3>
    79f0:	8a2a                	mv	s4,a0
    79f2:	8aae                	mv	s5,a1
    79f4:	00005797          	auipc	a5,0x5
    79f8:	79478793          	addi	a5,a5,1940 # d188 <_read+0x16e>
    79fc:	4390                	lw	a2,0(a5)
    79fe:	43d4                	lw	a3,4(a5)
    7a00:	8522                	mv	a0,s0
    7a02:	85a6                	mv	a1,s1
    7a04:	392020ef          	jal	ra,9d96 <__muldf3>
    7a08:	8b2a                	mv	s6,a0
    7a0a:	8bae                	mv	s7,a1
    7a0c:	8652                	mv	a2,s4
    7a0e:	86d6                	mv	a3,s5
    7a10:	8522                	mv	a0,s0
    7a12:	85a6                	mv	a1,s1
    7a14:	382020ef          	jal	ra,9d96 <__muldf3>
    7a18:	842a                	mv	s0,a0
    7a1a:	84ae                	mv	s1,a1
    7a1c:	864a                	mv	a2,s2
    7a1e:	86ce                	mv	a3,s3
    7a20:	8566                	mv	a0,s9
    7a22:	85e2                	mv	a1,s8
    7a24:	372020ef          	jal	ra,9d96 <__muldf3>
    7a28:	862a                	mv	a2,a0
    7a2a:	86ae                	mv	a3,a1
    7a2c:	8522                	mv	a0,s0
    7a2e:	85a6                	mv	a1,s1
    7a30:	01f020ef          	jal	ra,a24e <__subdf3>
    7a34:	862a                	mv	a2,a0
    7a36:	86ae                	mv	a3,a1
    7a38:	855a                	mv	a0,s6
    7a3a:	85de                	mv	a1,s7
    7a3c:	013020ef          	jal	ra,a24e <__subdf3>
    7a40:	00005797          	auipc	a5,0x5
    7a44:	7f078793          	addi	a5,a5,2032 # d230 <_read+0x216>
    7a48:	862a                	mv	a2,a0
    7a4a:	86ae                	mv	a3,a1
    7a4c:	4388                	lw	a0,0(a5)
    7a4e:	43cc                	lw	a1,4(a5)
    7a50:	7fe020ef          	jal	ra,a24e <__subdf3>
    7a54:	aa0d                	j	7b86 <__kernel_cos+0x26a>
    7a56:	862a                	mv	a2,a0
    7a58:	86ae                	mv	a3,a1
    7a5a:	33c020ef          	jal	ra,9d96 <__muldf3>
    7a5e:	00006797          	auipc	a5,0x6
    7a62:	c3278793          	addi	a5,a5,-974 # d690 <two_over_pi+0x118>
    7a66:	4390                	lw	a2,0(a5)
    7a68:	43d4                	lw	a3,4(a5)
    7a6a:	842a                	mv	s0,a0
    7a6c:	84ae                	mv	s1,a1
    7a6e:	328020ef          	jal	ra,9d96 <__muldf3>
    7a72:	00006797          	auipc	a5,0x6
    7a76:	c2678793          	addi	a5,a5,-986 # d698 <two_over_pi+0x120>
    7a7a:	4390                	lw	a2,0(a5)
    7a7c:	43d4                	lw	a3,4(a5)
    7a7e:	466010ef          	jal	ra,8ee4 <__adddf3>
    7a82:	8622                	mv	a2,s0
    7a84:	86a6                	mv	a3,s1
    7a86:	310020ef          	jal	ra,9d96 <__muldf3>
    7a8a:	00006797          	auipc	a5,0x6
    7a8e:	c1678793          	addi	a5,a5,-1002 # d6a0 <two_over_pi+0x128>
    7a92:	4390                	lw	a2,0(a5)
    7a94:	43d4                	lw	a3,4(a5)
    7a96:	7b8020ef          	jal	ra,a24e <__subdf3>
    7a9a:	8622                	mv	a2,s0
    7a9c:	86a6                	mv	a3,s1
    7a9e:	2f8020ef          	jal	ra,9d96 <__muldf3>
    7aa2:	00006797          	auipc	a5,0x6
    7aa6:	c0678793          	addi	a5,a5,-1018 # d6a8 <two_over_pi+0x130>
    7aaa:	4390                	lw	a2,0(a5)
    7aac:	43d4                	lw	a3,4(a5)
    7aae:	436010ef          	jal	ra,8ee4 <__adddf3>
    7ab2:	8622                	mv	a2,s0
    7ab4:	86a6                	mv	a3,s1
    7ab6:	2e0020ef          	jal	ra,9d96 <__muldf3>
    7aba:	00006797          	auipc	a5,0x6
    7abe:	bf678793          	addi	a5,a5,-1034 # d6b0 <two_over_pi+0x138>
    7ac2:	4390                	lw	a2,0(a5)
    7ac4:	43d4                	lw	a3,4(a5)
    7ac6:	788020ef          	jal	ra,a24e <__subdf3>
    7aca:	8622                	mv	a2,s0
    7acc:	86a6                	mv	a3,s1
    7ace:	2c8020ef          	jal	ra,9d96 <__muldf3>
    7ad2:	00006797          	auipc	a5,0x6
    7ad6:	be678793          	addi	a5,a5,-1050 # d6b8 <two_over_pi+0x140>
    7ada:	4390                	lw	a2,0(a5)
    7adc:	43d4                	lw	a3,4(a5)
    7ade:	406010ef          	jal	ra,8ee4 <__adddf3>
    7ae2:	8622                	mv	a2,s0
    7ae4:	86a6                	mv	a3,s1
    7ae6:	2b0020ef          	jal	ra,9d96 <__muldf3>
    7aea:	3fd337b7          	lui	a5,0x3fd33
    7aee:	33278793          	addi	a5,a5,818 # 3fd33332 <__freertos_irq_stack_top+0x1fd2e332>
    7af2:	8a2a                	mv	s4,a0
    7af4:	8aae                	mv	s5,a1
    7af6:	ef67dfe3          	bge	a5,s6,79f4 <__kernel_cos+0xd8>
    7afa:	3fe907b7          	lui	a5,0x3fe90
    7afe:	0b67c363          	blt	a5,s6,7ba4 <__kernel_cos+0x288>
    7b02:	00005717          	auipc	a4,0x5
    7b06:	72e70713          	addi	a4,a4,1838 # d230 <_read+0x216>
    7b0a:	ffe007b7          	lui	a5,0xffe00
    7b0e:	4308                	lw	a0,0(a4)
    7b10:	434c                	lw	a1,4(a4)
    7b12:	9b3e                	add	s6,s6,a5
    7b14:	4781                	li	a5,0
    7b16:	86da                	mv	a3,s6
    7b18:	863e                	mv	a2,a5
    7b1a:	8d3e                	mv	s10,a5
    7b1c:	732020ef          	jal	ra,a24e <__subdf3>
    7b20:	8dda                	mv	s11,s6
    7b22:	8bae                	mv	s7,a1
    7b24:	8b2a                	mv	s6,a0
    7b26:	00005797          	auipc	a5,0x5
    7b2a:	66278793          	addi	a5,a5,1634 # d188 <_read+0x16e>
    7b2e:	4390                	lw	a2,0(a5)
    7b30:	43d4                	lw	a3,4(a5)
    7b32:	8522                	mv	a0,s0
    7b34:	85a6                	mv	a1,s1
    7b36:	260020ef          	jal	ra,9d96 <__muldf3>
    7b3a:	866a                	mv	a2,s10
    7b3c:	86ee                	mv	a3,s11
    7b3e:	710020ef          	jal	ra,a24e <__subdf3>
    7b42:	8d2a                	mv	s10,a0
    7b44:	8dae                	mv	s11,a1
    7b46:	8652                	mv	a2,s4
    7b48:	86d6                	mv	a3,s5
    7b4a:	8522                	mv	a0,s0
    7b4c:	85a6                	mv	a1,s1
    7b4e:	248020ef          	jal	ra,9d96 <__muldf3>
    7b52:	842a                	mv	s0,a0
    7b54:	84ae                	mv	s1,a1
    7b56:	864a                	mv	a2,s2
    7b58:	86ce                	mv	a3,s3
    7b5a:	8566                	mv	a0,s9
    7b5c:	85e2                	mv	a1,s8
    7b5e:	238020ef          	jal	ra,9d96 <__muldf3>
    7b62:	862a                	mv	a2,a0
    7b64:	86ae                	mv	a3,a1
    7b66:	8522                	mv	a0,s0
    7b68:	85a6                	mv	a1,s1
    7b6a:	6e4020ef          	jal	ra,a24e <__subdf3>
    7b6e:	862a                	mv	a2,a0
    7b70:	86ae                	mv	a3,a1
    7b72:	856a                	mv	a0,s10
    7b74:	85ee                	mv	a1,s11
    7b76:	6d8020ef          	jal	ra,a24e <__subdf3>
    7b7a:	862a                	mv	a2,a0
    7b7c:	86ae                	mv	a3,a1
    7b7e:	855a                	mv	a0,s6
    7b80:	85de                	mv	a1,s7
    7b82:	6cc020ef          	jal	ra,a24e <__subdf3>
    7b86:	50f2                	lw	ra,60(sp)
    7b88:	5462                	lw	s0,56(sp)
    7b8a:	54d2                	lw	s1,52(sp)
    7b8c:	5942                	lw	s2,48(sp)
    7b8e:	59b2                	lw	s3,44(sp)
    7b90:	5a22                	lw	s4,40(sp)
    7b92:	5a92                	lw	s5,36(sp)
    7b94:	5b02                	lw	s6,32(sp)
    7b96:	4bf2                	lw	s7,28(sp)
    7b98:	4c62                	lw	s8,24(sp)
    7b9a:	4cd2                	lw	s9,20(sp)
    7b9c:	4d42                	lw	s10,16(sp)
    7b9e:	4db2                	lw	s11,12(sp)
    7ba0:	6121                	addi	sp,sp,64
    7ba2:	8082                	ret
    7ba4:	00006797          	auipc	a5,0x6
    7ba8:	adc78793          	addi	a5,a5,-1316 # d680 <two_over_pi+0x108>
    7bac:	0007ab03          	lw	s6,0(a5)
    7bb0:	0047ab83          	lw	s7,4(a5)
    7bb4:	00006797          	auipc	a5,0x6
    7bb8:	ad478793          	addi	a5,a5,-1324 # d688 <two_over_pi+0x110>
    7bbc:	0007ad03          	lw	s10,0(a5)
    7bc0:	0047ad83          	lw	s11,4(a5)
    7bc4:	b78d                	j	7b26 <__kernel_cos+0x20a>
    7bc6:	00005797          	auipc	a5,0x5
    7bca:	66a78793          	addi	a5,a5,1642 # d230 <_read+0x216>
    7bce:	4388                	lw	a0,0(a5)
    7bd0:	43cc                	lw	a1,4(a5)
    7bd2:	bf55                	j	7b86 <__kernel_cos+0x26a>

00007bd4 <__kernel_rem_pio2>:
    7bd4:	d5010113          	addi	sp,sp,-688
    7bd8:	29312e23          	sw	s3,668(sp)
    7bdc:	89b6                	mv	s3,a3
    7bde:	00271813          	slli	a6,a4,0x2
    7be2:	dc3a                	sw	a4,56(sp)
    7be4:	d43e                	sw	a5,40(sp)
    7be6:	00006717          	auipc	a4,0x6
    7bea:	b3a70713          	addi	a4,a4,-1222 # d720 <init_jk>
    7bee:	fff98793          	addi	a5,s3,-1
    7bf2:	27b12e23          	sw	s11,636(sp)
    7bf6:	9742                	add	a4,a4,a6
    7bf8:	2a112623          	sw	ra,684(sp)
    7bfc:	2a812423          	sw	s0,680(sp)
    7c00:	2a912223          	sw	s1,676(sp)
    7c04:	2b212023          	sw	s2,672(sp)
    7c08:	29412c23          	sw	s4,664(sp)
    7c0c:	29512a23          	sw	s5,660(sp)
    7c10:	29612823          	sw	s6,656(sp)
    7c14:	29712623          	sw	s7,652(sp)
    7c18:	29812423          	sw	s8,648(sp)
    7c1c:	29912223          	sw	s9,644(sp)
    7c20:	29a12023          	sw	s10,640(sp)
    7c24:	56b1                	li	a3,-20
    7c26:	d22a                	sw	a0,36(sp)
    7c28:	da2e                	sw	a1,52(sp)
    7c2a:	c83e                	sw	a5,16(sp)
    7c2c:	00072d83          	lw	s11,0(a4)
    7c30:	00d644e3          	blt	a2,a3,8438 <__kernel_rem_pio2+0x864>
    7c34:	ffd60713          	addi	a4,a2,-3
    7c38:	47e1                	li	a5,24
    7c3a:	02f747b3          	div	a5,a4,a5
    7c3e:	d03e                	sw	a5,32(sp)
    7c40:	0785                	addi	a5,a5,1
    7c42:	00279713          	slli	a4,a5,0x2
    7c46:	8f99                	sub	a5,a5,a4
    7c48:	078e                	slli	a5,a5,0x3
    7c4a:	5582                	lw	a1,32(sp)
    7c4c:	fff98693          	addi	a3,s3,-1
    7c50:	00dd8733          	add	a4,s11,a3
    7c54:	97b2                	add	a5,a5,a2
    7c56:	40d58433          	sub	s0,a1,a3
    7c5a:	00170913          	addi	s2,a4,1
    7c5e:	ca3e                	sw	a5,20(sp)
    7c60:	0904                	addi	s1,sp,144
    7c62:	9922                	add	s2,s2,s0
    7c64:	02074363          	bltz	a4,7c8a <__kernel_rem_pio2+0xb6>
    7c68:	5a22                	lw	s4,40(sp)
    7c6a:	00241793          	slli	a5,s0,0x2
    7c6e:	97d2                	add	a5,a5,s4
    7c70:	4501                	li	a0,0
    7c72:	4581                	li	a1,0
    7c74:	00044563          	bltz	s0,7c7e <__kernel_rem_pio2+0xaa>
    7c78:	4388                	lw	a0,0(a5)
    7c7a:	5b7020ef          	jal	ra,aa30 <__floatsidf>
    7c7e:	c088                	sw	a0,0(s1)
    7c80:	c0cc                	sw	a1,4(s1)
    7c82:	0405                	addi	s0,s0,1
    7c84:	04a1                	addi	s1,s1,8
    7c86:	ff2412e3          	bne	s0,s2,7c6a <__kernel_rem_pio2+0x96>
    7c8a:	060dc463          	bltz	s11,7cf2 <__kernel_rem_pio2+0x11e>
    7c8e:	4bc2                	lw	s7,16(sp)
    7c90:	5d12                	lw	s10,36(sp)
    7c92:	091c                	addi	a5,sp,144
    7c94:	003b9913          	slli	s2,s7,0x3
    7c98:	00890413          	addi	s0,s2,8
    7c9c:	003d9a13          	slli	s4,s11,0x3
    7ca0:	993e                	add	s2,s2,a5
    7ca2:	0bbc                	addi	a5,sp,472
    7ca4:	0b84                	addi	s1,sp,464
    7ca6:	9a3e                	add	s4,s4,a5
    7ca8:	946a                	add	s0,s0,s10
    7caa:	8b4a                	mv	s6,s2
    7cac:	8aea                	mv	s5,s10
    7cae:	4c01                	li	s8,0
    7cb0:	4c81                	li	s9,0
    7cb2:	020bc863          	bltz	s7,7ce2 <__kernel_rem_pio2+0x10e>
    7cb6:	000b2603          	lw	a2,0(s6)
    7cba:	004b2683          	lw	a3,4(s6)
    7cbe:	000aa503          	lw	a0,0(s5)
    7cc2:	004aa583          	lw	a1,4(s5)
    7cc6:	0aa1                	addi	s5,s5,8
    7cc8:	1b61                	addi	s6,s6,-8
    7cca:	0cc020ef          	jal	ra,9d96 <__muldf3>
    7cce:	862a                	mv	a2,a0
    7cd0:	86ae                	mv	a3,a1
    7cd2:	8562                	mv	a0,s8
    7cd4:	85e6                	mv	a1,s9
    7cd6:	20e010ef          	jal	ra,8ee4 <__adddf3>
    7cda:	8c2a                	mv	s8,a0
    7cdc:	8cae                	mv	s9,a1
    7cde:	fc8a9ce3          	bne	s5,s0,7cb6 <__kernel_rem_pio2+0xe2>
    7ce2:	0184a023          	sw	s8,0(s1)
    7ce6:	0194a223          	sw	s9,4(s1)
    7cea:	04a1                	addi	s1,s1,8
    7cec:	0921                	addi	s2,s2,8
    7cee:	fb449ee3          	bne	s1,s4,7caa <__kernel_rem_pio2+0xd6>
    7cf2:	002d9713          	slli	a4,s11,0x2
    7cf6:	1870                	addi	a2,sp,60
    7cf8:	ff870693          	addi	a3,a4,-8
    7cfc:	00e60c33          	add	s8,a2,a4
    7d00:	0098                	addi	a4,sp,64
    7d02:	9736                	add	a4,a4,a3
    7d04:	d83a                	sw	a4,48(sp)
    7d06:	5712                	lw	a4,36(sp)
    7d08:	00399413          	slli	s0,s3,0x3
    7d0c:	fffd8793          	addi	a5,s11,-1
    7d10:	943a                	add	s0,s0,a4
    7d12:	20000737          	lui	a4,0x20000
    7d16:	177d                	addi	a4,a4,-1
    7d18:	cc3a                	sw	a4,24(sp)
    7d1a:	00800737          	lui	a4,0x800
    7d1e:	177d                	addi	a4,a4,-1
    7d20:	078a                	slli	a5,a5,0x2
    7d22:	de3a                	sw	a4,60(sp)
    7d24:	1c98                	addi	a4,sp,624
    7d26:	97ba                	add	a5,a5,a4
    7d28:	84ee                	mv	s1,s11
    7d2a:	1d010d13          	addi	s10,sp,464
    7d2e:	d63e                	sw	a5,44(sp)
    7d30:	ce6e                	sw	s11,28(sp)
    7d32:	00349793          	slli	a5,s1,0x3
    7d36:	1c98                	addi	a4,sp,624
    7d38:	97ba                	add	a5,a5,a4
    7d3a:	f607aa03          	lw	s4,-160(a5)
    7d3e:	f647aa83          	lw	s5,-156(a5)
    7d42:	08905663          	blez	s1,7dce <__kernel_rem_pio2+0x1fa>
    7d46:	47e2                	lw	a5,24(sp)
    7d48:	04010993          	addi	s3,sp,64
    7d4c:	00f48933          	add	s2,s1,a5
    7d50:	00006797          	auipc	a5,0x6
    7d54:	9b878793          	addi	a5,a5,-1608 # d708 <PIo2+0x48>
    7d58:	0047a803          	lw	a6,4(a5)
    7d5c:	439c                	lw	a5,0(a5)
    7d5e:	090e                	slli	s2,s2,0x3
    7d60:	c242                	sw	a6,4(sp)
    7d62:	c03e                	sw	a5,0(sp)
    7d64:	00005797          	auipc	a5,0x5
    7d68:	78c78793          	addi	a5,a5,1932 # d4f0 <atanlo+0x1a8>
    7d6c:	0047a803          	lw	a6,4(a5)
    7d70:	439c                	lw	a5,0(a5)
    7d72:	996a                	add	s2,s2,s10
    7d74:	c642                	sw	a6,12(sp)
    7d76:	c43e                	sw	a5,8(sp)
    7d78:	a011                	j	7d7c <__kernel_rem_pio2+0x1a8>
    7d7a:	893e                	mv	s2,a5
    7d7c:	4602                	lw	a2,0(sp)
    7d7e:	4692                	lw	a3,4(sp)
    7d80:	8552                	mv	a0,s4
    7d82:	85d6                	mv	a1,s5
    7d84:	012020ef          	jal	ra,9d96 <__muldf3>
    7d88:	441020ef          	jal	ra,a9c8 <__fixdfsi>
    7d8c:	4a5020ef          	jal	ra,aa30 <__floatsidf>
    7d90:	4622                	lw	a2,8(sp)
    7d92:	46b2                	lw	a3,12(sp)
    7d94:	8b2a                	mv	s6,a0
    7d96:	8bae                	mv	s7,a1
    7d98:	7ff010ef          	jal	ra,9d96 <__muldf3>
    7d9c:	862a                	mv	a2,a0
    7d9e:	86ae                	mv	a3,a1
    7da0:	8552                	mv	a0,s4
    7da2:	85d6                	mv	a1,s5
    7da4:	4aa020ef          	jal	ra,a24e <__subdf3>
    7da8:	421020ef          	jal	ra,a9c8 <__fixdfsi>
    7dac:	00092603          	lw	a2,0(s2)
    7db0:	00492683          	lw	a3,4(s2)
    7db4:	00a9a023          	sw	a0,0(s3)
    7db8:	85de                	mv	a1,s7
    7dba:	855a                	mv	a0,s6
    7dbc:	128010ef          	jal	ra,8ee4 <__adddf3>
    7dc0:	8a2a                	mv	s4,a0
    7dc2:	8aae                	mv	s5,a1
    7dc4:	ff890793          	addi	a5,s2,-8
    7dc8:	0991                	addi	s3,s3,4
    7dca:	fb2d18e3          	bne	s10,s2,7d7a <__kernel_rem_pio2+0x1a6>
    7dce:	4b52                	lw	s6,20(sp)
    7dd0:	85d6                	mv	a1,s5
    7dd2:	8552                	mv	a0,s4
    7dd4:	865a                	mv	a2,s6
    7dd6:	3e3000ef          	jal	ra,89b8 <scalbn>
    7dda:	00006797          	auipc	a5,0x6
    7dde:	93678793          	addi	a5,a5,-1738 # d710 <PIo2+0x50>
    7de2:	4390                	lw	a2,0(a5)
    7de4:	43d4                	lw	a3,4(a5)
    7de6:	892a                	mv	s2,a0
    7de8:	89ae                	mv	s3,a1
    7dea:	7ad010ef          	jal	ra,9d96 <__muldf3>
    7dee:	0e1000ef          	jal	ra,86ce <floor>
    7df2:	00006797          	auipc	a5,0x6
    7df6:	92678793          	addi	a5,a5,-1754 # d718 <PIo2+0x58>
    7dfa:	4390                	lw	a2,0(a5)
    7dfc:	43d4                	lw	a3,4(a5)
    7dfe:	799010ef          	jal	ra,9d96 <__muldf3>
    7e02:	862a                	mv	a2,a0
    7e04:	86ae                	mv	a3,a1
    7e06:	854a                	mv	a0,s2
    7e08:	85ce                	mv	a1,s3
    7e0a:	444020ef          	jal	ra,a24e <__subdf3>
    7e0e:	89ae                	mv	s3,a1
    7e10:	892a                	mv	s2,a0
    7e12:	3b7020ef          	jal	ra,a9c8 <__fixdfsi>
    7e16:	8aaa                	mv	s5,a0
    7e18:	419020ef          	jal	ra,aa30 <__floatsidf>
    7e1c:	862a                	mv	a2,a0
    7e1e:	86ae                	mv	a3,a1
    7e20:	854a                	mv	a0,s2
    7e22:	85ce                	mv	a1,s3
    7e24:	42a020ef          	jal	ra,a24e <__subdf3>
    7e28:	892a                	mv	s2,a0
    7e2a:	89ae                	mv	s3,a1
    7e2c:	13605763          	blez	s6,7f5a <__kernel_rem_pio2+0x386>
    7e30:	fff48793          	addi	a5,s1,-1
    7e34:	1c98                	addi	a4,sp,624
    7e36:	078a                	slli	a5,a5,0x2
    7e38:	97ba                	add	a5,a5,a4
    7e3a:	dd07aa03          	lw	s4,-560(a5)
    7e3e:	4761                	li	a4,24
    7e40:	41670733          	sub	a4,a4,s6
    7e44:	40ea56b3          	sra	a3,s4,a4
    7e48:	00e69733          	sll	a4,a3,a4
    7e4c:	40ea0733          	sub	a4,s4,a4
    7e50:	4a5d                	li	s4,23
    7e52:	416a0a33          	sub	s4,s4,s6
    7e56:	dce7a823          	sw	a4,-560(a5)
    7e5a:	41475a33          	sra	s4,a4,s4
    7e5e:	9ab6                	add	s5,s5,a3
    7e60:	11404b63          	bgtz	s4,7f76 <__kernel_rem_pio2+0x3a2>
    7e64:	4601                	li	a2,0
    7e66:	4681                	li	a3,0
    7e68:	854a                	mv	a0,s2
    7e6a:	85ce                	mv	a1,s3
    7e6c:	55d010ef          	jal	ra,9bc8 <__eqdf2>
    7e70:	1a051863          	bnez	a0,8020 <__kernel_rem_pio2+0x44c>
    7e74:	47f2                	lw	a5,28(sp)
    7e76:	fff48613          	addi	a2,s1,-1
    7e7a:	00f64f63          	blt	a2,a5,7e98 <__kernel_rem_pio2+0x2c4>
    7e7e:	00249793          	slli	a5,s1,0x2
    7e82:	0098                	addi	a4,sp,64
    7e84:	17f1                	addi	a5,a5,-4
    7e86:	97ba                	add	a5,a5,a4
    7e88:	4701                	li	a4,0
    7e8a:	4394                	lw	a3,0(a5)
    7e8c:	17f1                	addi	a5,a5,-4
    7e8e:	8f55                	or	a4,a4,a3
    7e90:	ff879de3          	bne	a5,s8,7e8a <__kernel_rem_pio2+0x2b6>
    7e94:	28071d63          	bnez	a4,812e <__kernel_rem_pio2+0x55a>
    7e98:	57b2                	lw	a5,44(sp)
    7e9a:	dd07a783          	lw	a5,-560(a5)
    7e9e:	28079363          	bnez	a5,8124 <__kernel_rem_pio2+0x550>
    7ea2:	57c2                	lw	a5,48(sp)
    7ea4:	4705                	li	a4,1
    7ea6:	17f1                	addi	a5,a5,-4
    7ea8:	43d4                	lw	a3,4(a5)
    7eaa:	0705                	addi	a4,a4,1
    7eac:	deed                	beqz	a3,7ea6 <__kernel_rem_pio2+0x2d2>
    7eae:	00148793          	addi	a5,s1,1
    7eb2:	8abe                	mv	s5,a5
    7eb4:	94ba                	add	s1,s1,a4
    7eb6:	4742                	lw	a4,16(sp)
    7eb8:	5d92                	lw	s11,36(sp)
    7eba:	c062                	sw	s8,0(sp)
    7ebc:	00f70933          	add	s2,a4,a5
    7ec0:	5702                	lw	a4,32(sp)
    7ec2:	00f70a33          	add	s4,a4,a5
    7ec6:	4762                	lw	a4,24(sp)
    7ec8:	078e                	slli	a5,a5,0x3
    7eca:	0a0a                	slli	s4,s4,0x2
    7ecc:	993a                	add	s2,s2,a4
    7ece:	5722                	lw	a4,40(sp)
    7ed0:	090e                	slli	s2,s2,0x3
    7ed2:	00fd09b3          	add	s3,s10,a5
    7ed6:	091c                	addi	a5,sp,144
    7ed8:	9a3a                	add	s4,s4,a4
    7eda:	993e                	add	s2,s2,a5
    7edc:	000a2503          	lw	a0,0(s4)
    7ee0:	351020ef          	jal	ra,aa30 <__floatsidf>
    7ee4:	47c2                	lw	a5,16(sp)
    7ee6:	00a92423          	sw	a0,8(s2)
    7eea:	00b92623          	sw	a1,12(s2)
    7eee:	0407c963          	bltz	a5,7f40 <__kernel_rem_pio2+0x36c>
    7ef2:	8bca                	mv	s7,s2
    7ef4:	8b6e                	mv	s6,s11
    7ef6:	4c01                	li	s8,0
    7ef8:	4c81                	li	s9,0
    7efa:	a031                	j	7f06 <__kernel_rem_pio2+0x332>
    7efc:	000ba503          	lw	a0,0(s7)
    7f00:	004ba583          	lw	a1,4(s7)
    7f04:	1be1                	addi	s7,s7,-8
    7f06:	000b2603          	lw	a2,0(s6)
    7f0a:	004b2683          	lw	a3,4(s6)
    7f0e:	0b21                	addi	s6,s6,8
    7f10:	687010ef          	jal	ra,9d96 <__muldf3>
    7f14:	862a                	mv	a2,a0
    7f16:	86ae                	mv	a3,a1
    7f18:	8562                	mv	a0,s8
    7f1a:	85e6                	mv	a1,s9
    7f1c:	7c9000ef          	jal	ra,8ee4 <__adddf3>
    7f20:	8c2a                	mv	s8,a0
    7f22:	8cae                	mv	s9,a1
    7f24:	fc8b1ce3          	bne	s6,s0,7efc <__kernel_rem_pio2+0x328>
    7f28:	0189a023          	sw	s8,0(s3)
    7f2c:	0199a223          	sw	s9,4(s3)
    7f30:	0a85                	addi	s5,s5,1
    7f32:	0a11                	addi	s4,s4,4
    7f34:	09a1                	addi	s3,s3,8
    7f36:	0921                	addi	s2,s2,8
    7f38:	fb54d2e3          	bge	s1,s5,7edc <__kernel_rem_pio2+0x308>
    7f3c:	4c02                	lw	s8,0(sp)
    7f3e:	bbd5                	j	7d32 <__kernel_rem_pio2+0x15e>
    7f40:	4c01                	li	s8,0
    7f42:	4c81                	li	s9,0
    7f44:	0189a023          	sw	s8,0(s3)
    7f48:	0199a223          	sw	s9,4(s3)
    7f4c:	0a85                	addi	s5,s5,1
    7f4e:	0a11                	addi	s4,s4,4
    7f50:	09a1                	addi	s3,s3,8
    7f52:	0921                	addi	s2,s2,8
    7f54:	f954d4e3          	bge	s1,s5,7edc <__kernel_rem_pio2+0x308>
    7f58:	b7d5                	j	7f3c <__kernel_rem_pio2+0x368>
    7f5a:	47d2                	lw	a5,20(sp)
    7f5c:	18079863          	bnez	a5,80ec <__kernel_rem_pio2+0x518>
    7f60:	fff48793          	addi	a5,s1,-1
    7f64:	078a                	slli	a5,a5,0x2
    7f66:	1c98                	addi	a4,sp,624
    7f68:	97ba                	add	a5,a5,a4
    7f6a:	dd07aa03          	lw	s4,-560(a5)
    7f6e:	417a5a13          	srai	s4,s4,0x17
    7f72:	ef4059e3          	blez	s4,7e64 <__kernel_rem_pio2+0x290>
    7f76:	0a85                	addi	s5,s5,1
    7f78:	4c905463          	blez	s1,8440 <__kernel_rem_pio2+0x86c>
    7f7c:	4806                	lw	a6,64(sp)
    7f7e:	4785                	li	a5,1
    7f80:	12081563          	bnez	a6,80aa <__kernel_rem_pio2+0x4d6>
    7f84:	00f48e63          	beq	s1,a5,7fa0 <__kernel_rem_pio2+0x3cc>
    7f88:	00d4                	addi	a3,sp,68
    7f8a:	4705                	li	a4,1
    7f8c:	0006a803          	lw	a6,0(a3) # 80000000 <__freertos_irq_stack_top+0x5fffb000>
    7f90:	00170793          	addi	a5,a4,1 # 800001 <_data_lma+0x7f259d>
    7f94:	0691                	addi	a3,a3,4
    7f96:	10081b63          	bnez	a6,80ac <__kernel_rem_pio2+0x4d8>
    7f9a:	873e                	mv	a4,a5
    7f9c:	fef498e3          	bne	s1,a5,7f8c <__kernel_rem_pio2+0x3b8>
    7fa0:	4752                	lw	a4,20(sp)
    7fa2:	02e05363          	blez	a4,7fc8 <__kernel_rem_pio2+0x3f4>
    7fa6:	4785                	li	a5,1
    7fa8:	46f70c63          	beq	a4,a5,8420 <__kernel_rem_pio2+0x84c>
    7fac:	4789                	li	a5,2
    7fae:	00f71d63          	bne	a4,a5,7fc8 <__kernel_rem_pio2+0x3f4>
    7fb2:	fff48793          	addi	a5,s1,-1
    7fb6:	1c98                	addi	a4,sp,624
    7fb8:	078a                	slli	a5,a5,0x2
    7fba:	97ba                	add	a5,a5,a4
    7fbc:	dd07a703          	lw	a4,-560(a5)
    7fc0:	072a                	slli	a4,a4,0xa
    7fc2:	8329                	srli	a4,a4,0xa
    7fc4:	dce7a823          	sw	a4,-560(a5)
    7fc8:	4789                	li	a5,2
    7fca:	e8fa1de3          	bne	s4,a5,7e64 <__kernel_rem_pio2+0x290>
    7fce:	00005797          	auipc	a5,0x5
    7fd2:	26278793          	addi	a5,a5,610 # d230 <_read+0x216>
    7fd6:	4388                	lw	a0,0(a5)
    7fd8:	43cc                	lw	a1,4(a5)
    7fda:	864a                	mv	a2,s2
    7fdc:	86ce                	mv	a3,s3
    7fde:	c042                	sw	a6,0(sp)
    7fe0:	26e020ef          	jal	ra,a24e <__subdf3>
    7fe4:	4802                	lw	a6,0(sp)
    7fe6:	892a                	mv	s2,a0
    7fe8:	89ae                	mv	s3,a1
    7fea:	e6080de3          	beqz	a6,7e64 <__kernel_rem_pio2+0x290>
    7fee:	00005797          	auipc	a5,0x5
    7ff2:	24278793          	addi	a5,a5,578 # d230 <_read+0x216>
    7ff6:	4388                	lw	a0,0(a5)
    7ff8:	43cc                	lw	a1,4(a5)
    7ffa:	4652                	lw	a2,20(sp)
    7ffc:	1bd000ef          	jal	ra,89b8 <scalbn>
    8000:	862a                	mv	a2,a0
    8002:	86ae                	mv	a3,a1
    8004:	854a                	mv	a0,s2
    8006:	85ce                	mv	a1,s3
    8008:	246020ef          	jal	ra,a24e <__subdf3>
    800c:	892a                	mv	s2,a0
    800e:	89ae                	mv	s3,a1
    8010:	4601                	li	a2,0
    8012:	4681                	li	a3,0
    8014:	854a                	mv	a0,s2
    8016:	85ce                	mv	a1,s3
    8018:	3b1010ef          	jal	ra,9bc8 <__eqdf2>
    801c:	e4050ce3          	beqz	a0,7e74 <__kernel_rem_pio2+0x2a0>
    8020:	4d52                	lw	s10,20(sp)
    8022:	854a                	mv	a0,s2
    8024:	85ce                	mv	a1,s3
    8026:	41a00633          	neg	a2,s10
    802a:	4df2                	lw	s11,28(sp)
    802c:	18d000ef          	jal	ra,89b8 <scalbn>
    8030:	00005797          	auipc	a5,0x5
    8034:	4c078793          	addi	a5,a5,1216 # d4f0 <atanlo+0x1a8>
    8038:	0007a903          	lw	s2,0(a5)
    803c:	0047a983          	lw	s3,4(a5)
    8040:	8c2a                	mv	s8,a0
    8042:	864a                	mv	a2,s2
    8044:	86ce                	mv	a3,s3
    8046:	8cae                	mv	s9,a1
    8048:	3eb010ef          	jal	ra,9c32 <__gedf2>
    804c:	46054763          	bltz	a0,84ba <__kernel_rem_pio2+0x8e6>
    8050:	00005717          	auipc	a4,0x5
    8054:	6b870713          	addi	a4,a4,1720 # d708 <PIo2+0x48>
    8058:	4310                	lw	a2,0(a4)
    805a:	4354                	lw	a3,4(a4)
    805c:	8562                	mv	a0,s8
    805e:	85e6                	mv	a1,s9
    8060:	537010ef          	jal	ra,9d96 <__muldf3>
    8064:	165020ef          	jal	ra,a9c8 <__fixdfsi>
    8068:	1c9c                	addi	a5,sp,624
    806a:	00249413          	slli	s0,s1,0x2
    806e:	943e                	add	s0,s0,a5
    8070:	8baa                	mv	s7,a0
    8072:	1bf020ef          	jal	ra,aa30 <__floatsidf>
    8076:	864a                	mv	a2,s2
    8078:	86ce                	mv	a3,s3
    807a:	51d010ef          	jal	ra,9d96 <__muldf3>
    807e:	862a                	mv	a2,a0
    8080:	86ae                	mv	a3,a1
    8082:	8562                	mv	a0,s8
    8084:	85e6                	mv	a1,s9
    8086:	1c8020ef          	jal	ra,a24e <__subdf3>
    808a:	13f020ef          	jal	ra,a9c8 <__fixdfsi>
    808e:	00148b13          	addi	s6,s1,1
    8092:	1c98                	addi	a4,sp,624
    8094:	002b1793          	slli	a5,s6,0x2
    8098:	97ba                	add	a5,a5,a4
    809a:	dca42823          	sw	a0,-560(s0) # 3fdffdd0 <__freertos_irq_stack_top+0x1fdfadd0>
    809e:	018d0713          	addi	a4,s10,24
    80a2:	ca3a                	sw	a4,20(sp)
    80a4:	dd77a823          	sw	s7,-560(a5)
    80a8:	a855                	j	815c <__kernel_rem_pio2+0x588>
    80aa:	4701                	li	a4,0
    80ac:	070a                	slli	a4,a4,0x2
    80ae:	01000637          	lui	a2,0x1000
    80b2:	1c94                	addi	a3,sp,624
    80b4:	9736                	add	a4,a4,a3
    80b6:	41060833          	sub	a6,a2,a6
    80ba:	dd072823          	sw	a6,-560(a4)
    80be:	0297d563          	bge	a5,s1,80e8 <__kernel_rem_pio2+0x514>
    80c2:	078a                	slli	a5,a5,0x2
    80c4:	00f68733          	add	a4,a3,a5
    80c8:	008c                	addi	a1,sp,64
    80ca:	00249693          	slli	a3,s1,0x2
    80ce:	dd072703          	lw	a4,-560(a4)
    80d2:	97ae                	add	a5,a5,a1
    80d4:	96ae                	add	a3,a3,a1
    80d6:	167d                	addi	a2,a2,-1
    80d8:	a011                	j	80dc <__kernel_rem_pio2+0x508>
    80da:	4398                	lw	a4,0(a5)
    80dc:	40e60733          	sub	a4,a2,a4
    80e0:	c398                	sw	a4,0(a5)
    80e2:	0791                	addi	a5,a5,4
    80e4:	fed79be3          	bne	a5,a3,80da <__kernel_rem_pio2+0x506>
    80e8:	4805                	li	a6,1
    80ea:	bd5d                	j	7fa0 <__kernel_rem_pio2+0x3cc>
    80ec:	00005797          	auipc	a5,0x5
    80f0:	09c78793          	addi	a5,a5,156 # d188 <_read+0x16e>
    80f4:	4390                	lw	a2,0(a5)
    80f6:	43d4                	lw	a3,4(a5)
    80f8:	4a01                	li	s4,0
    80fa:	339010ef          	jal	ra,9c32 <__gedf2>
    80fe:	d60543e3          	bltz	a0,7e64 <__kernel_rem_pio2+0x290>
    8102:	0a85                	addi	s5,s5,1
    8104:	4a09                	li	s4,2
    8106:	e6904be3          	bgtz	s1,7f7c <__kernel_rem_pio2+0x3a8>
    810a:	00005797          	auipc	a5,0x5
    810e:	12678793          	addi	a5,a5,294 # d230 <_read+0x216>
    8112:	4388                	lw	a0,0(a5)
    8114:	43cc                	lw	a1,4(a5)
    8116:	864a                	mv	a2,s2
    8118:	86ce                	mv	a3,s3
    811a:	134020ef          	jal	ra,a24e <__subdf3>
    811e:	892a                	mv	s2,a0
    8120:	89ae                	mv	s3,a1
    8122:	b389                	j	7e64 <__kernel_rem_pio2+0x290>
    8124:	00148793          	addi	a5,s1,1
    8128:	8abe                	mv	s5,a5
    812a:	84be                	mv	s1,a5
    812c:	b369                	j	7eb6 <__kernel_rem_pio2+0x2e2>
    812e:	1c98                	addi	a4,sp,624
    8130:	00261793          	slli	a5,a2,0x2
    8134:	97ba                	add	a5,a5,a4
    8136:	4752                	lw	a4,20(sp)
    8138:	dd07a783          	lw	a5,-560(a5)
    813c:	4df2                	lw	s11,28(sp)
    813e:	1721                	addi	a4,a4,-24
    8140:	ca3a                	sw	a4,20(sp)
    8142:	8b32                	mv	s6,a2
    8144:	ef81                	bnez	a5,815c <__kernel_rem_pio2+0x588>
    8146:	00249793          	slli	a5,s1,0x2
    814a:	17e1                	addi	a5,a5,-8
    814c:	0094                	addi	a3,sp,64
    814e:	97b6                	add	a5,a5,a3
    8150:	17f1                	addi	a5,a5,-4
    8152:	43d4                	lw	a3,4(a5)
    8154:	1b7d                	addi	s6,s6,-1
    8156:	1721                	addi	a4,a4,-24
    8158:	dee5                	beqz	a3,8150 <__kernel_rem_pio2+0x57c>
    815a:	ca3a                	sw	a4,20(sp)
    815c:	00005797          	auipc	a5,0x5
    8160:	0d478793          	addi	a5,a5,212 # d230 <_read+0x216>
    8164:	4388                	lw	a0,0(a5)
    8166:	43cc                	lw	a1,4(a5)
    8168:	4652                	lw	a2,20(sp)
    816a:	04f000ef          	jal	ra,89b8 <scalbn>
    816e:	842a                	mv	s0,a0
    8170:	84ae                	mv	s1,a1
    8172:	380b4763          	bltz	s6,8500 <__kernel_rem_pio2+0x92c>
    8176:	003b1793          	slli	a5,s6,0x3
    817a:	873e                	mv	a4,a5
    817c:	0b94                	addi	a3,sp,464
    817e:	00e68bb3          	add	s7,a3,a4
    8182:	c43e                	sw	a5,8(sp)
    8184:	00005717          	auipc	a4,0x5
    8188:	58470713          	addi	a4,a4,1412 # d708 <PIo2+0x48>
    818c:	002b1793          	slli	a5,s6,0x2
    8190:	0094                	addi	a3,sp,64
    8192:	00f68cb3          	add	s9,a3,a5
    8196:	8c5e                	mv	s8,s7
    8198:	00072903          	lw	s2,0(a4)
    819c:	00472983          	lw	s3,4(a4)
    81a0:	a011                	j	81a4 <__kernel_rem_pio2+0x5d0>
    81a2:	8cbe                	mv	s9,a5
    81a4:	000ca503          	lw	a0,0(s9) # 4000 <TIM_UpdateDisableConfig+0x8>
    81a8:	1c61                	addi	s8,s8,-8
    81aa:	087020ef          	jal	ra,aa30 <__floatsidf>
    81ae:	8622                	mv	a2,s0
    81b0:	86a6                	mv	a3,s1
    81b2:	3e5010ef          	jal	ra,9d96 <__muldf3>
    81b6:	00ac2423          	sw	a0,8(s8) # 3ff00008 <__freertos_irq_stack_top+0x1fefb008>
    81ba:	00bc2623          	sw	a1,12(s8)
    81be:	8522                	mv	a0,s0
    81c0:	85a6                	mv	a1,s1
    81c2:	864a                	mv	a2,s2
    81c4:	86ce                	mv	a3,s3
    81c6:	3d1010ef          	jal	ra,9d96 <__muldf3>
    81ca:	0098                	addi	a4,sp,64
    81cc:	842a                	mv	s0,a0
    81ce:	84ae                	mv	s1,a1
    81d0:	ffcc8793          	addi	a5,s9,-4
    81d4:	fd9717e3          	bne	a4,s9,81a2 <__kernel_rem_pio2+0x5ce>
    81d8:	1a1c                	addi	a5,sp,304
    81da:	c03e                	sw	a5,0(sp)
    81dc:	8cee                	mv	s9,s11
    81de:	84be                	mv	s1,a5
    81e0:	4401                	li	s0,0
    81e2:	060cc863          	bltz	s9,8252 <__kernel_rem_pio2+0x67e>
    81e6:	00005797          	auipc	a5,0x5
    81ea:	51a78793          	addi	a5,a5,1306 # d700 <PIo2+0x40>
    81ee:	00005c17          	auipc	s8,0x5
    81f2:	4d2c0c13          	addi	s8,s8,1234 # d6c0 <PIo2>
    81f6:	89de                	mv	s3,s7
    81f8:	4388                	lw	a0,0(a5)
    81fa:	43cc                	lw	a1,4(a5)
    81fc:	4d01                	li	s10,0
    81fe:	4d81                	li	s11,0
    8200:	4901                	li	s2,0
    8202:	a809                	j	8214 <__kernel_rem_pio2+0x640>
    8204:	0c21                	addi	s8,s8,8
    8206:	09a1                	addi	s3,s3,8
    8208:	03244763          	blt	s0,s2,8236 <__kernel_rem_pio2+0x662>
    820c:	000c2503          	lw	a0,0(s8)
    8210:	004c2583          	lw	a1,4(s8)
    8214:	0009a603          	lw	a2,0(s3)
    8218:	0049a683          	lw	a3,4(s3)
    821c:	0905                	addi	s2,s2,1
    821e:	379010ef          	jal	ra,9d96 <__muldf3>
    8222:	862a                	mv	a2,a0
    8224:	86ae                	mv	a3,a1
    8226:	856a                	mv	a0,s10
    8228:	85ee                	mv	a1,s11
    822a:	4bb000ef          	jal	ra,8ee4 <__adddf3>
    822e:	8d2a                	mv	s10,a0
    8230:	8dae                	mv	s11,a1
    8232:	fd2cd9e3          	bge	s9,s2,8204 <__kernel_rem_pio2+0x630>
    8236:	01a4a023          	sw	s10,0(s1)
    823a:	01b4a223          	sw	s11,4(s1)
    823e:	0b98                	addi	a4,sp,464
    8240:	0405                	addi	s0,s0,1
    8242:	04a1                	addi	s1,s1,8
    8244:	ff8b8793          	addi	a5,s7,-8
    8248:	03770263          	beq	a4,s7,826c <__kernel_rem_pio2+0x698>
    824c:	8bbe                	mv	s7,a5
    824e:	f80cdce3          	bgez	s9,81e6 <__kernel_rem_pio2+0x612>
    8252:	4d01                	li	s10,0
    8254:	4d81                	li	s11,0
    8256:	01a4a023          	sw	s10,0(s1)
    825a:	01b4a223          	sw	s11,4(s1)
    825e:	0b98                	addi	a4,sp,464
    8260:	0405                	addi	s0,s0,1
    8262:	04a1                	addi	s1,s1,8
    8264:	ff8b8793          	addi	a5,s7,-8
    8268:	ff7712e3          	bne	a4,s7,824c <__kernel_rem_pio2+0x678>
    826c:	5762                	lw	a4,56(sp)
    826e:	4789                	li	a5,2
    8270:	08e7c763          	blt	a5,a4,82fe <__kernel_rem_pio2+0x72a>
    8274:	1ce04863          	bgtz	a4,8444 <__kernel_rem_pio2+0x870>
    8278:	e721                	bnez	a4,82c0 <__kernel_rem_pio2+0x6ec>
    827a:	47a2                	lw	a5,8(sp)
    827c:	4402                	lw	s0,0(sp)
    827e:	4501                	li	a0,0
    8280:	4581                	li	a1,0
    8282:	00f40cb3          	add	s9,s0,a5
    8286:	000ca603          	lw	a2,0(s9)
    828a:	004ca683          	lw	a3,4(s9)
    828e:	457000ef          	jal	ra,8ee4 <__adddf3>
    8292:	ff8c8793          	addi	a5,s9,-8
    8296:	01940d63          	beq	s0,s9,82b0 <__kernel_rem_pio2+0x6dc>
    829a:	8cbe                	mv	s9,a5
    829c:	000ca603          	lw	a2,0(s9)
    82a0:	004ca683          	lw	a3,4(s9)
    82a4:	441000ef          	jal	ra,8ee4 <__adddf3>
    82a8:	ff8c8793          	addi	a5,s9,-8
    82ac:	ff9417e3          	bne	s0,s9,829a <__kernel_rem_pio2+0x6c6>
    82b0:	000a0563          	beqz	s4,82ba <__kernel_rem_pio2+0x6e6>
    82b4:	800007b7          	lui	a5,0x80000
    82b8:	8dbd                	xor	a1,a1,a5
    82ba:	56d2                	lw	a3,52(sp)
    82bc:	c288                	sw	a0,0(a3)
    82be:	c2cc                	sw	a1,4(a3)
    82c0:	2ac12083          	lw	ra,684(sp)
    82c4:	2a812403          	lw	s0,680(sp)
    82c8:	007af513          	andi	a0,s5,7
    82cc:	2a412483          	lw	s1,676(sp)
    82d0:	2a012903          	lw	s2,672(sp)
    82d4:	29c12983          	lw	s3,668(sp)
    82d8:	29812a03          	lw	s4,664(sp)
    82dc:	29412a83          	lw	s5,660(sp)
    82e0:	29012b03          	lw	s6,656(sp)
    82e4:	28c12b83          	lw	s7,652(sp)
    82e8:	28812c03          	lw	s8,648(sp)
    82ec:	28412c83          	lw	s9,644(sp)
    82f0:	28012d03          	lw	s10,640(sp)
    82f4:	27c12d83          	lw	s11,636(sp)
    82f8:	2b010113          	addi	sp,sp,688
    82fc:	8082                	ret
    82fe:	5762                	lw	a4,56(sp)
    8300:	478d                	li	a5,3
    8302:	faf71fe3          	bne	a4,a5,82c0 <__kernel_rem_pio2+0x6ec>
    8306:	21605d63          	blez	s6,8520 <__kernel_rem_pio2+0x94c>
    830a:	003b1b93          	slli	s7,s6,0x3
    830e:	1c9c                	addi	a5,sp,624
    8310:	97de                	add	a5,a5,s7
    8312:	13010993          	addi	s3,sp,304
    8316:	ff8b8413          	addi	s0,s7,-8
    831a:	c04e                	sw	s3,0(sp)
    831c:	ec07ad83          	lw	s11,-320(a5) # 7ffffec0 <__freertos_irq_stack_top+0x5fffaec0>
    8320:	ec47ad03          	lw	s10,-316(a5)
    8324:	944e                	add	s0,s0,s3
    8326:	a011                	j	832a <__kernel_rem_pio2+0x756>
    8328:	843e                	mv	s0,a5
    832a:	00042c03          	lw	s8,0(s0)
    832e:	00442c83          	lw	s9,4(s0)
    8332:	866e                	mv	a2,s11
    8334:	86ea                	mv	a3,s10
    8336:	8562                	mv	a0,s8
    8338:	85e6                	mv	a1,s9
    833a:	3ab000ef          	jal	ra,8ee4 <__adddf3>
    833e:	892a                	mv	s2,a0
    8340:	84ae                	mv	s1,a1
    8342:	862a                	mv	a2,a0
    8344:	86ae                	mv	a3,a1
    8346:	8562                	mv	a0,s8
    8348:	85e6                	mv	a1,s9
    834a:	705010ef          	jal	ra,a24e <__subdf3>
    834e:	866e                	mv	a2,s11
    8350:	86ea                	mv	a3,s10
    8352:	393000ef          	jal	ra,8ee4 <__adddf3>
    8356:	c408                	sw	a0,8(s0)
    8358:	c44c                	sw	a1,12(s0)
    835a:	01242023          	sw	s2,0(s0)
    835e:	c044                	sw	s1,4(s0)
    8360:	ff840793          	addi	a5,s0,-8
    8364:	8dca                	mv	s11,s2
    8366:	8d26                	mv	s10,s1
    8368:	fc8990e3          	bne	s3,s0,8328 <__kernel_rem_pio2+0x754>
    836c:	4785                	li	a5,1
    836e:	1b67d963          	bge	a5,s6,8520 <__kernel_rem_pio2+0x94c>
    8372:	003b1413          	slli	s0,s6,0x3
    8376:	4b02                	lw	s6,0(sp)
    8378:	1c9c                	addi	a5,sp,624
    837a:	9bbe                	add	s7,s7,a5
    837c:	1461                	addi	s0,s0,-8
    837e:	ec0bad03          	lw	s10,-320(s7)
    8382:	008b04b3          	add	s1,s6,s0
    8386:	ec4bab83          	lw	s7,-316(s7)
    838a:	a011                	j	838e <__kernel_rem_pio2+0x7ba>
    838c:	84be                	mv	s1,a5
    838e:	0004ac03          	lw	s8,0(s1)
    8392:	0044ac83          	lw	s9,4(s1)
    8396:	866a                	mv	a2,s10
    8398:	86de                	mv	a3,s7
    839a:	8562                	mv	a0,s8
    839c:	85e6                	mv	a1,s9
    839e:	347000ef          	jal	ra,8ee4 <__adddf3>
    83a2:	89aa                	mv	s3,a0
    83a4:	892e                	mv	s2,a1
    83a6:	862a                	mv	a2,a0
    83a8:	86ae                	mv	a3,a1
    83aa:	8562                	mv	a0,s8
    83ac:	85e6                	mv	a1,s9
    83ae:	6a1010ef          	jal	ra,a24e <__subdf3>
    83b2:	866a                	mv	a2,s10
    83b4:	86de                	mv	a3,s7
    83b6:	32f000ef          	jal	ra,8ee4 <__adddf3>
    83ba:	c488                	sw	a0,8(s1)
    83bc:	c4cc                	sw	a1,12(s1)
    83be:	0134a023          	sw	s3,0(s1)
    83c2:	0124a223          	sw	s2,4(s1)
    83c6:	ff848793          	addi	a5,s1,-8
    83ca:	8d4e                	mv	s10,s3
    83cc:	8bca                	mv	s7,s2
    83ce:	fafb1fe3          	bne	s6,a5,838c <__kernel_rem_pio2+0x7b8>
    83d2:	4782                	lw	a5,0(sp)
    83d4:	0421                	addi	s0,s0,8
    83d6:	4501                	li	a0,0
    83d8:	00878933          	add	s2,a5,s0
    83dc:	4581                	li	a1,0
    83de:	00092603          	lw	a2,0(s2)
    83e2:	00492683          	lw	a3,4(s2)
    83e6:	1961                	addi	s2,s2,-8
    83e8:	2fd000ef          	jal	ra,8ee4 <__adddf3>
    83ec:	ff2499e3          	bne	s1,s2,83de <__kernel_rem_pio2+0x80a>
    83f0:	13012803          	lw	a6,304(sp)
    83f4:	13412703          	lw	a4,308(sp)
    83f8:	13812603          	lw	a2,312(sp)
    83fc:	13c12783          	lw	a5,316(sp)
    8400:	0c0a1963          	bnez	s4,84d2 <__kernel_rem_pio2+0x8fe>
    8404:	88be                	mv	a7,a5
    8406:	57d2                	lw	a5,52(sp)
    8408:	8342                	mv	t1,a6
    840a:	8832                	mv	a6,a2
    840c:	0067a023          	sw	t1,0(a5)
    8410:	c3d8                	sw	a4,4(a5)
    8412:	0107a423          	sw	a6,8(a5)
    8416:	0117a623          	sw	a7,12(a5)
    841a:	cb88                	sw	a0,16(a5)
    841c:	cbcc                	sw	a1,20(a5)
    841e:	b54d                	j	82c0 <__kernel_rem_pio2+0x6ec>
    8420:	fff48793          	addi	a5,s1,-1
    8424:	1c98                	addi	a4,sp,624
    8426:	078a                	slli	a5,a5,0x2
    8428:	97ba                	add	a5,a5,a4
    842a:	dd07a703          	lw	a4,-560(a5)
    842e:	56f2                	lw	a3,60(sp)
    8430:	8f75                	and	a4,a4,a3
    8432:	dce7a823          	sw	a4,-560(a5)
    8436:	be49                	j	7fc8 <__kernel_rem_pio2+0x3f4>
    8438:	57a1                	li	a5,-24
    843a:	d002                	sw	zero,32(sp)
    843c:	80fff06f          	j	7c4a <__kernel_rem_pio2+0x76>
    8440:	4801                	li	a6,0
    8442:	beb9                	j	7fa0 <__kernel_rem_pio2+0x3cc>
    8444:	4702                	lw	a4,0(sp)
    8446:	47a2                	lw	a5,8(sp)
    8448:	4401                	li	s0,0
    844a:	4481                	li	s1,0
    844c:	00f70cb3          	add	s9,a4,a5
    8450:	87a2                	mv	a5,s0
    8452:	843a                	mv	s0,a4
    8454:	a011                	j	8458 <__kernel_rem_pio2+0x884>
    8456:	8cba                	mv	s9,a4
    8458:	000ca603          	lw	a2,0(s9)
    845c:	004ca683          	lw	a3,4(s9)
    8460:	8526                	mv	a0,s1
    8462:	85be                	mv	a1,a5
    8464:	281000ef          	jal	ra,8ee4 <__adddf3>
    8468:	ff8c8713          	addi	a4,s9,-8
    846c:	84aa                	mv	s1,a0
    846e:	87ae                	mv	a5,a1
    8470:	ff9413e3          	bne	s0,s9,8456 <__kernel_rem_pio2+0x882>
    8474:	842e                	mv	s0,a1
    8476:	13012503          	lw	a0,304(sp)
    847a:	13412583          	lw	a1,308(sp)
    847e:	8626                	mv	a2,s1
    8480:	86a2                	mv	a3,s0
    8482:	5cd010ef          	jal	ra,a24e <__subdf3>
    8486:	060a1463          	bnez	s4,84ee <__kernel_rem_pio2+0x91a>
    848a:	56d2                	lw	a3,52(sp)
    848c:	c284                	sw	s1,0(a3)
    848e:	c2c0                	sw	s0,4(a3)
    8490:	03605163          	blez	s6,84b2 <__kernel_rem_pio2+0x8de>
    8494:	1a24                	addi	s1,sp,312
    8496:	4405                	li	s0,1
    8498:	4090                	lw	a2,0(s1)
    849a:	40d4                	lw	a3,4(s1)
    849c:	0405                	addi	s0,s0,1
    849e:	04a1                	addi	s1,s1,8
    84a0:	245000ef          	jal	ra,8ee4 <__adddf3>
    84a4:	fe8b5ae3          	bge	s6,s0,8498 <__kernel_rem_pio2+0x8c4>
    84a8:	000a0563          	beqz	s4,84b2 <__kernel_rem_pio2+0x8de>
    84ac:	800007b7          	lui	a5,0x80000
    84b0:	8dbd                	xor	a1,a1,a5
    84b2:	56d2                	lw	a3,52(sp)
    84b4:	c688                	sw	a0,8(a3)
    84b6:	c6cc                	sw	a1,12(a3)
    84b8:	b521                	j	82c0 <__kernel_rem_pio2+0x6ec>
    84ba:	1c9c                	addi	a5,sp,624
    84bc:	00249413          	slli	s0,s1,0x2
    84c0:	8562                	mv	a0,s8
    84c2:	85e6                	mv	a1,s9
    84c4:	943e                	add	s0,s0,a5
    84c6:	502020ef          	jal	ra,a9c8 <__fixdfsi>
    84ca:	dca42823          	sw	a0,-560(s0)
    84ce:	8b26                	mv	s6,s1
    84d0:	b171                	j	815c <__kernel_rem_pio2+0x588>
    84d2:	800006b7          	lui	a3,0x80000
    84d6:	8f35                	xor	a4,a4,a3
    84d8:	8fb5                	xor	a5,a5,a3
    84da:	8ead                	xor	a3,a3,a1
    84dc:	55d2                	lw	a1,52(sp)
    84de:	0105a023          	sw	a6,0(a1)
    84e2:	c1d8                	sw	a4,4(a1)
    84e4:	c590                	sw	a2,8(a1)
    84e6:	c5dc                	sw	a5,12(a1)
    84e8:	c988                	sw	a0,16(a1)
    84ea:	c9d4                	sw	a3,20(a1)
    84ec:	bbd1                	j	82c0 <__kernel_rem_pio2+0x6ec>
    84ee:	800007b7          	lui	a5,0x80000
    84f2:	8c3d                	xor	s0,s0,a5
    84f4:	57d2                	lw	a5,52(sp)
    84f6:	c384                	sw	s1,0(a5)
    84f8:	c3c0                	sw	s0,4(a5)
    84fa:	f9604de3          	bgtz	s6,8494 <__kernel_rem_pio2+0x8c0>
    84fe:	b77d                	j	84ac <__kernel_rem_pio2+0x8d8>
    8500:	5762                	lw	a4,56(sp)
    8502:	4789                	li	a5,2
    8504:	dee7cde3          	blt	a5,a4,82fe <__kernel_rem_pio2+0x72a>
    8508:	00e04963          	bgtz	a4,851a <__kernel_rem_pio2+0x946>
    850c:	4501                	li	a0,0
    850e:	4581                	li	a1,0
    8510:	da0718e3          	bnez	a4,82c0 <__kernel_rem_pio2+0x6ec>
    8514:	da0a03e3          	beqz	s4,82ba <__kernel_rem_pio2+0x6e6>
    8518:	bb71                	j	82b4 <__kernel_rem_pio2+0x6e0>
    851a:	4481                	li	s1,0
    851c:	4401                	li	s0,0
    851e:	bfa1                	j	8476 <__kernel_rem_pio2+0x8a2>
    8520:	4501                	li	a0,0
    8522:	4581                	li	a1,0
    8524:	b5f1                	j	83f0 <__kernel_rem_pio2+0x81c>

00008526 <__kernel_sin>:
    8526:	7139                	addi	sp,sp,-64
    8528:	00159793          	slli	a5,a1,0x1
    852c:	dc22                	sw	s0,56(sp)
    852e:	da26                	sw	s1,52(sp)
    8530:	d452                	sw	s4,40(sp)
    8532:	d256                	sw	s5,36(sp)
    8534:	cc62                	sw	s8,24(sp)
    8536:	de06                	sw	ra,60(sp)
    8538:	d84a                	sw	s2,48(sp)
    853a:	d64e                	sw	s3,44(sp)
    853c:	d05a                	sw	s6,32(sp)
    853e:	ce5e                	sw	s7,28(sp)
    8540:	ca66                	sw	s9,20(sp)
    8542:	c86a                	sw	s10,16(sp)
    8544:	c66e                	sw	s11,12(sp)
    8546:	8385                	srli	a5,a5,0x1
    8548:	3e400837          	lui	a6,0x3e400
    854c:	842e                	mv	s0,a1
    854e:	84aa                	mv	s1,a0
    8550:	8a32                	mv	s4,a2
    8552:	8ab6                	mv	s5,a3
    8554:	8c3a                	mv	s8,a4
    8556:	0107d763          	bge	a5,a6,8564 <__kernel_sin+0x3e>
    855a:	46e020ef          	jal	ra,a9c8 <__fixdfsi>
    855e:	8726                	mv	a4,s1
    8560:	87a2                	mv	a5,s0
    8562:	c179                	beqz	a0,8628 <__kernel_sin+0x102>
    8564:	8626                	mv	a2,s1
    8566:	86a2                	mv	a3,s0
    8568:	8526                	mv	a0,s1
    856a:	85a2                	mv	a1,s0
    856c:	02b010ef          	jal	ra,9d96 <__muldf3>
    8570:	892a                	mv	s2,a0
    8572:	89ae                	mv	s3,a1
    8574:	862a                	mv	a2,a0
    8576:	86ae                	mv	a3,a1
    8578:	8526                	mv	a0,s1
    857a:	85a2                	mv	a1,s0
    857c:	01b010ef          	jal	ra,9d96 <__muldf3>
    8580:	00005797          	auipc	a5,0x5
    8584:	1b078793          	addi	a5,a5,432 # d730 <init_jk+0x10>
    8588:	4390                	lw	a2,0(a5)
    858a:	43d4                	lw	a3,4(a5)
    858c:	8b2a                	mv	s6,a0
    858e:	8bae                	mv	s7,a1
    8590:	854a                	mv	a0,s2
    8592:	85ce                	mv	a1,s3
    8594:	003010ef          	jal	ra,9d96 <__muldf3>
    8598:	00005797          	auipc	a5,0x5
    859c:	1a078793          	addi	a5,a5,416 # d738 <init_jk+0x18>
    85a0:	4390                	lw	a2,0(a5)
    85a2:	43d4                	lw	a3,4(a5)
    85a4:	4ab010ef          	jal	ra,a24e <__subdf3>
    85a8:	864a                	mv	a2,s2
    85aa:	86ce                	mv	a3,s3
    85ac:	7ea010ef          	jal	ra,9d96 <__muldf3>
    85b0:	00005797          	auipc	a5,0x5
    85b4:	19078793          	addi	a5,a5,400 # d740 <init_jk+0x20>
    85b8:	4390                	lw	a2,0(a5)
    85ba:	43d4                	lw	a3,4(a5)
    85bc:	129000ef          	jal	ra,8ee4 <__adddf3>
    85c0:	864a                	mv	a2,s2
    85c2:	86ce                	mv	a3,s3
    85c4:	7d2010ef          	jal	ra,9d96 <__muldf3>
    85c8:	00005797          	auipc	a5,0x5
    85cc:	18078793          	addi	a5,a5,384 # d748 <init_jk+0x28>
    85d0:	4390                	lw	a2,0(a5)
    85d2:	43d4                	lw	a3,4(a5)
    85d4:	47b010ef          	jal	ra,a24e <__subdf3>
    85d8:	864a                	mv	a2,s2
    85da:	86ce                	mv	a3,s3
    85dc:	7ba010ef          	jal	ra,9d96 <__muldf3>
    85e0:	00005797          	auipc	a5,0x5
    85e4:	17078793          	addi	a5,a5,368 # d750 <init_jk+0x30>
    85e8:	4390                	lw	a2,0(a5)
    85ea:	43d4                	lw	a3,4(a5)
    85ec:	0f9000ef          	jal	ra,8ee4 <__adddf3>
    85f0:	8d2a                	mv	s10,a0
    85f2:	8dae                	mv	s11,a1
    85f4:	040c1b63          	bnez	s8,864a <__kernel_sin+0x124>
    85f8:	862a                	mv	a2,a0
    85fa:	86ae                	mv	a3,a1
    85fc:	854a                	mv	a0,s2
    85fe:	85ce                	mv	a1,s3
    8600:	796010ef          	jal	ra,9d96 <__muldf3>
    8604:	00005797          	auipc	a5,0x5
    8608:	15478793          	addi	a5,a5,340 # d758 <init_jk+0x38>
    860c:	4390                	lw	a2,0(a5)
    860e:	43d4                	lw	a3,4(a5)
    8610:	43f010ef          	jal	ra,a24e <__subdf3>
    8614:	865a                	mv	a2,s6
    8616:	86de                	mv	a3,s7
    8618:	77e010ef          	jal	ra,9d96 <__muldf3>
    861c:	8626                	mv	a2,s1
    861e:	86a2                	mv	a3,s0
    8620:	0c5000ef          	jal	ra,8ee4 <__adddf3>
    8624:	872a                	mv	a4,a0
    8626:	87ae                	mv	a5,a1
    8628:	50f2                	lw	ra,60(sp)
    862a:	5462                	lw	s0,56(sp)
    862c:	54d2                	lw	s1,52(sp)
    862e:	5942                	lw	s2,48(sp)
    8630:	59b2                	lw	s3,44(sp)
    8632:	5a22                	lw	s4,40(sp)
    8634:	5a92                	lw	s5,36(sp)
    8636:	5b02                	lw	s6,32(sp)
    8638:	4bf2                	lw	s7,28(sp)
    863a:	4c62                	lw	s8,24(sp)
    863c:	4cd2                	lw	s9,20(sp)
    863e:	4d42                	lw	s10,16(sp)
    8640:	4db2                	lw	s11,12(sp)
    8642:	853a                	mv	a0,a4
    8644:	85be                	mv	a1,a5
    8646:	6121                	addi	sp,sp,64
    8648:	8082                	ret
    864a:	00005797          	auipc	a5,0x5
    864e:	b3e78793          	addi	a5,a5,-1218 # d188 <_read+0x16e>
    8652:	4390                	lw	a2,0(a5)
    8654:	43d4                	lw	a3,4(a5)
    8656:	8552                	mv	a0,s4
    8658:	85d6                	mv	a1,s5
    865a:	73c010ef          	jal	ra,9d96 <__muldf3>
    865e:	8c2a                	mv	s8,a0
    8660:	8cae                	mv	s9,a1
    8662:	866a                	mv	a2,s10
    8664:	86ee                	mv	a3,s11
    8666:	855a                	mv	a0,s6
    8668:	85de                	mv	a1,s7
    866a:	72c010ef          	jal	ra,9d96 <__muldf3>
    866e:	862a                	mv	a2,a0
    8670:	86ae                	mv	a3,a1
    8672:	8562                	mv	a0,s8
    8674:	85e6                	mv	a1,s9
    8676:	3d9010ef          	jal	ra,a24e <__subdf3>
    867a:	864a                	mv	a2,s2
    867c:	86ce                	mv	a3,s3
    867e:	718010ef          	jal	ra,9d96 <__muldf3>
    8682:	8652                	mv	a2,s4
    8684:	86d6                	mv	a3,s5
    8686:	3c9010ef          	jal	ra,a24e <__subdf3>
    868a:	00005797          	auipc	a5,0x5
    868e:	0ce78793          	addi	a5,a5,206 # d758 <init_jk+0x38>
    8692:	4390                	lw	a2,0(a5)
    8694:	43d4                	lw	a3,4(a5)
    8696:	892a                	mv	s2,a0
    8698:	89ae                	mv	s3,a1
    869a:	855a                	mv	a0,s6
    869c:	85de                	mv	a1,s7
    869e:	6f8010ef          	jal	ra,9d96 <__muldf3>
    86a2:	862a                	mv	a2,a0
    86a4:	86ae                	mv	a3,a1
    86a6:	854a                	mv	a0,s2
    86a8:	85ce                	mv	a1,s3
    86aa:	03b000ef          	jal	ra,8ee4 <__adddf3>
    86ae:	862a                	mv	a2,a0
    86b0:	86ae                	mv	a3,a1
    86b2:	8526                	mv	a0,s1
    86b4:	85a2                	mv	a1,s0
    86b6:	399010ef          	jal	ra,a24e <__subdf3>
    86ba:	872a                	mv	a4,a0
    86bc:	87ae                	mv	a5,a1
    86be:	b7ad                	j	8628 <__kernel_sin+0x102>

000086c0 <finite>:
    86c0:	0586                	slli	a1,a1,0x1
    86c2:	8185                	srli	a1,a1,0x1
    86c4:	80100537          	lui	a0,0x80100
    86c8:	952e                	add	a0,a0,a1
    86ca:	817d                	srli	a0,a0,0x1f
    86cc:	8082                	ret

000086ce <floor>:
    86ce:	4145d793          	srai	a5,a1,0x14
    86d2:	1101                	addi	sp,sp,-32
    86d4:	7ff7f793          	andi	a5,a5,2047
    86d8:	cc22                	sw	s0,24(sp)
    86da:	ca26                	sw	s1,20(sp)
    86dc:	c84a                	sw	s2,16(sp)
    86de:	c64e                	sw	s3,12(sp)
    86e0:	c452                	sw	s4,8(sp)
    86e2:	ce06                	sw	ra,28(sp)
    86e4:	c256                	sw	s5,4(sp)
    86e6:	c05a                	sw	s6,0(sp)
    86e8:	c0178493          	addi	s1,a5,-1023
    86ec:	474d                	li	a4,19
    86ee:	842e                	mv	s0,a1
    86f0:	89aa                	mv	s3,a0
    86f2:	892e                	mv	s2,a1
    86f4:	8a2a                	mv	s4,a0
    86f6:	08974963          	blt	a4,s1,8788 <floor+0xba>
    86fa:	0604c563          	bltz	s1,8764 <floor+0x96>
    86fe:	00100b37          	lui	s6,0x100
    8702:	fffb0a93          	addi	s5,s6,-1 # fffff <_data_lma+0xf259b>
    8706:	409adab3          	sra	s5,s5,s1
    870a:	00baf7b3          	and	a5,s5,a1
    870e:	8fc9                	or	a5,a5,a0
    8710:	86aa                	mv	a3,a0
    8712:	872e                	mv	a4,a1
    8714:	cf85                	beqz	a5,874c <floor+0x7e>
    8716:	00005797          	auipc	a5,0x5
    871a:	b9a78793          	addi	a5,a5,-1126 # d2b0 <_read+0x296>
    871e:	4390                	lw	a2,0(a5)
    8720:	43d4                	lw	a3,4(a5)
    8722:	7c2000ef          	jal	ra,8ee4 <__adddf3>
    8726:	4601                	li	a2,0
    8728:	4681                	li	a3,0
    872a:	508010ef          	jal	ra,9c32 <__gedf2>
    872e:	00a05d63          	blez	a0,8748 <floor+0x7a>
    8732:	00045663          	bgez	s0,873e <floor+0x70>
    8736:	409b54b3          	sra	s1,s6,s1
    873a:	00848933          	add	s2,s1,s0
    873e:	fffaca93          	not	s5,s5
    8742:	01597933          	and	s2,s2,s5
    8746:	4a01                	li	s4,0
    8748:	86d2                	mv	a3,s4
    874a:	874a                	mv	a4,s2
    874c:	40f2                	lw	ra,28(sp)
    874e:	4462                	lw	s0,24(sp)
    8750:	44d2                	lw	s1,20(sp)
    8752:	4942                	lw	s2,16(sp)
    8754:	49b2                	lw	s3,12(sp)
    8756:	4a22                	lw	s4,8(sp)
    8758:	4a92                	lw	s5,4(sp)
    875a:	4b02                	lw	s6,0(sp)
    875c:	8536                	mv	a0,a3
    875e:	85ba                	mv	a1,a4
    8760:	6105                	addi	sp,sp,32
    8762:	8082                	ret
    8764:	00005797          	auipc	a5,0x5
    8768:	b4c78793          	addi	a5,a5,-1204 # d2b0 <_read+0x296>
    876c:	4390                	lw	a2,0(a5)
    876e:	43d4                	lw	a3,4(a5)
    8770:	2f95                	jal	8ee4 <__adddf3>
    8772:	4601                	li	a2,0
    8774:	4681                	li	a3,0
    8776:	4bc010ef          	jal	ra,9c32 <__gedf2>
    877a:	fca057e3          	blez	a0,8748 <floor+0x7a>
    877e:	06044363          	bltz	s0,87e4 <floor+0x116>
    8782:	4a01                	li	s4,0
    8784:	4901                	li	s2,0
    8786:	b7c9                	j	8748 <floor+0x7a>
    8788:	03300713          	li	a4,51
    878c:	00975e63          	bge	a4,s1,87a8 <floor+0xda>
    8790:	40000793          	li	a5,1024
    8794:	86aa                	mv	a3,a0
    8796:	872e                	mv	a4,a1
    8798:	faf49ae3          	bne	s1,a5,874c <floor+0x7e>
    879c:	86ae                	mv	a3,a1
    879e:	862a                	mv	a2,a0
    87a0:	2791                	jal	8ee4 <__adddf3>
    87a2:	86aa                	mv	a3,a0
    87a4:	872e                	mv	a4,a1
    87a6:	b75d                	j	874c <floor+0x7e>
    87a8:	bed78793          	addi	a5,a5,-1043
    87ac:	5afd                	li	s5,-1
    87ae:	00fadab3          	srl	s5,s5,a5
    87b2:	00aaf7b3          	and	a5,s5,a0
    87b6:	86aa                	mv	a3,a0
    87b8:	872e                	mv	a4,a1
    87ba:	dbc9                	beqz	a5,874c <floor+0x7e>
    87bc:	00005797          	auipc	a5,0x5
    87c0:	af478793          	addi	a5,a5,-1292 # d2b0 <_read+0x296>
    87c4:	4390                	lw	a2,0(a5)
    87c6:	43d4                	lw	a3,4(a5)
    87c8:	2f31                	jal	8ee4 <__adddf3>
    87ca:	4601                	li	a2,0
    87cc:	4681                	li	a3,0
    87ce:	464010ef          	jal	ra,9c32 <__gedf2>
    87d2:	f6a05be3          	blez	a0,8748 <floor+0x7a>
    87d6:	02044063          	bltz	s0,87f6 <floor+0x128>
    87da:	fffac793          	not	a5,s5
    87de:	00fa7a33          	and	s4,s4,a5
    87e2:	b79d                	j	8748 <floor+0x7a>
    87e4:	0406                	slli	s0,s0,0x1
    87e6:	8005                	srli	s0,s0,0x1
    87e8:	01346433          	or	s0,s0,s3
    87ec:	4a01                	li	s4,0
    87ee:	dc29                	beqz	s0,8748 <floor+0x7a>
    87f0:	bff00937          	lui	s2,0xbff00
    87f4:	bf91                	j	8748 <floor+0x7a>
    87f6:	47d1                	li	a5,20
    87f8:	00f48f63          	beq	s1,a5,8816 <floor+0x148>
    87fc:	03400793          	li	a5,52
    8800:	8f85                	sub	a5,a5,s1
    8802:	4485                	li	s1,1
    8804:	00f494b3          	sll	s1,s1,a5
    8808:	99a6                	add	s3,s3,s1
    880a:	0149f963          	bgeu	s3,s4,881c <floor+0x14e>
    880e:	00140913          	addi	s2,s0,1
    8812:	8a4e                	mv	s4,s3
    8814:	b7d9                	j	87da <floor+0x10c>
    8816:	00140913          	addi	s2,s0,1
    881a:	b7c1                	j	87da <floor+0x10c>
    881c:	8a4e                	mv	s4,s3
    881e:	bf75                	j	87da <floor+0x10c>

00008820 <matherr>:
    8820:	4501                	li	a0,0
    8822:	8082                	ret

00008824 <nan>:
    8824:	00005797          	auipc	a5,0x5
    8828:	f3c78793          	addi	a5,a5,-196 # d760 <init_jk+0x40>
    882c:	4388                	lw	a0,0(a5)
    882e:	43cc                	lw	a1,4(a5)
    8830:	8082                	ret

00008832 <rint>:
    8832:	4145d713          	srai	a4,a1,0x14
    8836:	7179                	addi	sp,sp,-48
    8838:	7ff77713          	andi	a4,a4,2047
    883c:	d422                	sw	s0,40(sp)
    883e:	d606                	sw	ra,44(sp)
    8840:	d226                	sw	s1,36(sp)
    8842:	d04a                	sw	s2,32(sp)
    8844:	ce4e                	sw	s3,28(sp)
    8846:	c0170613          	addi	a2,a4,-1023
    884a:	48cd                	li	a7,19
    884c:	87ae                	mv	a5,a1
    884e:	86aa                	mv	a3,a0
    8850:	8e2e                	mv	t3,a1
    8852:	01f5d413          	srli	s0,a1,0x1f
    8856:	10c8c663          	blt	a7,a2,8962 <rint+0x130>
    885a:	08064a63          	bltz	a2,88ee <rint+0xbc>
    885e:	001005b7          	lui	a1,0x100
    8862:	15fd                	addi	a1,a1,-1
    8864:	40c5d5b3          	sra	a1,a1,a2
    8868:	00f5f533          	and	a0,a1,a5
    886c:	8d55                	or	a0,a0,a3
    886e:	88b6                	mv	a7,a3
    8870:	833e                	mv	t1,a5
    8872:	c52d                	beqz	a0,88dc <rint+0xaa>
    8874:	8185                	srli	a1,a1,0x1
    8876:	00f5f833          	and	a6,a1,a5
    887a:	00d86833          	or	a6,a6,a3
    887e:	02080563          	beqz	a6,88a8 <rint+0x76>
    8882:	bee70693          	addi	a3,a4,-1042
    8886:	00040e37          	lui	t3,0x40
    888a:	0016b693          	seqz	a3,a3
    888e:	fff5c593          	not	a1,a1
    8892:	80000837          	lui	a6,0x80000
    8896:	40d006b3          	neg	a3,a3
    889a:	8fed                	and	a5,a5,a1
    889c:	40ce5633          	sra	a2,t3,a2
    88a0:	00d87833          	and	a6,a6,a3
    88a4:	00c7ee33          	or	t3,a5,a2
    88a8:	00005797          	auipc	a5,0x5
    88ac:	ec078793          	addi	a5,a5,-320 # d768 <TWO52>
    88b0:	00341313          	slli	t1,s0,0x3
    88b4:	933e                	add	t1,t1,a5
    88b6:	00032403          	lw	s0,0(t1)
    88ba:	00432483          	lw	s1,4(t1)
    88be:	8642                	mv	a2,a6
    88c0:	86f2                	mv	a3,t3
    88c2:	8522                	mv	a0,s0
    88c4:	85a6                	mv	a1,s1
    88c6:	2d39                	jal	8ee4 <__adddf3>
    88c8:	c42a                	sw	a0,8(sp)
    88ca:	c62e                	sw	a1,12(sp)
    88cc:	4522                	lw	a0,8(sp)
    88ce:	45b2                	lw	a1,12(sp)
    88d0:	8622                	mv	a2,s0
    88d2:	86a6                	mv	a3,s1
    88d4:	17b010ef          	jal	ra,a24e <__subdf3>
    88d8:	88aa                	mv	a7,a0
    88da:	832e                	mv	t1,a1
    88dc:	50b2                	lw	ra,44(sp)
    88de:	5422                	lw	s0,40(sp)
    88e0:	5492                	lw	s1,36(sp)
    88e2:	5902                	lw	s2,32(sp)
    88e4:	49f2                	lw	s3,28(sp)
    88e6:	8546                	mv	a0,a7
    88e8:	859a                	mv	a1,t1
    88ea:	6145                	addi	sp,sp,48
    88ec:	8082                	ret
    88ee:	800004b7          	lui	s1,0x80000
    88f2:	fff4c493          	not	s1,s1
    88f6:	00b4f733          	and	a4,s1,a1
    88fa:	8f49                	or	a4,a4,a0
    88fc:	88aa                	mv	a7,a0
    88fe:	832e                	mv	t1,a1
    8900:	df71                	beqz	a4,88dc <rint+0xaa>
    8902:	00c59793          	slli	a5,a1,0xc
    8906:	83b1                	srli	a5,a5,0xc
    8908:	00a7e733          	or	a4,a5,a0
    890c:	40e007b3          	neg	a5,a4
    8910:	8fd9                	or	a5,a5,a4
    8912:	00005697          	auipc	a3,0x5
    8916:	e5668693          	addi	a3,a3,-426 # d768 <TWO52>
    891a:	00341713          	slli	a4,s0,0x3
    891e:	96ba                	add	a3,a3,a4
    8920:	83b1                	srli	a5,a5,0xc
    8922:	0006a903          	lw	s2,0(a3)
    8926:	0046a983          	lw	s3,4(a3)
    892a:	7701                	lui	a4,0xfffe0
    892c:	00080337          	lui	t1,0x80
    8930:	8f6d                	and	a4,a4,a1
    8932:	0067f333          	and	t1,a5,t1
    8936:	00e36333          	or	t1,t1,a4
    893a:	869a                	mv	a3,t1
    893c:	862a                	mv	a2,a0
    893e:	85ce                	mv	a1,s3
    8940:	854a                	mv	a0,s2
    8942:	234d                	jal	8ee4 <__adddf3>
    8944:	c42a                	sw	a0,8(sp)
    8946:	c62e                	sw	a1,12(sp)
    8948:	4522                	lw	a0,8(sp)
    894a:	45b2                	lw	a1,12(sp)
    894c:	864a                	mv	a2,s2
    894e:	86ce                	mv	a3,s3
    8950:	0ff010ef          	jal	ra,a24e <__subdf3>
    8954:	8ced                	and	s1,s1,a1
    8956:	01f41313          	slli	t1,s0,0x1f
    895a:	0064e333          	or	t1,s1,t1
    895e:	88aa                	mv	a7,a0
    8960:	bfb5                	j	88dc <rint+0xaa>
    8962:	03300893          	li	a7,51
    8966:	00c8de63          	bge	a7,a2,8982 <rint+0x150>
    896a:	40000713          	li	a4,1024
    896e:	88aa                	mv	a7,a0
    8970:	832e                	mv	t1,a1
    8972:	f6e615e3          	bne	a2,a4,88dc <rint+0xaa>
    8976:	862a                	mv	a2,a0
    8978:	86f2                	mv	a3,t3
    897a:	23ad                	jal	8ee4 <__adddf3>
    897c:	88aa                	mv	a7,a0
    897e:	832e                	mv	t1,a1
    8980:	bfb1                	j	88dc <rint+0xaa>
    8982:	bed70713          	addi	a4,a4,-1043 # fffdfbed <__freertos_irq_stack_top+0xdffdabed>
    8986:	567d                	li	a2,-1
    8988:	00e65633          	srl	a2,a2,a4
    898c:	00a675b3          	and	a1,a2,a0
    8990:	88aa                	mv	a7,a0
    8992:	833e                	mv	t1,a5
    8994:	d5a1                	beqz	a1,88dc <rint+0xaa>
    8996:	8205                	srli	a2,a2,0x1
    8998:	00a677b3          	and	a5,a2,a0
    899c:	882a                	mv	a6,a0
    899e:	f00785e3          	beqz	a5,88a8 <rint+0x76>
    89a2:	40000837          	lui	a6,0x40000
    89a6:	fff64613          	not	a2,a2
    89aa:	00a676b3          	and	a3,a2,a0
    89ae:	40e85733          	sra	a4,a6,a4
    89b2:	00e6e833          	or	a6,a3,a4
    89b6:	bdcd                	j	88a8 <rint+0x76>

000089b8 <scalbn>:
    89b8:	1141                	addi	sp,sp,-16
    89ba:	4145d793          	srai	a5,a1,0x14
    89be:	c422                	sw	s0,8(sp)
    89c0:	c606                	sw	ra,12(sp)
    89c2:	c226                	sw	s1,4(sp)
    89c4:	7ff7f793          	andi	a5,a5,2047
    89c8:	872e                	mv	a4,a1
    89ca:	86aa                	mv	a3,a0
    89cc:	8432                	mv	s0,a2
    89ce:	e7c1                	bnez	a5,8a56 <scalbn+0x9e>
    89d0:	00159793          	slli	a5,a1,0x1
    89d4:	8385                	srli	a5,a5,0x1
    89d6:	8fc9                	or	a5,a5,a0
    89d8:	cba5                	beqz	a5,8a48 <scalbn+0x90>
    89da:	00005797          	auipc	a5,0x5
    89de:	d9e78793          	addi	a5,a5,-610 # d778 <TWO52+0x10>
    89e2:	43d4                	lw	a3,4(a5)
    89e4:	4390                	lw	a2,0(a5)
    89e6:	3b0010ef          	jal	ra,9d96 <__muldf3>
    89ea:	77d1                	lui	a5,0xffff4
    89ec:	cb078793          	addi	a5,a5,-848 # ffff3cb0 <__freertos_irq_stack_top+0xdffeecb0>
    89f0:	86aa                	mv	a3,a0
    89f2:	872e                	mv	a4,a1
    89f4:	0ef44063          	blt	s0,a5,8ad4 <scalbn+0x11c>
    89f8:	4145d793          	srai	a5,a1,0x14
    89fc:	7ff7f793          	andi	a5,a5,2047
    8a00:	862e                	mv	a2,a1
    8a02:	fca78793          	addi	a5,a5,-54
    8a06:	97a2                	add	a5,a5,s0
    8a08:	7fe00593          	li	a1,2046
    8a0c:	0af5c263          	blt	a1,a5,8ab0 <scalbn+0xf8>
    8a10:	0af04563          	bgtz	a5,8aba <scalbn+0x102>
    8a14:	fcb00593          	li	a1,-53
    8a18:	06b7d063          	bge	a5,a1,8a78 <scalbn+0xc0>
    8a1c:	67b1                	lui	a5,0xc
    8a1e:	35078793          	addi	a5,a5,848 # c350 <__sflush_r+0x112>
    8a22:	0887c763          	blt	a5,s0,8ab0 <scalbn+0xf8>
    8a26:	00005797          	auipc	a5,0x5
    8a2a:	a4a78793          	addi	a5,a5,-1462 # d470 <atanlo+0x128>
    8a2e:	4380                	lw	s0,0(a5)
    8a30:	43c4                	lw	s1,4(a5)
    8a32:	8636                	mv	a2,a3
    8a34:	8522                	mv	a0,s0
    8a36:	86ba                	mv	a3,a4
    8a38:	85a6                	mv	a1,s1
    8a3a:	2875                	jal	8af6 <copysign>
    8a3c:	86a6                	mv	a3,s1
    8a3e:	8622                	mv	a2,s0
    8a40:	356010ef          	jal	ra,9d96 <__muldf3>
    8a44:	86aa                	mv	a3,a0
    8a46:	872e                	mv	a4,a1
    8a48:	40b2                	lw	ra,12(sp)
    8a4a:	4422                	lw	s0,8(sp)
    8a4c:	4492                	lw	s1,4(sp)
    8a4e:	8536                	mv	a0,a3
    8a50:	85ba                	mv	a1,a4
    8a52:	0141                	addi	sp,sp,16
    8a54:	8082                	ret
    8a56:	7ff00813          	li	a6,2047
    8a5a:	862e                	mv	a2,a1
    8a5c:	fb0795e3          	bne	a5,a6,8a06 <scalbn+0x4e>
    8a60:	86ae                	mv	a3,a1
    8a62:	862a                	mv	a2,a0
    8a64:	2141                	jal	8ee4 <__adddf3>
    8a66:	40b2                	lw	ra,12(sp)
    8a68:	4422                	lw	s0,8(sp)
    8a6a:	86aa                	mv	a3,a0
    8a6c:	872e                	mv	a4,a1
    8a6e:	4492                	lw	s1,4(sp)
    8a70:	8536                	mv	a0,a3
    8a72:	85ba                	mv	a1,a4
    8a74:	0141                	addi	sp,sp,16
    8a76:	8082                	ret
    8a78:	80100737          	lui	a4,0x80100
    8a7c:	177d                	addi	a4,a4,-1
    8a7e:	03678793          	addi	a5,a5,54
    8a82:	8e79                	and	a2,a2,a4
    8a84:	07d2                	slli	a5,a5,0x14
    8a86:	00005717          	auipc	a4,0x5
    8a8a:	cfa70713          	addi	a4,a4,-774 # d780 <TWO52+0x18>
    8a8e:	85b6                	mv	a1,a3
    8a90:	8fd1                	or	a5,a5,a2
    8a92:	4354                	lw	a3,4(a4)
    8a94:	4310                	lw	a2,0(a4)
    8a96:	852e                	mv	a0,a1
    8a98:	85be                	mv	a1,a5
    8a9a:	2fc010ef          	jal	ra,9d96 <__muldf3>
    8a9e:	40b2                	lw	ra,12(sp)
    8aa0:	4422                	lw	s0,8(sp)
    8aa2:	86aa                	mv	a3,a0
    8aa4:	872e                	mv	a4,a1
    8aa6:	4492                	lw	s1,4(sp)
    8aa8:	8536                	mv	a0,a3
    8aaa:	85ba                	mv	a1,a4
    8aac:	0141                	addi	sp,sp,16
    8aae:	8082                	ret
    8ab0:	00005797          	auipc	a5,0x5
    8ab4:	80078793          	addi	a5,a5,-2048 # d2b0 <_read+0x296>
    8ab8:	bf9d                	j	8a2e <scalbn+0x76>
    8aba:	80100737          	lui	a4,0x80100
    8abe:	40b2                	lw	ra,12(sp)
    8ac0:	4422                	lw	s0,8(sp)
    8ac2:	177d                	addi	a4,a4,-1
    8ac4:	8f71                	and	a4,a4,a2
    8ac6:	07d2                	slli	a5,a5,0x14
    8ac8:	8f5d                	or	a4,a4,a5
    8aca:	4492                	lw	s1,4(sp)
    8acc:	8536                	mv	a0,a3
    8ace:	85ba                	mv	a1,a4
    8ad0:	0141                	addi	sp,sp,16
    8ad2:	8082                	ret
    8ad4:	00005797          	auipc	a5,0x5
    8ad8:	99c78793          	addi	a5,a5,-1636 # d470 <atanlo+0x128>
    8adc:	43d4                	lw	a3,4(a5)
    8ade:	4390                	lw	a2,0(a5)
    8ae0:	2b6010ef          	jal	ra,9d96 <__muldf3>
    8ae4:	40b2                	lw	ra,12(sp)
    8ae6:	4422                	lw	s0,8(sp)
    8ae8:	86aa                	mv	a3,a0
    8aea:	872e                	mv	a4,a1
    8aec:	4492                	lw	s1,4(sp)
    8aee:	8536                	mv	a0,a3
    8af0:	85ba                	mv	a1,a4
    8af2:	0141                	addi	sp,sp,16
    8af4:	8082                	ret

00008af6 <copysign>:
    8af6:	80000737          	lui	a4,0x80000
    8afa:	fff74793          	not	a5,a4
    8afe:	8ef9                	and	a3,a3,a4
    8b00:	8fed                	and	a5,a5,a1
    8b02:	872a                	mv	a4,a0
    8b04:	8fd5                	or	a5,a5,a3
    8b06:	853a                	mv	a0,a4
    8b08:	85be                	mv	a1,a5
    8b0a:	8082                	ret

00008b0c <__divdi3>:
    8b0c:	4801                	li	a6,0
    8b0e:	0e05c663          	bltz	a1,8bfa <__divdi3+0xee>
    8b12:	0006db63          	bgez	a3,8b28 <__divdi3+0x1c>
    8b16:	40c00633          	neg	a2,a2
    8b1a:	00c037b3          	snez	a5,a2
    8b1e:	40d006b3          	neg	a3,a3
    8b22:	fff84813          	not	a6,a6
    8b26:	8e9d                	sub	a3,a3,a5
    8b28:	87b6                	mv	a5,a3
    8b2a:	8332                	mv	t1,a2
    8b2c:	8eaa                	mv	t4,a0
    8b2e:	88ae                	mv	a7,a1
    8b30:	18069163          	bnez	a3,8cb2 <__divdi3+0x1a6>
    8b34:	0cc5fc63          	bgeu	a1,a2,8c0c <__divdi3+0x100>
    8b38:	6741                	lui	a4,0x10
    8b3a:	1ee66163          	bltu	a2,a4,8d1c <__divdi3+0x210>
    8b3e:	010007b7          	lui	a5,0x1000
    8b42:	36f66563          	bltu	a2,a5,8eac <__divdi3+0x3a0>
    8b46:	01865693          	srli	a3,a2,0x18
    8b4a:	47e1                	li	a5,24
    8b4c:	00005717          	auipc	a4,0x5
    8b50:	d7c70713          	addi	a4,a4,-644 # d8c8 <__clz_tab>
    8b54:	9736                	add	a4,a4,a3
    8b56:	00074703          	lbu	a4,0(a4)
    8b5a:	97ba                	add	a5,a5,a4
    8b5c:	02000713          	li	a4,32
    8b60:	8f1d                	sub	a4,a4,a5
    8b62:	cb19                	beqz	a4,8b78 <__divdi3+0x6c>
    8b64:	00e595b3          	sll	a1,a1,a4
    8b68:	00f557b3          	srl	a5,a0,a5
    8b6c:	00e61333          	sll	t1,a2,a4
    8b70:	00b7e8b3          	or	a7,a5,a1
    8b74:	00e51eb3          	sll	t4,a0,a4
    8b78:	01035613          	srli	a2,t1,0x10
    8b7c:	02c8d7b3          	divu	a5,a7,a2
    8b80:	01031693          	slli	a3,t1,0x10
    8b84:	82c1                	srli	a3,a3,0x10
    8b86:	010ed713          	srli	a4,t4,0x10
    8b8a:	02c8f5b3          	remu	a1,a7,a2
    8b8e:	02f68533          	mul	a0,a3,a5
    8b92:	05c2                	slli	a1,a1,0x10
    8b94:	00e5e8b3          	or	a7,a1,a4
    8b98:	00a8fa63          	bgeu	a7,a0,8bac <__divdi3+0xa0>
    8b9c:	989a                	add	a7,a7,t1
    8b9e:	fff78713          	addi	a4,a5,-1 # ffffff <_data_lma+0xff259b>
    8ba2:	0068e463          	bltu	a7,t1,8baa <__divdi3+0x9e>
    8ba6:	32a8e963          	bltu	a7,a0,8ed8 <__divdi3+0x3cc>
    8baa:	87ba                	mv	a5,a4
    8bac:	40a888b3          	sub	a7,a7,a0
    8bb0:	02c8d5b3          	divu	a1,a7,a2
    8bb4:	0ec2                	slli	t4,t4,0x10
    8bb6:	010ede93          	srli	t4,t4,0x10
    8bba:	02c8f8b3          	remu	a7,a7,a2
    8bbe:	02b686b3          	mul	a3,a3,a1
    8bc2:	08c2                	slli	a7,a7,0x10
    8bc4:	01d8e8b3          	or	a7,a7,t4
    8bc8:	00d8fb63          	bgeu	a7,a3,8bde <__divdi3+0xd2>
    8bcc:	989a                	add	a7,a7,t1
    8bce:	fff58713          	addi	a4,a1,-1 # fffff <_data_lma+0xf259b>
    8bd2:	0068e563          	bltu	a7,t1,8bdc <__divdi3+0xd0>
    8bd6:	15f9                	addi	a1,a1,-2
    8bd8:	00d8e363          	bltu	a7,a3,8bde <__divdi3+0xd2>
    8bdc:	85ba                	mv	a1,a4
    8bde:	01079513          	slli	a0,a5,0x10
    8be2:	8d4d                	or	a0,a0,a1
    8be4:	4581                	li	a1,0
    8be6:	00080963          	beqz	a6,8bf8 <__divdi3+0xec>
    8bea:	40a00533          	neg	a0,a0
    8bee:	00a037b3          	snez	a5,a0
    8bf2:	40b005b3          	neg	a1,a1
    8bf6:	8d9d                	sub	a1,a1,a5
    8bf8:	8082                	ret
    8bfa:	40a00533          	neg	a0,a0
    8bfe:	00a037b3          	snez	a5,a0
    8c02:	40b005b3          	neg	a1,a1
    8c06:	8d9d                	sub	a1,a1,a5
    8c08:	587d                	li	a6,-1
    8c0a:	b721                	j	8b12 <__divdi3+0x6>
    8c0c:	e601                	bnez	a2,8c14 <__divdi3+0x108>
    8c0e:	4305                	li	t1,1
    8c10:	02d35333          	divu	t1,t1,a3
    8c14:	6741                	lui	a4,0x10
    8c16:	0ee36a63          	bltu	t1,a4,8d0a <__divdi3+0x1fe>
    8c1a:	010007b7          	lui	a5,0x1000
    8c1e:	28f36b63          	bltu	t1,a5,8eb4 <__divdi3+0x3a8>
    8c22:	01835693          	srli	a3,t1,0x18
    8c26:	47e1                	li	a5,24
    8c28:	00005717          	auipc	a4,0x5
    8c2c:	ca070713          	addi	a4,a4,-864 # d8c8 <__clz_tab>
    8c30:	9736                	add	a4,a4,a3
    8c32:	00074703          	lbu	a4,0(a4)
    8c36:	97ba                	add	a5,a5,a4
    8c38:	02000713          	li	a4,32
    8c3c:	8f1d                	sub	a4,a4,a5
    8c3e:	eb65                	bnez	a4,8d2e <__divdi3+0x222>
    8c40:	01031893          	slli	a7,t1,0x10
    8c44:	406586b3          	sub	a3,a1,t1
    8c48:	01035f13          	srli	t5,t1,0x10
    8c4c:	0108d893          	srli	a7,a7,0x10
    8c50:	4585                	li	a1,1
    8c52:	010ed713          	srli	a4,t4,0x10
    8c56:	03e6d7b3          	divu	a5,a3,t5
    8c5a:	03e6f6b3          	remu	a3,a3,t5
    8c5e:	03178633          	mul	a2,a5,a7
    8c62:	06c2                	slli	a3,a3,0x10
    8c64:	8f55                	or	a4,a4,a3
    8c66:	00c77a63          	bgeu	a4,a2,8c7a <__divdi3+0x16e>
    8c6a:	971a                	add	a4,a4,t1
    8c6c:	fff78693          	addi	a3,a5,-1 # ffffff <_data_lma+0xff259b>
    8c70:	00676463          	bltu	a4,t1,8c78 <__divdi3+0x16c>
    8c74:	26c76563          	bltu	a4,a2,8ede <__divdi3+0x3d2>
    8c78:	87b6                	mv	a5,a3
    8c7a:	8f11                	sub	a4,a4,a2
    8c7c:	03e756b3          	divu	a3,a4,t5
    8c80:	0ec2                	slli	t4,t4,0x10
    8c82:	010ede93          	srli	t4,t4,0x10
    8c86:	03e77733          	remu	a4,a4,t5
    8c8a:	031688b3          	mul	a7,a3,a7
    8c8e:	0742                	slli	a4,a4,0x10
    8c90:	01d76733          	or	a4,a4,t4
    8c94:	01177b63          	bgeu	a4,a7,8caa <__divdi3+0x19e>
    8c98:	971a                	add	a4,a4,t1
    8c9a:	fff68613          	addi	a2,a3,-1
    8c9e:	00676563          	bltu	a4,t1,8ca8 <__divdi3+0x19c>
    8ca2:	16f9                	addi	a3,a3,-2
    8ca4:	01176363          	bltu	a4,a7,8caa <__divdi3+0x19e>
    8ca8:	86b2                	mv	a3,a2
    8caa:	01079513          	slli	a0,a5,0x10
    8cae:	8d55                	or	a0,a0,a3
    8cb0:	bf1d                	j	8be6 <__divdi3+0xda>
    8cb2:	04d5e163          	bltu	a1,a3,8cf4 <__divdi3+0x1e8>
    8cb6:	67c1                	lui	a5,0x10
    8cb8:	04f6e163          	bltu	a3,a5,8cfa <__divdi3+0x1ee>
    8cbc:	010007b7          	lui	a5,0x1000
    8cc0:	1ef6e263          	bltu	a3,a5,8ea4 <__divdi3+0x398>
    8cc4:	0186d893          	srli	a7,a3,0x18
    8cc8:	4761                	li	a4,24
    8cca:	00005797          	auipc	a5,0x5
    8cce:	bfe78793          	addi	a5,a5,-1026 # d8c8 <__clz_tab>
    8cd2:	97c6                	add	a5,a5,a7
    8cd4:	0007c303          	lbu	t1,0(a5)
    8cd8:	02000793          	li	a5,32
    8cdc:	933a                	add	t1,t1,a4
    8cde:	406787b3          	sub	a5,a5,t1
    8ce2:	ebe9                	bnez	a5,8db4 <__divdi3+0x2a8>
    8ce4:	1cb6ec63          	bltu	a3,a1,8ebc <__divdi3+0x3b0>
    8ce8:	00c53533          	sltu	a0,a0,a2
    8cec:	00154513          	xori	a0,a0,1
    8cf0:	4581                	li	a1,0
    8cf2:	bdd5                	j	8be6 <__divdi3+0xda>
    8cf4:	4581                	li	a1,0
    8cf6:	4501                	li	a0,0
    8cf8:	b5fd                	j	8be6 <__divdi3+0xda>
    8cfa:	0ff00793          	li	a5,255
    8cfe:	1cd7f263          	bgeu	a5,a3,8ec2 <__divdi3+0x3b6>
    8d02:	0086d893          	srli	a7,a3,0x8
    8d06:	4721                	li	a4,8
    8d08:	b7c9                	j	8cca <__divdi3+0x1be>
    8d0a:	0ff00713          	li	a4,255
    8d0e:	869a                	mv	a3,t1
    8d10:	f0677ce3          	bgeu	a4,t1,8c28 <__divdi3+0x11c>
    8d14:	00835693          	srli	a3,t1,0x8
    8d18:	47a1                	li	a5,8
    8d1a:	b739                	j	8c28 <__divdi3+0x11c>
    8d1c:	0ff00713          	li	a4,255
    8d20:	86b2                	mv	a3,a2
    8d22:	e2c775e3          	bgeu	a4,a2,8b4c <__divdi3+0x40>
    8d26:	00865693          	srli	a3,a2,0x8
    8d2a:	47a1                	li	a5,8
    8d2c:	b505                	j	8b4c <__divdi3+0x40>
    8d2e:	00e31333          	sll	t1,t1,a4
    8d32:	00f5d633          	srl	a2,a1,a5
    8d36:	01035f13          	srli	t5,t1,0x10
    8d3a:	03e65e33          	divu	t3,a2,t5
    8d3e:	00e596b3          	sll	a3,a1,a4
    8d42:	00f557b3          	srl	a5,a0,a5
    8d46:	8edd                	or	a3,a3,a5
    8d48:	01031893          	slli	a7,t1,0x10
    8d4c:	0108d893          	srli	a7,a7,0x10
    8d50:	00e51eb3          	sll	t4,a0,a4
    8d54:	0106d593          	srli	a1,a3,0x10
    8d58:	03e677b3          	remu	a5,a2,t5
    8d5c:	03c88733          	mul	a4,a7,t3
    8d60:	07c2                	slli	a5,a5,0x10
    8d62:	8fcd                	or	a5,a5,a1
    8d64:	00e7fb63          	bgeu	a5,a4,8d7a <__divdi3+0x26e>
    8d68:	979a                	add	a5,a5,t1
    8d6a:	fffe0613          	addi	a2,t3,-1 # 3ffff <_data_lma+0x3259b>
    8d6e:	1667e363          	bltu	a5,t1,8ed4 <__divdi3+0x3c8>
    8d72:	16e7f163          	bgeu	a5,a4,8ed4 <__divdi3+0x3c8>
    8d76:	1e79                	addi	t3,t3,-2
    8d78:	979a                	add	a5,a5,t1
    8d7a:	8f99                	sub	a5,a5,a4
    8d7c:	03e7d633          	divu	a2,a5,t5
    8d80:	01069713          	slli	a4,a3,0x10
    8d84:	8341                	srli	a4,a4,0x10
    8d86:	03e7f7b3          	remu	a5,a5,t5
    8d8a:	02c88533          	mul	a0,a7,a2
    8d8e:	01079693          	slli	a3,a5,0x10
    8d92:	8ed9                	or	a3,a3,a4
    8d94:	00a6fb63          	bgeu	a3,a0,8daa <__divdi3+0x29e>
    8d98:	969a                	add	a3,a3,t1
    8d9a:	fff60793          	addi	a5,a2,-1 # ffffff <_data_lma+0xff259b>
    8d9e:	1266e763          	bltu	a3,t1,8ecc <__divdi3+0x3c0>
    8da2:	12a6f563          	bgeu	a3,a0,8ecc <__divdi3+0x3c0>
    8da6:	1679                	addi	a2,a2,-2
    8da8:	969a                	add	a3,a3,t1
    8daa:	010e1593          	slli	a1,t3,0x10
    8dae:	8e89                	sub	a3,a3,a0
    8db0:	8dd1                	or	a1,a1,a2
    8db2:	b545                	j	8c52 <__divdi3+0x146>
    8db4:	00665733          	srl	a4,a2,t1
    8db8:	00f696b3          	sll	a3,a3,a5
    8dbc:	8ed9                	or	a3,a3,a4
    8dbe:	0065d8b3          	srl	a7,a1,t1
    8dc2:	0106df13          	srli	t5,a3,0x10
    8dc6:	03e8deb3          	divu	t4,a7,t5
    8dca:	01069e13          	slli	t3,a3,0x10
    8dce:	00655333          	srl	t1,a0,t1
    8dd2:	010e5e13          	srli	t3,t3,0x10
    8dd6:	00f595b3          	sll	a1,a1,a5
    8dda:	00b365b3          	or	a1,t1,a1
    8dde:	0105d713          	srli	a4,a1,0x10
    8de2:	00f61633          	sll	a2,a2,a5
    8de6:	03e8f8b3          	remu	a7,a7,t5
    8dea:	03de0333          	mul	t1,t3,t4
    8dee:	08c2                	slli	a7,a7,0x10
    8df0:	00e8e733          	or	a4,a7,a4
    8df4:	00677b63          	bgeu	a4,t1,8e0a <__divdi3+0x2fe>
    8df8:	9736                	add	a4,a4,a3
    8dfa:	fffe8893          	addi	a7,t4,-1
    8dfe:	0cd76963          	bltu	a4,a3,8ed0 <__divdi3+0x3c4>
    8e02:	0c677763          	bgeu	a4,t1,8ed0 <__divdi3+0x3c4>
    8e06:	1ef9                	addi	t4,t4,-2
    8e08:	9736                	add	a4,a4,a3
    8e0a:	40670733          	sub	a4,a4,t1
    8e0e:	03e75333          	divu	t1,a4,t5
    8e12:	05c2                	slli	a1,a1,0x10
    8e14:	81c1                	srli	a1,a1,0x10
    8e16:	03e77733          	remu	a4,a4,t5
    8e1a:	026e08b3          	mul	a7,t3,t1
    8e1e:	0742                	slli	a4,a4,0x10
    8e20:	8dd9                	or	a1,a1,a4
    8e22:	0115fb63          	bgeu	a1,a7,8e38 <__divdi3+0x32c>
    8e26:	95b6                	add	a1,a1,a3
    8e28:	fff30713          	addi	a4,t1,-1 # 7ffff <_data_lma+0x7259b>
    8e2c:	08d5ee63          	bltu	a1,a3,8ec8 <__divdi3+0x3bc>
    8e30:	0915fc63          	bgeu	a1,a7,8ec8 <__divdi3+0x3bc>
    8e34:	1379                	addi	t1,t1,-2
    8e36:	95b6                	add	a1,a1,a3
    8e38:	0ec2                	slli	t4,t4,0x10
    8e3a:	6f41                	lui	t5,0x10
    8e3c:	006eeeb3          	or	t4,t4,t1
    8e40:	ffff0713          	addi	a4,t5,-1 # ffff <_data_lma+0x259b>
    8e44:	00eef6b3          	and	a3,t4,a4
    8e48:	010ed313          	srli	t1,t4,0x10
    8e4c:	8f71                	and	a4,a4,a2
    8e4e:	8241                	srli	a2,a2,0x10
    8e50:	02e68e33          	mul	t3,a3,a4
    8e54:	411585b3          	sub	a1,a1,a7
    8e58:	02c686b3          	mul	a3,a3,a2
    8e5c:	010e5893          	srli	a7,t3,0x10
    8e60:	02e30733          	mul	a4,t1,a4
    8e64:	96ba                	add	a3,a3,a4
    8e66:	96c6                	add	a3,a3,a7
    8e68:	02c30633          	mul	a2,t1,a2
    8e6c:	00e6f363          	bgeu	a3,a4,8e72 <__divdi3+0x366>
    8e70:	967a                	add	a2,a2,t5
    8e72:	0106d313          	srli	t1,a3,0x10
    8e76:	961a                	add	a2,a2,t1
    8e78:	02c5e263          	bltu	a1,a2,8e9c <__divdi3+0x390>
    8e7c:	00c58563          	beq	a1,a2,8e86 <__divdi3+0x37a>
    8e80:	8576                	mv	a0,t4
    8e82:	4581                	li	a1,0
    8e84:	b38d                	j	8be6 <__divdi3+0xda>
    8e86:	6741                	lui	a4,0x10
    8e88:	177d                	addi	a4,a4,-1
    8e8a:	8ef9                	and	a3,a3,a4
    8e8c:	06c2                	slli	a3,a3,0x10
    8e8e:	00ee7e33          	and	t3,t3,a4
    8e92:	00f517b3          	sll	a5,a0,a5
    8e96:	96f2                	add	a3,a3,t3
    8e98:	fed7f4e3          	bgeu	a5,a3,8e80 <__divdi3+0x374>
    8e9c:	fffe8513          	addi	a0,t4,-1
    8ea0:	4581                	li	a1,0
    8ea2:	b391                	j	8be6 <__divdi3+0xda>
    8ea4:	0106d893          	srli	a7,a3,0x10
    8ea8:	4741                	li	a4,16
    8eaa:	b505                	j	8cca <__divdi3+0x1be>
    8eac:	01065693          	srli	a3,a2,0x10
    8eb0:	47c1                	li	a5,16
    8eb2:	b969                	j	8b4c <__divdi3+0x40>
    8eb4:	01035693          	srli	a3,t1,0x10
    8eb8:	47c1                	li	a5,16
    8eba:	b3bd                	j	8c28 <__divdi3+0x11c>
    8ebc:	4581                	li	a1,0
    8ebe:	4505                	li	a0,1
    8ec0:	b31d                	j	8be6 <__divdi3+0xda>
    8ec2:	88b6                	mv	a7,a3
    8ec4:	4701                	li	a4,0
    8ec6:	b511                	j	8cca <__divdi3+0x1be>
    8ec8:	833a                	mv	t1,a4
    8eca:	b7bd                	j	8e38 <__divdi3+0x32c>
    8ecc:	863e                	mv	a2,a5
    8ece:	bdf1                	j	8daa <__divdi3+0x29e>
    8ed0:	8ec6                	mv	t4,a7
    8ed2:	bf25                	j	8e0a <__divdi3+0x2fe>
    8ed4:	8e32                	mv	t3,a2
    8ed6:	b555                	j	8d7a <__divdi3+0x26e>
    8ed8:	17f9                	addi	a5,a5,-2
    8eda:	989a                	add	a7,a7,t1
    8edc:	b9c1                	j	8bac <__divdi3+0xa0>
    8ede:	17f9                	addi	a5,a5,-2
    8ee0:	971a                	add	a4,a4,t1
    8ee2:	bb61                	j	8c7a <__divdi3+0x16e>

00008ee4 <__adddf3>:
    8ee4:	00100837          	lui	a6,0x100
    8ee8:	1101                	addi	sp,sp,-32
    8eea:	187d                	addi	a6,a6,-1
    8eec:	00b87733          	and	a4,a6,a1
    8ef0:	ca26                	sw	s1,20(sp)
    8ef2:	00d87833          	and	a6,a6,a3
    8ef6:	0145d493          	srli	s1,a1,0x14
    8efa:	0146d313          	srli	t1,a3,0x14
    8efe:	00371e13          	slli	t3,a4,0x3
    8f02:	c64e                	sw	s3,12(sp)
    8f04:	01d55713          	srli	a4,a0,0x1d
    8f08:	080e                	slli	a6,a6,0x3
    8f0a:	01d65793          	srli	a5,a2,0x1d
    8f0e:	7ff4f493          	andi	s1,s1,2047
    8f12:	7ff37313          	andi	t1,t1,2047
    8f16:	ce06                	sw	ra,28(sp)
    8f18:	cc22                	sw	s0,24(sp)
    8f1a:	c84a                	sw	s2,16(sp)
    8f1c:	01f5d993          	srli	s3,a1,0x1f
    8f20:	01f6de93          	srli	t4,a3,0x1f
    8f24:	01c76733          	or	a4,a4,t3
    8f28:	00351f13          	slli	t5,a0,0x3
    8f2c:	0107e833          	or	a6,a5,a6
    8f30:	00361f93          	slli	t6,a2,0x3
    8f34:	40648e33          	sub	t3,s1,t1
    8f38:	19d98063          	beq	s3,t4,90b8 <__adddf3+0x1d4>
    8f3c:	13c05663          	blez	t3,9068 <__adddf3+0x184>
    8f40:	1c030463          	beqz	t1,9108 <__adddf3+0x224>
    8f44:	008006b7          	lui	a3,0x800
    8f48:	7ff00793          	li	a5,2047
    8f4c:	00d86833          	or	a6,a6,a3
    8f50:	36f48f63          	beq	s1,a5,92ce <__adddf3+0x3ea>
    8f54:	03800793          	li	a5,56
    8f58:	35c7c063          	blt	a5,t3,9298 <__adddf3+0x3b4>
    8f5c:	47fd                	li	a5,31
    8f5e:	47c7cd63          	blt	a5,t3,93d8 <__adddf3+0x4f4>
    8f62:	02000513          	li	a0,32
    8f66:	41c50533          	sub	a0,a0,t3
    8f6a:	01cfd7b3          	srl	a5,t6,t3
    8f6e:	00a816b3          	sll	a3,a6,a0
    8f72:	00af9933          	sll	s2,t6,a0
    8f76:	8edd                	or	a3,a3,a5
    8f78:	01203933          	snez	s2,s2
    8f7c:	01c857b3          	srl	a5,a6,t3
    8f80:	0126e933          	or	s2,a3,s2
    8f84:	8f1d                	sub	a4,a4,a5
    8f86:	412f0933          	sub	s2,t5,s2
    8f8a:	012f37b3          	sltu	a5,t5,s2
    8f8e:	40f70633          	sub	a2,a4,a5
    8f92:	00861793          	slli	a5,a2,0x8
    8f96:	2407d463          	bgez	a5,91de <__adddf3+0x2fa>
    8f9a:	00800737          	lui	a4,0x800
    8f9e:	177d                	addi	a4,a4,-1
    8fa0:	00e67433          	and	s0,a2,a4
    8fa4:	2c040c63          	beqz	s0,927c <__adddf3+0x398>
    8fa8:	8522                	mv	a0,s0
    8faa:	493020ef          	jal	ra,bc3c <__clzsi2>
    8fae:	ff850713          	addi	a4,a0,-8 # 800ffff8 <__freertos_irq_stack_top+0x600faff8>
    8fb2:	02000793          	li	a5,32
    8fb6:	8f99                	sub	a5,a5,a4
    8fb8:	00f957b3          	srl	a5,s2,a5
    8fbc:	00e41633          	sll	a2,s0,a4
    8fc0:	8fd1                	or	a5,a5,a2
    8fc2:	00e91933          	sll	s2,s2,a4
    8fc6:	2a974163          	blt	a4,s1,9268 <__adddf3+0x384>
    8fca:	40970533          	sub	a0,a4,s1
    8fce:	00150613          	addi	a2,a0,1
    8fd2:	477d                	li	a4,31
    8fd4:	38c74d63          	blt	a4,a2,936e <__adddf3+0x48a>
    8fd8:	02000713          	li	a4,32
    8fdc:	8f11                	sub	a4,a4,a2
    8fde:	00c956b3          	srl	a3,s2,a2
    8fe2:	00e91933          	sll	s2,s2,a4
    8fe6:	00e79733          	sll	a4,a5,a4
    8fea:	8f55                	or	a4,a4,a3
    8fec:	01203933          	snez	s2,s2
    8ff0:	01276933          	or	s2,a4,s2
    8ff4:	00c7d633          	srl	a2,a5,a2
    8ff8:	4481                	li	s1,0
    8ffa:	00797793          	andi	a5,s2,7
    8ffe:	cf81                	beqz	a5,9016 <__adddf3+0x132>
    9000:	00f97713          	andi	a4,s2,15
    9004:	4791                	li	a5,4
    9006:	00f70863          	beq	a4,a5,9016 <__adddf3+0x132>
    900a:	00490713          	addi	a4,s2,4 # bff00004 <__freertos_irq_stack_top+0x9fefb004>
    900e:	01273933          	sltu	s2,a4,s2
    9012:	964a                	add	a2,a2,s2
    9014:	893a                	mv	s2,a4
    9016:	00861793          	slli	a5,a2,0x8
    901a:	1c07d663          	bgez	a5,91e6 <__adddf3+0x302>
    901e:	00148513          	addi	a0,s1,1 # 80000001 <__freertos_irq_stack_top+0x5fffb001>
    9022:	7ff00793          	li	a5,2047
    9026:	85ce                	mv	a1,s3
    9028:	20f50463          	beq	a0,a5,9230 <__adddf3+0x34c>
    902c:	ff8007b7          	lui	a5,0xff800
    9030:	17fd                	addi	a5,a5,-1
    9032:	8ff1                	and	a5,a5,a2
    9034:	01d79893          	slli	a7,a5,0x1d
    9038:	00395913          	srli	s2,s2,0x3
    903c:	07a6                	slli	a5,a5,0x9
    903e:	0128e8b3          	or	a7,a7,s2
    9042:	83b1                	srli	a5,a5,0xc
    9044:	7ff57513          	andi	a0,a0,2047
    9048:	00c79693          	slli	a3,a5,0xc
    904c:	0552                	slli	a0,a0,0x14
    904e:	40f2                	lw	ra,28(sp)
    9050:	4462                	lw	s0,24(sp)
    9052:	82b1                	srli	a3,a3,0xc
    9054:	05fe                	slli	a1,a1,0x1f
    9056:	8ec9                	or	a3,a3,a0
    9058:	8ecd                	or	a3,a3,a1
    905a:	44d2                	lw	s1,20(sp)
    905c:	4942                	lw	s2,16(sp)
    905e:	49b2                	lw	s3,12(sp)
    9060:	8546                	mv	a0,a7
    9062:	85b6                	mv	a1,a3
    9064:	6105                	addi	sp,sp,32
    9066:	8082                	ret
    9068:	0a0e1e63          	bnez	t3,9124 <__adddf3+0x240>
    906c:	00148313          	addi	t1,s1,1
    9070:	7fe37313          	andi	t1,t1,2046
    9074:	22031763          	bnez	t1,92a2 <__adddf3+0x3be>
    9078:	01e767b3          	or	a5,a4,t5
    907c:	01f868b3          	or	a7,a6,t6
    9080:	1a049d63          	bnez	s1,923a <__adddf3+0x356>
    9084:	40078763          	beqz	a5,9492 <__adddf3+0x5ae>
    9088:	44088663          	beqz	a7,94d4 <__adddf3+0x5f0>
    908c:	41ff0933          	sub	s2,t5,t6
    9090:	410707b3          	sub	a5,a4,a6
    9094:	012f3633          	sltu	a2,t5,s2
    9098:	40c78633          	sub	a2,a5,a2
    909c:	00861793          	slli	a5,a2,0x8
    90a0:	4c07d663          	bgez	a5,956c <__adddf3+0x688>
    90a4:	41ef8933          	sub	s2,t6,t5
    90a8:	40e807b3          	sub	a5,a6,a4
    90ac:	012fb633          	sltu	a2,t6,s2
    90b0:	40c78633          	sub	a2,a5,a2
    90b4:	89f6                	mv	s3,t4
    90b6:	b791                	j	8ffa <__adddf3+0x116>
    90b8:	0fc05063          	blez	t3,9198 <__adddf3+0x2b4>
    90bc:	0c030063          	beqz	t1,917c <__adddf3+0x298>
    90c0:	008006b7          	lui	a3,0x800
    90c4:	7ff00793          	li	a5,2047
    90c8:	00d86833          	or	a6,a6,a3
    90cc:	3af48a63          	beq	s1,a5,9480 <__adddf3+0x59c>
    90d0:	03800793          	li	a5,56
    90d4:	13c7cb63          	blt	a5,t3,920a <__adddf3+0x326>
    90d8:	47fd                	li	a5,31
    90da:	35c7df63          	bge	a5,t3,9438 <__adddf3+0x554>
    90de:	fe0e0913          	addi	s2,t3,-32
    90e2:	02000793          	li	a5,32
    90e6:	012856b3          	srl	a3,a6,s2
    90ea:	00fe0a63          	beq	t3,a5,90fe <__adddf3+0x21a>
    90ee:	04000913          	li	s2,64
    90f2:	41c90933          	sub	s2,s2,t3
    90f6:	01281933          	sll	s2,a6,s2
    90fa:	012fefb3          	or	t6,t6,s2
    90fe:	01f03933          	snez	s2,t6
    9102:	00d96933          	or	s2,s2,a3
    9106:	a231                	j	9212 <__adddf3+0x32e>
    9108:	01f867b3          	or	a5,a6,t6
    910c:	1c078a63          	beqz	a5,92e0 <__adddf3+0x3fc>
    9110:	fffe0793          	addi	a5,t3,-1
    9114:	38078c63          	beqz	a5,94ac <__adddf3+0x5c8>
    9118:	7ff00693          	li	a3,2047
    911c:	1ade0963          	beq	t3,a3,92ce <__adddf3+0x3ea>
    9120:	8e3e                	mv	t3,a5
    9122:	bd0d                	j	8f54 <__adddf3+0x70>
    9124:	409305b3          	sub	a1,t1,s1
    9128:	22049163          	bnez	s1,934a <__adddf3+0x466>
    912c:	01e767b3          	or	a5,a4,t5
    9130:	32078763          	beqz	a5,945e <__adddf3+0x57a>
    9134:	fff58793          	addi	a5,a1,-1
    9138:	44078163          	beqz	a5,957a <__adddf3+0x696>
    913c:	7ff00693          	li	a3,2047
    9140:	20d58c63          	beq	a1,a3,9358 <__adddf3+0x474>
    9144:	85be                	mv	a1,a5
    9146:	03800793          	li	a5,56
    914a:	2ab7cc63          	blt	a5,a1,9402 <__adddf3+0x51e>
    914e:	47fd                	li	a5,31
    9150:	3cb7cf63          	blt	a5,a1,952e <__adddf3+0x64a>
    9154:	02000793          	li	a5,32
    9158:	8f8d                	sub	a5,a5,a1
    915a:	00f71933          	sll	s2,a4,a5
    915e:	00bf56b3          	srl	a3,t5,a1
    9162:	00ff17b3          	sll	a5,t5,a5
    9166:	00d96933          	or	s2,s2,a3
    916a:	00f037b3          	snez	a5,a5
    916e:	00b75733          	srl	a4,a4,a1
    9172:	00f96933          	or	s2,s2,a5
    9176:	40e80833          	sub	a6,a6,a4
    917a:	ac41                	j	940a <__adddf3+0x526>
    917c:	01f867b3          	or	a5,a6,t6
    9180:	34078063          	beqz	a5,94c0 <__adddf3+0x5dc>
    9184:	fffe0793          	addi	a5,t3,-1
    9188:	20078a63          	beqz	a5,939c <__adddf3+0x4b8>
    918c:	7ff00693          	li	a3,2047
    9190:	2ede0863          	beq	t3,a3,9480 <__adddf3+0x59c>
    9194:	8e3e                	mv	t3,a5
    9196:	bf2d                	j	90d0 <__adddf3+0x1ec>
    9198:	140e1e63          	bnez	t3,92f4 <__adddf3+0x410>
    919c:	00148693          	addi	a3,s1,1
    91a0:	7fe6f793          	andi	a5,a3,2046
    91a4:	34079163          	bnez	a5,94e6 <__adddf3+0x602>
    91a8:	01e767b3          	or	a5,a4,t5
    91ac:	2c049563          	bnez	s1,9476 <__adddf3+0x592>
    91b0:	3e078063          	beqz	a5,9590 <__adddf3+0x6ac>
    91b4:	01f867b3          	or	a5,a6,t6
    91b8:	30078e63          	beqz	a5,94d4 <__adddf3+0x5f0>
    91bc:	01ff0933          	add	s2,t5,t6
    91c0:	010707b3          	add	a5,a4,a6
    91c4:	01e93f33          	sltu	t5,s2,t5
    91c8:	01e78633          	add	a2,a5,t5
    91cc:	00861793          	slli	a5,a2,0x8
    91d0:	0007d763          	bgez	a5,91de <__adddf3+0x2fa>
    91d4:	ff8007b7          	lui	a5,0xff800
    91d8:	17fd                	addi	a5,a5,-1
    91da:	8e7d                	and	a2,a2,a5
    91dc:	4485                	li	s1,1
    91de:	00797793          	andi	a5,s2,7
    91e2:	e0079fe3          	bnez	a5,9000 <__adddf3+0x11c>
    91e6:	01d61793          	slli	a5,a2,0x1d
    91ea:	00395893          	srli	a7,s2,0x3
    91ee:	00f8e8b3          	or	a7,a7,a5
    91f2:	00365793          	srli	a5,a2,0x3
    91f6:	7ff00713          	li	a4,2047
    91fa:	04e48d63          	beq	s1,a4,9254 <__adddf3+0x370>
    91fe:	07b2                	slli	a5,a5,0xc
    9200:	83b1                	srli	a5,a5,0xc
    9202:	7ff4f513          	andi	a0,s1,2047
    9206:	85ce                	mv	a1,s3
    9208:	b581                	j	9048 <__adddf3+0x164>
    920a:	01f86933          	or	s2,a6,t6
    920e:	01203933          	snez	s2,s2
    9212:	997a                	add	s2,s2,t5
    9214:	01e937b3          	sltu	a5,s2,t5
    9218:	00e78633          	add	a2,a5,a4
    921c:	00861793          	slli	a5,a2,0x8
    9220:	fa07dfe3          	bgez	a5,91de <__adddf3+0x2fa>
    9224:	0485                	addi	s1,s1,1
    9226:	7ff00793          	li	a5,2047
    922a:	18f49663          	bne	s1,a5,93b6 <__adddf3+0x4d2>
    922e:	85ce                	mv	a1,s3
    9230:	7ff00513          	li	a0,2047
    9234:	4781                	li	a5,0
    9236:	4881                	li	a7,0
    9238:	bd01                	j	9048 <__adddf3+0x164>
    923a:	ebc1                	bnez	a5,92ca <__adddf3+0x3e6>
    923c:	3a088463          	beqz	a7,95e4 <__adddf3+0x700>
    9240:	00361693          	slli	a3,a2,0x3
    9244:	01d81793          	slli	a5,a6,0x1d
    9248:	828d                	srli	a3,a3,0x3
    924a:	00d7e8b3          	or	a7,a5,a3
    924e:	89f6                	mv	s3,t4
    9250:	00385793          	srli	a5,a6,0x3
    9254:	00f8e7b3          	or	a5,a7,a5
    9258:	dbf9                	beqz	a5,922e <__adddf3+0x34a>
    925a:	4581                	li	a1,0
    925c:	7ff00513          	li	a0,2047
    9260:	000807b7          	lui	a5,0x80
    9264:	4881                	li	a7,0
    9266:	b3cd                	j	9048 <__adddf3+0x164>
    9268:	ff800637          	lui	a2,0xff800
    926c:	167d                	addi	a2,a2,-1
    926e:	8e7d                	and	a2,a2,a5
    9270:	00797793          	andi	a5,s2,7
    9274:	8c99                	sub	s1,s1,a4
    9276:	d80795e3          	bnez	a5,9000 <__adddf3+0x11c>
    927a:	b7b5                	j	91e6 <__adddf3+0x302>
    927c:	854a                	mv	a0,s2
    927e:	1bf020ef          	jal	ra,bc3c <__clzsi2>
    9282:	01850713          	addi	a4,a0,24
    9286:	47fd                	li	a5,31
    9288:	d2e7d5e3          	bge	a5,a4,8fb2 <__adddf3+0xce>
    928c:	ff850613          	addi	a2,a0,-8
    9290:	00c917b3          	sll	a5,s2,a2
    9294:	4901                	li	s2,0
    9296:	bb05                	j	8fc6 <__adddf3+0xe2>
    9298:	01f86933          	or	s2,a6,t6
    929c:	01203933          	snez	s2,s2
    92a0:	b1dd                	j	8f86 <__adddf3+0xa2>
    92a2:	41ff0933          	sub	s2,t5,t6
    92a6:	41070633          	sub	a2,a4,a6
    92aa:	012f3433          	sltu	s0,t5,s2
    92ae:	40860433          	sub	s0,a2,s0
    92b2:	00841793          	slli	a5,s0,0x8
    92b6:	2407cd63          	bltz	a5,9510 <__adddf3+0x62c>
    92ba:	008968b3          	or	a7,s2,s0
    92be:	ce0893e3          	bnez	a7,8fa4 <__adddf3+0xc0>
    92c2:	4781                	li	a5,0
    92c4:	4981                	li	s3,0
    92c6:	4481                	li	s1,0
    92c8:	bf1d                	j	91fe <__adddf3+0x31a>
    92ca:	f80898e3          	bnez	a7,925a <__adddf3+0x376>
    92ce:	050e                	slli	a0,a0,0x3
    92d0:	01d71793          	slli	a5,a4,0x1d
    92d4:	810d                	srli	a0,a0,0x3
    92d6:	00a7e8b3          	or	a7,a5,a0
    92da:	00375793          	srli	a5,a4,0x3
    92de:	bf9d                	j	9254 <__adddf3+0x370>
    92e0:	050e                	slli	a0,a0,0x3
    92e2:	01d71793          	slli	a5,a4,0x1d
    92e6:	810d                	srli	a0,a0,0x3
    92e8:	00a7e8b3          	or	a7,a5,a0
    92ec:	84f2                	mv	s1,t3
    92ee:	00375793          	srli	a5,a4,0x3
    92f2:	b711                	j	91f6 <__adddf3+0x312>
    92f4:	40930533          	sub	a0,t1,s1
    92f8:	12048263          	beqz	s1,941c <__adddf3+0x538>
    92fc:	008006b7          	lui	a3,0x800
    9300:	7ff00793          	li	a5,2047
    9304:	8f55                	or	a4,a4,a3
    9306:	2ef30d63          	beq	t1,a5,9600 <__adddf3+0x71c>
    930a:	03800793          	li	a5,56
    930e:	20a7cb63          	blt	a5,a0,9524 <__adddf3+0x640>
    9312:	47fd                	li	a5,31
    9314:	2aa7c363          	blt	a5,a0,95ba <__adddf3+0x6d6>
    9318:	02000793          	li	a5,32
    931c:	8f89                	sub	a5,a5,a0
    931e:	00f71933          	sll	s2,a4,a5
    9322:	00af56b3          	srl	a3,t5,a0
    9326:	00ff17b3          	sll	a5,t5,a5
    932a:	00d96933          	or	s2,s2,a3
    932e:	00f037b3          	snez	a5,a5
    9332:	00a75733          	srl	a4,a4,a0
    9336:	00f96933          	or	s2,s2,a5
    933a:	983a                	add	a6,a6,a4
    933c:	997e                	add	s2,s2,t6
    933e:	01f937b3          	sltu	a5,s2,t6
    9342:	01078633          	add	a2,a5,a6
    9346:	849a                	mv	s1,t1
    9348:	bdd1                	j	921c <__adddf3+0x338>
    934a:	008006b7          	lui	a3,0x800
    934e:	7ff00793          	li	a5,2047
    9352:	8f55                	or	a4,a4,a3
    9354:	def319e3          	bne	t1,a5,9146 <__adddf3+0x262>
    9358:	00361793          	slli	a5,a2,0x3
    935c:	838d                	srli	a5,a5,0x3
    935e:	01d81893          	slli	a7,a6,0x1d
    9362:	0117e8b3          	or	a7,a5,a7
    9366:	89f6                	mv	s3,t4
    9368:	00385793          	srli	a5,a6,0x3
    936c:	b5e5                	j	9254 <__adddf3+0x370>
    936e:	fe150713          	addi	a4,a0,-31
    9372:	02000693          	li	a3,32
    9376:	00e7d733          	srl	a4,a5,a4
    937a:	00d60a63          	beq	a2,a3,938e <__adddf3+0x4aa>
    937e:	04000693          	li	a3,64
    9382:	40c68633          	sub	a2,a3,a2
    9386:	00c79633          	sll	a2,a5,a2
    938a:	00c96933          	or	s2,s2,a2
    938e:	01203933          	snez	s2,s2
    9392:	00e96933          	or	s2,s2,a4
    9396:	4601                	li	a2,0
    9398:	4481                	li	s1,0
    939a:	b591                	j	91de <__adddf3+0x2fa>
    939c:	01ff0933          	add	s2,t5,t6
    93a0:	010707b3          	add	a5,a4,a6
    93a4:	01e93633          	sltu	a2,s2,t5
    93a8:	963e                	add	a2,a2,a5
    93aa:	00861793          	slli	a5,a2,0x8
    93ae:	4485                	li	s1,1
    93b0:	e207d7e3          	bgez	a5,91de <__adddf3+0x2fa>
    93b4:	4489                	li	s1,2
    93b6:	ff8007b7          	lui	a5,0xff800
    93ba:	17fd                	addi	a5,a5,-1
    93bc:	8ff1                	and	a5,a5,a2
    93be:	00195713          	srli	a4,s2,0x1
    93c2:	00197913          	andi	s2,s2,1
    93c6:	01276933          	or	s2,a4,s2
    93ca:	01f79893          	slli	a7,a5,0x1f
    93ce:	0128e933          	or	s2,a7,s2
    93d2:	0017d613          	srli	a2,a5,0x1
    93d6:	b115                	j	8ffa <__adddf3+0x116>
    93d8:	fe0e0913          	addi	s2,t3,-32
    93dc:	02000793          	li	a5,32
    93e0:	012856b3          	srl	a3,a6,s2
    93e4:	00fe0a63          	beq	t3,a5,93f8 <__adddf3+0x514>
    93e8:	04000913          	li	s2,64
    93ec:	41c90933          	sub	s2,s2,t3
    93f0:	01281933          	sll	s2,a6,s2
    93f4:	012fefb3          	or	t6,t6,s2
    93f8:	01f03933          	snez	s2,t6
    93fc:	00d96933          	or	s2,s2,a3
    9400:	b659                	j	8f86 <__adddf3+0xa2>
    9402:	01e76933          	or	s2,a4,t5
    9406:	01203933          	snez	s2,s2
    940a:	412f8933          	sub	s2,t6,s2
    940e:	012fb7b3          	sltu	a5,t6,s2
    9412:	40f80633          	sub	a2,a6,a5
    9416:	849a                	mv	s1,t1
    9418:	89f6                	mv	s3,t4
    941a:	bea5                	j	8f92 <__adddf3+0xae>
    941c:	01e767b3          	or	a5,a4,t5
    9420:	18078263          	beqz	a5,95a4 <__adddf3+0x6c0>
    9424:	fff50793          	addi	a5,a0,-1
    9428:	1c078463          	beqz	a5,95f0 <__adddf3+0x70c>
    942c:	7ff00693          	li	a3,2047
    9430:	12d50463          	beq	a0,a3,9558 <__adddf3+0x674>
    9434:	853e                	mv	a0,a5
    9436:	bdd1                	j	930a <__adddf3+0x426>
    9438:	02000793          	li	a5,32
    943c:	41c787b3          	sub	a5,a5,t3
    9440:	00f816b3          	sll	a3,a6,a5
    9444:	00ff9933          	sll	s2,t6,a5
    9448:	01cfd633          	srl	a2,t6,t3
    944c:	8ed1                	or	a3,a3,a2
    944e:	01203933          	snez	s2,s2
    9452:	01c857b3          	srl	a5,a6,t3
    9456:	0126e933          	or	s2,a3,s2
    945a:	973e                	add	a4,a4,a5
    945c:	bb5d                	j	9212 <__adddf3+0x32e>
    945e:	00361793          	slli	a5,a2,0x3
    9462:	838d                	srli	a5,a5,0x3
    9464:	01d81893          	slli	a7,a6,0x1d
    9468:	0117e8b3          	or	a7,a5,a7
    946c:	84ae                	mv	s1,a1
    946e:	00385793          	srli	a5,a6,0x3
    9472:	89f6                	mv	s3,t4
    9474:	b349                	j	91f6 <__adddf3+0x312>
    9476:	c3ed                	beqz	a5,9558 <__adddf3+0x674>
    9478:	01f86933          	or	s2,a6,t6
    947c:	dc091fe3          	bnez	s2,925a <__adddf3+0x376>
    9480:	050e                	slli	a0,a0,0x3
    9482:	01d71793          	slli	a5,a4,0x1d
    9486:	810d                	srli	a0,a0,0x3
    9488:	00f568b3          	or	a7,a0,a5
    948c:	00375793          	srli	a5,a4,0x3
    9490:	b3d1                	j	9254 <__adddf3+0x370>
    9492:	0e088163          	beqz	a7,9574 <__adddf3+0x690>
    9496:	00361693          	slli	a3,a2,0x3
    949a:	01d81793          	slli	a5,a6,0x1d
    949e:	828d                	srli	a3,a3,0x3
    94a0:	00d7e8b3          	or	a7,a5,a3
    94a4:	89f6                	mv	s3,t4
    94a6:	00385793          	srli	a5,a6,0x3
    94aa:	bb91                	j	91fe <__adddf3+0x31a>
    94ac:	41ff0933          	sub	s2,t5,t6
    94b0:	410707b3          	sub	a5,a4,a6
    94b4:	012f3f33          	sltu	t5,t5,s2
    94b8:	41e78633          	sub	a2,a5,t5
    94bc:	4485                	li	s1,1
    94be:	bcd1                	j	8f92 <__adddf3+0xae>
    94c0:	050e                	slli	a0,a0,0x3
    94c2:	01d71793          	slli	a5,a4,0x1d
    94c6:	810d                	srli	a0,a0,0x3
    94c8:	00f568b3          	or	a7,a0,a5
    94cc:	84f2                	mv	s1,t3
    94ce:	00375793          	srli	a5,a4,0x3
    94d2:	b315                	j	91f6 <__adddf3+0x312>
    94d4:	050e                	slli	a0,a0,0x3
    94d6:	01d71793          	slli	a5,a4,0x1d
    94da:	810d                	srli	a0,a0,0x3
    94dc:	00a7e8b3          	or	a7,a5,a0
    94e0:	00375793          	srli	a5,a4,0x3
    94e4:	bb29                	j	91fe <__adddf3+0x31a>
    94e6:	7ff00793          	li	a5,2047
    94ea:	d4f682e3          	beq	a3,a5,922e <__adddf3+0x34a>
    94ee:	01ff0933          	add	s2,t5,t6
    94f2:	01e93633          	sltu	a2,s2,t5
    94f6:	010707b3          	add	a5,a4,a6
    94fa:	97b2                	add	a5,a5,a2
    94fc:	01f79893          	slli	a7,a5,0x1f
    9500:	00195913          	srli	s2,s2,0x1
    9504:	0128e933          	or	s2,a7,s2
    9508:	0017d613          	srli	a2,a5,0x1
    950c:	84b6                	mv	s1,a3
    950e:	b9c1                	j	91de <__adddf3+0x2fa>
    9510:	41ef8933          	sub	s2,t6,t5
    9514:	40e80733          	sub	a4,a6,a4
    9518:	012fb633          	sltu	a2,t6,s2
    951c:	40c70433          	sub	s0,a4,a2
    9520:	89f6                	mv	s3,t4
    9522:	b449                	j	8fa4 <__adddf3+0xc0>
    9524:	01e76933          	or	s2,a4,t5
    9528:	01203933          	snez	s2,s2
    952c:	bd01                	j	933c <__adddf3+0x458>
    952e:	fe058793          	addi	a5,a1,-32
    9532:	02000693          	li	a3,32
    9536:	00f757b3          	srl	a5,a4,a5
    953a:	00d58a63          	beq	a1,a3,954e <__adddf3+0x66a>
    953e:	04000693          	li	a3,64
    9542:	40b685b3          	sub	a1,a3,a1
    9546:	00b71733          	sll	a4,a4,a1
    954a:	00ef6f33          	or	t5,t5,a4
    954e:	01e03933          	snez	s2,t5
    9552:	00f96933          	or	s2,s2,a5
    9556:	bd55                	j	940a <__adddf3+0x526>
    9558:	00361793          	slli	a5,a2,0x3
    955c:	838d                	srli	a5,a5,0x3
    955e:	01d81893          	slli	a7,a6,0x1d
    9562:	0117e8b3          	or	a7,a5,a7
    9566:	00385793          	srli	a5,a6,0x3
    956a:	b1ed                	j	9254 <__adddf3+0x370>
    956c:	00c968b3          	or	a7,s2,a2
    9570:	c60897e3          	bnez	a7,91de <__adddf3+0x2fa>
    9574:	4781                	li	a5,0
    9576:	4981                	li	s3,0
    9578:	b159                	j	91fe <__adddf3+0x31a>
    957a:	41ef8933          	sub	s2,t6,t5
    957e:	40e807b3          	sub	a5,a6,a4
    9582:	012fb633          	sltu	a2,t6,s2
    9586:	40c78633          	sub	a2,a5,a2
    958a:	89f6                	mv	s3,t4
    958c:	4485                	li	s1,1
    958e:	b411                	j	8f92 <__adddf3+0xae>
    9590:	00361693          	slli	a3,a2,0x3
    9594:	01d81793          	slli	a5,a6,0x1d
    9598:	828d                	srli	a3,a3,0x3
    959a:	00d7e8b3          	or	a7,a5,a3
    959e:	00385793          	srli	a5,a6,0x3
    95a2:	b9b1                	j	91fe <__adddf3+0x31a>
    95a4:	00361693          	slli	a3,a2,0x3
    95a8:	01d81793          	slli	a5,a6,0x1d
    95ac:	828d                	srli	a3,a3,0x3
    95ae:	00d7e8b3          	or	a7,a5,a3
    95b2:	84aa                	mv	s1,a0
    95b4:	00385793          	srli	a5,a6,0x3
    95b8:	b93d                	j	91f6 <__adddf3+0x312>
    95ba:	fe050793          	addi	a5,a0,-32
    95be:	02000693          	li	a3,32
    95c2:	00f757b3          	srl	a5,a4,a5
    95c6:	00d50a63          	beq	a0,a3,95da <__adddf3+0x6f6>
    95ca:	04000693          	li	a3,64
    95ce:	40a68533          	sub	a0,a3,a0
    95d2:	00a71733          	sll	a4,a4,a0
    95d6:	00ef6f33          	or	t5,t5,a4
    95da:	01e03933          	snez	s2,t5
    95de:	00f96933          	or	s2,s2,a5
    95e2:	bba9                	j	933c <__adddf3+0x458>
    95e4:	4581                	li	a1,0
    95e6:	7ff00513          	li	a0,2047
    95ea:	000807b7          	lui	a5,0x80
    95ee:	bca9                	j	9048 <__adddf3+0x164>
    95f0:	01ff0933          	add	s2,t5,t6
    95f4:	010707b3          	add	a5,a4,a6
    95f8:	01f93633          	sltu	a2,s2,t6
    95fc:	963e                	add	a2,a2,a5
    95fe:	b375                	j	93aa <__adddf3+0x4c6>
    9600:	00361693          	slli	a3,a2,0x3
    9604:	01d81793          	slli	a5,a6,0x1d
    9608:	828d                	srli	a3,a3,0x3
    960a:	00d7e8b3          	or	a7,a5,a3
    960e:	00385793          	srli	a5,a6,0x3
    9612:	b189                	j	9254 <__adddf3+0x370>

00009614 <__divdf3>:
    9614:	7139                	addi	sp,sp,-64
    9616:	0145d793          	srli	a5,a1,0x14
    961a:	dc22                	sw	s0,56(sp)
    961c:	d84a                	sw	s2,48(sp)
    961e:	d256                	sw	s5,36(sp)
    9620:	892a                	mv	s2,a0
    9622:	00c59413          	slli	s0,a1,0xc
    9626:	de06                	sw	ra,60(sp)
    9628:	da26                	sw	s1,52(sp)
    962a:	d64e                	sw	s3,44(sp)
    962c:	d452                	sw	s4,40(sp)
    962e:	d05a                	sw	s6,32(sp)
    9630:	ce5e                	sw	s7,28(sp)
    9632:	7ff7f513          	andi	a0,a5,2047
    9636:	8031                	srli	s0,s0,0xc
    9638:	01f5da93          	srli	s5,a1,0x1f
    963c:	10050b63          	beqz	a0,9752 <__divdf3+0x13e>
    9640:	7ff00793          	li	a5,2047
    9644:	14f50b63          	beq	a0,a5,979a <__divdf3+0x186>
    9648:	01d95a13          	srli	s4,s2,0x1d
    964c:	040e                	slli	s0,s0,0x3
    964e:	008a6433          	or	s0,s4,s0
    9652:	00800a37          	lui	s4,0x800
    9656:	01446a33          	or	s4,s0,s4
    965a:	00391b13          	slli	s6,s2,0x3
    965e:	c0150493          	addi	s1,a0,-1023
    9662:	4401                	li	s0,0
    9664:	4b81                	li	s7,0
    9666:	0146d813          	srli	a6,a3,0x14
    966a:	00c69913          	slli	s2,a3,0xc
    966e:	7ff87813          	andi	a6,a6,2047
    9672:	88b2                	mv	a7,a2
    9674:	00c95913          	srli	s2,s2,0xc
    9678:	01f6d993          	srli	s3,a3,0x1f
    967c:	08080e63          	beqz	a6,9718 <__divdf3+0x104>
    9680:	7ff00793          	li	a5,2047
    9684:	04f80063          	beq	a6,a5,96c4 <__divdf3+0xb0>
    9688:	01d65713          	srli	a4,a2,0x1d
    968c:	090e                	slli	s2,s2,0x3
    968e:	01276933          	or	s2,a4,s2
    9692:	c0180813          	addi	a6,a6,-1023 # ffc01 <_data_lma+0xf219d>
    9696:	008007b7          	lui	a5,0x800
    969a:	00f96733          	or	a4,s2,a5
    969e:	00361893          	slli	a7,a2,0x3
    96a2:	410484b3          	sub	s1,s1,a6
    96a6:	4581                	li	a1,0
    96a8:	47bd                	li	a5,15
    96aa:	013ac833          	xor	a6,s5,s3
    96ae:	1a87e463          	bltu	a5,s0,9856 <__divdf3+0x242>
    96b2:	00004797          	auipc	a5,0x4
    96b6:	0d678793          	addi	a5,a5,214 # d788 <TWO52+0x20>
    96ba:	040a                	slli	s0,s0,0x2
    96bc:	943e                	add	s0,s0,a5
    96be:	4010                	lw	a2,0(s0)
    96c0:	963e                	add	a2,a2,a5
    96c2:	8602                	jr	a2
    96c4:	00c96733          	or	a4,s2,a2
    96c8:	80148493          	addi	s1,s1,-2047
    96cc:	10071263          	bnez	a4,97d0 <__divdf3+0x1bc>
    96d0:	00246413          	ori	s0,s0,2
    96d4:	4881                	li	a7,0
    96d6:	4589                	li	a1,2
    96d8:	bfc1                	j	96a8 <__divdf3+0x94>
    96da:	7ff00613          	li	a2,2047
    96de:	4781                	li	a5,0
    96e0:	4701                	li	a4,0
    96e2:	07b2                	slli	a5,a5,0xc
    96e4:	50f2                	lw	ra,60(sp)
    96e6:	5462                	lw	s0,56(sp)
    96e8:	0652                	slli	a2,a2,0x14
    96ea:	83b1                	srli	a5,a5,0xc
    96ec:	087e                	slli	a6,a6,0x1f
    96ee:	8fd1                	or	a5,a5,a2
    96f0:	0107e7b3          	or	a5,a5,a6
    96f4:	54d2                	lw	s1,52(sp)
    96f6:	5942                	lw	s2,48(sp)
    96f8:	59b2                	lw	s3,44(sp)
    96fa:	5a22                	lw	s4,40(sp)
    96fc:	5a92                	lw	s5,36(sp)
    96fe:	5b02                	lw	s6,32(sp)
    9700:	4bf2                	lw	s7,28(sp)
    9702:	853a                	mv	a0,a4
    9704:	85be                	mv	a1,a5
    9706:	6121                	addi	sp,sp,64
    9708:	8082                	ret
    970a:	4801                	li	a6,0
    970c:	7ff00613          	li	a2,2047
    9710:	000807b7          	lui	a5,0x80
    9714:	4701                	li	a4,0
    9716:	b7f1                	j	96e2 <__divdf3+0xce>
    9718:	00c96733          	or	a4,s2,a2
    971c:	c74d                	beqz	a4,97c6 <__divdf3+0x1b2>
    971e:	30090863          	beqz	s2,9a2e <__divdf3+0x41a>
    9722:	854a                	mv	a0,s2
    9724:	c432                	sw	a2,8(sp)
    9726:	516020ef          	jal	ra,bc3c <__clzsi2>
    972a:	4622                	lw	a2,8(sp)
    972c:	ff550713          	addi	a4,a0,-11
    9730:	47f5                	li	a5,29
    9732:	ff850693          	addi	a3,a0,-8
    9736:	8f99                	sub	a5,a5,a4
    9738:	00d91933          	sll	s2,s2,a3
    973c:	00f657b3          	srl	a5,a2,a5
    9740:	0127e733          	or	a4,a5,s2
    9744:	00d618b3          	sll	a7,a2,a3
    9748:	9526                	add	a0,a0,s1
    974a:	3f350493          	addi	s1,a0,1011
    974e:	4581                	li	a1,0
    9750:	bfa1                	j	96a8 <__divdf3+0x94>
    9752:	01246a33          	or	s4,s0,s2
    9756:	060a0363          	beqz	s4,97bc <__divdf3+0x1a8>
    975a:	c636                	sw	a3,12(sp)
    975c:	c432                	sw	a2,8(sp)
    975e:	2a040663          	beqz	s0,9a0a <__divdf3+0x3f6>
    9762:	8522                	mv	a0,s0
    9764:	4d8020ef          	jal	ra,bc3c <__clzsi2>
    9768:	4622                	lw	a2,8(sp)
    976a:	46b2                	lw	a3,12(sp)
    976c:	84aa                	mv	s1,a0
    976e:	ff550713          	addi	a4,a0,-11
    9772:	4a75                	li	s4,29
    9774:	ff848b13          	addi	s6,s1,-8
    9778:	40ea0a33          	sub	s4,s4,a4
    977c:	01641433          	sll	s0,s0,s6
    9780:	01495a33          	srl	s4,s2,s4
    9784:	008a6a33          	or	s4,s4,s0
    9788:	01691b33          	sll	s6,s2,s6
    978c:	c0d00513          	li	a0,-1011
    9790:	409504b3          	sub	s1,a0,s1
    9794:	4401                	li	s0,0
    9796:	4b81                	li	s7,0
    9798:	b5f9                	j	9666 <__divdf3+0x52>
    979a:	01246a33          	or	s4,s0,s2
    979e:	000a1863          	bnez	s4,97ae <__divdf3+0x19a>
    97a2:	4421                	li	s0,8
    97a4:	4b01                	li	s6,0
    97a6:	7ff00493          	li	s1,2047
    97aa:	4b89                	li	s7,2
    97ac:	bd6d                	j	9666 <__divdf3+0x52>
    97ae:	8a22                	mv	s4,s0
    97b0:	8b4a                	mv	s6,s2
    97b2:	4431                	li	s0,12
    97b4:	7ff00493          	li	s1,2047
    97b8:	4b8d                	li	s7,3
    97ba:	b575                	j	9666 <__divdf3+0x52>
    97bc:	4411                	li	s0,4
    97be:	4b01                	li	s6,0
    97c0:	4481                	li	s1,0
    97c2:	4b85                	li	s7,1
    97c4:	b54d                	j	9666 <__divdf3+0x52>
    97c6:	00146413          	ori	s0,s0,1
    97ca:	4881                	li	a7,0
    97cc:	4585                	li	a1,1
    97ce:	bde9                	j	96a8 <__divdf3+0x94>
    97d0:	00346413          	ori	s0,s0,3
    97d4:	874a                	mv	a4,s2
    97d6:	458d                	li	a1,3
    97d8:	bdc1                	j	96a8 <__divdf3+0x94>
    97da:	2e050a63          	beqz	a0,9ace <__divdf3+0x4ba>
    97de:	4785                	li	a5,1
    97e0:	8f89                	sub	a5,a5,a0
    97e2:	03800693          	li	a3,56
    97e6:	32f6dd63          	bge	a3,a5,9b20 <__divdf3+0x50c>
    97ea:	4601                	li	a2,0
    97ec:	4781                	li	a5,0
    97ee:	4701                	li	a4,0
    97f0:	bdcd                	j	96e2 <__divdf3+0xce>
    97f2:	86ce                	mv	a3,s3
    97f4:	4789                	li	a5,2
    97f6:	3af58d63          	beq	a1,a5,9bb0 <__divdf3+0x59c>
    97fa:	478d                	li	a5,3
    97fc:	f0f587e3          	beq	a1,a5,970a <__divdf3+0xf6>
    9800:	4785                	li	a5,1
    9802:	8836                	mv	a6,a3
    9804:	fef583e3          	beq	a1,a5,97ea <__divdf3+0x1d6>
    9808:	3ff48513          	addi	a0,s1,1023
    980c:	fca057e3          	blez	a0,97da <__divdf3+0x1c6>
    9810:	0078f793          	andi	a5,a7,7
    9814:	28079663          	bnez	a5,9aa0 <__divdf3+0x48c>
    9818:	0038d693          	srli	a3,a7,0x3
    981c:	00771793          	slli	a5,a4,0x7
    9820:	0007d863          	bgez	a5,9830 <__divdf3+0x21c>
    9824:	ff0007b7          	lui	a5,0xff000
    9828:	17fd                	addi	a5,a5,-1
    982a:	8f7d                	and	a4,a4,a5
    982c:	40048513          	addi	a0,s1,1024
    9830:	7fe00793          	li	a5,2046
    9834:	eaa7c3e3          	blt	a5,a0,96da <__divdf3+0xc6>
    9838:	01d71613          	slli	a2,a4,0x1d
    983c:	00971793          	slli	a5,a4,0x9
    9840:	83b1                	srli	a5,a5,0xc
    9842:	00d66733          	or	a4,a2,a3
    9846:	7ff57613          	andi	a2,a0,2047
    984a:	bd61                	j	96e2 <__divdf3+0xce>
    984c:	86d6                	mv	a3,s5
    984e:	8752                	mv	a4,s4
    9850:	88da                	mv	a7,s6
    9852:	85de                	mv	a1,s7
    9854:	b745                	j	97f4 <__divdf3+0x1e0>
    9856:	23476163          	bltu	a4,s4,9a78 <__divdf3+0x464>
    985a:	20ea0d63          	beq	s4,a4,9a74 <__divdf3+0x460>
    985e:	86da                	mv	a3,s6
    9860:	14fd                	addi	s1,s1,-1
    9862:	8452                	mv	s0,s4
    9864:	4b01                	li	s6,0
    9866:	00871793          	slli	a5,a4,0x8
    986a:	0188d313          	srli	t1,a7,0x18
    986e:	00f36333          	or	t1,t1,a5
    9872:	01035e93          	srli	t4,t1,0x10
    9876:	03d457b3          	divu	a5,s0,t4
    987a:	01031f13          	slli	t5,t1,0x10
    987e:	010f5f13          	srli	t5,t5,0x10
    9882:	0106d593          	srli	a1,a3,0x10
    9886:	00889e13          	slli	t3,a7,0x8
    988a:	03d47433          	remu	s0,s0,t4
    988e:	02ff0733          	mul	a4,t5,a5
    9892:	0442                	slli	s0,s0,0x10
    9894:	8dc1                	or	a1,a1,s0
    9896:	00e5fb63          	bgeu	a1,a4,98ac <__divdf3+0x298>
    989a:	959a                	add	a1,a1,t1
    989c:	fff78613          	addi	a2,a5,-1 # feffffff <__freertos_irq_stack_top+0xdeffafff>
    98a0:	2665ee63          	bltu	a1,t1,9b1c <__divdf3+0x508>
    98a4:	26e5fc63          	bgeu	a1,a4,9b1c <__divdf3+0x508>
    98a8:	17f9                	addi	a5,a5,-2
    98aa:	959a                	add	a1,a1,t1
    98ac:	8d99                	sub	a1,a1,a4
    98ae:	03d5d733          	divu	a4,a1,t4
    98b2:	06c2                	slli	a3,a3,0x10
    98b4:	82c1                	srli	a3,a3,0x10
    98b6:	03d5f5b3          	remu	a1,a1,t4
    98ba:	02ef0633          	mul	a2,t5,a4
    98be:	05c2                	slli	a1,a1,0x10
    98c0:	8dd5                	or	a1,a1,a3
    98c2:	00c5fb63          	bgeu	a1,a2,98d8 <__divdf3+0x2c4>
    98c6:	959a                	add	a1,a1,t1
    98c8:	fff70693          	addi	a3,a4,-1 # 7fffff <_data_lma+0x7f259b>
    98cc:	2465e663          	bltu	a1,t1,9b18 <__divdf3+0x504>
    98d0:	24c5f463          	bgeu	a1,a2,9b18 <__divdf3+0x504>
    98d4:	1779                	addi	a4,a4,-2
    98d6:	959a                	add	a1,a1,t1
    98d8:	07c2                	slli	a5,a5,0x10
    98da:	6441                	lui	s0,0x10
    98dc:	8f5d                	or	a4,a4,a5
    98de:	fff40793          	addi	a5,s0,-1 # ffff <_data_lma+0x259b>
    98e2:	00f77533          	and	a0,a4,a5
    98e6:	01075893          	srli	a7,a4,0x10
    98ea:	010e5f93          	srli	t6,t3,0x10
    98ee:	00fe77b3          	and	a5,t3,a5
    98f2:	02f502b3          	mul	t0,a0,a5
    98f6:	40c586b3          	sub	a3,a1,a2
    98fa:	02f883b3          	mul	t2,a7,a5
    98fe:	0102d593          	srli	a1,t0,0x10
    9902:	02af8633          	mul	a2,t6,a0
    9906:	961e                	add	a2,a2,t2
    9908:	962e                	add	a2,a2,a1
    990a:	03f88533          	mul	a0,a7,t6
    990e:	00767363          	bgeu	a2,t2,9914 <__divdf3+0x300>
    9912:	9522                	add	a0,a0,s0
    9914:	68c1                	lui	a7,0x10
    9916:	18fd                	addi	a7,a7,-1
    9918:	01065593          	srli	a1,a2,0x10
    991c:	01167633          	and	a2,a2,a7
    9920:	0642                	slli	a2,a2,0x10
    9922:	0112f8b3          	and	a7,t0,a7
    9926:	95aa                	add	a1,a1,a0
    9928:	9646                	add	a2,a2,a7
    992a:	12b6e663          	bltu	a3,a1,9a56 <__divdf3+0x442>
    992e:	12b68263          	beq	a3,a1,9a52 <__divdf3+0x43e>
    9932:	40cb0633          	sub	a2,s6,a2
    9936:	8e8d                	sub	a3,a3,a1
    9938:	00cb3b33          	sltu	s6,s6,a2
    993c:	41668b33          	sub	s6,a3,s6
    9940:	3ff48513          	addi	a0,s1,1023
    9944:	17630c63          	beq	t1,s6,9abc <__divdf3+0x4a8>
    9948:	03db58b3          	divu	a7,s6,t4
    994c:	01065593          	srli	a1,a2,0x10
    9950:	03db7b33          	remu	s6,s6,t4
    9954:	031f06b3          	mul	a3,t5,a7
    9958:	0b42                	slli	s6,s6,0x10
    995a:	0165eb33          	or	s6,a1,s6
    995e:	00db7b63          	bgeu	s6,a3,9974 <__divdf3+0x360>
    9962:	9b1a                	add	s6,s6,t1
    9964:	fff88593          	addi	a1,a7,-1 # ffff <_data_lma+0x259b>
    9968:	206b6d63          	bltu	s6,t1,9b82 <__divdf3+0x56e>
    996c:	20db7b63          	bgeu	s6,a3,9b82 <__divdf3+0x56e>
    9970:	18f9                	addi	a7,a7,-2
    9972:	9b1a                	add	s6,s6,t1
    9974:	40db0b33          	sub	s6,s6,a3
    9978:	03db56b3          	divu	a3,s6,t4
    997c:	0642                	slli	a2,a2,0x10
    997e:	8241                	srli	a2,a2,0x10
    9980:	03db7b33          	remu	s6,s6,t4
    9984:	02df0f33          	mul	t5,t5,a3
    9988:	0b42                	slli	s6,s6,0x10
    998a:	01666633          	or	a2,a2,s6
    998e:	01e67b63          	bgeu	a2,t5,99a4 <__divdf3+0x390>
    9992:	961a                	add	a2,a2,t1
    9994:	fff68593          	addi	a1,a3,-1 # 7fffff <_data_lma+0x7f259b>
    9998:	1e666763          	bltu	a2,t1,9b86 <__divdf3+0x572>
    999c:	1fe67563          	bgeu	a2,t5,9b86 <__divdf3+0x572>
    99a0:	16f9                	addi	a3,a3,-2
    99a2:	961a                	add	a2,a2,t1
    99a4:	08c2                	slli	a7,a7,0x10
    99a6:	00d8e8b3          	or	a7,a7,a3
    99aa:	01089593          	slli	a1,a7,0x10
    99ae:	0108d293          	srli	t0,a7,0x10
    99b2:	81c1                	srli	a1,a1,0x10
    99b4:	02f58eb3          	mul	t4,a1,a5
    99b8:	41e60633          	sub	a2,a2,t5
    99bc:	02bf85b3          	mul	a1,t6,a1
    99c0:	010ed693          	srli	a3,t4,0x10
    99c4:	02f287b3          	mul	a5,t0,a5
    99c8:	95be                	add	a1,a1,a5
    99ca:	96ae                	add	a3,a3,a1
    99cc:	025f8fb3          	mul	t6,t6,t0
    99d0:	00f6f463          	bgeu	a3,a5,99d8 <__divdf3+0x3c4>
    99d4:	67c1                	lui	a5,0x10
    99d6:	9fbe                	add	t6,t6,a5
    99d8:	65c1                	lui	a1,0x10
    99da:	15fd                	addi	a1,a1,-1
    99dc:	0106d793          	srli	a5,a3,0x10
    99e0:	8eed                	and	a3,a3,a1
    99e2:	06c2                	slli	a3,a3,0x10
    99e4:	00befeb3          	and	t4,t4,a1
    99e8:	9fbe                	add	t6,t6,a5
    99ea:	96f6                	add	a3,a3,t4
    99ec:	09f67f63          	bgeu	a2,t6,9a8a <__divdf3+0x476>
    99f0:	961a                	add	a2,a2,t1
    99f2:	fff88793          	addi	a5,a7,-1
    99f6:	1a666963          	bltu	a2,t1,9ba8 <__divdf3+0x594>
    99fa:	19f66863          	bltu	a2,t6,9b8a <__divdf3+0x576>
    99fe:	1bf60f63          	beq	a2,t6,9bbc <__divdf3+0x5a8>
    9a02:	88be                	mv	a7,a5
    9a04:	0018e893          	ori	a7,a7,1
    9a08:	b511                	j	980c <__divdf3+0x1f8>
    9a0a:	854a                	mv	a0,s2
    9a0c:	230020ef          	jal	ra,bc3c <__clzsi2>
    9a10:	01550713          	addi	a4,a0,21
    9a14:	45f1                	li	a1,28
    9a16:	02050493          	addi	s1,a0,32
    9a1a:	4622                	lw	a2,8(sp)
    9a1c:	46b2                	lw	a3,12(sp)
    9a1e:	d4e5dae3          	bge	a1,a4,9772 <__divdf3+0x15e>
    9a22:	ff850413          	addi	s0,a0,-8
    9a26:	00891a33          	sll	s4,s2,s0
    9a2a:	4b01                	li	s6,0
    9a2c:	b385                	j	978c <__divdf3+0x178>
    9a2e:	8532                	mv	a0,a2
    9a30:	c432                	sw	a2,8(sp)
    9a32:	20a020ef          	jal	ra,bc3c <__clzsi2>
    9a36:	01550713          	addi	a4,a0,21
    9a3a:	46f1                	li	a3,28
    9a3c:	87aa                	mv	a5,a0
    9a3e:	4622                	lw	a2,8(sp)
    9a40:	02050513          	addi	a0,a0,32
    9a44:	cee6d6e3          	bge	a3,a4,9730 <__divdf3+0x11c>
    9a48:	17e1                	addi	a5,a5,-8
    9a4a:	00f61733          	sll	a4,a2,a5
    9a4e:	4881                	li	a7,0
    9a50:	b9e5                	j	9748 <__divdf3+0x134>
    9a52:	eecb70e3          	bgeu	s6,a2,9932 <__divdf3+0x31e>
    9a56:	9b72                	add	s6,s6,t3
    9a58:	01cb3533          	sltu	a0,s6,t3
    9a5c:	951a                	add	a0,a0,t1
    9a5e:	96aa                	add	a3,a3,a0
    9a60:	fff70513          	addi	a0,a4,-1
    9a64:	02d37863          	bgeu	t1,a3,9a94 <__divdf3+0x480>
    9a68:	10b6e663          	bltu	a3,a1,9b74 <__divdf3+0x560>
    9a6c:	10d58263          	beq	a1,a3,9b70 <__divdf3+0x55c>
    9a70:	872a                	mv	a4,a0
    9a72:	b5c1                	j	9932 <__divdf3+0x31e>
    9a74:	df1b65e3          	bltu	s6,a7,985e <__divdf3+0x24a>
    9a78:	001b5593          	srli	a1,s6,0x1
    9a7c:	01fa1693          	slli	a3,s4,0x1f
    9a80:	001a5413          	srli	s0,s4,0x1
    9a84:	8ecd                	or	a3,a3,a1
    9a86:	0b7e                	slli	s6,s6,0x1f
    9a88:	bbf9                	j	9866 <__divdf3+0x252>
    9a8a:	f7f61de3          	bne	a2,t6,9a04 <__divdf3+0x3f0>
    9a8e:	d6068fe3          	beqz	a3,980c <__divdf3+0x1f8>
    9a92:	bfb9                	j	99f0 <__divdf3+0x3dc>
    9a94:	fcd31ee3          	bne	t1,a3,9a70 <__divdf3+0x45c>
    9a98:	fdcb78e3          	bgeu	s6,t3,9a68 <__divdf3+0x454>
    9a9c:	872a                	mv	a4,a0
    9a9e:	bd51                	j	9932 <__divdf3+0x31e>
    9aa0:	00f8f793          	andi	a5,a7,15
    9aa4:	4691                	li	a3,4
    9aa6:	d6d789e3          	beq	a5,a3,9818 <__divdf3+0x204>
    9aaa:	ffc8b793          	sltiu	a5,a7,-4
    9aae:	00488693          	addi	a3,a7,4
    9ab2:	0017c793          	xori	a5,a5,1
    9ab6:	828d                	srli	a3,a3,0x3
    9ab8:	973e                	add	a4,a4,a5
    9aba:	b38d                	j	981c <__divdf3+0x208>
    9abc:	4681                	li	a3,0
    9abe:	4785                	li	a5,1
    9ac0:	fea04ce3          	bgtz	a0,9ab8 <__divdf3+0x4a4>
    9ac4:	58fd                	li	a7,-1
    9ac6:	d0051ce3          	bnez	a0,97de <__divdf3+0x1ca>
    9aca:	c0100493          	li	s1,-1023
    9ace:	4785                	li	a5,1
    9ad0:	41e48513          	addi	a0,s1,1054
    9ad4:	00a716b3          	sll	a3,a4,a0
    9ad8:	00f8d633          	srl	a2,a7,a5
    9adc:	00a89533          	sll	a0,a7,a0
    9ae0:	8ed1                	or	a3,a3,a2
    9ae2:	00a03533          	snez	a0,a0
    9ae6:	8ec9                	or	a3,a3,a0
    9ae8:	0076f613          	andi	a2,a3,7
    9aec:	00f75733          	srl	a4,a4,a5
    9af0:	ce01                	beqz	a2,9b08 <__divdf3+0x4f4>
    9af2:	00f6f793          	andi	a5,a3,15
    9af6:	4611                	li	a2,4
    9af8:	00c78863          	beq	a5,a2,9b08 <__divdf3+0x4f4>
    9afc:	00468793          	addi	a5,a3,4
    9b00:	00d7b6b3          	sltu	a3,a5,a3
    9b04:	9736                	add	a4,a4,a3
    9b06:	86be                	mv	a3,a5
    9b08:	00871793          	slli	a5,a4,0x8
    9b0c:	0407d863          	bgez	a5,9b5c <__divdf3+0x548>
    9b10:	4605                	li	a2,1
    9b12:	4781                	li	a5,0
    9b14:	4701                	li	a4,0
    9b16:	b6f1                	j	96e2 <__divdf3+0xce>
    9b18:	8736                	mv	a4,a3
    9b1a:	bb7d                	j	98d8 <__divdf3+0x2c4>
    9b1c:	87b2                	mv	a5,a2
    9b1e:	b379                	j	98ac <__divdf3+0x298>
    9b20:	46fd                	li	a3,31
    9b22:	faf6d7e3          	bge	a3,a5,9ad0 <__divdf3+0x4bc>
    9b26:	5605                	li	a2,-31
    9b28:	8e09                	sub	a2,a2,a0
    9b2a:	02000693          	li	a3,32
    9b2e:	00c75633          	srl	a2,a4,a2
    9b32:	00d78863          	beq	a5,a3,9b42 <__divdf3+0x52e>
    9b36:	43e48793          	addi	a5,s1,1086
    9b3a:	00f717b3          	sll	a5,a4,a5
    9b3e:	00f8e8b3          	or	a7,a7,a5
    9b42:	011036b3          	snez	a3,a7
    9b46:	8ed1                	or	a3,a3,a2
    9b48:	0076f613          	andi	a2,a3,7
    9b4c:	4781                	li	a5,0
    9b4e:	ce01                	beqz	a2,9b66 <__divdf3+0x552>
    9b50:	00f6f793          	andi	a5,a3,15
    9b54:	4611                	li	a2,4
    9b56:	4701                	li	a4,0
    9b58:	fac792e3          	bne	a5,a2,9afc <__divdf3+0x4e8>
    9b5c:	00971793          	slli	a5,a4,0x9
    9b60:	01d71613          	slli	a2,a4,0x1d
    9b64:	83b1                	srli	a5,a5,0xc
    9b66:	0036d713          	srli	a4,a3,0x3
    9b6a:	8f51                	or	a4,a4,a2
    9b6c:	4601                	li	a2,0
    9b6e:	be95                	j	96e2 <__divdf3+0xce>
    9b70:	f0cb70e3          	bgeu	s6,a2,9a70 <__divdf3+0x45c>
    9b74:	9b72                	add	s6,s6,t3
    9b76:	01cb3533          	sltu	a0,s6,t3
    9b7a:	951a                	add	a0,a0,t1
    9b7c:	1779                	addi	a4,a4,-2
    9b7e:	96aa                	add	a3,a3,a0
    9b80:	bb4d                	j	9932 <__divdf3+0x31e>
    9b82:	88ae                	mv	a7,a1
    9b84:	bbc5                	j	9974 <__divdf3+0x360>
    9b86:	86ae                	mv	a3,a1
    9b88:	bd31                	j	99a4 <__divdf3+0x390>
    9b8a:	001e1793          	slli	a5,t3,0x1
    9b8e:	01c7be33          	sltu	t3,a5,t3
    9b92:	9372                	add	t1,t1,t3
    9b94:	961a                	add	a2,a2,t1
    9b96:	18f9                	addi	a7,a7,-2
    9b98:	8e3e                	mv	t3,a5
    9b9a:	e7f615e3          	bne	a2,t6,9a04 <__divdf3+0x3f0>
    9b9e:	c6de07e3          	beq	t3,a3,980c <__divdf3+0x1f8>
    9ba2:	0018e893          	ori	a7,a7,1
    9ba6:	b19d                	j	980c <__divdf3+0x1f8>
    9ba8:	88be                	mv	a7,a5
    9baa:	fff60ae3          	beq	a2,t6,9b9e <__divdf3+0x58a>
    9bae:	bd99                	j	9a04 <__divdf3+0x3f0>
    9bb0:	8836                	mv	a6,a3
    9bb2:	7ff00613          	li	a2,2047
    9bb6:	4781                	li	a5,0
    9bb8:	4701                	li	a4,0
    9bba:	b625                	j	96e2 <__divdf3+0xce>
    9bbc:	fcde67e3          	bltu	t3,a3,9b8a <__divdf3+0x576>
    9bc0:	88be                	mv	a7,a5
    9bc2:	fede10e3          	bne	t3,a3,9ba2 <__divdf3+0x58e>
    9bc6:	b199                	j	980c <__divdf3+0x1f8>

00009bc8 <__eqdf2>:
    9bc8:	0145d713          	srli	a4,a1,0x14
    9bcc:	001007b7          	lui	a5,0x100
    9bd0:	17fd                	addi	a5,a5,-1
    9bd2:	0146d813          	srli	a6,a3,0x14
    9bd6:	7ff77713          	andi	a4,a4,2047
    9bda:	7ff00893          	li	a7,2047
    9bde:	00b7fe33          	and	t3,a5,a1
    9be2:	8eaa                	mv	t4,a0
    9be4:	8ff5                	and	a5,a5,a3
    9be6:	81fd                	srli	a1,a1,0x1f
    9be8:	8f32                	mv	t5,a2
    9bea:	7ff87813          	andi	a6,a6,2047
    9bee:	82fd                	srli	a3,a3,0x1f
    9bf0:	01170b63          	beq	a4,a7,9c06 <__eqdf2+0x3e>
    9bf4:	4305                	li	t1,1
    9bf6:	01180663          	beq	a6,a7,9c02 <__eqdf2+0x3a>
    9bfa:	01071463          	bne	a4,a6,9c02 <__eqdf2+0x3a>
    9bfe:	00fe0d63          	beq	t3,a5,9c18 <__eqdf2+0x50>
    9c02:	851a                	mv	a0,t1
    9c04:	8082                	ret
    9c06:	00ae68b3          	or	a7,t3,a0
    9c0a:	4305                	li	t1,1
    9c0c:	fe089be3          	bnez	a7,9c02 <__eqdf2+0x3a>
    9c10:	fee819e3          	bne	a6,a4,9c02 <__eqdf2+0x3a>
    9c14:	8fd1                	or	a5,a5,a2
    9c16:	f7f5                	bnez	a5,9c02 <__eqdf2+0x3a>
    9c18:	4305                	li	t1,1
    9c1a:	ffee94e3          	bne	t4,t5,9c02 <__eqdf2+0x3a>
    9c1e:	4301                	li	t1,0
    9c20:	fed581e3          	beq	a1,a3,9c02 <__eqdf2+0x3a>
    9c24:	4305                	li	t1,1
    9c26:	ff71                	bnez	a4,9c02 <__eqdf2+0x3a>
    9c28:	00ae6533          	or	a0,t3,a0
    9c2c:	00a03333          	snez	t1,a0
    9c30:	bfc9                	j	9c02 <__eqdf2+0x3a>

00009c32 <__gedf2>:
    9c32:	0145d713          	srli	a4,a1,0x14
    9c36:	001007b7          	lui	a5,0x100
    9c3a:	17fd                	addi	a5,a5,-1
    9c3c:	0146d813          	srli	a6,a3,0x14
    9c40:	7ff77713          	andi	a4,a4,2047
    9c44:	7ff00893          	li	a7,2047
    9c48:	00b7f333          	and	t1,a5,a1
    9c4c:	8e2a                	mv	t3,a0
    9c4e:	8ff5                	and	a5,a5,a3
    9c50:	81fd                	srli	a1,a1,0x1f
    9c52:	8eb2                	mv	t4,a2
    9c54:	7ff87813          	andi	a6,a6,2047
    9c58:	82fd                	srli	a3,a3,0x1f
    9c5a:	03170863          	beq	a4,a7,9c8a <__gedf2+0x58>
    9c5e:	03180063          	beq	a6,a7,9c7e <__gedf2+0x4c>
    9c62:	eb0d                	bnez	a4,9c94 <__gedf2+0x62>
    9c64:	00a368b3          	or	a7,t1,a0
    9c68:	00081463          	bnez	a6,9c70 <__gedf2+0x3e>
    9c6c:	8e5d                	or	a2,a2,a5
    9c6e:	ca29                	beqz	a2,9cc0 <__gedf2+0x8e>
    9c70:	04088563          	beqz	a7,9cba <__gedf2+0x88>
    9c74:	02d58863          	beq	a1,a3,9ca4 <__gedf2+0x72>
    9c78:	4505                	li	a0,1
    9c7a:	ed95                	bnez	a1,9cb6 <__gedf2+0x84>
    9c7c:	8082                	ret
    9c7e:	00c7e8b3          	or	a7,a5,a2
    9c82:	fe0880e3          	beqz	a7,9c62 <__gedf2+0x30>
    9c86:	5579                	li	a0,-2
    9c88:	8082                	ret
    9c8a:	00a36533          	or	a0,t1,a0
    9c8e:	fd65                	bnez	a0,9c86 <__gedf2+0x54>
    9c90:	02e80c63          	beq	a6,a4,9cc8 <__gedf2+0x96>
    9c94:	00081463          	bnez	a6,9c9c <__gedf2+0x6a>
    9c98:	8e5d                	or	a2,a2,a5
    9c9a:	de79                	beqz	a2,9c78 <__gedf2+0x46>
    9c9c:	fcd59ee3          	bne	a1,a3,9c78 <__gedf2+0x46>
    9ca0:	fce84ce3          	blt	a6,a4,9c78 <__gedf2+0x46>
    9ca4:	01074863          	blt	a4,a6,9cb4 <__gedf2+0x82>
    9ca8:	fc67e8e3          	bltu	a5,t1,9c78 <__gedf2+0x46>
    9cac:	02f30363          	beq	t1,a5,9cd2 <__gedf2+0xa0>
    9cb0:	00f37f63          	bgeu	t1,a5,9cce <__gedf2+0x9c>
    9cb4:	e581                	bnez	a1,9cbc <__gedf2+0x8a>
    9cb6:	557d                	li	a0,-1
    9cb8:	8082                	ret
    9cba:	def5                	beqz	a3,9cb6 <__gedf2+0x84>
    9cbc:	4505                	li	a0,1
    9cbe:	8082                	ret
    9cc0:	4501                	li	a0,0
    9cc2:	fa089be3          	bnez	a7,9c78 <__gedf2+0x46>
    9cc6:	8082                	ret
    9cc8:	8e5d                	or	a2,a2,a5
    9cca:	da69                	beqz	a2,9c9c <__gedf2+0x6a>
    9ccc:	bf6d                	j	9c86 <__gedf2+0x54>
    9cce:	4501                	li	a0,0
    9cd0:	8082                	ret
    9cd2:	fbcee3e3          	bltu	t4,t3,9c78 <__gedf2+0x46>
    9cd6:	4501                	li	a0,0
    9cd8:	fbde72e3          	bgeu	t3,t4,9c7c <__gedf2+0x4a>
    9cdc:	f1e5                	bnez	a1,9cbc <__gedf2+0x8a>
    9cde:	bfe1                	j	9cb6 <__gedf2+0x84>

00009ce0 <__ledf2>:
    9ce0:	0145d713          	srli	a4,a1,0x14
    9ce4:	001007b7          	lui	a5,0x100
    9ce8:	17fd                	addi	a5,a5,-1
    9cea:	0146d813          	srli	a6,a3,0x14
    9cee:	7ff77713          	andi	a4,a4,2047
    9cf2:	7ff00893          	li	a7,2047
    9cf6:	00b7fe33          	and	t3,a5,a1
    9cfa:	8eaa                	mv	t4,a0
    9cfc:	8ff5                	and	a5,a5,a3
    9cfe:	81fd                	srli	a1,a1,0x1f
    9d00:	8f32                	mv	t5,a2
    9d02:	7ff87813          	andi	a6,a6,2047
    9d06:	82fd                	srli	a3,a3,0x1f
    9d08:	03170e63          	beq	a4,a7,9d44 <__ledf2+0x64>
    9d0c:	01180d63          	beq	a6,a7,9d26 <__ledf2+0x46>
    9d10:	e329                	bnez	a4,9d52 <__ledf2+0x72>
    9d12:	00ae68b3          	or	a7,t3,a0
    9d16:	00081f63          	bnez	a6,9d34 <__ledf2+0x54>
    9d1a:	8e5d                	or	a2,a2,a5
    9d1c:	ee01                	bnez	a2,9d34 <__ledf2+0x54>
    9d1e:	4301                	li	t1,0
    9d20:	04088c63          	beqz	a7,9d78 <__ledf2+0x98>
    9d24:	a821                	j	9d3c <__ledf2+0x5c>
    9d26:	00c7e8b3          	or	a7,a5,a2
    9d2a:	4309                	li	t1,2
    9d2c:	04089663          	bnez	a7,9d78 <__ledf2+0x98>
    9d30:	d36d                	beqz	a4,9d12 <__ledf2+0x32>
    9d32:	a005                	j	9d52 <__ledf2+0x72>
    9d34:	04088463          	beqz	a7,9d7c <__ledf2+0x9c>
    9d38:	02d58563          	beq	a1,a3,9d62 <__ledf2+0x82>
    9d3c:	4305                	li	t1,1
    9d3e:	cd8d                	beqz	a1,9d78 <__ledf2+0x98>
    9d40:	537d                	li	t1,-1
    9d42:	a81d                	j	9d78 <__ledf2+0x98>
    9d44:	00ae68b3          	or	a7,t3,a0
    9d48:	4309                	li	t1,2
    9d4a:	02089763          	bnez	a7,9d78 <__ledf2+0x98>
    9d4e:	02e80a63          	beq	a6,a4,9d82 <__ledf2+0xa2>
    9d52:	00081463          	bnez	a6,9d5a <__ledf2+0x7a>
    9d56:	8e5d                	or	a2,a2,a5
    9d58:	d275                	beqz	a2,9d3c <__ledf2+0x5c>
    9d5a:	fed591e3          	bne	a1,a3,9d3c <__ledf2+0x5c>
    9d5e:	fce84fe3          	blt	a6,a4,9d3c <__ledf2+0x5c>
    9d62:	01074963          	blt	a4,a6,9d74 <__ledf2+0x94>
    9d66:	fdc7ebe3          	bltu	a5,t3,9d3c <__ledf2+0x5c>
    9d6a:	00fe0f63          	beq	t3,a5,9d88 <__ledf2+0xa8>
    9d6e:	4301                	li	t1,0
    9d70:	00fe7463          	bgeu	t3,a5,9d78 <__ledf2+0x98>
    9d74:	d5f1                	beqz	a1,9d40 <__ledf2+0x60>
    9d76:	4305                	li	t1,1
    9d78:	851a                	mv	a0,t1
    9d7a:	8082                	ret
    9d7c:	feed                	bnez	a3,9d76 <__ledf2+0x96>
    9d7e:	537d                	li	t1,-1
    9d80:	bfe5                	j	9d78 <__ledf2+0x98>
    9d82:	8e5d                	or	a2,a2,a5
    9d84:	da79                	beqz	a2,9d5a <__ledf2+0x7a>
    9d86:	bfcd                	j	9d78 <__ledf2+0x98>
    9d88:	fbdf6ae3          	bltu	t5,t4,9d3c <__ledf2+0x5c>
    9d8c:	4301                	li	t1,0
    9d8e:	ffeef5e3          	bgeu	t4,t5,9d78 <__ledf2+0x98>
    9d92:	f1f5                	bnez	a1,9d76 <__ledf2+0x96>
    9d94:	b775                	j	9d40 <__ledf2+0x60>

00009d96 <__muldf3>:
    9d96:	7139                	addi	sp,sp,-64
    9d98:	d84a                	sw	s2,48(sp)
    9d9a:	0145d913          	srli	s2,a1,0x14
    9d9e:	d64e                	sw	s3,44(sp)
    9da0:	d452                	sw	s4,40(sp)
    9da2:	d256                	sw	s5,36(sp)
    9da4:	00c59993          	slli	s3,a1,0xc
    9da8:	de06                	sw	ra,60(sp)
    9daa:	dc22                	sw	s0,56(sp)
    9dac:	da26                	sw	s1,52(sp)
    9dae:	d05a                	sw	s6,32(sp)
    9db0:	ce5e                	sw	s7,28(sp)
    9db2:	7ff97913          	andi	s2,s2,2047
    9db6:	8a2a                	mv	s4,a0
    9db8:	00c9d993          	srli	s3,s3,0xc
    9dbc:	01f5da93          	srli	s5,a1,0x1f
    9dc0:	0e090d63          	beqz	s2,9eba <__muldf3+0x124>
    9dc4:	7ff00793          	li	a5,2047
    9dc8:	18f90663          	beq	s2,a5,9f54 <__muldf3+0x1be>
    9dcc:	01d55413          	srli	s0,a0,0x1d
    9dd0:	098e                	slli	s3,s3,0x3
    9dd2:	013469b3          	or	s3,s0,s3
    9dd6:	00800437          	lui	s0,0x800
    9dda:	0089e433          	or	s0,s3,s0
    9dde:	00351493          	slli	s1,a0,0x3
    9de2:	c0190913          	addi	s2,s2,-1023
    9de6:	4981                	li	s3,0
    9de8:	4b81                	li	s7,0
    9dea:	0146d713          	srli	a4,a3,0x14
    9dee:	00c69a13          	slli	s4,a3,0xc
    9df2:	7ff77713          	andi	a4,a4,2047
    9df6:	85b2                	mv	a1,a2
    9df8:	00ca5a13          	srli	s4,s4,0xc
    9dfc:	01f6db13          	srli	s6,a3,0x1f
    9e00:	10070b63          	beqz	a4,9f16 <__muldf3+0x180>
    9e04:	7ff00793          	li	a5,2047
    9e08:	04f70363          	beq	a4,a5,9e4e <__muldf3+0xb8>
    9e0c:	01d65793          	srli	a5,a2,0x1d
    9e10:	0a0e                	slli	s4,s4,0x3
    9e12:	0147ea33          	or	s4,a5,s4
    9e16:	c0170713          	addi	a4,a4,-1023
    9e1a:	008007b7          	lui	a5,0x800
    9e1e:	00fa67b3          	or	a5,s4,a5
    9e22:	00361593          	slli	a1,a2,0x3
    9e26:	993a                	add	s2,s2,a4
    9e28:	4881                	li	a7,0
    9e2a:	016ac733          	xor	a4,s5,s6
    9e2e:	46bd                	li	a3,15
    9e30:	853a                	mv	a0,a4
    9e32:	00190813          	addi	a6,s2,1
    9e36:	1736e863          	bltu	a3,s3,9fa6 <__muldf3+0x210>
    9e3a:	00004617          	auipc	a2,0x4
    9e3e:	98e60613          	addi	a2,a2,-1650 # d7c8 <TWO52+0x60>
    9e42:	098a                	slli	s3,s3,0x2
    9e44:	99b2                	add	s3,s3,a2
    9e46:	0009a683          	lw	a3,0(s3)
    9e4a:	96b2                	add	a3,a3,a2
    9e4c:	8682                	jr	a3
    9e4e:	00ca67b3          	or	a5,s4,a2
    9e52:	7ff90913          	addi	s2,s2,2047
    9e56:	12079963          	bnez	a5,9f88 <__muldf3+0x1f2>
    9e5a:	0029e993          	ori	s3,s3,2
    9e5e:	4581                	li	a1,0
    9e60:	4889                	li	a7,2
    9e62:	b7e1                	j	9e2a <__muldf3+0x94>
    9e64:	4701                	li	a4,0
    9e66:	7ff00793          	li	a5,2047
    9e6a:	00080437          	lui	s0,0x80
    9e6e:	4481                	li	s1,0
    9e70:	0432                	slli	s0,s0,0xc
    9e72:	07d2                	slli	a5,a5,0x14
    9e74:	8031                	srli	s0,s0,0xc
    9e76:	077e                	slli	a4,a4,0x1f
    9e78:	8c5d                	or	s0,s0,a5
    9e7a:	8c59                	or	s0,s0,a4
    9e7c:	85a2                	mv	a1,s0
    9e7e:	50f2                	lw	ra,60(sp)
    9e80:	5462                	lw	s0,56(sp)
    9e82:	8526                	mv	a0,s1
    9e84:	5942                	lw	s2,48(sp)
    9e86:	54d2                	lw	s1,52(sp)
    9e88:	59b2                	lw	s3,44(sp)
    9e8a:	5a22                	lw	s4,40(sp)
    9e8c:	5a92                	lw	s5,36(sp)
    9e8e:	5b02                	lw	s6,32(sp)
    9e90:	4bf2                	lw	s7,28(sp)
    9e92:	6121                	addi	sp,sp,64
    9e94:	8082                	ret
    9e96:	855a                	mv	a0,s6
    9e98:	843e                	mv	s0,a5
    9e9a:	84ae                	mv	s1,a1
    9e9c:	8bc6                	mv	s7,a7
    9e9e:	4789                	li	a5,2
    9ea0:	0efb8d63          	beq	s7,a5,9f9a <__muldf3+0x204>
    9ea4:	478d                	li	a5,3
    9ea6:	fafb8fe3          	beq	s7,a5,9e64 <__muldf3+0xce>
    9eaa:	4785                	li	a5,1
    9eac:	872a                	mv	a4,a0
    9eae:	38fb9e63          	bne	s7,a5,a24a <__muldf3+0x4b4>
    9eb2:	4781                	li	a5,0
    9eb4:	4401                	li	s0,0
    9eb6:	4481                	li	s1,0
    9eb8:	bf65                	j	9e70 <__muldf3+0xda>
    9eba:	00a9e433          	or	s0,s3,a0
    9ebe:	c061                	beqz	s0,9f7e <__muldf3+0x1e8>
    9ec0:	c636                	sw	a3,12(sp)
    9ec2:	c432                	sw	a2,8(sp)
    9ec4:	2a098c63          	beqz	s3,a17c <__muldf3+0x3e6>
    9ec8:	854e                	mv	a0,s3
    9eca:	573010ef          	jal	ra,bc3c <__clzsi2>
    9ece:	4622                	lw	a2,8(sp)
    9ed0:	46b2                	lw	a3,12(sp)
    9ed2:	87aa                	mv	a5,a0
    9ed4:	ff550713          	addi	a4,a0,-11
    9ed8:	4475                	li	s0,29
    9eda:	ff878493          	addi	s1,a5,-8 # 7ffff8 <_data_lma+0x7f2594>
    9ede:	8c19                	sub	s0,s0,a4
    9ee0:	009999b3          	sll	s3,s3,s1
    9ee4:	008a5433          	srl	s0,s4,s0
    9ee8:	01346433          	or	s0,s0,s3
    9eec:	009a14b3          	sll	s1,s4,s1
    9ef0:	0146d713          	srli	a4,a3,0x14
    9ef4:	c0d00913          	li	s2,-1011
    9ef8:	00c69a13          	slli	s4,a3,0xc
    9efc:	7ff77713          	andi	a4,a4,2047
    9f00:	40f90933          	sub	s2,s2,a5
    9f04:	4981                	li	s3,0
    9f06:	4b81                	li	s7,0
    9f08:	85b2                	mv	a1,a2
    9f0a:	00ca5a13          	srli	s4,s4,0xc
    9f0e:	01f6db13          	srli	s6,a3,0x1f
    9f12:	ee0719e3          	bnez	a4,9e04 <__muldf3+0x6e>
    9f16:	00ca67b3          	or	a5,s4,a2
    9f1a:	c7b1                	beqz	a5,9f66 <__muldf3+0x1d0>
    9f1c:	220a0f63          	beqz	s4,a15a <__muldf3+0x3c4>
    9f20:	8552                	mv	a0,s4
    9f22:	c432                	sw	a2,8(sp)
    9f24:	519010ef          	jal	ra,bc3c <__clzsi2>
    9f28:	4622                	lw	a2,8(sp)
    9f2a:	872a                	mv	a4,a0
    9f2c:	ff550693          	addi	a3,a0,-11
    9f30:	47f5                	li	a5,29
    9f32:	ff870593          	addi	a1,a4,-8
    9f36:	8f95                	sub	a5,a5,a3
    9f38:	00ba1a33          	sll	s4,s4,a1
    9f3c:	00f657b3          	srl	a5,a2,a5
    9f40:	0147e7b3          	or	a5,a5,s4
    9f44:	00b615b3          	sll	a1,a2,a1
    9f48:	40e90933          	sub	s2,s2,a4
    9f4c:	c0d90913          	addi	s2,s2,-1011
    9f50:	4881                	li	a7,0
    9f52:	bde1                	j	9e2a <__muldf3+0x94>
    9f54:	00a9e433          	or	s0,s3,a0
    9f58:	ec01                	bnez	s0,9f70 <__muldf3+0x1da>
    9f5a:	49a1                	li	s3,8
    9f5c:	4481                	li	s1,0
    9f5e:	7ff00913          	li	s2,2047
    9f62:	4b89                	li	s7,2
    9f64:	b559                	j	9dea <__muldf3+0x54>
    9f66:	0019e993          	ori	s3,s3,1
    9f6a:	4581                	li	a1,0
    9f6c:	4885                	li	a7,1
    9f6e:	bd75                	j	9e2a <__muldf3+0x94>
    9f70:	844e                	mv	s0,s3
    9f72:	84aa                	mv	s1,a0
    9f74:	49b1                	li	s3,12
    9f76:	7ff00913          	li	s2,2047
    9f7a:	4b8d                	li	s7,3
    9f7c:	b5bd                	j	9dea <__muldf3+0x54>
    9f7e:	4991                	li	s3,4
    9f80:	4481                	li	s1,0
    9f82:	4901                	li	s2,0
    9f84:	4b85                	li	s7,1
    9f86:	b595                	j	9dea <__muldf3+0x54>
    9f88:	0039e993          	ori	s3,s3,3
    9f8c:	87d2                	mv	a5,s4
    9f8e:	488d                	li	a7,3
    9f90:	bd69                	j	9e2a <__muldf3+0x94>
    9f92:	4789                	li	a5,2
    9f94:	8556                	mv	a0,s5
    9f96:	f0fb97e3          	bne	s7,a5,9ea4 <__muldf3+0x10e>
    9f9a:	872a                	mv	a4,a0
    9f9c:	7ff00793          	li	a5,2047
    9fa0:	4401                	li	s0,0
    9fa2:	4481                	li	s1,0
    9fa4:	b5f1                	j	9e70 <__muldf3+0xda>
    9fa6:	6ec1                	lui	t4,0x10
    9fa8:	fffe8613          	addi	a2,t4,-1 # ffff <_data_lma+0x259b>
    9fac:	0104d693          	srli	a3,s1,0x10
    9fb0:	0105de13          	srli	t3,a1,0x10
    9fb4:	8cf1                	and	s1,s1,a2
    9fb6:	8df1                	and	a1,a1,a2
    9fb8:	02958633          	mul	a2,a1,s1
    9fbc:	02b68333          	mul	t1,a3,a1
    9fc0:	01065893          	srli	a7,a2,0x10
    9fc4:	029e0533          	mul	a0,t3,s1
    9fc8:	951a                	add	a0,a0,t1
    9fca:	98aa                	add	a7,a7,a0
    9fcc:	03c682b3          	mul	t0,a3,t3
    9fd0:	0068f363          	bgeu	a7,t1,9fd6 <__muldf3+0x240>
    9fd4:	92f6                	add	t0,t0,t4
    9fd6:	6fc1                	lui	t6,0x10
    9fd8:	ffff8313          	addi	t1,t6,-1 # ffff <_data_lma+0x259b>
    9fdc:	0067f533          	and	a0,a5,t1
    9fe0:	0107d393          	srli	t2,a5,0x10
    9fe4:	0068f7b3          	and	a5,a7,t1
    9fe8:	07c2                	slli	a5,a5,0x10
    9fea:	00667333          	and	t1,a2,t1
    9fee:	933e                	add	t1,t1,a5
    9ff0:	02950633          	mul	a2,a0,s1
    9ff4:	0108d893          	srli	a7,a7,0x10
    9ff8:	02a687b3          	mul	a5,a3,a0
    9ffc:	01065f13          	srli	t5,a2,0x10
    a000:	029384b3          	mul	s1,t2,s1
    a004:	94be                	add	s1,s1,a5
    a006:	94fa                	add	s1,s1,t5
    a008:	02768eb3          	mul	t4,a3,t2
    a00c:	00f4f363          	bgeu	s1,a5,a012 <__muldf3+0x27c>
    a010:	9efe                	add	t4,t4,t6
    a012:	6a41                	lui	s4,0x10
    a014:	fffa0793          	addi	a5,s4,-1 # ffff <_data_lma+0x259b>
    a018:	01045f93          	srli	t6,s0,0x10
    a01c:	00f476b3          	and	a3,s0,a5
    a020:	00f4f9b3          	and	s3,s1,a5
    a024:	8e7d                	and	a2,a2,a5
    a026:	80c1                	srli	s1,s1,0x10
    a028:	02d58433          	mul	s0,a1,a3
    a02c:	09c2                	slli	s3,s3,0x10
    a02e:	01d48f33          	add	t5,s1,t4
    a032:	99b2                	add	s3,s3,a2
    a034:	98ce                	add	a7,a7,s3
    a036:	02de07b3          	mul	a5,t3,a3
    a03a:	01045e93          	srli	t4,s0,0x10
    a03e:	02bf85b3          	mul	a1,t6,a1
    a042:	97ae                	add	a5,a5,a1
    a044:	9ebe                	add	t4,t4,a5
    a046:	03fe0e33          	mul	t3,t3,t6
    a04a:	00bef363          	bgeu	t4,a1,a050 <__muldf3+0x2ba>
    a04e:	9e52                	add	t3,t3,s4
    a050:	67c1                	lui	a5,0x10
    a052:	fff78593          	addi	a1,a5,-1 # ffff <_data_lma+0x259b>
    a056:	00bef633          	and	a2,t4,a1
    a05a:	8c6d                	and	s0,s0,a1
    a05c:	0642                	slli	a2,a2,0x10
    a05e:	9622                	add	a2,a2,s0
    a060:	010ede93          	srli	t4,t4,0x10
    a064:	02d505b3          	mul	a1,a0,a3
    a068:	9e76                	add	t3,t3,t4
    a06a:	02af8533          	mul	a0,t6,a0
    a06e:	0105d413          	srli	s0,a1,0x10
    a072:	02d386b3          	mul	a3,t2,a3
    a076:	96aa                	add	a3,a3,a0
    a078:	96a2                	add	a3,a3,s0
    a07a:	03f38fb3          	mul	t6,t2,t6
    a07e:	00a6f363          	bgeu	a3,a0,a084 <__muldf3+0x2ee>
    a082:	9fbe                	add	t6,t6,a5
    a084:	6541                	lui	a0,0x10
    a086:	157d                	addi	a0,a0,-1
    a088:	00a6f7b3          	and	a5,a3,a0
    a08c:	07c2                	slli	a5,a5,0x10
    a08e:	8d6d                	and	a0,a0,a1
    a090:	97aa                	add	a5,a5,a0
    a092:	005885b3          	add	a1,a7,t0
    a096:	0135b9b3          	sltu	s3,a1,s3
    a09a:	97fa                	add	a5,a5,t5
    a09c:	95b2                	add	a1,a1,a2
    a09e:	01378433          	add	s0,a5,s3
    a0a2:	00c5b633          	sltu	a2,a1,a2
    a0a6:	01c40eb3          	add	t4,s0,t3
    a0aa:	00ce8533          	add	a0,t4,a2
    a0ae:	01343433          	sltu	s0,s0,s3
    a0b2:	01e7b7b3          	sltu	a5,a5,t5
    a0b6:	8fc1                	or	a5,a5,s0
    a0b8:	01cebe33          	sltu	t3,t4,t3
    a0bc:	0106d413          	srli	s0,a3,0x10
    a0c0:	00c53633          	sltu	a2,a0,a2
    a0c4:	943e                	add	s0,s0,a5
    a0c6:	00ce6633          	or	a2,t3,a2
    a0ca:	00959493          	slli	s1,a1,0x9
    a0ce:	9432                	add	s0,s0,a2
    a0d0:	947e                	add	s0,s0,t6
    a0d2:	0064e4b3          	or	s1,s1,t1
    a0d6:	0426                	slli	s0,s0,0x9
    a0d8:	01755693          	srli	a3,a0,0x17
    a0dc:	009034b3          	snez	s1,s1
    a0e0:	81dd                	srli	a1,a1,0x17
    a0e2:	00951793          	slli	a5,a0,0x9
    a0e6:	8ccd                	or	s1,s1,a1
    a0e8:	8c55                	or	s0,s0,a3
    a0ea:	8cdd                	or	s1,s1,a5
    a0ec:	00741793          	slli	a5,s0,0x7
    a0f0:	0007db63          	bgez	a5,a106 <__muldf3+0x370>
    a0f4:	0014d793          	srli	a5,s1,0x1
    a0f8:	8885                	andi	s1,s1,1
    a0fa:	01f41693          	slli	a3,s0,0x1f
    a0fe:	8cdd                	or	s1,s1,a5
    a100:	8cd5                	or	s1,s1,a3
    a102:	8005                	srli	s0,s0,0x1
    a104:	8942                	mv	s2,a6
    a106:	3ff90793          	addi	a5,s2,1023
    a10a:	08f05963          	blez	a5,a19c <__muldf3+0x406>
    a10e:	0074f693          	andi	a3,s1,7
    a112:	ce81                	beqz	a3,a12a <__muldf3+0x394>
    a114:	00f4f693          	andi	a3,s1,15
    a118:	4611                	li	a2,4
    a11a:	00c68863          	beq	a3,a2,a12a <__muldf3+0x394>
    a11e:	00448693          	addi	a3,s1,4
    a122:	0096b4b3          	sltu	s1,a3,s1
    a126:	9426                	add	s0,s0,s1
    a128:	84b6                	mv	s1,a3
    a12a:	00741693          	slli	a3,s0,0x7
    a12e:	0006d863          	bgez	a3,a13e <__muldf3+0x3a8>
    a132:	ff0007b7          	lui	a5,0xff000
    a136:	17fd                	addi	a5,a5,-1
    a138:	8c7d                	and	s0,s0,a5
    a13a:	40090793          	addi	a5,s2,1024
    a13e:	7fe00693          	li	a3,2046
    a142:	0ef6cf63          	blt	a3,a5,a240 <__muldf3+0x4aa>
    a146:	0034d693          	srli	a3,s1,0x3
    a14a:	01d41493          	slli	s1,s0,0x1d
    a14e:	0426                	slli	s0,s0,0x9
    a150:	8cd5                	or	s1,s1,a3
    a152:	8031                	srli	s0,s0,0xc
    a154:	7ff7f793          	andi	a5,a5,2047
    a158:	bb21                	j	9e70 <__muldf3+0xda>
    a15a:	8532                	mv	a0,a2
    a15c:	c432                	sw	a2,8(sp)
    a15e:	2df010ef          	jal	ra,bc3c <__clzsi2>
    a162:	01550693          	addi	a3,a0,21 # 10015 <_data_lma+0x25b1>
    a166:	47f1                	li	a5,28
    a168:	02050713          	addi	a4,a0,32
    a16c:	4622                	lw	a2,8(sp)
    a16e:	dcd7d1e3          	bge	a5,a3,9f30 <__muldf3+0x19a>
    a172:	1561                	addi	a0,a0,-8
    a174:	00a617b3          	sll	a5,a2,a0
    a178:	4581                	li	a1,0
    a17a:	b3f9                	j	9f48 <__muldf3+0x1b2>
    a17c:	2c1010ef          	jal	ra,bc3c <__clzsi2>
    a180:	01550713          	addi	a4,a0,21
    a184:	45f1                	li	a1,28
    a186:	02050793          	addi	a5,a0,32
    a18a:	4622                	lw	a2,8(sp)
    a18c:	46b2                	lw	a3,12(sp)
    a18e:	d4e5d5e3          	bge	a1,a4,9ed8 <__muldf3+0x142>
    a192:	1561                	addi	a0,a0,-8
    a194:	00aa1433          	sll	s0,s4,a0
    a198:	4481                	li	s1,0
    a19a:	bb99                	j	9ef0 <__muldf3+0x15a>
    a19c:	4685                	li	a3,1
    a19e:	8e9d                	sub	a3,a3,a5
    a1a0:	e7b1                	bnez	a5,a1ec <__muldf3+0x456>
    a1a2:	41e90913          	addi	s2,s2,1054
    a1a6:	012497b3          	sll	a5,s1,s2
    a1aa:	00d4d4b3          	srl	s1,s1,a3
    a1ae:	01241933          	sll	s2,s0,s2
    a1b2:	00f037b3          	snez	a5,a5
    a1b6:	009964b3          	or	s1,s2,s1
    a1ba:	8cdd                	or	s1,s1,a5
    a1bc:	0074f793          	andi	a5,s1,7
    a1c0:	00d456b3          	srl	a3,s0,a3
    a1c4:	cf81                	beqz	a5,a1dc <__muldf3+0x446>
    a1c6:	00f4f793          	andi	a5,s1,15
    a1ca:	4611                	li	a2,4
    a1cc:	00c78863          	beq	a5,a2,a1dc <__muldf3+0x446>
    a1d0:	00448793          	addi	a5,s1,4
    a1d4:	0097b4b3          	sltu	s1,a5,s1
    a1d8:	96a6                	add	a3,a3,s1
    a1da:	84be                	mv	s1,a5
    a1dc:	00869793          	slli	a5,a3,0x8
    a1e0:	0407d863          	bgez	a5,a230 <__muldf3+0x49a>
    a1e4:	4785                	li	a5,1
    a1e6:	4401                	li	s0,0
    a1e8:	4481                	li	s1,0
    a1ea:	b159                	j	9e70 <__muldf3+0xda>
    a1ec:	03800613          	li	a2,56
    a1f0:	ccd641e3          	blt	a2,a3,9eb2 <__muldf3+0x11c>
    a1f4:	467d                	li	a2,31
    a1f6:	fad656e3          	bge	a2,a3,a1a2 <__muldf3+0x40c>
    a1fa:	5605                	li	a2,-31
    a1fc:	40f607b3          	sub	a5,a2,a5
    a200:	02000593          	li	a1,32
    a204:	00f45633          	srl	a2,s0,a5
    a208:	00b68763          	beq	a3,a1,a216 <__muldf3+0x480>
    a20c:	43e90913          	addi	s2,s2,1086
    a210:	012417b3          	sll	a5,s0,s2
    a214:	8cdd                	or	s1,s1,a5
    a216:	009034b3          	snez	s1,s1
    a21a:	8cd1                	or	s1,s1,a2
    a21c:	0074f693          	andi	a3,s1,7
    a220:	4401                	li	s0,0
    a222:	ca99                	beqz	a3,a238 <__muldf3+0x4a2>
    a224:	00f4f793          	andi	a5,s1,15
    a228:	4611                	li	a2,4
    a22a:	4681                	li	a3,0
    a22c:	fac792e3          	bne	a5,a2,a1d0 <__muldf3+0x43a>
    a230:	00969413          	slli	s0,a3,0x9
    a234:	8031                	srli	s0,s0,0xc
    a236:	06f6                	slli	a3,a3,0x1d
    a238:	808d                	srli	s1,s1,0x3
    a23a:	8cd5                	or	s1,s1,a3
    a23c:	4781                	li	a5,0
    a23e:	b90d                	j	9e70 <__muldf3+0xda>
    a240:	7ff00793          	li	a5,2047
    a244:	4401                	li	s0,0
    a246:	4481                	li	s1,0
    a248:	b125                	j	9e70 <__muldf3+0xda>
    a24a:	8942                	mv	s2,a6
    a24c:	bd6d                	j	a106 <__muldf3+0x370>

0000a24e <__subdf3>:
    a24e:	00100737          	lui	a4,0x100
    a252:	177d                	addi	a4,a4,-1
    a254:	1101                	addi	sp,sp,-32
    a256:	00b77333          	and	t1,a4,a1
    a25a:	0146d893          	srli	a7,a3,0x14
    a25e:	8f75                	and	a4,a4,a3
    a260:	01d65e93          	srli	t4,a2,0x1d
    a264:	cc22                	sw	s0,24(sp)
    a266:	ca26                	sw	s1,20(sp)
    a268:	030e                	slli	t1,t1,0x3
    a26a:	0145d493          	srli	s1,a1,0x14
    a26e:	01d55793          	srli	a5,a0,0x1d
    a272:	070e                	slli	a4,a4,0x3
    a274:	ce06                	sw	ra,28(sp)
    a276:	c84a                	sw	s2,16(sp)
    a278:	c64e                	sw	s3,12(sp)
    a27a:	7ff8f893          	andi	a7,a7,2047
    a27e:	7ff00e13          	li	t3,2047
    a282:	00eee733          	or	a4,t4,a4
    a286:	7ff4f493          	andi	s1,s1,2047
    a28a:	01f5d413          	srli	s0,a1,0x1f
    a28e:	0067e333          	or	t1,a5,t1
    a292:	00351f13          	slli	t5,a0,0x3
    a296:	82fd                	srli	a3,a3,0x1f
    a298:	00361e93          	slli	t4,a2,0x3
    a29c:	19c88063          	beq	a7,t3,a41c <__subdf3+0x1ce>
    a2a0:	0016c693          	xori	a3,a3,1
    a2a4:	411485b3          	sub	a1,s1,a7
    a2a8:	12d40563          	beq	s0,a3,a3d2 <__subdf3+0x184>
    a2ac:	18b05163          	blez	a1,a42e <__subdf3+0x1e0>
    a2b0:	1a088b63          	beqz	a7,a466 <__subdf3+0x218>
    a2b4:	008007b7          	lui	a5,0x800
    a2b8:	8f5d                	or	a4,a4,a5
    a2ba:	59c48163          	beq	s1,t3,a83c <__subdf3+0x5ee>
    a2be:	03800793          	li	a5,56
    a2c2:	34b7c463          	blt	a5,a1,a60a <__subdf3+0x3bc>
    a2c6:	47fd                	li	a5,31
    a2c8:	48b7c563          	blt	a5,a1,a752 <__subdf3+0x504>
    a2cc:	02000793          	li	a5,32
    a2d0:	8f8d                	sub	a5,a5,a1
    a2d2:	00bed9b3          	srl	s3,t4,a1
    a2d6:	00f71833          	sll	a6,a4,a5
    a2da:	00fe9eb3          	sll	t4,t4,a5
    a2de:	01386833          	or	a6,a6,s3
    a2e2:	00b75733          	srl	a4,a4,a1
    a2e6:	01d039b3          	snez	s3,t4
    a2ea:	01386833          	or	a6,a6,s3
    a2ee:	40e30333          	sub	t1,t1,a4
    a2f2:	410f09b3          	sub	s3,t5,a6
    a2f6:	013f37b3          	sltu	a5,t5,s3
    a2fa:	40f30633          	sub	a2,t1,a5
    a2fe:	00861793          	slli	a5,a2,0x8
    a302:	2407d363          	bgez	a5,a548 <__subdf3+0x2fa>
    a306:	00800937          	lui	s2,0x800
    a30a:	197d                	addi	s2,s2,-1
    a30c:	01267933          	and	s2,a2,s2
    a310:	2c090f63          	beqz	s2,a5ee <__subdf3+0x3a0>
    a314:	854a                	mv	a0,s2
    a316:	127010ef          	jal	ra,bc3c <__clzsi2>
    a31a:	ff850713          	addi	a4,a0,-8
    a31e:	02000793          	li	a5,32
    a322:	8f99                	sub	a5,a5,a4
    a324:	00f9d7b3          	srl	a5,s3,a5
    a328:	00e91633          	sll	a2,s2,a4
    a32c:	8fd1                	or	a5,a5,a2
    a32e:	00e999b3          	sll	s3,s3,a4
    a332:	2a974463          	blt	a4,s1,a5da <__subdf3+0x38c>
    a336:	8f05                	sub	a4,a4,s1
    a338:	00170613          	addi	a2,a4,1 # 100001 <_data_lma+0xf259d>
    a33c:	46fd                	li	a3,31
    a33e:	3ac6c563          	blt	a3,a2,a6e8 <__subdf3+0x49a>
    a342:	02000713          	li	a4,32
    a346:	8f11                	sub	a4,a4,a2
    a348:	00c9d6b3          	srl	a3,s3,a2
    a34c:	00e99833          	sll	a6,s3,a4
    a350:	00e79733          	sll	a4,a5,a4
    a354:	8f55                	or	a4,a4,a3
    a356:	01003833          	snez	a6,a6
    a35a:	010769b3          	or	s3,a4,a6
    a35e:	00c7d633          	srl	a2,a5,a2
    a362:	4481                	li	s1,0
    a364:	0079f793          	andi	a5,s3,7
    a368:	cf81                	beqz	a5,a380 <__subdf3+0x132>
    a36a:	00f9f693          	andi	a3,s3,15
    a36e:	4791                	li	a5,4
    a370:	00f68863          	beq	a3,a5,a380 <__subdf3+0x132>
    a374:	00498693          	addi	a3,s3,4
    a378:	0136b833          	sltu	a6,a3,s3
    a37c:	9642                	add	a2,a2,a6
    a37e:	89b6                	mv	s3,a3
    a380:	00861793          	slli	a5,a2,0x8
    a384:	1c07d663          	bgez	a5,a550 <__subdf3+0x302>
    a388:	00148713          	addi	a4,s1,1
    a38c:	7ff00793          	li	a5,2047
    a390:	8805                	andi	s0,s0,1
    a392:	20f70663          	beq	a4,a5,a59e <__subdf3+0x350>
    a396:	ff8007b7          	lui	a5,0xff800
    a39a:	17fd                	addi	a5,a5,-1
    a39c:	8ff1                	and	a5,a5,a2
    a39e:	01d79813          	slli	a6,a5,0x1d
    a3a2:	0039d993          	srli	s3,s3,0x3
    a3a6:	07a6                	slli	a5,a5,0x9
    a3a8:	01386833          	or	a6,a6,s3
    a3ac:	83b1                	srli	a5,a5,0xc
    a3ae:	7ff77713          	andi	a4,a4,2047
    a3b2:	00c79693          	slli	a3,a5,0xc
    a3b6:	0752                	slli	a4,a4,0x14
    a3b8:	82b1                	srli	a3,a3,0xc
    a3ba:	047e                	slli	s0,s0,0x1f
    a3bc:	8ed9                	or	a3,a3,a4
    a3be:	8ec1                	or	a3,a3,s0
    a3c0:	40f2                	lw	ra,28(sp)
    a3c2:	4462                	lw	s0,24(sp)
    a3c4:	44d2                	lw	s1,20(sp)
    a3c6:	4942                	lw	s2,16(sp)
    a3c8:	49b2                	lw	s3,12(sp)
    a3ca:	8542                	mv	a0,a6
    a3cc:	85b6                	mv	a1,a3
    a3ce:	6105                	addi	sp,sp,32
    a3d0:	8082                	ret
    a3d2:	0ab05663          	blez	a1,a47e <__subdf3+0x230>
    a3d6:	12088a63          	beqz	a7,a50a <__subdf3+0x2bc>
    a3da:	008007b7          	lui	a5,0x800
    a3de:	8f5d                	or	a4,a4,a5
    a3e0:	2dc48763          	beq	s1,t3,a6ae <__subdf3+0x460>
    a3e4:	03800793          	li	a5,56
    a3e8:	18b7c763          	blt	a5,a1,a576 <__subdf3+0x328>
    a3ec:	47fd                	li	a5,31
    a3ee:	3cb7d263          	bge	a5,a1,a7b2 <__subdf3+0x564>
    a3f2:	fe058813          	addi	a6,a1,-32 # ffe0 <_data_lma+0x257c>
    a3f6:	02000793          	li	a5,32
    a3fa:	010759b3          	srl	s3,a4,a6
    a3fe:	00f58a63          	beq	a1,a5,a412 <__subdf3+0x1c4>
    a402:	04000793          	li	a5,64
    a406:	40b785b3          	sub	a1,a5,a1
    a40a:	00b71733          	sll	a4,a4,a1
    a40e:	00eeeeb3          	or	t4,t4,a4
    a412:	01d03833          	snez	a6,t4
    a416:	01386833          	or	a6,a6,s3
    a41a:	a295                	j	a57e <__subdf3+0x330>
    a41c:	01d767b3          	or	a5,a4,t4
    a420:	80148593          	addi	a1,s1,-2047
    a424:	e399                	bnez	a5,a42a <__subdf3+0x1dc>
    a426:	0016c693          	xori	a3,a3,1
    a42a:	04d40a63          	beq	s0,a3,a47e <__subdf3+0x230>
    a42e:	e1d1                	bnez	a1,a4b2 <__subdf3+0x264>
    a430:	00148793          	addi	a5,s1,1
    a434:	7fe7f793          	andi	a5,a5,2046
    a438:	1e079963          	bnez	a5,a62a <__subdf3+0x3dc>
    a43c:	01e367b3          	or	a5,t1,t5
    a440:	01d76833          	or	a6,a4,t4
    a444:	16049263          	bnez	s1,a5a8 <__subdf3+0x35a>
    a448:	3c078263          	beqz	a5,a80c <__subdf3+0x5be>
    a44c:	42081663          	bnez	a6,a878 <__subdf3+0x62a>
    a450:	00351813          	slli	a6,a0,0x3
    a454:	01d31693          	slli	a3,t1,0x1d
    a458:	00385813          	srli	a6,a6,0x3
    a45c:	0106e833          	or	a6,a3,a6
    a460:	00335793          	srli	a5,t1,0x3
    a464:	a219                	j	a56a <__subdf3+0x31c>
    a466:	01d767b3          	or	a5,a4,t4
    a46a:	1a078563          	beqz	a5,a614 <__subdf3+0x3c6>
    a46e:	fff58793          	addi	a5,a1,-1
    a472:	3a078b63          	beqz	a5,a828 <__subdf3+0x5da>
    a476:	23c58c63          	beq	a1,t3,a6ae <__subdf3+0x460>
    a47a:	85be                	mv	a1,a5
    a47c:	b589                	j	a2be <__subdf3+0x70>
    a47e:	1c059963          	bnez	a1,a650 <__subdf3+0x402>
    a482:	00148693          	addi	a3,s1,1
    a486:	7fe6f793          	andi	a5,a3,2046
    a48a:	efc1                	bnez	a5,a522 <__subdf3+0x2d4>
    a48c:	01e367b3          	or	a5,t1,t5
    a490:	36049063          	bnez	s1,a7f0 <__subdf3+0x5a2>
    a494:	44078d63          	beqz	a5,a8ee <__subdf3+0x6a0>
    a498:	01d767b3          	or	a5,a4,t4
    a49c:	46079463          	bnez	a5,a904 <__subdf3+0x6b6>
    a4a0:	050e                	slli	a0,a0,0x3
    a4a2:	01d31813          	slli	a6,t1,0x1d
    a4a6:	810d                	srli	a0,a0,0x3
    a4a8:	00a86833          	or	a6,a6,a0
    a4ac:	00335793          	srli	a5,t1,0x3
    a4b0:	a86d                	j	a56a <__subdf3+0x31c>
    a4b2:	409885b3          	sub	a1,a7,s1
    a4b6:	20049763          	bnez	s1,a6c4 <__subdf3+0x476>
    a4ba:	01e367b3          	or	a5,t1,t5
    a4be:	30078d63          	beqz	a5,a7d8 <__subdf3+0x58a>
    a4c2:	fff58793          	addi	a5,a1,-1
    a4c6:	40078963          	beqz	a5,a8d8 <__subdf3+0x68a>
    a4ca:	7ff00513          	li	a0,2047
    a4ce:	20a58363          	beq	a1,a0,a6d4 <__subdf3+0x486>
    a4d2:	85be                	mv	a1,a5
    a4d4:	03800793          	li	a5,56
    a4d8:	2ab7c263          	blt	a5,a1,a77c <__subdf3+0x52e>
    a4dc:	47fd                	li	a5,31
    a4de:	3cb7c863          	blt	a5,a1,a8ae <__subdf3+0x660>
    a4e2:	02000793          	li	a5,32
    a4e6:	8f8d                	sub	a5,a5,a1
    a4e8:	00f31833          	sll	a6,t1,a5
    a4ec:	00bf5633          	srl	a2,t5,a1
    a4f0:	00ff17b3          	sll	a5,t5,a5
    a4f4:	00c86833          	or	a6,a6,a2
    a4f8:	00f039b3          	snez	s3,a5
    a4fc:	00b35333          	srl	t1,t1,a1
    a500:	01386833          	or	a6,a6,s3
    a504:	40670733          	sub	a4,a4,t1
    a508:	acb5                	j	a784 <__subdf3+0x536>
    a50a:	01d767b3          	or	a5,a4,t4
    a50e:	10078363          	beqz	a5,a614 <__subdf3+0x3c6>
    a512:	fff58793          	addi	a5,a1,-1
    a516:	1e078f63          	beqz	a5,a714 <__subdf3+0x4c6>
    a51a:	2fc58063          	beq	a1,t3,a7fa <__subdf3+0x5ac>
    a51e:	85be                	mv	a1,a5
    a520:	b5d1                	j	a3e4 <__subdf3+0x196>
    a522:	7ff00793          	li	a5,2047
    a526:	06f68b63          	beq	a3,a5,a59c <__subdf3+0x34e>
    a52a:	9efa                	add	t4,t4,t5
    a52c:	01eeb633          	sltu	a2,t4,t5
    a530:	00e307b3          	add	a5,t1,a4
    a534:	97b2                	add	a5,a5,a2
    a536:	01f79813          	slli	a6,a5,0x1f
    a53a:	001ede93          	srli	t4,t4,0x1
    a53e:	01d869b3          	or	s3,a6,t4
    a542:	0017d613          	srli	a2,a5,0x1
    a546:	84b6                	mv	s1,a3
    a548:	0079f793          	andi	a5,s3,7
    a54c:	e0079fe3          	bnez	a5,a36a <__subdf3+0x11c>
    a550:	01d61793          	slli	a5,a2,0x1d
    a554:	0039d813          	srli	a6,s3,0x3
    a558:	00f86833          	or	a6,a6,a5
    a55c:	85a6                	mv	a1,s1
    a55e:	00365793          	srli	a5,a2,0x3
    a562:	7ff00713          	li	a4,2047
    a566:	06e58063          	beq	a1,a4,a5c6 <__subdf3+0x378>
    a56a:	07b2                	slli	a5,a5,0xc
    a56c:	83b1                	srli	a5,a5,0xc
    a56e:	7ff5f713          	andi	a4,a1,2047
    a572:	8805                	andi	s0,s0,1
    a574:	bd3d                	j	a3b2 <__subdf3+0x164>
    a576:	01d76733          	or	a4,a4,t4
    a57a:	00e03833          	snez	a6,a4
    a57e:	01e809b3          	add	s3,a6,t5
    a582:	01e9b7b3          	sltu	a5,s3,t5
    a586:	00678633          	add	a2,a5,t1
    a58a:	00861793          	slli	a5,a2,0x8
    a58e:	fa07dde3          	bgez	a5,a548 <__subdf3+0x2fa>
    a592:	0485                	addi	s1,s1,1
    a594:	7ff00793          	li	a5,2047
    a598:	18f49c63          	bne	s1,a5,a730 <__subdf3+0x4e2>
    a59c:	8805                	andi	s0,s0,1
    a59e:	7ff00713          	li	a4,2047
    a5a2:	4781                	li	a5,0
    a5a4:	4801                	li	a6,0
    a5a6:	b531                	j	a3b2 <__subdf3+0x164>
    a5a8:	10079163          	bnez	a5,a6aa <__subdf3+0x45c>
    a5ac:	3c080163          	beqz	a6,a96e <__subdf3+0x720>
    a5b0:	00361813          	slli	a6,a2,0x3
    a5b4:	01d71793          	slli	a5,a4,0x1d
    a5b8:	00385813          	srli	a6,a6,0x3
    a5bc:	00f86833          	or	a6,a6,a5
    a5c0:	8436                	mv	s0,a3
    a5c2:	00375793          	srli	a5,a4,0x3
    a5c6:	00f867b3          	or	a5,a6,a5
    a5ca:	dbe9                	beqz	a5,a59c <__subdf3+0x34e>
    a5cc:	4401                	li	s0,0
    a5ce:	7ff00713          	li	a4,2047
    a5d2:	000807b7          	lui	a5,0x80
    a5d6:	4801                	li	a6,0
    a5d8:	bbe9                	j	a3b2 <__subdf3+0x164>
    a5da:	ff800637          	lui	a2,0xff800
    a5de:	167d                	addi	a2,a2,-1
    a5e0:	8e7d                	and	a2,a2,a5
    a5e2:	0079f793          	andi	a5,s3,7
    a5e6:	8c99                	sub	s1,s1,a4
    a5e8:	d80791e3          	bnez	a5,a36a <__subdf3+0x11c>
    a5ec:	b795                	j	a550 <__subdf3+0x302>
    a5ee:	854e                	mv	a0,s3
    a5f0:	64c010ef          	jal	ra,bc3c <__clzsi2>
    a5f4:	01850713          	addi	a4,a0,24
    a5f8:	47fd                	li	a5,31
    a5fa:	d2e7d2e3          	bge	a5,a4,a31e <__subdf3+0xd0>
    a5fe:	ff850613          	addi	a2,a0,-8
    a602:	00c997b3          	sll	a5,s3,a2
    a606:	4981                	li	s3,0
    a608:	b32d                	j	a332 <__subdf3+0xe4>
    a60a:	01d76833          	or	a6,a4,t4
    a60e:	01003833          	snez	a6,a6
    a612:	b1c5                	j	a2f2 <__subdf3+0xa4>
    a614:	00351813          	slli	a6,a0,0x3
    a618:	01d31793          	slli	a5,t1,0x1d
    a61c:	00385813          	srli	a6,a6,0x3
    a620:	00f86833          	or	a6,a6,a5
    a624:	00335793          	srli	a5,t1,0x3
    a628:	bf2d                	j	a562 <__subdf3+0x314>
    a62a:	41df09b3          	sub	s3,t5,t4
    a62e:	40e30933          	sub	s2,t1,a4
    a632:	013f3633          	sltu	a2,t5,s3
    a636:	40c90933          	sub	s2,s2,a2
    a63a:	00891793          	slli	a5,s2,0x8
    a63e:	2007ca63          	bltz	a5,a852 <__subdf3+0x604>
    a642:	0129e833          	or	a6,s3,s2
    a646:	cc0815e3          	bnez	a6,a310 <__subdf3+0xc2>
    a64a:	4781                	li	a5,0
    a64c:	4401                	li	s0,0
    a64e:	bf31                	j	a56a <__subdf3+0x31c>
    a650:	409885b3          	sub	a1,a7,s1
    a654:	14048163          	beqz	s1,a796 <__subdf3+0x548>
    a658:	008006b7          	lui	a3,0x800
    a65c:	7ff00793          	li	a5,2047
    a660:	00d36333          	or	t1,t1,a3
    a664:	20f88163          	beq	a7,a5,a866 <__subdf3+0x618>
    a668:	03800793          	li	a5,56
    a66c:	22b7cc63          	blt	a5,a1,a8a4 <__subdf3+0x656>
    a670:	47fd                	li	a5,31
    a672:	2cb7c963          	blt	a5,a1,a944 <__subdf3+0x6f6>
    a676:	02000793          	li	a5,32
    a67a:	8f8d                	sub	a5,a5,a1
    a67c:	00f31833          	sll	a6,t1,a5
    a680:	00bf56b3          	srl	a3,t5,a1
    a684:	00ff17b3          	sll	a5,t5,a5
    a688:	00d86833          	or	a6,a6,a3
    a68c:	00f039b3          	snez	s3,a5
    a690:	00b35333          	srl	t1,t1,a1
    a694:	01386833          	or	a6,a6,s3
    a698:	971a                	add	a4,a4,t1
    a69a:	01d809b3          	add	s3,a6,t4
    a69e:	01d9b7b3          	sltu	a5,s3,t4
    a6a2:	00e78633          	add	a2,a5,a4
    a6a6:	84c6                	mv	s1,a7
    a6a8:	b5cd                	j	a58a <__subdf3+0x33c>
    a6aa:	f20811e3          	bnez	a6,a5cc <__subdf3+0x37e>
    a6ae:	00351813          	slli	a6,a0,0x3
    a6b2:	01d31793          	slli	a5,t1,0x1d
    a6b6:	00385813          	srli	a6,a6,0x3
    a6ba:	00f86833          	or	a6,a6,a5
    a6be:	00335793          	srli	a5,t1,0x3
    a6c2:	b711                	j	a5c6 <__subdf3+0x378>
    a6c4:	00800537          	lui	a0,0x800
    a6c8:	7ff00793          	li	a5,2047
    a6cc:	00a36333          	or	t1,t1,a0
    a6d0:	e0f892e3          	bne	a7,a5,a4d4 <__subdf3+0x286>
    a6d4:	060e                	slli	a2,a2,0x3
    a6d6:	01d71813          	slli	a6,a4,0x1d
    a6da:	820d                	srli	a2,a2,0x3
    a6dc:	00c86833          	or	a6,a6,a2
    a6e0:	00375793          	srli	a5,a4,0x3
    a6e4:	8436                	mv	s0,a3
    a6e6:	b5c5                	j	a5c6 <__subdf3+0x378>
    a6e8:	1705                	addi	a4,a4,-31
    a6ea:	02000693          	li	a3,32
    a6ee:	00e7d733          	srl	a4,a5,a4
    a6f2:	00d60a63          	beq	a2,a3,a706 <__subdf3+0x4b8>
    a6f6:	04000693          	li	a3,64
    a6fa:	40c68633          	sub	a2,a3,a2
    a6fe:	00c79633          	sll	a2,a5,a2
    a702:	00c9e9b3          	or	s3,s3,a2
    a706:	01303833          	snez	a6,s3
    a70a:	00e869b3          	or	s3,a6,a4
    a70e:	4601                	li	a2,0
    a710:	4481                	li	s1,0
    a712:	bd1d                	j	a548 <__subdf3+0x2fa>
    a714:	01df09b3          	add	s3,t5,t4
    a718:	00e307b3          	add	a5,t1,a4
    a71c:	01e9bf33          	sltu	t5,s3,t5
    a720:	01e78633          	add	a2,a5,t5
    a724:	00861793          	slli	a5,a2,0x8
    a728:	4485                	li	s1,1
    a72a:	e007dfe3          	bgez	a5,a548 <__subdf3+0x2fa>
    a72e:	4489                	li	s1,2
    a730:	ff8007b7          	lui	a5,0xff800
    a734:	17fd                	addi	a5,a5,-1
    a736:	8ff1                	and	a5,a5,a2
    a738:	0019d713          	srli	a4,s3,0x1
    a73c:	0019f813          	andi	a6,s3,1
    a740:	01076833          	or	a6,a4,a6
    a744:	01f79993          	slli	s3,a5,0x1f
    a748:	0109e9b3          	or	s3,s3,a6
    a74c:	0017d613          	srli	a2,a5,0x1
    a750:	b911                	j	a364 <__subdf3+0x116>
    a752:	fe058813          	addi	a6,a1,-32
    a756:	02000793          	li	a5,32
    a75a:	010759b3          	srl	s3,a4,a6
    a75e:	00f58a63          	beq	a1,a5,a772 <__subdf3+0x524>
    a762:	04000793          	li	a5,64
    a766:	40b785b3          	sub	a1,a5,a1
    a76a:	00b71733          	sll	a4,a4,a1
    a76e:	00eeeeb3          	or	t4,t4,a4
    a772:	01d03833          	snez	a6,t4
    a776:	01386833          	or	a6,a6,s3
    a77a:	bea5                	j	a2f2 <__subdf3+0xa4>
    a77c:	01e36333          	or	t1,t1,t5
    a780:	00603833          	snez	a6,t1
    a784:	410e89b3          	sub	s3,t4,a6
    a788:	013eb7b3          	sltu	a5,t4,s3
    a78c:	40f70633          	sub	a2,a4,a5
    a790:	84c6                	mv	s1,a7
    a792:	8436                	mv	s0,a3
    a794:	b6ad                	j	a2fe <__subdf3+0xb0>
    a796:	01e367b3          	or	a5,t1,t5
    a79a:	18078763          	beqz	a5,a928 <__subdf3+0x6da>
    a79e:	fff58793          	addi	a5,a1,-1
    a7a2:	1c078c63          	beqz	a5,a97a <__subdf3+0x72c>
    a7a6:	7ff00693          	li	a3,2047
    a7aa:	0ad58e63          	beq	a1,a3,a866 <__subdf3+0x618>
    a7ae:	85be                	mv	a1,a5
    a7b0:	bd65                	j	a668 <__subdf3+0x41a>
    a7b2:	02000793          	li	a5,32
    a7b6:	8f8d                	sub	a5,a5,a1
    a7b8:	00bed9b3          	srl	s3,t4,a1
    a7bc:	00f71833          	sll	a6,a4,a5
    a7c0:	00fe9eb3          	sll	t4,t4,a5
    a7c4:	01386833          	or	a6,a6,s3
    a7c8:	00b75733          	srl	a4,a4,a1
    a7cc:	01d039b3          	snez	s3,t4
    a7d0:	01386833          	or	a6,a6,s3
    a7d4:	933a                	add	t1,t1,a4
    a7d6:	b365                	j	a57e <__subdf3+0x330>
    a7d8:	00361813          	slli	a6,a2,0x3
    a7dc:	01d71793          	slli	a5,a4,0x1d
    a7e0:	00385813          	srli	a6,a6,0x3
    a7e4:	0107e833          	or	a6,a5,a6
    a7e8:	8436                	mv	s0,a3
    a7ea:	00375793          	srli	a5,a4,0x3
    a7ee:	bb95                	j	a562 <__subdf3+0x314>
    a7f0:	cbbd                	beqz	a5,a866 <__subdf3+0x618>
    a7f2:	01d76733          	or	a4,a4,t4
    a7f6:	dc071be3          	bnez	a4,a5cc <__subdf3+0x37e>
    a7fa:	050e                	slli	a0,a0,0x3
    a7fc:	01d31813          	slli	a6,t1,0x1d
    a800:	810d                	srli	a0,a0,0x3
    a802:	00a86833          	or	a6,a6,a0
    a806:	00335793          	srli	a5,t1,0x3
    a80a:	bb75                	j	a5c6 <__subdf3+0x378>
    a80c:	e2080fe3          	beqz	a6,a64a <__subdf3+0x3fc>
    a810:	00361813          	slli	a6,a2,0x3
    a814:	01d71793          	slli	a5,a4,0x1d
    a818:	00385813          	srli	a6,a6,0x3
    a81c:	00f86833          	or	a6,a6,a5
    a820:	8436                	mv	s0,a3
    a822:	00375793          	srli	a5,a4,0x3
    a826:	b391                	j	a56a <__subdf3+0x31c>
    a828:	41df09b3          	sub	s3,t5,t4
    a82c:	40e307b3          	sub	a5,t1,a4
    a830:	013f3f33          	sltu	t5,t5,s3
    a834:	41e78633          	sub	a2,a5,t5
    a838:	4485                	li	s1,1
    a83a:	b4d1                	j	a2fe <__subdf3+0xb0>
    a83c:	00351813          	slli	a6,a0,0x3
    a840:	01d31693          	slli	a3,t1,0x1d
    a844:	00385813          	srli	a6,a6,0x3
    a848:	0106e833          	or	a6,a3,a6
    a84c:	00335793          	srli	a5,t1,0x3
    a850:	bb9d                	j	a5c6 <__subdf3+0x378>
    a852:	41ee89b3          	sub	s3,t4,t5
    a856:	40670633          	sub	a2,a4,t1
    a85a:	013eb933          	sltu	s2,t4,s3
    a85e:	41260933          	sub	s2,a2,s2
    a862:	8436                	mv	s0,a3
    a864:	b475                	j	a310 <__subdf3+0xc2>
    a866:	060e                	slli	a2,a2,0x3
    a868:	01d71813          	slli	a6,a4,0x1d
    a86c:	820d                	srli	a2,a2,0x3
    a86e:	00c86833          	or	a6,a6,a2
    a872:	00375793          	srli	a5,a4,0x3
    a876:	bb81                	j	a5c6 <__subdf3+0x378>
    a878:	41df09b3          	sub	s3,t5,t4
    a87c:	40e307b3          	sub	a5,t1,a4
    a880:	013f3633          	sltu	a2,t5,s3
    a884:	40c78633          	sub	a2,a5,a2
    a888:	00861793          	slli	a5,a2,0x8
    a88c:	0a07d763          	bgez	a5,a93a <__subdf3+0x6ec>
    a890:	41ee89b3          	sub	s3,t4,t5
    a894:	406707b3          	sub	a5,a4,t1
    a898:	013ebeb3          	sltu	t4,t4,s3
    a89c:	41d78633          	sub	a2,a5,t4
    a8a0:	8436                	mv	s0,a3
    a8a2:	b4c9                	j	a364 <__subdf3+0x116>
    a8a4:	01e36333          	or	t1,t1,t5
    a8a8:	00603833          	snez	a6,t1
    a8ac:	b3fd                	j	a69a <__subdf3+0x44c>
    a8ae:	fe058813          	addi	a6,a1,-32
    a8b2:	02000793          	li	a5,32
    a8b6:	010359b3          	srl	s3,t1,a6
    a8ba:	00f58a63          	beq	a1,a5,a8ce <__subdf3+0x680>
    a8be:	04000793          	li	a5,64
    a8c2:	40b785b3          	sub	a1,a5,a1
    a8c6:	00b31333          	sll	t1,t1,a1
    a8ca:	006f6f33          	or	t5,t5,t1
    a8ce:	01e03833          	snez	a6,t5
    a8d2:	01386833          	or	a6,a6,s3
    a8d6:	b57d                	j	a784 <__subdf3+0x536>
    a8d8:	41ee89b3          	sub	s3,t4,t5
    a8dc:	406707b3          	sub	a5,a4,t1
    a8e0:	013ebeb3          	sltu	t4,t4,s3
    a8e4:	41d78633          	sub	a2,a5,t4
    a8e8:	8436                	mv	s0,a3
    a8ea:	4485                	li	s1,1
    a8ec:	bc09                	j	a2fe <__subdf3+0xb0>
    a8ee:	00361813          	slli	a6,a2,0x3
    a8f2:	01d71793          	slli	a5,a4,0x1d
    a8f6:	00385813          	srli	a6,a6,0x3
    a8fa:	00f86833          	or	a6,a6,a5
    a8fe:	00375793          	srli	a5,a4,0x3
    a902:	b1a5                	j	a56a <__subdf3+0x31c>
    a904:	01df09b3          	add	s3,t5,t4
    a908:	00e307b3          	add	a5,t1,a4
    a90c:	01e9bf33          	sltu	t5,s3,t5
    a910:	01e78633          	add	a2,a5,t5
    a914:	00861793          	slli	a5,a2,0x8
    a918:	c207d8e3          	bgez	a5,a548 <__subdf3+0x2fa>
    a91c:	ff8007b7          	lui	a5,0xff800
    a920:	17fd                	addi	a5,a5,-1
    a922:	8e7d                	and	a2,a2,a5
    a924:	4485                	li	s1,1
    a926:	b10d                	j	a548 <__subdf3+0x2fa>
    a928:	060e                	slli	a2,a2,0x3
    a92a:	01d71813          	slli	a6,a4,0x1d
    a92e:	820d                	srli	a2,a2,0x3
    a930:	00c86833          	or	a6,a6,a2
    a934:	00375793          	srli	a5,a4,0x3
    a938:	b12d                	j	a562 <__subdf3+0x314>
    a93a:	00c9e833          	or	a6,s3,a2
    a93e:	d00806e3          	beqz	a6,a64a <__subdf3+0x3fc>
    a942:	b119                	j	a548 <__subdf3+0x2fa>
    a944:	fe058813          	addi	a6,a1,-32
    a948:	02000793          	li	a5,32
    a94c:	010359b3          	srl	s3,t1,a6
    a950:	00f58a63          	beq	a1,a5,a964 <__subdf3+0x716>
    a954:	04000793          	li	a5,64
    a958:	40b785b3          	sub	a1,a5,a1
    a95c:	00b31333          	sll	t1,t1,a1
    a960:	006f6f33          	or	t5,t5,t1
    a964:	01e03833          	snez	a6,t5
    a968:	01386833          	or	a6,a6,s3
    a96c:	b33d                	j	a69a <__subdf3+0x44c>
    a96e:	4401                	li	s0,0
    a970:	7ff00713          	li	a4,2047
    a974:	000807b7          	lui	a5,0x80
    a978:	bc2d                	j	a3b2 <__subdf3+0x164>
    a97a:	01df09b3          	add	s3,t5,t4
    a97e:	00e307b3          	add	a5,t1,a4
    a982:	01d9beb3          	sltu	t4,s3,t4
    a986:	01d78633          	add	a2,a5,t4
    a98a:	bb69                	j	a724 <__subdf3+0x4d6>

0000a98c <__unorddf2>:
    a98c:	0145d713          	srli	a4,a1,0x14
    a990:	001007b7          	lui	a5,0x100
    a994:	17fd                	addi	a5,a5,-1
    a996:	fff74713          	not	a4,a4
    a99a:	0146d813          	srli	a6,a3,0x14
    a99e:	8dfd                	and	a1,a1,a5
    a9a0:	8ff5                	and	a5,a5,a3
    a9a2:	01571693          	slli	a3,a4,0x15
    a9a6:	7ff87813          	andi	a6,a6,2047
    a9aa:	ca99                	beqz	a3,a9c0 <__unorddf2+0x34>
    a9ac:	7ff00713          	li	a4,2047
    a9b0:	4501                	li	a0,0
    a9b2:	00e80363          	beq	a6,a4,a9b8 <__unorddf2+0x2c>
    a9b6:	8082                	ret
    a9b8:	8fd1                	or	a5,a5,a2
    a9ba:	00f03533          	snez	a0,a5
    a9be:	8082                	ret
    a9c0:	8dc9                	or	a1,a1,a0
    a9c2:	4505                	li	a0,1
    a9c4:	d5e5                	beqz	a1,a9ac <__unorddf2+0x20>
    a9c6:	8082                	ret

0000a9c8 <__fixdfsi>:
    a9c8:	0145d793          	srli	a5,a1,0x14
    a9cc:	001006b7          	lui	a3,0x100
    a9d0:	fff68713          	addi	a4,a3,-1 # fffff <_data_lma+0xf259b>
    a9d4:	7ff7f793          	andi	a5,a5,2047
    a9d8:	3fe00613          	li	a2,1022
    a9dc:	8f6d                	and	a4,a4,a1
    a9de:	81fd                	srli	a1,a1,0x1f
    a9e0:	00f65c63          	bge	a2,a5,a9f8 <__fixdfsi+0x30>
    a9e4:	41d00613          	li	a2,1053
    a9e8:	00f65a63          	bge	a2,a5,a9fc <__fixdfsi+0x34>
    a9ec:	80000537          	lui	a0,0x80000
    a9f0:	fff54513          	not	a0,a0
    a9f4:	952e                	add	a0,a0,a1
    a9f6:	8082                	ret
    a9f8:	4501                	li	a0,0
    a9fa:	8082                	ret
    a9fc:	43300613          	li	a2,1075
    aa00:	8e1d                	sub	a2,a2,a5
    aa02:	487d                	li	a6,31
    aa04:	8f55                	or	a4,a4,a3
    aa06:	00c85d63          	bge	a6,a2,aa20 <__fixdfsi+0x58>
    aa0a:	41300693          	li	a3,1043
    aa0e:	40f687b3          	sub	a5,a3,a5
    aa12:	00f757b3          	srl	a5,a4,a5
    aa16:	40f00533          	neg	a0,a5
    aa1a:	f1e5                	bnez	a1,a9fa <__fixdfsi+0x32>
    aa1c:	853e                	mv	a0,a5
    aa1e:	8082                	ret
    aa20:	bed78793          	addi	a5,a5,-1043 # ffbed <_data_lma+0xf2189>
    aa24:	00f717b3          	sll	a5,a4,a5
    aa28:	00c55533          	srl	a0,a0,a2
    aa2c:	8fc9                	or	a5,a5,a0
    aa2e:	b7e5                	j	aa16 <__fixdfsi+0x4e>

0000aa30 <__floatsidf>:
    aa30:	1141                	addi	sp,sp,-16
    aa32:	c606                	sw	ra,12(sp)
    aa34:	c422                	sw	s0,8(sp)
    aa36:	c226                	sw	s1,4(sp)
    aa38:	cd0d                	beqz	a0,aa72 <__floatsidf+0x42>
    aa3a:	41f55793          	srai	a5,a0,0x1f
    aa3e:	00a7c4b3          	xor	s1,a5,a0
    aa42:	8c9d                	sub	s1,s1,a5
    aa44:	842a                	mv	s0,a0
    aa46:	8526                	mv	a0,s1
    aa48:	1f4010ef          	jal	ra,bc3c <__clzsi2>
    aa4c:	41e00693          	li	a3,1054
    aa50:	8e89                	sub	a3,a3,a0
    aa52:	47a9                	li	a5,10
    aa54:	807d                	srli	s0,s0,0x1f
    aa56:	7ff6f693          	andi	a3,a3,2047
    aa5a:	02a7cd63          	blt	a5,a0,aa94 <__floatsidf+0x64>
    aa5e:	472d                	li	a4,11
    aa60:	8f09                	sub	a4,a4,a0
    aa62:	00e4d7b3          	srl	a5,s1,a4
    aa66:	0555                	addi	a0,a0,21
    aa68:	07b2                	slli	a5,a5,0xc
    aa6a:	00a494b3          	sll	s1,s1,a0
    aa6e:	83b1                	srli	a5,a5,0xc
    aa70:	a029                	j	aa7a <__floatsidf+0x4a>
    aa72:	4401                	li	s0,0
    aa74:	4681                	li	a3,0
    aa76:	4781                	li	a5,0
    aa78:	4481                	li	s1,0
    aa7a:	07b2                	slli	a5,a5,0xc
    aa7c:	06d2                	slli	a3,a3,0x14
    aa7e:	83b1                	srli	a5,a5,0xc
    aa80:	047e                	slli	s0,s0,0x1f
    aa82:	8fd5                	or	a5,a5,a3
    aa84:	8fc1                	or	a5,a5,s0
    aa86:	40b2                	lw	ra,12(sp)
    aa88:	4422                	lw	s0,8(sp)
    aa8a:	8526                	mv	a0,s1
    aa8c:	85be                	mv	a1,a5
    aa8e:	4492                	lw	s1,4(sp)
    aa90:	0141                	addi	sp,sp,16
    aa92:	8082                	ret
    aa94:	1555                	addi	a0,a0,-11
    aa96:	00a497b3          	sll	a5,s1,a0
    aa9a:	07b2                	slli	a5,a5,0xc
    aa9c:	83b1                	srli	a5,a5,0xc
    aa9e:	4481                	li	s1,0
    aaa0:	bfe9                	j	aa7a <__floatsidf+0x4a>

0000aaa2 <__floatunsidf>:
    aaa2:	cd1d                	beqz	a0,aae0 <__floatunsidf+0x3e>
    aaa4:	1141                	addi	sp,sp,-16
    aaa6:	c422                	sw	s0,8(sp)
    aaa8:	c606                	sw	ra,12(sp)
    aaaa:	842a                	mv	s0,a0
    aaac:	190010ef          	jal	ra,bc3c <__clzsi2>
    aab0:	41e00693          	li	a3,1054
    aab4:	8e89                	sub	a3,a3,a0
    aab6:	47a9                	li	a5,10
    aab8:	7ff6f693          	andi	a3,a3,2047
    aabc:	02a7dc63          	bge	a5,a0,aaf4 <__floatunsidf+0x52>
    aac0:	1555                	addi	a0,a0,-11
    aac2:	00a417b3          	sll	a5,s0,a0
    aac6:	07b2                	slli	a5,a5,0xc
    aac8:	83b1                	srli	a5,a5,0xc
    aaca:	4701                	li	a4,0
    aacc:	40b2                	lw	ra,12(sp)
    aace:	4422                	lw	s0,8(sp)
    aad0:	07b2                	slli	a5,a5,0xc
    aad2:	06d2                	slli	a3,a3,0x14
    aad4:	83b1                	srli	a5,a5,0xc
    aad6:	8fd5                	or	a5,a5,a3
    aad8:	853a                	mv	a0,a4
    aada:	85be                	mv	a1,a5
    aadc:	0141                	addi	sp,sp,16
    aade:	8082                	ret
    aae0:	4781                	li	a5,0
    aae2:	4681                	li	a3,0
    aae4:	07b2                	slli	a5,a5,0xc
    aae6:	06d2                	slli	a3,a3,0x14
    aae8:	83b1                	srli	a5,a5,0xc
    aaea:	4701                	li	a4,0
    aaec:	8fd5                	or	a5,a5,a3
    aaee:	853a                	mv	a0,a4
    aaf0:	85be                	mv	a1,a5
    aaf2:	8082                	ret
    aaf4:	472d                	li	a4,11
    aaf6:	8f09                	sub	a4,a4,a0
    aaf8:	00e457b3          	srl	a5,s0,a4
    aafc:	07b2                	slli	a5,a5,0xc
    aafe:	01550713          	addi	a4,a0,21 # 80000015 <__freertos_irq_stack_top+0x5fffb015>
    ab02:	00e41733          	sll	a4,s0,a4
    ab06:	83b1                	srli	a5,a5,0xc
    ab08:	b7d1                	j	aacc <__floatunsidf+0x2a>

0000ab0a <__addsf3>:
    ab0a:	1141                	addi	sp,sp,-16
    ab0c:	00800737          	lui	a4,0x800
    ab10:	177d                	addi	a4,a4,-1
    ab12:	0175d813          	srli	a6,a1,0x17
    ab16:	c226                	sw	s1,4(sp)
    ab18:	01755493          	srli	s1,a0,0x17
    ab1c:	00a77333          	and	t1,a4,a0
    ab20:	0ff4f493          	andi	s1,s1,255
    ab24:	00b776b3          	and	a3,a4,a1
    ab28:	c04a                	sw	s2,0(sp)
    ab2a:	0ff87813          	andi	a6,a6,255
    ab2e:	01f55913          	srli	s2,a0,0x1f
    ab32:	c606                	sw	ra,12(sp)
    ab34:	c422                	sw	s0,8(sp)
    ab36:	81fd                	srli	a1,a1,0x1f
    ab38:	879a                	mv	a5,t1
    ab3a:	8526                	mv	a0,s1
    ab3c:	864a                	mv	a2,s2
    ab3e:	00331e13          	slli	t3,t1,0x3
    ab42:	00369e93          	slli	t4,a3,0x3
    ab46:	410488b3          	sub	a7,s1,a6
    ab4a:	0eb90a63          	beq	s2,a1,ac3e <__addsf3+0x134>
    ab4e:	0d105063          	blez	a7,ac0e <__addsf3+0x104>
    ab52:	14080463          	beqz	a6,ac9a <__addsf3+0x190>
    ab56:	0ff00793          	li	a5,255
    ab5a:	14f48b63          	beq	s1,a5,acb0 <__addsf3+0x1a6>
    ab5e:	040007b7          	lui	a5,0x4000
    ab62:	00feeeb3          	or	t4,t4,a5
    ab66:	47ed                	li	a5,27
    ab68:	2917c163          	blt	a5,a7,adea <__addsf3+0x2e0>
    ab6c:	02000793          	li	a5,32
    ab70:	411787b3          	sub	a5,a5,a7
    ab74:	00fe97b3          	sll	a5,t4,a5
    ab78:	011ed8b3          	srl	a7,t4,a7
    ab7c:	00f037b3          	snez	a5,a5
    ab80:	00f8e7b3          	or	a5,a7,a5
    ab84:	40fe07b3          	sub	a5,t3,a5
    ab88:	00579713          	slli	a4,a5,0x5
    ab8c:	18075e63          	bgez	a4,ad28 <__addsf3+0x21e>
    ab90:	04000437          	lui	s0,0x4000
    ab94:	147d                	addi	s0,s0,-1
    ab96:	8c7d                	and	s0,s0,a5
    ab98:	8522                	mv	a0,s0
    ab9a:	0a2010ef          	jal	ra,bc3c <__clzsi2>
    ab9e:	156d                	addi	a0,a0,-5
    aba0:	00a417b3          	sll	a5,s0,a0
    aba4:	1a954863          	blt	a0,s1,ad54 <__addsf3+0x24a>
    aba8:	8d05                	sub	a0,a0,s1
    abaa:	00150413          	addi	s0,a0,1
    abae:	02000713          	li	a4,32
    abb2:	8f01                	sub	a4,a4,s0
    abb4:	00e79733          	sll	a4,a5,a4
    abb8:	00e03733          	snez	a4,a4
    abbc:	0087d7b3          	srl	a5,a5,s0
    abc0:	8fd9                	or	a5,a5,a4
    abc2:	4481                	li	s1,0
    abc4:	0077f713          	andi	a4,a5,7
    abc8:	c719                	beqz	a4,abd6 <__addsf3+0xcc>
    abca:	00f7f713          	andi	a4,a5,15
    abce:	4691                	li	a3,4
    abd0:	00d70363          	beq	a4,a3,abd6 <__addsf3+0xcc>
    abd4:	0791                	addi	a5,a5,4
    abd6:	00579713          	slli	a4,a5,0x5
    abda:	14075b63          	bgez	a4,ad30 <__addsf3+0x226>
    abde:	0485                	addi	s1,s1,1
    abe0:	0ff00713          	li	a4,255
    abe4:	864a                	mv	a2,s2
    abe6:	16e48363          	beq	s1,a4,ad4c <__addsf3+0x242>
    abea:	079a                	slli	a5,a5,0x6
    abec:	83a5                	srli	a5,a5,0x9
    abee:	0ff4f513          	andi	a0,s1,255
    abf2:	40b2                	lw	ra,12(sp)
    abf4:	4422                	lw	s0,8(sp)
    abf6:	07a6                	slli	a5,a5,0x9
    abf8:	01751493          	slli	s1,a0,0x17
    abfc:	0097d513          	srli	a0,a5,0x9
    ac00:	8d45                	or	a0,a0,s1
    ac02:	067e                	slli	a2,a2,0x1f
    ac04:	4492                	lw	s1,4(sp)
    ac06:	4902                	lw	s2,0(sp)
    ac08:	8d51                	or	a0,a0,a2
    ac0a:	0141                	addi	sp,sp,16
    ac0c:	8082                	ret
    ac0e:	0a089963          	bnez	a7,acc0 <__addsf3+0x1b6>
    ac12:	00148713          	addi	a4,s1,1
    ac16:	0fe77713          	andi	a4,a4,254
    ac1a:	14071763          	bnez	a4,ad68 <__addsf3+0x25e>
    ac1e:	22049063          	bnez	s1,ae3e <__addsf3+0x334>
    ac22:	1e0e0d63          	beqz	t3,ae1c <__addsf3+0x312>
    ac26:	fc0e86e3          	beqz	t4,abf2 <__addsf3+0xe8>
    ac2a:	41de07b3          	sub	a5,t3,t4
    ac2e:	00579713          	slli	a4,a5,0x5
    ac32:	22075063          	bgez	a4,ae52 <__addsf3+0x348>
    ac36:	41ce87b3          	sub	a5,t4,t3
    ac3a:	892e                	mv	s2,a1
    ac3c:	b761                	j	abc4 <__addsf3+0xba>
    ac3e:	0b105c63          	blez	a7,acf6 <__addsf3+0x1ec>
    ac42:	08080e63          	beqz	a6,acde <__addsf3+0x1d4>
    ac46:	0ff00793          	li	a5,255
    ac4a:	06f48363          	beq	s1,a5,acb0 <__addsf3+0x1a6>
    ac4e:	040007b7          	lui	a5,0x4000
    ac52:	00feeeb3          	or	t4,t4,a5
    ac56:	47ed                	li	a5,27
    ac58:	1f17c963          	blt	a5,a7,ae4a <__addsf3+0x340>
    ac5c:	02000793          	li	a5,32
    ac60:	411787b3          	sub	a5,a5,a7
    ac64:	00fe97b3          	sll	a5,t4,a5
    ac68:	011ed8b3          	srl	a7,t4,a7
    ac6c:	00f037b3          	snez	a5,a5
    ac70:	00f8e7b3          	or	a5,a7,a5
    ac74:	97f2                	add	a5,a5,t3
    ac76:	00579713          	slli	a4,a5,0x5
    ac7a:	0a075763          	bgez	a4,ad28 <__addsf3+0x21e>
    ac7e:	0485                	addi	s1,s1,1
    ac80:	0ff00713          	li	a4,255
    ac84:	0ce48463          	beq	s1,a4,ad4c <__addsf3+0x242>
    ac88:	7e0006b7          	lui	a3,0x7e000
    ac8c:	0017d713          	srli	a4,a5,0x1
    ac90:	16fd                	addi	a3,a3,-1
    ac92:	8b85                	andi	a5,a5,1
    ac94:	8f75                	and	a4,a4,a3
    ac96:	8fd9                	or	a5,a5,a4
    ac98:	b735                	j	abc4 <__addsf3+0xba>
    ac9a:	080e8d63          	beqz	t4,ad34 <__addsf3+0x22a>
    ac9e:	18fd                	addi	a7,a7,-1
    aca0:	41de07b3          	sub	a5,t3,t4
    aca4:	ee0882e3          	beqz	a7,ab88 <__addsf3+0x7e>
    aca8:	0ff00793          	li	a5,255
    acac:	eaf49de3          	bne	s1,a5,ab66 <__addsf3+0x5c>
    acb0:	08030d63          	beqz	t1,ad4a <__addsf3+0x240>
    acb4:	4601                	li	a2,0
    acb6:	0ff00513          	li	a0,255
    acba:	004007b7          	lui	a5,0x400
    acbe:	bf15                	j	abf2 <__addsf3+0xe8>
    acc0:	40980733          	sub	a4,a6,s1
    acc4:	e8ed                	bnez	s1,adb6 <__addsf3+0x2ac>
    acc6:	140e0263          	beqz	t3,ae0a <__addsf3+0x300>
    acca:	177d                	addi	a4,a4,-1
    accc:	18070863          	beqz	a4,ae5c <__addsf3+0x352>
    acd0:	0ff00793          	li	a5,255
    acd4:	0ef81963          	bne	a6,a5,adc6 <__addsf3+0x2bc>
    acd8:	892e                	mv	s2,a1
    acda:	8336                	mv	t1,a3
    acdc:	bfd1                	j	acb0 <__addsf3+0x1a6>
    acde:	040e8b63          	beqz	t4,ad34 <__addsf3+0x22a>
    ace2:	18fd                	addi	a7,a7,-1
    ace4:	01de07b3          	add	a5,t3,t4
    ace8:	f80887e3          	beqz	a7,ac76 <__addsf3+0x16c>
    acec:	0ff00793          	li	a5,255
    acf0:	f6f493e3          	bne	s1,a5,ac56 <__addsf3+0x14c>
    acf4:	bf75                	j	acb0 <__addsf3+0x1a6>
    acf6:	08089563          	bnez	a7,ad80 <__addsf3+0x276>
    acfa:	0485                	addi	s1,s1,1
    acfc:	0fe4f713          	andi	a4,s1,254
    ad00:	12071363          	bnez	a4,ae26 <__addsf3+0x31c>
    ad04:	10051763          	bnez	a0,ae12 <__addsf3+0x308>
    ad08:	140e0f63          	beqz	t3,ae66 <__addsf3+0x35c>
    ad0c:	ee0e83e3          	beqz	t4,abf2 <__addsf3+0xe8>
    ad10:	01de07b3          	add	a5,t3,t4
    ad14:	00579713          	slli	a4,a5,0x5
    ad18:	4481                	li	s1,0
    ad1a:	00075763          	bgez	a4,ad28 <__addsf3+0x21e>
    ad1e:	fc000737          	lui	a4,0xfc000
    ad22:	177d                	addi	a4,a4,-1
    ad24:	8ff9                	and	a5,a5,a4
    ad26:	4485                	li	s1,1
    ad28:	0077f713          	andi	a4,a5,7
    ad2c:	e8071fe3          	bnez	a4,abca <__addsf3+0xc0>
    ad30:	0037d313          	srli	t1,a5,0x3
    ad34:	0ff00793          	li	a5,255
    ad38:	f6f48ce3          	beq	s1,a5,acb0 <__addsf3+0x1a6>
    ad3c:	00931793          	slli	a5,t1,0x9
    ad40:	83a5                	srli	a5,a5,0x9
    ad42:	0ff4f513          	andi	a0,s1,255
    ad46:	864a                	mv	a2,s2
    ad48:	b56d                	j	abf2 <__addsf3+0xe8>
    ad4a:	864a                	mv	a2,s2
    ad4c:	0ff00513          	li	a0,255
    ad50:	4781                	li	a5,0
    ad52:	b545                	j	abf2 <__addsf3+0xe8>
    ad54:	fc000737          	lui	a4,0xfc000
    ad58:	177d                	addi	a4,a4,-1
    ad5a:	8ff9                	and	a5,a5,a4
    ad5c:	0077f713          	andi	a4,a5,7
    ad60:	8c89                	sub	s1,s1,a0
    ad62:	e60714e3          	bnez	a4,abca <__addsf3+0xc0>
    ad66:	b7e9                	j	ad30 <__addsf3+0x226>
    ad68:	41de0433          	sub	s0,t3,t4
    ad6c:	00541793          	slli	a5,s0,0x5
    ad70:	0c07c363          	bltz	a5,ae36 <__addsf3+0x32c>
    ad74:	e20412e3          	bnez	s0,ab98 <__addsf3+0x8e>
    ad78:	4601                	li	a2,0
    ad7a:	4501                	li	a0,0
    ad7c:	4781                	li	a5,0
    ad7e:	bd95                	j	abf2 <__addsf3+0xe8>
    ad80:	40980733          	sub	a4,a6,s1
    ad84:	c4ad                	beqz	s1,adee <__addsf3+0x2e4>
    ad86:	0ff00793          	li	a5,255
    ad8a:	f4f808e3          	beq	a6,a5,acda <__addsf3+0x1d0>
    ad8e:	040007b7          	lui	a5,0x4000
    ad92:	00fe6e33          	or	t3,t3,a5
    ad96:	47ed                	li	a5,27
    ad98:	0ce7cc63          	blt	a5,a4,ae70 <__addsf3+0x366>
    ad9c:	02000793          	li	a5,32
    ada0:	8f99                	sub	a5,a5,a4
    ada2:	00fe17b3          	sll	a5,t3,a5
    ada6:	00ee5733          	srl	a4,t3,a4
    adaa:	00f037b3          	snez	a5,a5
    adae:	8fd9                	or	a5,a5,a4
    adb0:	97f6                	add	a5,a5,t4
    adb2:	84c2                	mv	s1,a6
    adb4:	b5c9                	j	ac76 <__addsf3+0x16c>
    adb6:	0ff00793          	li	a5,255
    adba:	f0f80fe3          	beq	a6,a5,acd8 <__addsf3+0x1ce>
    adbe:	040007b7          	lui	a5,0x4000
    adc2:	00fe6e33          	or	t3,t3,a5
    adc6:	47ed                	li	a5,27
    adc8:	08e7c363          	blt	a5,a4,ae4e <__addsf3+0x344>
    adcc:	02000693          	li	a3,32
    add0:	8e99                	sub	a3,a3,a4
    add2:	00de16b3          	sll	a3,t3,a3
    add6:	00ee57b3          	srl	a5,t3,a4
    adda:	00d03733          	snez	a4,a3
    adde:	8fd9                	or	a5,a5,a4
    ade0:	40fe87b3          	sub	a5,t4,a5
    ade4:	84c2                	mv	s1,a6
    ade6:	892e                	mv	s2,a1
    ade8:	b345                	j	ab88 <__addsf3+0x7e>
    adea:	4785                	li	a5,1
    adec:	bb61                	j	ab84 <__addsf3+0x7a>
    adee:	060e0e63          	beqz	t3,ae6a <__addsf3+0x360>
    adf2:	177d                	addi	a4,a4,-1
    adf4:	01de07b3          	add	a5,t3,t4
    adf8:	84c2                	mv	s1,a6
    adfa:	e6070ee3          	beqz	a4,ac76 <__addsf3+0x16c>
    adfe:	0ff00793          	li	a5,255
    ae02:	f8f81ae3          	bne	a6,a5,ad96 <__addsf3+0x28c>
    ae06:	8336                	mv	t1,a3
    ae08:	b565                	j	acb0 <__addsf3+0x1a6>
    ae0a:	8336                	mv	t1,a3
    ae0c:	84c2                	mv	s1,a6
    ae0e:	892e                	mv	s2,a1
    ae10:	b715                	j	ad34 <__addsf3+0x22a>
    ae12:	ec0e04e3          	beqz	t3,acda <__addsf3+0x1d0>
    ae16:	e80e8de3          	beqz	t4,acb0 <__addsf3+0x1a6>
    ae1a:	bd69                	j	acb4 <__addsf3+0x1aa>
    ae1c:	020e8d63          	beqz	t4,ae56 <__addsf3+0x34c>
    ae20:	862e                	mv	a2,a1
    ae22:	87b6                	mv	a5,a3
    ae24:	b3f9                	j	abf2 <__addsf3+0xe8>
    ae26:	0ff00793          	li	a5,255
    ae2a:	f2f481e3          	beq	s1,a5,ad4c <__addsf3+0x242>
    ae2e:	01de07b3          	add	a5,t3,t4
    ae32:	8385                	srli	a5,a5,0x1
    ae34:	bdd5                	j	ad28 <__addsf3+0x21e>
    ae36:	41ce8433          	sub	s0,t4,t3
    ae3a:	892e                	mv	s2,a1
    ae3c:	bbb1                	j	ab98 <__addsf3+0x8e>
    ae3e:	fc0e1ce3          	bnez	t3,ae16 <__addsf3+0x30c>
    ae42:	e60e89e3          	beqz	t4,acb4 <__addsf3+0x1aa>
    ae46:	892e                	mv	s2,a1
    ae48:	bd49                	j	acda <__addsf3+0x1d0>
    ae4a:	4785                	li	a5,1
    ae4c:	b525                	j	ac74 <__addsf3+0x16a>
    ae4e:	4785                	li	a5,1
    ae50:	bf41                	j	ade0 <__addsf3+0x2d6>
    ae52:	ec079be3          	bnez	a5,ad28 <__addsf3+0x21e>
    ae56:	4601                	li	a2,0
    ae58:	4781                	li	a5,0
    ae5a:	bb61                	j	abf2 <__addsf3+0xe8>
    ae5c:	41ce87b3          	sub	a5,t4,t3
    ae60:	84c2                	mv	s1,a6
    ae62:	892e                	mv	s2,a1
    ae64:	b315                	j	ab88 <__addsf3+0x7e>
    ae66:	87b6                	mv	a5,a3
    ae68:	b369                	j	abf2 <__addsf3+0xe8>
    ae6a:	8336                	mv	t1,a3
    ae6c:	84c2                	mv	s1,a6
    ae6e:	b5d9                	j	ad34 <__addsf3+0x22a>
    ae70:	4785                	li	a5,1
    ae72:	bf3d                	j	adb0 <__addsf3+0x2a6>

0000ae74 <__divsf3>:
    ae74:	7139                	addi	sp,sp,-64
    ae76:	01755793          	srli	a5,a0,0x17
    ae7a:	d84a                	sw	s2,48(sp)
    ae7c:	d256                	sw	s5,36(sp)
    ae7e:	ce5e                	sw	s7,28(sp)
    ae80:	00951a93          	slli	s5,a0,0x9
    ae84:	01f55913          	srli	s2,a0,0x1f
    ae88:	de06                	sw	ra,60(sp)
    ae8a:	dc22                	sw	s0,56(sp)
    ae8c:	da26                	sw	s1,52(sp)
    ae8e:	d64e                	sw	s3,44(sp)
    ae90:	d452                	sw	s4,40(sp)
    ae92:	d05a                	sw	s6,32(sp)
    ae94:	0ff7f793          	andi	a5,a5,255
    ae98:	009ada93          	srli	s5,s5,0x9
    ae9c:	8bca                	mv	s7,s2
    ae9e:	12078263          	beqz	a5,afc2 <__divsf3+0x14e>
    aea2:	0ff00713          	li	a4,255
    aea6:	12e78463          	beq	a5,a4,afce <__divsf3+0x15a>
    aeaa:	0a8e                	slli	s5,s5,0x3
    aeac:	04000737          	lui	a4,0x4000
    aeb0:	00eaeab3          	or	s5,s5,a4
    aeb4:	f8178a13          	addi	s4,a5,-127 # 3ffff81 <_data_lma+0x3ff251d>
    aeb8:	4401                	li	s0,0
    aeba:	4b01                	li	s6,0
    aebc:	0175d793          	srli	a5,a1,0x17
    aec0:	00959493          	slli	s1,a1,0x9
    aec4:	0ff7f793          	andi	a5,a5,255
    aec8:	80a5                	srli	s1,s1,0x9
    aeca:	01f5d993          	srli	s3,a1,0x1f
    aece:	c7fd                	beqz	a5,afbc <__divsf3+0x148>
    aed0:	0ff00713          	li	a4,255
    aed4:	02e78763          	beq	a5,a4,af02 <__divsf3+0x8e>
    aed8:	048e                	slli	s1,s1,0x3
    aeda:	f8178793          	addi	a5,a5,-127
    aede:	04000737          	lui	a4,0x4000
    aee2:	8cd9                	or	s1,s1,a4
    aee4:	40fa0a33          	sub	s4,s4,a5
    aee8:	4681                	li	a3,0
    aeea:	8c55                	or	s0,s0,a3
    aeec:	00003717          	auipc	a4,0x3
    aef0:	91c70713          	addi	a4,a4,-1764 # d808 <TWO52+0xa0>
    aef4:	040a                	slli	s0,s0,0x2
    aef6:	943a                	add	s0,s0,a4
    aef8:	401c                	lw	a5,0(s0)
    aefa:	01394933          	xor	s2,s2,s3
    aefe:	97ba                	add	a5,a5,a4
    af00:	8782                	jr	a5
    af02:	f01a0a13          	addi	s4,s4,-255
    af06:	e8f9                	bnez	s1,afdc <__divsf3+0x168>
    af08:	4689                	li	a3,2
    af0a:	8c55                	or	s0,s0,a3
    af0c:	00003717          	auipc	a4,0x3
    af10:	93c70713          	addi	a4,a4,-1732 # d848 <TWO52+0xe0>
    af14:	040a                	slli	s0,s0,0x2
    af16:	943a                	add	s0,s0,a4
    af18:	401c                	lw	a5,0(s0)
    af1a:	01394933          	xor	s2,s2,s3
    af1e:	97ba                	add	a5,a5,a4
    af20:	8782                	jr	a5
    af22:	4901                	li	s2,0
    af24:	0ff00713          	li	a4,255
    af28:	004007b7          	lui	a5,0x400
    af2c:	00979513          	slli	a0,a5,0x9
    af30:	50f2                	lw	ra,60(sp)
    af32:	5462                	lw	s0,56(sp)
    af34:	01771793          	slli	a5,a4,0x17
    af38:	8125                	srli	a0,a0,0x9
    af3a:	097e                	slli	s2,s2,0x1f
    af3c:	8d5d                	or	a0,a0,a5
    af3e:	01256533          	or	a0,a0,s2
    af42:	54d2                	lw	s1,52(sp)
    af44:	5942                	lw	s2,48(sp)
    af46:	59b2                	lw	s3,44(sp)
    af48:	5a22                	lw	s4,40(sp)
    af4a:	5a92                	lw	s5,36(sp)
    af4c:	5b02                	lw	s6,32(sp)
    af4e:	4bf2                	lw	s7,28(sp)
    af50:	6121                	addi	sp,sp,64
    af52:	8082                	ret
    af54:	0ff00713          	li	a4,255
    af58:	4781                	li	a5,0
    af5a:	bfc9                	j	af2c <__divsf3+0xb8>
    af5c:	8aa6                	mv	s5,s1
    af5e:	8bce                	mv	s7,s3
    af60:	8b36                	mv	s6,a3
    af62:	4789                	li	a5,2
    af64:	1afb0b63          	beq	s6,a5,b11a <__divsf3+0x2a6>
    af68:	478d                	li	a5,3
    af6a:	fafb0ce3          	beq	s6,a5,af22 <__divsf3+0xae>
    af6e:	4785                	li	a5,1
    af70:	0afb0a63          	beq	s6,a5,b024 <__divsf3+0x1b0>
    af74:	07fa0713          	addi	a4,s4,127
    af78:	001bf913          	andi	s2,s7,1
    af7c:	12e05763          	blez	a4,b0aa <__divsf3+0x236>
    af80:	007af793          	andi	a5,s5,7
    af84:	c799                	beqz	a5,af92 <__divsf3+0x11e>
    af86:	00faf793          	andi	a5,s5,15
    af8a:	4691                	li	a3,4
    af8c:	00d78363          	beq	a5,a3,af92 <__divsf3+0x11e>
    af90:	0a91                	addi	s5,s5,4
    af92:	004a9793          	slli	a5,s5,0x4
    af96:	0007d963          	bgez	a5,afa8 <__divsf3+0x134>
    af9a:	f80007b7          	lui	a5,0xf8000
    af9e:	17fd                	addi	a5,a5,-1
    afa0:	00fafab3          	and	s5,s5,a5
    afa4:	080a0713          	addi	a4,s4,128
    afa8:	0fe00793          	li	a5,254
    afac:	fae7c4e3          	blt	a5,a4,af54 <__divsf3+0xe0>
    afb0:	006a9793          	slli	a5,s5,0x6
    afb4:	83a5                	srli	a5,a5,0x9
    afb6:	0ff77713          	andi	a4,a4,255
    afba:	bf8d                	j	af2c <__divsf3+0xb8>
    afbc:	e4b9                	bnez	s1,b00a <__divsf3+0x196>
    afbe:	4685                	li	a3,1
    afc0:	b7a9                	j	af0a <__divsf3+0x96>
    afc2:	020a9463          	bnez	s5,afea <__divsf3+0x176>
    afc6:	4411                	li	s0,4
    afc8:	4a01                	li	s4,0
    afca:	4b05                	li	s6,1
    afcc:	bdc5                	j	aebc <__divsf3+0x48>
    afce:	000a9963          	bnez	s5,afe0 <__divsf3+0x16c>
    afd2:	4421                	li	s0,8
    afd4:	0ff00a13          	li	s4,255
    afd8:	4b09                	li	s6,2
    afda:	b5cd                	j	aebc <__divsf3+0x48>
    afdc:	468d                	li	a3,3
    afde:	b731                	j	aeea <__divsf3+0x76>
    afe0:	4431                	li	s0,12
    afe2:	0ff00a13          	li	s4,255
    afe6:	4b0d                	li	s6,3
    afe8:	bdd1                	j	aebc <__divsf3+0x48>
    afea:	8556                	mv	a0,s5
    afec:	c62e                	sw	a1,12(sp)
    afee:	44f000ef          	jal	ra,bc3c <__clzsi2>
    aff2:	ffb50793          	addi	a5,a0,-5
    aff6:	00fa9ab3          	sll	s5,s5,a5
    affa:	f8a00793          	li	a5,-118
    affe:	40a78a33          	sub	s4,a5,a0
    b002:	4401                	li	s0,0
    b004:	4b01                	li	s6,0
    b006:	45b2                	lw	a1,12(sp)
    b008:	bd55                	j	aebc <__divsf3+0x48>
    b00a:	8526                	mv	a0,s1
    b00c:	431000ef          	jal	ra,bc3c <__clzsi2>
    b010:	ffb50713          	addi	a4,a0,-5
    b014:	00aa07b3          	add	a5,s4,a0
    b018:	00e494b3          	sll	s1,s1,a4
    b01c:	07678a13          	addi	s4,a5,118 # f8000076 <__freertos_irq_stack_top+0xd7ffb076>
    b020:	4681                	li	a3,0
    b022:	b5e1                	j	aeea <__divsf3+0x76>
    b024:	001bf913          	andi	s2,s7,1
    b028:	4701                	li	a4,0
    b02a:	4781                	li	a5,0
    b02c:	b701                	j	af2c <__divsf3+0xb8>
    b02e:	6641                	lui	a2,0x10
    b030:	00549513          	slli	a0,s1,0x5
    b034:	167d                	addi	a2,a2,-1
    b036:	01055793          	srli	a5,a0,0x10
    b03a:	8e69                	and	a2,a2,a0
    b03c:	0a9afa63          	bgeu	s5,s1,b0f0 <__divsf3+0x27c>
    b040:	02fad5b3          	divu	a1,s5,a5
    b044:	1a7d                	addi	s4,s4,-1
    b046:	86d6                	mv	a3,s5
    b048:	4701                	li	a4,0
    b04a:	02c58833          	mul	a6,a1,a2
    b04e:	02f6f6b3          	remu	a3,a3,a5
    b052:	06c2                	slli	a3,a3,0x10
    b054:	8f55                	or	a4,a4,a3
    b056:	01077b63          	bgeu	a4,a6,b06c <__divsf3+0x1f8>
    b05a:	972a                	add	a4,a4,a0
    b05c:	fff58693          	addi	a3,a1,-1
    b060:	0aa76863          	bltu	a4,a0,b110 <__divsf3+0x29c>
    b064:	0b077663          	bgeu	a4,a6,b110 <__divsf3+0x29c>
    b068:	15f9                	addi	a1,a1,-2
    b06a:	972a                	add	a4,a4,a0
    b06c:	41070733          	sub	a4,a4,a6
    b070:	02f756b3          	divu	a3,a4,a5
    b074:	02f77733          	remu	a4,a4,a5
    b078:	02c68ab3          	mul	s5,a3,a2
    b07c:	01071793          	slli	a5,a4,0x10
    b080:	0157fb63          	bgeu	a5,s5,b096 <__divsf3+0x222>
    b084:	97aa                	add	a5,a5,a0
    b086:	fff68713          	addi	a4,a3,-1 # 7dffffff <__freertos_irq_stack_top+0x5dffafff>
    b08a:	08a7e163          	bltu	a5,a0,b10c <__divsf3+0x298>
    b08e:	0757ff63          	bgeu	a5,s5,b10c <__divsf3+0x298>
    b092:	16f9                	addi	a3,a3,-2
    b094:	97aa                	add	a5,a5,a0
    b096:	05c2                	slli	a1,a1,0x10
    b098:	41578ab3          	sub	s5,a5,s5
    b09c:	8dd5                	or	a1,a1,a3
    b09e:	01503ab3          	snez	s5,s5
    b0a2:	0155eab3          	or	s5,a1,s5
    b0a6:	8bca                	mv	s7,s2
    b0a8:	b5f1                	j	af74 <__divsf3+0x100>
    b0aa:	4685                	li	a3,1
    b0ac:	8e99                	sub	a3,a3,a4
    b0ae:	c711                	beqz	a4,b0ba <__divsf3+0x246>
    b0b0:	466d                	li	a2,27
    b0b2:	4701                	li	a4,0
    b0b4:	4781                	li	a5,0
    b0b6:	e6d64be3          	blt	a2,a3,af2c <__divsf3+0xb8>
    b0ba:	09ea0a13          	addi	s4,s4,158
    b0be:	014a9a33          	sll	s4,s5,s4
    b0c2:	00dad7b3          	srl	a5,s5,a3
    b0c6:	01403ab3          	snez	s5,s4
    b0ca:	0157e7b3          	or	a5,a5,s5
    b0ce:	0077f713          	andi	a4,a5,7
    b0d2:	c719                	beqz	a4,b0e0 <__divsf3+0x26c>
    b0d4:	00f7f713          	andi	a4,a5,15
    b0d8:	4691                	li	a3,4
    b0da:	00d70363          	beq	a4,a3,b0e0 <__divsf3+0x26c>
    b0de:	0791                	addi	a5,a5,4
    b0e0:	00579713          	slli	a4,a5,0x5
    b0e4:	02074863          	bltz	a4,b114 <__divsf3+0x2a0>
    b0e8:	079a                	slli	a5,a5,0x6
    b0ea:	83a5                	srli	a5,a5,0x9
    b0ec:	4701                	li	a4,0
    b0ee:	bd3d                	j	af2c <__divsf3+0xb8>
    b0f0:	001ad693          	srli	a3,s5,0x1
    b0f4:	02f6d5b3          	divu	a1,a3,a5
    b0f8:	01fa9713          	slli	a4,s5,0x1f
    b0fc:	8341                	srli	a4,a4,0x10
    b0fe:	02c58833          	mul	a6,a1,a2
    b102:	b7b1                	j	b04e <__divsf3+0x1da>
    b104:	8bce                	mv	s7,s3
    b106:	8b36                	mv	s6,a3
    b108:	4a81                	li	s5,0
    b10a:	bda1                	j	af62 <__divsf3+0xee>
    b10c:	86ba                	mv	a3,a4
    b10e:	b761                	j	b096 <__divsf3+0x222>
    b110:	85b6                	mv	a1,a3
    b112:	bfa9                	j	b06c <__divsf3+0x1f8>
    b114:	4705                	li	a4,1
    b116:	4781                	li	a5,0
    b118:	bd11                	j	af2c <__divsf3+0xb8>
    b11a:	001bf913          	andi	s2,s7,1
    b11e:	0ff00713          	li	a4,255
    b122:	4781                	li	a5,0
    b124:	b521                	j	af2c <__divsf3+0xb8>

0000b126 <__gesf2>:
    b126:	01755693          	srli	a3,a0,0x17
    b12a:	008007b7          	lui	a5,0x800
    b12e:	17fd                	addi	a5,a5,-1
    b130:	0175d613          	srli	a2,a1,0x17
    b134:	0ff6f693          	andi	a3,a3,255
    b138:	0ff00813          	li	a6,255
    b13c:	00a7f8b3          	and	a7,a5,a0
    b140:	01f55713          	srli	a4,a0,0x1f
    b144:	8fed                	and	a5,a5,a1
    b146:	0ff67613          	andi	a2,a2,255
    b14a:	81fd                	srli	a1,a1,0x1f
    b14c:	03068163          	beq	a3,a6,b16e <__gesf2+0x48>
    b150:	01060c63          	beq	a2,a6,b168 <__gesf2+0x42>
    b154:	e28d                	bnez	a3,b176 <__gesf2+0x50>
    b156:	e211                	bnez	a2,b15a <__gesf2+0x34>
    b158:	c3b1                	beqz	a5,b19c <__gesf2+0x76>
    b15a:	02088e63          	beqz	a7,b196 <__gesf2+0x70>
    b15e:	04b70563          	beq	a4,a1,b1a8 <__gesf2+0x82>
    b162:	4505                	li	a0,1
    b164:	e71d                	bnez	a4,b192 <__gesf2+0x6c>
    b166:	8082                	ret
    b168:	d7f5                	beqz	a5,b154 <__gesf2+0x2e>
    b16a:	5579                	li	a0,-2
    b16c:	8082                	ret
    b16e:	fe089ee3          	bnez	a7,b16a <__gesf2+0x44>
    b172:	02d60963          	beq	a2,a3,b1a4 <__gesf2+0x7e>
    b176:	e211                	bnez	a2,b17a <__gesf2+0x54>
    b178:	d7ed                	beqz	a5,b162 <__gesf2+0x3c>
    b17a:	feb714e3          	bne	a4,a1,b162 <__gesf2+0x3c>
    b17e:	fed642e3          	blt	a2,a3,b162 <__gesf2+0x3c>
    b182:	00c6c763          	blt	a3,a2,b190 <__gesf2+0x6a>
    b186:	fd17eee3          	bltu	a5,a7,b162 <__gesf2+0x3c>
    b18a:	4501                	li	a0,0
    b18c:	fcf8fde3          	bgeu	a7,a5,b166 <__gesf2+0x40>
    b190:	e701                	bnez	a4,b198 <__gesf2+0x72>
    b192:	557d                	li	a0,-1
    b194:	8082                	ret
    b196:	ddf5                	beqz	a1,b192 <__gesf2+0x6c>
    b198:	4505                	li	a0,1
    b19a:	8082                	ret
    b19c:	4501                	li	a0,0
    b19e:	fc0892e3          	bnez	a7,b162 <__gesf2+0x3c>
    b1a2:	8082                	ret
    b1a4:	dbf9                	beqz	a5,b17a <__gesf2+0x54>
    b1a6:	b7d1                	j	b16a <__gesf2+0x44>
    b1a8:	4681                	li	a3,0
    b1aa:	bfe1                	j	b182 <__gesf2+0x5c>

0000b1ac <__mulsf3>:
    b1ac:	7179                	addi	sp,sp,-48
    b1ae:	d422                	sw	s0,40(sp)
    b1b0:	01755413          	srli	s0,a0,0x17
    b1b4:	ce4e                	sw	s3,28(sp)
    b1b6:	cc52                	sw	s4,24(sp)
    b1b8:	00951993          	slli	s3,a0,0x9
    b1bc:	d606                	sw	ra,44(sp)
    b1be:	d226                	sw	s1,36(sp)
    b1c0:	d04a                	sw	s2,32(sp)
    b1c2:	ca56                	sw	s5,20(sp)
    b1c4:	c85a                	sw	s6,16(sp)
    b1c6:	0ff47413          	andi	s0,s0,255
    b1ca:	0099d993          	srli	s3,s3,0x9
    b1ce:	01f55a13          	srli	s4,a0,0x1f
    b1d2:	c469                	beqz	s0,b29c <__mulsf3+0xf0>
    b1d4:	0ff00793          	li	a5,255
    b1d8:	0ef40863          	beq	s0,a5,b2c8 <__mulsf3+0x11c>
    b1dc:	00399793          	slli	a5,s3,0x3
    b1e0:	04000737          	lui	a4,0x4000
    b1e4:	00e7e9b3          	or	s3,a5,a4
    b1e8:	f8140413          	addi	s0,s0,-127 # 3ffff81 <_data_lma+0x3ff251d>
    b1ec:	4481                	li	s1,0
    b1ee:	4b01                	li	s6,0
    b1f0:	0175d713          	srli	a4,a1,0x17
    b1f4:	00959a93          	slli	s5,a1,0x9
    b1f8:	0ff77713          	andi	a4,a4,255
    b1fc:	009ada93          	srli	s5,s5,0x9
    b200:	01f5d913          	srli	s2,a1,0x1f
    b204:	cf45                	beqz	a4,b2bc <__mulsf3+0x110>
    b206:	0ff00793          	li	a5,255
    b20a:	02f70c63          	beq	a4,a5,b242 <__mulsf3+0x96>
    b20e:	0a8e                	slli	s5,s5,0x3
    b210:	f8170713          	addi	a4,a4,-127 # 3ffff81 <_data_lma+0x3ff251d>
    b214:	040007b7          	lui	a5,0x4000
    b218:	00faeab3          	or	s5,s5,a5
    b21c:	943a                	add	s0,s0,a4
    b21e:	4601                	li	a2,0
    b220:	012a4533          	xor	a0,s4,s2
    b224:	47bd                	li	a5,15
    b226:	86aa                	mv	a3,a0
    b228:	00140593          	addi	a1,s0,1
    b22c:	1097e263          	bltu	a5,s1,b330 <__mulsf3+0x184>
    b230:	00002717          	auipc	a4,0x2
    b234:	65870713          	addi	a4,a4,1624 # d888 <TWO52+0x120>
    b238:	048a                	slli	s1,s1,0x2
    b23a:	94ba                	add	s1,s1,a4
    b23c:	409c                	lw	a5,0(s1)
    b23e:	97ba                	add	a5,a5,a4
    b240:	8782                	jr	a5
    b242:	0ff40413          	addi	s0,s0,255
    b246:	0c0a9863          	bnez	s5,b316 <__mulsf3+0x16a>
    b24a:	0024e493          	ori	s1,s1,2
    b24e:	4609                	li	a2,2
    b250:	bfc1                	j	b220 <__mulsf3+0x74>
    b252:	4501                	li	a0,0
    b254:	0ff00713          	li	a4,255
    b258:	004007b7          	lui	a5,0x400
    b25c:	50b2                	lw	ra,44(sp)
    b25e:	5422                	lw	s0,40(sp)
    b260:	07a6                	slli	a5,a5,0x9
    b262:	075e                	slli	a4,a4,0x17
    b264:	83a5                	srli	a5,a5,0x9
    b266:	057e                	slli	a0,a0,0x1f
    b268:	8fd9                	or	a5,a5,a4
    b26a:	5492                	lw	s1,36(sp)
    b26c:	5902                	lw	s2,32(sp)
    b26e:	49f2                	lw	s3,28(sp)
    b270:	4a62                	lw	s4,24(sp)
    b272:	4ad2                	lw	s5,20(sp)
    b274:	4b42                	lw	s6,16(sp)
    b276:	8d5d                	or	a0,a0,a5
    b278:	6145                	addi	sp,sp,48
    b27a:	8082                	ret
    b27c:	86ca                	mv	a3,s2
    b27e:	89d6                	mv	s3,s5
    b280:	8b32                	mv	s6,a2
    b282:	4789                	li	a5,2
    b284:	0afb0163          	beq	s6,a5,b326 <__mulsf3+0x17a>
    b288:	478d                	li	a5,3
    b28a:	fcfb04e3          	beq	s6,a5,b252 <__mulsf3+0xa6>
    b28e:	4785                	li	a5,1
    b290:	8536                	mv	a0,a3
    b292:	1afb1263          	bne	s6,a5,b436 <__mulsf3+0x28a>
    b296:	4701                	li	a4,0
    b298:	4781                	li	a5,0
    b29a:	b7c9                	j	b25c <__mulsf3+0xb0>
    b29c:	04099e63          	bnez	s3,b2f8 <__mulsf3+0x14c>
    b2a0:	0175d713          	srli	a4,a1,0x17
    b2a4:	00959a93          	slli	s5,a1,0x9
    b2a8:	0ff77713          	andi	a4,a4,255
    b2ac:	4491                	li	s1,4
    b2ae:	4401                	li	s0,0
    b2b0:	4b05                	li	s6,1
    b2b2:	009ada93          	srli	s5,s5,0x9
    b2b6:	01f5d913          	srli	s2,a1,0x1f
    b2ba:	f731                	bnez	a4,b206 <__mulsf3+0x5a>
    b2bc:	000a9d63          	bnez	s5,b2d6 <__mulsf3+0x12a>
    b2c0:	0014e493          	ori	s1,s1,1
    b2c4:	4605                	li	a2,1
    b2c6:	bfa9                	j	b220 <__mulsf3+0x74>
    b2c8:	02099363          	bnez	s3,b2ee <__mulsf3+0x142>
    b2cc:	44a1                	li	s1,8
    b2ce:	0ff00413          	li	s0,255
    b2d2:	4b09                	li	s6,2
    b2d4:	bf31                	j	b1f0 <__mulsf3+0x44>
    b2d6:	8556                	mv	a0,s5
    b2d8:	165000ef          	jal	ra,bc3c <__clzsi2>
    b2dc:	ffb50793          	addi	a5,a0,-5
    b2e0:	8c09                	sub	s0,s0,a0
    b2e2:	00fa9ab3          	sll	s5,s5,a5
    b2e6:	f8a40413          	addi	s0,s0,-118
    b2ea:	4601                	li	a2,0
    b2ec:	bf15                	j	b220 <__mulsf3+0x74>
    b2ee:	44b1                	li	s1,12
    b2f0:	0ff00413          	li	s0,255
    b2f4:	4b0d                	li	s6,3
    b2f6:	bded                	j	b1f0 <__mulsf3+0x44>
    b2f8:	854e                	mv	a0,s3
    b2fa:	c62e                	sw	a1,12(sp)
    b2fc:	141000ef          	jal	ra,bc3c <__clzsi2>
    b300:	ffb50793          	addi	a5,a0,-5
    b304:	f8a00413          	li	s0,-118
    b308:	00f999b3          	sll	s3,s3,a5
    b30c:	8c09                	sub	s0,s0,a0
    b30e:	4481                	li	s1,0
    b310:	4b01                	li	s6,0
    b312:	45b2                	lw	a1,12(sp)
    b314:	bdf1                	j	b1f0 <__mulsf3+0x44>
    b316:	0034e493          	ori	s1,s1,3
    b31a:	460d                	li	a2,3
    b31c:	b711                	j	b220 <__mulsf3+0x74>
    b31e:	4789                	li	a5,2
    b320:	86d2                	mv	a3,s4
    b322:	f6fb13e3          	bne	s6,a5,b288 <__mulsf3+0xdc>
    b326:	8536                	mv	a0,a3
    b328:	0ff00713          	li	a4,255
    b32c:	4781                	li	a5,0
    b32e:	b73d                	j	b25c <__mulsf3+0xb0>
    b330:	6341                	lui	t1,0x10
    b332:	fff30693          	addi	a3,t1,-1 # ffff <_data_lma+0x259b>
    b336:	0109d613          	srli	a2,s3,0x10
    b33a:	010ad893          	srli	a7,s5,0x10
    b33e:	00d9f7b3          	and	a5,s3,a3
    b342:	00dafab3          	and	s5,s5,a3
    b346:	03578833          	mul	a6,a5,s5
    b34a:	02f889b3          	mul	s3,a7,a5
    b34e:	01085713          	srli	a4,a6,0x10
    b352:	03560ab3          	mul	s5,a2,s5
    b356:	99d6                	add	s3,s3,s5
    b358:	974e                	add	a4,a4,s3
    b35a:	03160633          	mul	a2,a2,a7
    b35e:	01577363          	bgeu	a4,s5,b364 <__mulsf3+0x1b8>
    b362:	961a                	add	a2,a2,t1
    b364:	67c1                	lui	a5,0x10
    b366:	17fd                	addi	a5,a5,-1
    b368:	00f776b3          	and	a3,a4,a5
    b36c:	00f87833          	and	a6,a6,a5
    b370:	06c2                	slli	a3,a3,0x10
    b372:	96c2                	add	a3,a3,a6
    b374:	00669993          	slli	s3,a3,0x6
    b378:	01075793          	srli	a5,a4,0x10
    b37c:	013039b3          	snez	s3,s3
    b380:	82e9                	srli	a3,a3,0x1a
    b382:	97b2                	add	a5,a5,a2
    b384:	079a                	slli	a5,a5,0x6
    b386:	00d9e6b3          	or	a3,s3,a3
    b38a:	00d7e9b3          	or	s3,a5,a3
    b38e:	00499793          	slli	a5,s3,0x4
    b392:	0007d963          	bgez	a5,b3a4 <__mulsf3+0x1f8>
    b396:	0019d713          	srli	a4,s3,0x1
    b39a:	0019f793          	andi	a5,s3,1
    b39e:	00f769b3          	or	s3,a4,a5
    b3a2:	842e                	mv	s0,a1
    b3a4:	07f40713          	addi	a4,s0,127
    b3a8:	04e05063          	blez	a4,b3e8 <__mulsf3+0x23c>
    b3ac:	0079f793          	andi	a5,s3,7
    b3b0:	c799                	beqz	a5,b3be <__mulsf3+0x212>
    b3b2:	00f9f793          	andi	a5,s3,15
    b3b6:	4691                	li	a3,4
    b3b8:	00d78363          	beq	a5,a3,b3be <__mulsf3+0x212>
    b3bc:	0991                	addi	s3,s3,4
    b3be:	00499793          	slli	a5,s3,0x4
    b3c2:	0007d963          	bgez	a5,b3d4 <__mulsf3+0x228>
    b3c6:	f80007b7          	lui	a5,0xf8000
    b3ca:	17fd                	addi	a5,a5,-1
    b3cc:	00f9f9b3          	and	s3,s3,a5
    b3d0:	08040713          	addi	a4,s0,128
    b3d4:	0fe00793          	li	a5,254
    b3d8:	04e7cb63          	blt	a5,a4,b42e <__mulsf3+0x282>
    b3dc:	00699793          	slli	a5,s3,0x6
    b3e0:	83a5                	srli	a5,a5,0x9
    b3e2:	0ff77713          	andi	a4,a4,255
    b3e6:	bd9d                	j	b25c <__mulsf3+0xb0>
    b3e8:	4785                	li	a5,1
    b3ea:	40e786b3          	sub	a3,a5,a4
    b3ee:	c711                	beqz	a4,b3fa <__mulsf3+0x24e>
    b3f0:	466d                	li	a2,27
    b3f2:	4701                	li	a4,0
    b3f4:	4781                	li	a5,0
    b3f6:	e6d643e3          	blt	a2,a3,b25c <__mulsf3+0xb0>
    b3fa:	09e40713          	addi	a4,s0,158
    b3fe:	00e99733          	sll	a4,s3,a4
    b402:	00e03733          	snez	a4,a4
    b406:	00d9d7b3          	srl	a5,s3,a3
    b40a:	8fd9                	or	a5,a5,a4
    b40c:	0077f713          	andi	a4,a5,7
    b410:	c719                	beqz	a4,b41e <__mulsf3+0x272>
    b412:	00f7f713          	andi	a4,a5,15
    b416:	4691                	li	a3,4
    b418:	00d70363          	beq	a4,a3,b41e <__mulsf3+0x272>
    b41c:	0791                	addi	a5,a5,4
    b41e:	00579713          	slli	a4,a5,0x5
    b422:	00074c63          	bltz	a4,b43a <__mulsf3+0x28e>
    b426:	079a                	slli	a5,a5,0x6
    b428:	83a5                	srli	a5,a5,0x9
    b42a:	4701                	li	a4,0
    b42c:	bd05                	j	b25c <__mulsf3+0xb0>
    b42e:	0ff00713          	li	a4,255
    b432:	4781                	li	a5,0
    b434:	b525                	j	b25c <__mulsf3+0xb0>
    b436:	842e                	mv	s0,a1
    b438:	b7b5                	j	b3a4 <__mulsf3+0x1f8>
    b43a:	4705                	li	a4,1
    b43c:	4781                	li	a5,0
    b43e:	bd39                	j	b25c <__mulsf3+0xb0>

0000b440 <__subsf3>:
    b440:	00800737          	lui	a4,0x800
    b444:	1141                	addi	sp,sp,-16
    b446:	177d                	addi	a4,a4,-1
    b448:	01755693          	srli	a3,a0,0x17
    b44c:	0175d813          	srli	a6,a1,0x17
    b450:	00a777b3          	and	a5,a4,a0
    b454:	0ff6f693          	andi	a3,a3,255
    b458:	01f55e93          	srli	t4,a0,0x1f
    b45c:	00b77633          	and	a2,a4,a1
    b460:	c226                	sw	s1,4(sp)
    b462:	c04a                	sw	s2,0(sp)
    b464:	0ff87813          	andi	a6,a6,255
    b468:	c606                	sw	ra,12(sp)
    b46a:	c422                	sw	s0,8(sp)
    b46c:	0ff00313          	li	t1,255
    b470:	8e3e                	mv	t3,a5
    b472:	8936                	mv	s2,a3
    b474:	84f6                	mv	s1,t4
    b476:	00379f13          	slli	t5,a5,0x3
    b47a:	81fd                	srli	a1,a1,0x1f
    b47c:	00361513          	slli	a0,a2,0x3
    b480:	410688b3          	sub	a7,a3,a6
    b484:	10680263          	beq	a6,t1,b588 <__subsf3+0x148>
    b488:	0015c593          	xori	a1,a1,1
    b48c:	10be8c63          	beq	t4,a1,b5a4 <__subsf3+0x164>
    b490:	0d105463          	blez	a7,b558 <__subsf3+0x118>
    b494:	10081063          	bnez	a6,b594 <__subsf3+0x154>
    b498:	1e050463          	beqz	a0,b680 <__subsf3+0x240>
    b49c:	18fd                	addi	a7,a7,-1
    b49e:	40af07b3          	sub	a5,t5,a0
    b4a2:	02088663          	beqz	a7,b4ce <__subsf3+0x8e>
    b4a6:	0ff00793          	li	a5,255
    b4aa:	16f68863          	beq	a3,a5,b61a <__subsf3+0x1da>
    b4ae:	47ed                	li	a5,27
    b4b0:	2917c763          	blt	a5,a7,b73e <__subsf3+0x2fe>
    b4b4:	02000713          	li	a4,32
    b4b8:	41170733          	sub	a4,a4,a7
    b4bc:	00e51733          	sll	a4,a0,a4
    b4c0:	011557b3          	srl	a5,a0,a7
    b4c4:	00e03733          	snez	a4,a4
    b4c8:	8fd9                	or	a5,a5,a4
    b4ca:	40ff07b3          	sub	a5,t5,a5
    b4ce:	00579713          	slli	a4,a5,0x5
    b4d2:	1a075163          	bgez	a4,b674 <__subsf3+0x234>
    b4d6:	04000437          	lui	s0,0x4000
    b4da:	147d                	addi	s0,s0,-1
    b4dc:	8c7d                	and	s0,s0,a5
    b4de:	8522                	mv	a0,s0
    b4e0:	2fb1                	jal	bc3c <__clzsi2>
    b4e2:	156d                	addi	a0,a0,-5
    b4e4:	00a417b3          	sll	a5,s0,a0
    b4e8:	1b254e63          	blt	a0,s2,b6a4 <__subsf3+0x264>
    b4ec:	41250533          	sub	a0,a0,s2
    b4f0:	00150413          	addi	s0,a0,1
    b4f4:	02000713          	li	a4,32
    b4f8:	8f01                	sub	a4,a4,s0
    b4fa:	00e79733          	sll	a4,a5,a4
    b4fe:	00e03733          	snez	a4,a4
    b502:	0087d7b3          	srl	a5,a5,s0
    b506:	8fd9                	or	a5,a5,a4
    b508:	4901                	li	s2,0
    b50a:	0077f713          	andi	a4,a5,7
    b50e:	c719                	beqz	a4,b51c <__subsf3+0xdc>
    b510:	00f7f713          	andi	a4,a5,15
    b514:	4691                	li	a3,4
    b516:	00d70363          	beq	a4,a3,b51c <__subsf3+0xdc>
    b51a:	0791                	addi	a5,a5,4
    b51c:	00579713          	slli	a4,a5,0x5
    b520:	14075e63          	bgez	a4,b67c <__subsf3+0x23c>
    b524:	00190693          	addi	a3,s2,1 # 800001 <_data_lma+0x7f259d>
    b528:	0ff00713          	li	a4,255
    b52c:	0014fe93          	andi	t4,s1,1
    b530:	16e68663          	beq	a3,a4,b69c <__subsf3+0x25c>
    b534:	079a                	slli	a5,a5,0x6
    b536:	83a5                	srli	a5,a5,0x9
    b538:	0ff6f693          	andi	a3,a3,255
    b53c:	07a6                	slli	a5,a5,0x9
    b53e:	40b2                	lw	ra,12(sp)
    b540:	4422                	lw	s0,8(sp)
    b542:	0097d513          	srli	a0,a5,0x9
    b546:	06de                	slli	a3,a3,0x17
    b548:	01fe9793          	slli	a5,t4,0x1f
    b54c:	8d55                	or	a0,a0,a3
    b54e:	4492                	lw	s1,4(sp)
    b550:	4902                	lw	s2,0(sp)
    b552:	8d5d                	or	a0,a0,a5
    b554:	0141                	addi	sp,sp,16
    b556:	8082                	ret
    b558:	0a089263          	bnez	a7,b5fc <__subsf3+0x1bc>
    b55c:	00168713          	addi	a4,a3,1
    b560:	0fe77713          	andi	a4,a4,254
    b564:	14071b63          	bnez	a4,b6ba <__subsf3+0x27a>
    b568:	22069463          	bnez	a3,b790 <__subsf3+0x350>
    b56c:	200f0263          	beqz	t5,b770 <__subsf3+0x330>
    b570:	d571                	beqz	a0,b53c <__subsf3+0xfc>
    b572:	40af07b3          	sub	a5,t5,a0
    b576:	00579713          	slli	a4,a5,0x5
    b57a:	22075563          	bgez	a4,b7a4 <__subsf3+0x364>
    b57e:	41e507b3          	sub	a5,a0,t5
    b582:	4901                	li	s2,0
    b584:	84ae                	mv	s1,a1
    b586:	b751                	j	b50a <__subsf3+0xca>
    b588:	f00500e3          	beqz	a0,b488 <__subsf3+0x48>
    b58c:	0abe8a63          	beq	t4,a1,b640 <__subsf3+0x200>
    b590:	fd1054e3          	blez	a7,b558 <__subsf3+0x118>
    b594:	0ff00793          	li	a5,255
    b598:	08f68163          	beq	a3,a5,b61a <__subsf3+0x1da>
    b59c:	040007b7          	lui	a5,0x4000
    b5a0:	8d5d                	or	a0,a0,a5
    b5a2:	b731                	j	b4ae <__subsf3+0x6e>
    b5a4:	09105e63          	blez	a7,b640 <__subsf3+0x200>
    b5a8:	08080163          	beqz	a6,b62a <__subsf3+0x1ea>
    b5ac:	0ff00793          	li	a5,255
    b5b0:	06f68563          	beq	a3,a5,b61a <__subsf3+0x1da>
    b5b4:	040007b7          	lui	a5,0x4000
    b5b8:	8d5d                	or	a0,a0,a5
    b5ba:	47ed                	li	a5,27
    b5bc:	1f17c063          	blt	a5,a7,b79c <__subsf3+0x35c>
    b5c0:	02000713          	li	a4,32
    b5c4:	41170733          	sub	a4,a4,a7
    b5c8:	00e51733          	sll	a4,a0,a4
    b5cc:	011557b3          	srl	a5,a0,a7
    b5d0:	00e03733          	snez	a4,a4
    b5d4:	8fd9                	or	a5,a5,a4
    b5d6:	97fa                	add	a5,a5,t5
    b5d8:	00579713          	slli	a4,a5,0x5
    b5dc:	08075c63          	bgez	a4,b674 <__subsf3+0x234>
    b5e0:	0905                	addi	s2,s2,1
    b5e2:	0ff00713          	li	a4,255
    b5e6:	0ae90b63          	beq	s2,a4,b69c <__subsf3+0x25c>
    b5ea:	7e0006b7          	lui	a3,0x7e000
    b5ee:	0017d713          	srli	a4,a5,0x1
    b5f2:	16fd                	addi	a3,a3,-1
    b5f4:	8b85                	andi	a5,a5,1
    b5f6:	8f75                	and	a4,a4,a3
    b5f8:	8fd9                	or	a5,a5,a4
    b5fa:	bf01                	j	b50a <__subsf3+0xca>
    b5fc:	40d80733          	sub	a4,a6,a3
    b600:	10069563          	bnez	a3,b70a <__subsf3+0x2ca>
    b604:	140f0d63          	beqz	t5,b75e <__subsf3+0x31e>
    b608:	177d                	addi	a4,a4,-1
    b60a:	1a070363          	beqz	a4,b7b0 <__subsf3+0x370>
    b60e:	0ff00793          	li	a5,255
    b612:	10f81463          	bne	a6,a5,b71a <__subsf3+0x2da>
    b616:	84ae                	mv	s1,a1
    b618:	8e32                	mv	t3,a2
    b61a:	060e0f63          	beqz	t3,b698 <__subsf3+0x258>
    b61e:	4e81                	li	t4,0
    b620:	0ff00693          	li	a3,255
    b624:	004007b7          	lui	a5,0x400
    b628:	bf11                	j	b53c <__subsf3+0xfc>
    b62a:	c939                	beqz	a0,b680 <__subsf3+0x240>
    b62c:	18fd                	addi	a7,a7,-1
    b62e:	00af07b3          	add	a5,t5,a0
    b632:	fa0883e3          	beqz	a7,b5d8 <__subsf3+0x198>
    b636:	0ff00793          	li	a5,255
    b63a:	f8f690e3          	bne	a3,a5,b5ba <__subsf3+0x17a>
    b63e:	bff1                	j	b61a <__subsf3+0x1da>
    b640:	08089963          	bnez	a7,b6d2 <__subsf3+0x292>
    b644:	00168913          	addi	s2,a3,1 # 7e000001 <__freertos_irq_stack_top+0x5dffb001>
    b648:	0fe97713          	andi	a4,s2,254
    b64c:	12071663          	bnez	a4,b778 <__subsf3+0x338>
    b650:	10069b63          	bnez	a3,b766 <__subsf3+0x326>
    b654:	160f0363          	beqz	t5,b7ba <__subsf3+0x37a>
    b658:	ee0502e3          	beqz	a0,b53c <__subsf3+0xfc>
    b65c:	00af07b3          	add	a5,t5,a0
    b660:	00579713          	slli	a4,a5,0x5
    b664:	4901                	li	s2,0
    b666:	00075763          	bgez	a4,b674 <__subsf3+0x234>
    b66a:	fc000737          	lui	a4,0xfc000
    b66e:	177d                	addi	a4,a4,-1
    b670:	8ff9                	and	a5,a5,a4
    b672:	4905                	li	s2,1
    b674:	0077f713          	andi	a4,a5,7
    b678:	e8071ce3          	bnez	a4,b510 <__subsf3+0xd0>
    b67c:	0037de13          	srli	t3,a5,0x3
    b680:	0ff00793          	li	a5,255
    b684:	f8f90be3          	beq	s2,a5,b61a <__subsf3+0x1da>
    b688:	009e1793          	slli	a5,t3,0x9
    b68c:	83a5                	srli	a5,a5,0x9
    b68e:	0ff97693          	andi	a3,s2,255
    b692:	0014fe93          	andi	t4,s1,1
    b696:	b55d                	j	b53c <__subsf3+0xfc>
    b698:	0014fe93          	andi	t4,s1,1
    b69c:	0ff00693          	li	a3,255
    b6a0:	4781                	li	a5,0
    b6a2:	bd69                	j	b53c <__subsf3+0xfc>
    b6a4:	fc000737          	lui	a4,0xfc000
    b6a8:	177d                	addi	a4,a4,-1
    b6aa:	8ff9                	and	a5,a5,a4
    b6ac:	0077f713          	andi	a4,a5,7
    b6b0:	40a90933          	sub	s2,s2,a0
    b6b4:	e4071ee3          	bnez	a4,b510 <__subsf3+0xd0>
    b6b8:	b7d1                	j	b67c <__subsf3+0x23c>
    b6ba:	40af0433          	sub	s0,t5,a0
    b6be:	00541793          	slli	a5,s0,0x5
    b6c2:	0c07c363          	bltz	a5,b788 <__subsf3+0x348>
    b6c6:	e0041ce3          	bnez	s0,b4de <__subsf3+0x9e>
    b6ca:	4e81                	li	t4,0
    b6cc:	4681                	li	a3,0
    b6ce:	4781                	li	a5,0
    b6d0:	b5b5                	j	b53c <__subsf3+0xfc>
    b6d2:	40d80733          	sub	a4,a6,a3
    b6d6:	c6b5                	beqz	a3,b742 <__subsf3+0x302>
    b6d8:	0ff00793          	li	a5,255
    b6dc:	f2f80ee3          	beq	a6,a5,b618 <__subsf3+0x1d8>
    b6e0:	040007b7          	lui	a5,0x4000
    b6e4:	00ff6f33          	or	t5,t5,a5
    b6e8:	47ed                	li	a5,27
    b6ea:	0ce7cd63          	blt	a5,a4,b7c4 <__subsf3+0x384>
    b6ee:	02000793          	li	a5,32
    b6f2:	8f99                	sub	a5,a5,a4
    b6f4:	00ff17b3          	sll	a5,t5,a5
    b6f8:	00ef5733          	srl	a4,t5,a4
    b6fc:	00f037b3          	snez	a5,a5
    b700:	8f5d                	or	a4,a4,a5
    b702:	00a707b3          	add	a5,a4,a0
    b706:	8942                	mv	s2,a6
    b708:	bdc1                	j	b5d8 <__subsf3+0x198>
    b70a:	0ff00793          	li	a5,255
    b70e:	f0f804e3          	beq	a6,a5,b616 <__subsf3+0x1d6>
    b712:	040007b7          	lui	a5,0x4000
    b716:	00ff6f33          	or	t5,t5,a5
    b71a:	47ed                	li	a5,27
    b71c:	08e7c263          	blt	a5,a4,b7a0 <__subsf3+0x360>
    b720:	02000793          	li	a5,32
    b724:	8f99                	sub	a5,a5,a4
    b726:	00ff17b3          	sll	a5,t5,a5
    b72a:	00ef5733          	srl	a4,t5,a4
    b72e:	00f037b3          	snez	a5,a5
    b732:	8fd9                	or	a5,a5,a4
    b734:	40f507b3          	sub	a5,a0,a5
    b738:	8942                	mv	s2,a6
    b73a:	84ae                	mv	s1,a1
    b73c:	bb49                	j	b4ce <__subsf3+0x8e>
    b73e:	4785                	li	a5,1
    b740:	b369                	j	b4ca <__subsf3+0x8a>
    b742:	060f0e63          	beqz	t5,b7be <__subsf3+0x37e>
    b746:	177d                	addi	a4,a4,-1
    b748:	00af07b3          	add	a5,t5,a0
    b74c:	8942                	mv	s2,a6
    b74e:	e80705e3          	beqz	a4,b5d8 <__subsf3+0x198>
    b752:	0ff00793          	li	a5,255
    b756:	f8f819e3          	bne	a6,a5,b6e8 <__subsf3+0x2a8>
    b75a:	8e32                	mv	t3,a2
    b75c:	bd7d                	j	b61a <__subsf3+0x1da>
    b75e:	8e32                	mv	t3,a2
    b760:	8942                	mv	s2,a6
    b762:	84ae                	mv	s1,a1
    b764:	bf31                	j	b680 <__subsf3+0x240>
    b766:	ea0f09e3          	beqz	t5,b618 <__subsf3+0x1d8>
    b76a:	ea0508e3          	beqz	a0,b61a <__subsf3+0x1da>
    b76e:	bd45                	j	b61e <__subsf3+0x1de>
    b770:	cd0d                	beqz	a0,b7aa <__subsf3+0x36a>
    b772:	8eae                	mv	t4,a1
    b774:	87b2                	mv	a5,a2
    b776:	b3d9                	j	b53c <__subsf3+0xfc>
    b778:	0ff00793          	li	a5,255
    b77c:	f2f900e3          	beq	s2,a5,b69c <__subsf3+0x25c>
    b780:	00af07b3          	add	a5,t5,a0
    b784:	8385                	srli	a5,a5,0x1
    b786:	b5fd                	j	b674 <__subsf3+0x234>
    b788:	41e50433          	sub	s0,a0,t5
    b78c:	84ae                	mv	s1,a1
    b78e:	bb81                	j	b4de <__subsf3+0x9e>
    b790:	fc0f1de3          	bnez	t5,b76a <__subsf3+0x32a>
    b794:	e80505e3          	beqz	a0,b61e <__subsf3+0x1de>
    b798:	84ae                	mv	s1,a1
    b79a:	bdbd                	j	b618 <__subsf3+0x1d8>
    b79c:	4785                	li	a5,1
    b79e:	bd25                	j	b5d6 <__subsf3+0x196>
    b7a0:	4785                	li	a5,1
    b7a2:	bf49                	j	b734 <__subsf3+0x2f4>
    b7a4:	4901                	li	s2,0
    b7a6:	ec0797e3          	bnez	a5,b674 <__subsf3+0x234>
    b7aa:	4e81                	li	t4,0
    b7ac:	4781                	li	a5,0
    b7ae:	b379                	j	b53c <__subsf3+0xfc>
    b7b0:	41e507b3          	sub	a5,a0,t5
    b7b4:	8942                	mv	s2,a6
    b7b6:	84ae                	mv	s1,a1
    b7b8:	bb19                	j	b4ce <__subsf3+0x8e>
    b7ba:	87b2                	mv	a5,a2
    b7bc:	b341                	j	b53c <__subsf3+0xfc>
    b7be:	8e32                	mv	t3,a2
    b7c0:	8942                	mv	s2,a6
    b7c2:	bd7d                	j	b680 <__subsf3+0x240>
    b7c4:	4705                	li	a4,1
    b7c6:	bf35                	j	b702 <__subsf3+0x2c2>

0000b7c8 <__fixunssfsi>:
    b7c8:	01755713          	srli	a4,a0,0x17
    b7cc:	00800637          	lui	a2,0x800
    b7d0:	fff60793          	addi	a5,a2,-1 # 7fffff <_data_lma+0x7f259b>
    b7d4:	0ff77713          	andi	a4,a4,255
    b7d8:	07e00593          	li	a1,126
    b7dc:	00a7f6b3          	and	a3,a5,a0
    b7e0:	01f55793          	srli	a5,a0,0x1f
    b7e4:	4501                	li	a0,0
    b7e6:	00e5f463          	bgeu	a1,a4,b7ee <__fixunssfsi+0x26>
    b7ea:	c399                	beqz	a5,b7f0 <__fixunssfsi+0x28>
    b7ec:	8082                	ret
    b7ee:	8082                	ret
    b7f0:	09e00793          	li	a5,158
    b7f4:	557d                	li	a0,-1
    b7f6:	fee7ebe3          	bltu	a5,a4,b7ec <__fixunssfsi+0x24>
    b7fa:	09500593          	li	a1,149
    b7fe:	00c6e7b3          	or	a5,a3,a2
    b802:	00e5d763          	bge	a1,a4,b810 <__fixunssfsi+0x48>
    b806:	f6a70713          	addi	a4,a4,-150 # fbffff6a <__freertos_irq_stack_top+0xdbffaf6a>
    b80a:	00e79533          	sll	a0,a5,a4
    b80e:	8082                	ret
    b810:	09600513          	li	a0,150
    b814:	40e50733          	sub	a4,a0,a4
    b818:	00e7d533          	srl	a0,a5,a4
    b81c:	8082                	ret

0000b81e <__floatsisf>:
    b81e:	1141                	addi	sp,sp,-16
    b820:	c606                	sw	ra,12(sp)
    b822:	c422                	sw	s0,8(sp)
    b824:	c226                	sw	s1,4(sp)
    b826:	cd0d                	beqz	a0,b860 <__floatsisf+0x42>
    b828:	41f55793          	srai	a5,a0,0x1f
    b82c:	00a7c433          	xor	s0,a5,a0
    b830:	8c1d                	sub	s0,s0,a5
    b832:	84aa                	mv	s1,a0
    b834:	8522                	mv	a0,s0
    b836:	2119                	jal	bc3c <__clzsi2>
    b838:	09e00793          	li	a5,158
    b83c:	40a78733          	sub	a4,a5,a0
    b840:	09600793          	li	a5,150
    b844:	80fd                	srli	s1,s1,0x1f
    b846:	02e7cc63          	blt	a5,a4,b87e <__floatsisf+0x60>
    b84a:	46a1                	li	a3,8
    b84c:	0ff77793          	andi	a5,a4,255
    b850:	00a6d563          	bge	a3,a0,b85a <__floatsisf+0x3c>
    b854:	1561                	addi	a0,a0,-8
    b856:	00a41433          	sll	s0,s0,a0
    b85a:	0426                	slli	s0,s0,0x9
    b85c:	8025                	srli	s0,s0,0x9
    b85e:	a021                	j	b866 <__floatsisf+0x48>
    b860:	4481                	li	s1,0
    b862:	4781                	li	a5,0
    b864:	4401                	li	s0,0
    b866:	0426                	slli	s0,s0,0x9
    b868:	00945513          	srli	a0,s0,0x9
    b86c:	40b2                	lw	ra,12(sp)
    b86e:	4422                	lw	s0,8(sp)
    b870:	07de                	slli	a5,a5,0x17
    b872:	04fe                	slli	s1,s1,0x1f
    b874:	8d5d                	or	a0,a0,a5
    b876:	8d45                	or	a0,a0,s1
    b878:	4492                	lw	s1,4(sp)
    b87a:	0141                	addi	sp,sp,16
    b87c:	8082                	ret
    b87e:	09900793          	li	a5,153
    b882:	00e7dd63          	bge	a5,a4,b89c <__floatsisf+0x7e>
    b886:	01b50793          	addi	a5,a0,27
    b88a:	4695                	li	a3,5
    b88c:	00f417b3          	sll	a5,s0,a5
    b890:	8e89                	sub	a3,a3,a0
    b892:	00d45433          	srl	s0,s0,a3
    b896:	00f037b3          	snez	a5,a5
    b89a:	8c5d                	or	s0,s0,a5
    b89c:	4795                	li	a5,5
    b89e:	00a7d663          	bge	a5,a0,b8aa <__floatsisf+0x8c>
    b8a2:	ffb50793          	addi	a5,a0,-5
    b8a6:	00f41433          	sll	s0,s0,a5
    b8aa:	fc0006b7          	lui	a3,0xfc000
    b8ae:	16fd                	addi	a3,a3,-1
    b8b0:	00747793          	andi	a5,s0,7
    b8b4:	00d47633          	and	a2,s0,a3
    b8b8:	c385                	beqz	a5,b8d8 <__floatsisf+0xba>
    b8ba:	00f47793          	andi	a5,s0,15
    b8be:	4591                	li	a1,4
    b8c0:	00b78c63          	beq	a5,a1,b8d8 <__floatsisf+0xba>
    b8c4:	0611                	addi	a2,a2,4
    b8c6:	00561793          	slli	a5,a2,0x5
    b8ca:	0007d763          	bgez	a5,b8d8 <__floatsisf+0xba>
    b8ce:	09f00793          	li	a5,159
    b8d2:	8e75                	and	a2,a2,a3
    b8d4:	40a78733          	sub	a4,a5,a0
    b8d8:	00661413          	slli	s0,a2,0x6
    b8dc:	8025                	srli	s0,s0,0x9
    b8de:	0ff77793          	andi	a5,a4,255
    b8e2:	b751                	j	b866 <__floatsisf+0x48>

0000b8e4 <__floatdisf>:
    b8e4:	1141                	addi	sp,sp,-16
    b8e6:	c606                	sw	ra,12(sp)
    b8e8:	c422                	sw	s0,8(sp)
    b8ea:	c226                	sw	s1,4(sp)
    b8ec:	c04a                	sw	s2,0(sp)
    b8ee:	00b567b3          	or	a5,a0,a1
    b8f2:	c7b1                	beqz	a5,b93e <__floatdisf+0x5a>
    b8f4:	842e                	mv	s0,a1
    b8f6:	84aa                	mv	s1,a0
    b8f8:	01f5d913          	srli	s2,a1,0x1f
    b8fc:	0605c263          	bltz	a1,b960 <__floatdisf+0x7c>
    b900:	c82d                	beqz	s0,b972 <__floatdisf+0x8e>
    b902:	8522                	mv	a0,s0
    b904:	2e25                	jal	bc3c <__clzsi2>
    b906:	0be00713          	li	a4,190
    b90a:	8f09                	sub	a4,a4,a0
    b90c:	02500613          	li	a2,37
    b910:	40a607b3          	sub	a5,a2,a0
    b914:	fe078613          	addi	a2,a5,-32 # 3ffffe0 <_data_lma+0x3ff257c>
    b918:	0c064d63          	bltz	a2,b9f2 <__floatdisf+0x10e>
    b91c:	00c45633          	srl	a2,s0,a2
    b920:	ffb50593          	addi	a1,a0,-5
    b924:	01b50693          	addi	a3,a0,27
    b928:	0c05cf63          	bltz	a1,ba06 <__floatdisf+0x122>
    b92c:	00b49433          	sll	s0,s1,a1
    b930:	4681                	li	a3,0
    b932:	8ec1                	or	a3,a3,s0
    b934:	00d036b3          	snez	a3,a3
    b938:	00d664b3          	or	s1,a2,a3
    b93c:	a899                	j	b992 <__floatdisf+0xae>
    b93e:	4901                	li	s2,0
    b940:	4701                	li	a4,0
    b942:	4501                	li	a0,0
    b944:	40b2                	lw	ra,12(sp)
    b946:	4422                	lw	s0,8(sp)
    b948:	0526                	slli	a0,a0,0x9
    b94a:	01771793          	slli	a5,a4,0x17
    b94e:	8125                	srli	a0,a0,0x9
    b950:	01f91713          	slli	a4,s2,0x1f
    b954:	8d5d                	or	a0,a0,a5
    b956:	4492                	lw	s1,4(sp)
    b958:	4902                	lw	s2,0(sp)
    b95a:	8d59                	or	a0,a0,a4
    b95c:	0141                	addi	sp,sp,16
    b95e:	8082                	ret
    b960:	40a00533          	neg	a0,a0
    b964:	00a037b3          	snez	a5,a0
    b968:	40b00433          	neg	s0,a1
    b96c:	8c1d                	sub	s0,s0,a5
    b96e:	84aa                	mv	s1,a0
    b970:	f849                	bnez	s0,b902 <__floatdisf+0x1e>
    b972:	8526                	mv	a0,s1
    b974:	24e1                	jal	bc3c <__clzsi2>
    b976:	87aa                	mv	a5,a0
    b978:	0be00713          	li	a4,190
    b97c:	02050513          	addi	a0,a0,32
    b980:	8f09                	sub	a4,a4,a0
    b982:	09600693          	li	a3,150
    b986:	04e6da63          	bge	a3,a4,b9da <__floatdisf+0xf6>
    b98a:	09900793          	li	a5,153
    b98e:	f6e7cfe3          	blt	a5,a4,b90c <__floatdisf+0x28>
    b992:	02500793          	li	a5,37
    b996:	86a6                	mv	a3,s1
    b998:	00a7d663          	bge	a5,a0,b9a4 <__floatdisf+0xc0>
    b99c:	fdb50793          	addi	a5,a0,-37
    b9a0:	00f496b3          	sll	a3,s1,a5
    b9a4:	fc000637          	lui	a2,0xfc000
    b9a8:	167d                	addi	a2,a2,-1
    b9aa:	0076f593          	andi	a1,a3,7
    b9ae:	00c6f7b3          	and	a5,a3,a2
    b9b2:	cd91                	beqz	a1,b9ce <__floatdisf+0xea>
    b9b4:	8abd                	andi	a3,a3,15
    b9b6:	4591                	li	a1,4
    b9b8:	00b68b63          	beq	a3,a1,b9ce <__floatdisf+0xea>
    b9bc:	0791                	addi	a5,a5,4
    b9be:	00579693          	slli	a3,a5,0x5
    b9c2:	0006d663          	bgez	a3,b9ce <__floatdisf+0xea>
    b9c6:	0bf00713          	li	a4,191
    b9ca:	8ff1                	and	a5,a5,a2
    b9cc:	8f09                	sub	a4,a4,a0
    b9ce:	00679513          	slli	a0,a5,0x6
    b9d2:	8125                	srli	a0,a0,0x9
    b9d4:	0ff77713          	andi	a4,a4,255
    b9d8:	b7b5                	j	b944 <__floatdisf+0x60>
    b9da:	02800693          	li	a3,40
    b9de:	17e1                	addi	a5,a5,-8
    b9e0:	0ff77713          	andi	a4,a4,255
    b9e4:	02a6dd63          	bge	a3,a0,ba1e <__floatdisf+0x13a>
    b9e8:	00f49533          	sll	a0,s1,a5
    b9ec:	0526                	slli	a0,a0,0x9
    b9ee:	8125                	srli	a0,a0,0x9
    b9f0:	bf91                	j	b944 <__floatdisf+0x60>
    b9f2:	467d                	li	a2,31
    b9f4:	8e1d                	sub	a2,a2,a5
    b9f6:	00141693          	slli	a3,s0,0x1
    b9fa:	00c696b3          	sll	a3,a3,a2
    b9fe:	00f4d633          	srl	a2,s1,a5
    ba02:	8e55                	or	a2,a2,a3
    ba04:	bf31                	j	b920 <__floatdisf+0x3c>
    ba06:	45fd                	li	a1,31
    ba08:	8d95                	sub	a1,a1,a3
    ba0a:	0014d793          	srli	a5,s1,0x1
    ba0e:	00d41433          	sll	s0,s0,a3
    ba12:	00b7d7b3          	srl	a5,a5,a1
    ba16:	8c5d                	or	s0,s0,a5
    ba18:	00d496b3          	sll	a3,s1,a3
    ba1c:	bf19                	j	b932 <__floatdisf+0x4e>
    ba1e:	00949513          	slli	a0,s1,0x9
    ba22:	8125                	srli	a0,a0,0x9
    ba24:	b705                	j	b944 <__floatdisf+0x60>

0000ba26 <__extendsfdf2>:
    ba26:	01755713          	srli	a4,a0,0x17
    ba2a:	0ff77713          	andi	a4,a4,255
    ba2e:	1141                	addi	sp,sp,-16
    ba30:	00170793          	addi	a5,a4,1
    ba34:	c422                	sw	s0,8(sp)
    ba36:	c226                	sw	s1,4(sp)
    ba38:	00951413          	slli	s0,a0,0x9
    ba3c:	c606                	sw	ra,12(sp)
    ba3e:	0fe7f793          	andi	a5,a5,254
    ba42:	8025                	srli	s0,s0,0x9
    ba44:	01f55493          	srli	s1,a0,0x1f
    ba48:	c785                	beqz	a5,ba70 <__extendsfdf2+0x4a>
    ba4a:	00345793          	srli	a5,s0,0x3
    ba4e:	38070713          	addi	a4,a4,896
    ba52:	0476                	slli	s0,s0,0x1d
    ba54:	07b2                	slli	a5,a5,0xc
    ba56:	0752                	slli	a4,a4,0x14
    ba58:	83b1                	srli	a5,a5,0xc
    ba5a:	01f49513          	slli	a0,s1,0x1f
    ba5e:	8fd9                	or	a5,a5,a4
    ba60:	8fc9                	or	a5,a5,a0
    ba62:	40b2                	lw	ra,12(sp)
    ba64:	8522                	mv	a0,s0
    ba66:	4422                	lw	s0,8(sp)
    ba68:	4492                	lw	s1,4(sp)
    ba6a:	85be                	mv	a1,a5
    ba6c:	0141                	addi	sp,sp,16
    ba6e:	8082                	ret
    ba70:	eb05                	bnez	a4,baa0 <__extendsfdf2+0x7a>
    ba72:	c439                	beqz	s0,bac0 <__extendsfdf2+0x9a>
    ba74:	8522                	mv	a0,s0
    ba76:	22d9                	jal	bc3c <__clzsi2>
    ba78:	47a9                	li	a5,10
    ba7a:	04a7c663          	blt	a5,a0,bac6 <__extendsfdf2+0xa0>
    ba7e:	472d                	li	a4,11
    ba80:	8f09                	sub	a4,a4,a0
    ba82:	01550793          	addi	a5,a0,21
    ba86:	00e45733          	srl	a4,s0,a4
    ba8a:	00f41433          	sll	s0,s0,a5
    ba8e:	00c71793          	slli	a5,a4,0xc
    ba92:	38900713          	li	a4,905
    ba96:	8f09                	sub	a4,a4,a0
    ba98:	83b1                	srli	a5,a5,0xc
    ba9a:	7ff77713          	andi	a4,a4,2047
    ba9e:	bf5d                	j	ba54 <__extendsfdf2+0x2e>
    baa0:	cc01                	beqz	s0,bab8 <__extendsfdf2+0x92>
    baa2:	00345713          	srli	a4,s0,0x3
    baa6:	000807b7          	lui	a5,0x80
    baaa:	8fd9                	or	a5,a5,a4
    baac:	07b2                	slli	a5,a5,0xc
    baae:	0476                	slli	s0,s0,0x1d
    bab0:	83b1                	srli	a5,a5,0xc
    bab2:	7ff00713          	li	a4,2047
    bab6:	bf79                	j	ba54 <__extendsfdf2+0x2e>
    bab8:	7ff00713          	li	a4,2047
    babc:	4781                	li	a5,0
    babe:	bf59                	j	ba54 <__extendsfdf2+0x2e>
    bac0:	4701                	li	a4,0
    bac2:	4781                	li	a5,0
    bac4:	bf41                	j	ba54 <__extendsfdf2+0x2e>
    bac6:	ff550713          	addi	a4,a0,-11
    baca:	00e41733          	sll	a4,s0,a4
    bace:	4401                	li	s0,0
    bad0:	bf7d                	j	ba8e <__extendsfdf2+0x68>

0000bad2 <__truncdfsf2>:
    bad2:	0145d693          	srli	a3,a1,0x14
    bad6:	00c59793          	slli	a5,a1,0xc
    bada:	7ff6f693          	andi	a3,a3,2047
    bade:	83b1                	srli	a5,a5,0xc
    bae0:	00168613          	addi	a2,a3,1 # fc000001 <__freertos_irq_stack_top+0xdbffb001>
    bae4:	078e                	slli	a5,a5,0x3
    bae6:	01d55713          	srli	a4,a0,0x1d
    baea:	7fe67613          	andi	a2,a2,2046
    baee:	81fd                	srli	a1,a1,0x1f
    baf0:	8f5d                	or	a4,a4,a5
    baf2:	00351893          	slli	a7,a0,0x3
    baf6:	ce35                	beqz	a2,bb72 <__truncdfsf2+0xa0>
    baf8:	c8068813          	addi	a6,a3,-896
    bafc:	0fe00793          	li	a5,254
    bb00:	0107dd63          	bge	a5,a6,bb1a <__truncdfsf2+0x48>
    bb04:	4781                	li	a5,0
    bb06:	00979513          	slli	a0,a5,0x9
    bb0a:	0ff00693          	li	a3,255
    bb0e:	06de                	slli	a3,a3,0x17
    bb10:	8125                	srli	a0,a0,0x9
    bb12:	05fe                	slli	a1,a1,0x1f
    bb14:	8d55                	or	a0,a0,a3
    bb16:	8d4d                	or	a0,a0,a1
    bb18:	8082                	ret
    bb1a:	0b005563          	blez	a6,bbc4 <__truncdfsf2+0xf2>
    bb1e:	00651793          	slli	a5,a0,0x6
    bb22:	070e                	slli	a4,a4,0x3
    bb24:	00f037b3          	snez	a5,a5
    bb28:	8fd9                	or	a5,a5,a4
    bb2a:	01d8d893          	srli	a7,a7,0x1d
    bb2e:	0117e7b3          	or	a5,a5,a7
    bb32:	0077f713          	andi	a4,a5,7
    bb36:	10070163          	beqz	a4,bc38 <__truncdfsf2+0x166>
    bb3a:	00f7f713          	andi	a4,a5,15
    bb3e:	4691                	li	a3,4
    bb40:	00d70363          	beq	a4,a3,bb46 <__truncdfsf2+0x74>
    bb44:	0791                	addi	a5,a5,4
    bb46:	04000737          	lui	a4,0x4000
    bb4a:	8f7d                	and	a4,a4,a5
    bb4c:	c775                	beqz	a4,bc38 <__truncdfsf2+0x166>
    bb4e:	00180713          	addi	a4,a6,1
    bb52:	0ff00613          	li	a2,255
    bb56:	0ff77693          	andi	a3,a4,255
    bb5a:	fac705e3          	beq	a4,a2,bb04 <__truncdfsf2+0x32>
    bb5e:	079a                	slli	a5,a5,0x6
    bb60:	83a5                	srli	a5,a5,0x9
    bb62:	00979513          	slli	a0,a5,0x9
    bb66:	06de                	slli	a3,a3,0x17
    bb68:	8125                	srli	a0,a0,0x9
    bb6a:	05fe                	slli	a1,a1,0x1f
    bb6c:	8d55                	or	a0,a0,a3
    bb6e:	8d4d                	or	a0,a0,a1
    bb70:	8082                	ret
    bb72:	011767b3          	or	a5,a4,a7
    bb76:	ee99                	bnez	a3,bb94 <__truncdfsf2+0xc2>
    bb78:	cf85                	beqz	a5,bbb0 <__truncdfsf2+0xde>
    bb7a:	4795                	li	a5,5
    bb7c:	079a                	slli	a5,a5,0x6
    bb7e:	83a5                	srli	a5,a5,0x9
    bb80:	00979513          	slli	a0,a5,0x9
    bb84:	0ff6f693          	andi	a3,a3,255
    bb88:	06de                	slli	a3,a3,0x17
    bb8a:	8125                	srli	a0,a0,0x9
    bb8c:	05fe                	slli	a1,a1,0x1f
    bb8e:	8d55                	or	a0,a0,a3
    bb90:	8d4d                	or	a0,a0,a1
    bb92:	8082                	ret
    bb94:	dba5                	beqz	a5,bb04 <__truncdfsf2+0x32>
    bb96:	004007b7          	lui	a5,0x400
    bb9a:	00979513          	slli	a0,a5,0x9
    bb9e:	0ff00693          	li	a3,255
    bba2:	06de                	slli	a3,a3,0x17
    bba4:	4581                	li	a1,0
    bba6:	8125                	srli	a0,a0,0x9
    bba8:	05fe                	slli	a1,a1,0x1f
    bbaa:	8d55                	or	a0,a0,a3
    bbac:	8d4d                	or	a0,a0,a1
    bbae:	8082                	ret
    bbb0:	4781                	li	a5,0
    bbb2:	00979513          	slli	a0,a5,0x9
    bbb6:	4681                	li	a3,0
    bbb8:	06de                	slli	a3,a3,0x17
    bbba:	8125                	srli	a0,a0,0x9
    bbbc:	05fe                	slli	a1,a1,0x1f
    bbbe:	8d55                	or	a0,a0,a3
    bbc0:	8d4d                	or	a0,a0,a1
    bbc2:	8082                	ret
    bbc4:	57a5                	li	a5,-23
    bbc6:	04f84863          	blt	a6,a5,bc16 <__truncdfsf2+0x144>
    bbca:	47f9                	li	a5,30
    bbcc:	00800637          	lui	a2,0x800
    bbd0:	410787b3          	sub	a5,a5,a6
    bbd4:	457d                	li	a0,31
    bbd6:	8e59                	or	a2,a2,a4
    bbd8:	04f55163          	bge	a0,a5,bc1a <__truncdfsf2+0x148>
    bbdc:	5779                	li	a4,-2
    bbde:	41070733          	sub	a4,a4,a6
    bbe2:	02000513          	li	a0,32
    bbe6:	00e65733          	srl	a4,a2,a4
    bbea:	00a78863          	beq	a5,a0,bbfa <__truncdfsf2+0x128>
    bbee:	ca268693          	addi	a3,a3,-862
    bbf2:	00d616b3          	sll	a3,a2,a3
    bbf6:	00d8e8b3          	or	a7,a7,a3
    bbfa:	011037b3          	snez	a5,a7
    bbfe:	8fd9                	or	a5,a5,a4
    bc00:	0077f713          	andi	a4,a5,7
    bc04:	4801                	li	a6,0
    bc06:	fb15                	bnez	a4,bb3a <__truncdfsf2+0x68>
    bc08:	00579713          	slli	a4,a5,0x5
    bc0c:	4685                	li	a3,1
    bc0e:	f40748e3          	bltz	a4,bb5e <__truncdfsf2+0x8c>
    bc12:	4681                	li	a3,0
    bc14:	b7a5                	j	bb7c <__truncdfsf2+0xaa>
    bc16:	4681                	li	a3,0
    bc18:	b78d                	j	bb7a <__truncdfsf2+0xa8>
    bc1a:	c8268693          	addi	a3,a3,-894
    bc1e:	00d89733          	sll	a4,a7,a3
    bc22:	00e03733          	snez	a4,a4
    bc26:	00d616b3          	sll	a3,a2,a3
    bc2a:	00f8d8b3          	srl	a7,a7,a5
    bc2e:	00d767b3          	or	a5,a4,a3
    bc32:	00f8e7b3          	or	a5,a7,a5
    bc36:	b7e9                	j	bc00 <__truncdfsf2+0x12e>
    bc38:	86c2                	mv	a3,a6
    bc3a:	b789                	j	bb7c <__truncdfsf2+0xaa>

0000bc3c <__clzsi2>:
    bc3c:	67c1                	lui	a5,0x10
    bc3e:	02f57e63          	bgeu	a0,a5,bc7a <__clzsi2+0x3e>
    bc42:	0ff00793          	li	a5,255
    bc46:	02000713          	li	a4,32
    bc4a:	00a7ec63          	bltu	a5,a0,bc62 <__clzsi2+0x26>
    bc4e:	00002797          	auipc	a5,0x2
    bc52:	c7a78793          	addi	a5,a5,-902 # d8c8 <__clz_tab>
    bc56:	97aa                	add	a5,a5,a0
    bc58:	0007c503          	lbu	a0,0(a5)
    bc5c:	40a70533          	sub	a0,a4,a0
    bc60:	8082                	ret
    bc62:	8121                	srli	a0,a0,0x8
    bc64:	00002797          	auipc	a5,0x2
    bc68:	c6478793          	addi	a5,a5,-924 # d8c8 <__clz_tab>
    bc6c:	97aa                	add	a5,a5,a0
    bc6e:	0007c503          	lbu	a0,0(a5)
    bc72:	4761                	li	a4,24
    bc74:	40a70533          	sub	a0,a4,a0
    bc78:	8082                	ret
    bc7a:	010007b7          	lui	a5,0x1000
    bc7e:	00f56e63          	bltu	a0,a5,bc9a <__clzsi2+0x5e>
    bc82:	8161                	srli	a0,a0,0x18
    bc84:	00002797          	auipc	a5,0x2
    bc88:	c4478793          	addi	a5,a5,-956 # d8c8 <__clz_tab>
    bc8c:	97aa                	add	a5,a5,a0
    bc8e:	0007c503          	lbu	a0,0(a5)
    bc92:	4721                	li	a4,8
    bc94:	40a70533          	sub	a0,a4,a0
    bc98:	8082                	ret
    bc9a:	8141                	srli	a0,a0,0x10
    bc9c:	00002797          	auipc	a5,0x2
    bca0:	c2c78793          	addi	a5,a5,-980 # d8c8 <__clz_tab>
    bca4:	97aa                	add	a5,a5,a0
    bca6:	0007c503          	lbu	a0,0(a5)
    bcaa:	4741                	li	a4,16
    bcac:	40a70533          	sub	a0,a4,a0
    bcb0:	8082                	ret

0000bcb2 <__errno>:
    bcb2:	81c18793          	addi	a5,gp,-2020 # 2000009c <_impure_ptr>
    bcb6:	4388                	lw	a0,0(a5)
    bcb8:	8082                	ret

0000bcba <malloc>:
    bcba:	81c18793          	addi	a5,gp,-2020 # 2000009c <_impure_ptr>
    bcbe:	85aa                	mv	a1,a0
    bcc0:	4388                	lw	a0,0(a5)
    bcc2:	aa8d                	j	be34 <_malloc_r>

0000bcc4 <free>:
    bcc4:	81c18793          	addi	a5,gp,-2020 # 2000009c <_impure_ptr>
    bcc8:	85aa                	mv	a1,a0
    bcca:	4388                	lw	a0,0(a5)
    bccc:	a865                	j	bd84 <_free_r>

0000bcce <memcpy>:
    bcce:	00a5c7b3          	xor	a5,a1,a0
    bcd2:	8b8d                	andi	a5,a5,3
    bcd4:	00c50733          	add	a4,a0,a2
    bcd8:	e781                	bnez	a5,bce0 <memcpy+0x12>
    bcda:	478d                	li	a5,3
    bcdc:	00c7ee63          	bltu	a5,a2,bcf8 <memcpy+0x2a>
    bce0:	87aa                	mv	a5,a0
    bce2:	0ae57063          	bgeu	a0,a4,bd82 <memcpy+0xb4>
    bce6:	0005c683          	lbu	a3,0(a1)
    bcea:	0785                	addi	a5,a5,1
    bcec:	0585                	addi	a1,a1,1
    bcee:	fed78fa3          	sb	a3,-1(a5)
    bcf2:	fee7eae3          	bltu	a5,a4,bce6 <memcpy+0x18>
    bcf6:	8082                	ret
    bcf8:	00357693          	andi	a3,a0,3
    bcfc:	87aa                	mv	a5,a0
    bcfe:	ca91                	beqz	a3,bd12 <memcpy+0x44>
    bd00:	0005c683          	lbu	a3,0(a1)
    bd04:	0785                	addi	a5,a5,1
    bd06:	0585                	addi	a1,a1,1
    bd08:	fed78fa3          	sb	a3,-1(a5)
    bd0c:	0037f693          	andi	a3,a5,3
    bd10:	b7fd                	j	bcfe <memcpy+0x30>
    bd12:	ffc77693          	andi	a3,a4,-4
    bd16:	fe068613          	addi	a2,a3,-32
    bd1a:	06c7f063          	bgeu	a5,a2,bd7a <memcpy+0xac>
    bd1e:	0005a383          	lw	t2,0(a1)
    bd22:	0045a283          	lw	t0,4(a1)
    bd26:	0085af83          	lw	t6,8(a1)
    bd2a:	00c5af03          	lw	t5,12(a1)
    bd2e:	0105ae83          	lw	t4,16(a1)
    bd32:	0145ae03          	lw	t3,20(a1)
    bd36:	0185a303          	lw	t1,24(a1)
    bd3a:	01c5a883          	lw	a7,28(a1)
    bd3e:	02458593          	addi	a1,a1,36
    bd42:	0077a023          	sw	t2,0(a5)
    bd46:	ffc5a803          	lw	a6,-4(a1)
    bd4a:	0057a223          	sw	t0,4(a5)
    bd4e:	01f7a423          	sw	t6,8(a5)
    bd52:	01e7a623          	sw	t5,12(a5)
    bd56:	01d7a823          	sw	t4,16(a5)
    bd5a:	01c7aa23          	sw	t3,20(a5)
    bd5e:	0067ac23          	sw	t1,24(a5)
    bd62:	0117ae23          	sw	a7,28(a5)
    bd66:	02478793          	addi	a5,a5,36
    bd6a:	ff07ae23          	sw	a6,-4(a5)
    bd6e:	b775                	j	bd1a <memcpy+0x4c>
    bd70:	4190                	lw	a2,0(a1)
    bd72:	0791                	addi	a5,a5,4
    bd74:	0591                	addi	a1,a1,4
    bd76:	fec7ae23          	sw	a2,-4(a5)
    bd7a:	fed7ebe3          	bltu	a5,a3,bd70 <memcpy+0xa2>
    bd7e:	f6e7e4e3          	bltu	a5,a4,bce6 <memcpy+0x18>
    bd82:	8082                	ret

0000bd84 <_free_r>:
    bd84:	c5dd                	beqz	a1,be32 <_free_r+0xae>
    bd86:	ffc5a783          	lw	a5,-4(a1)
    bd8a:	1141                	addi	sp,sp,-16
    bd8c:	c422                	sw	s0,8(sp)
    bd8e:	c606                	sw	ra,12(sp)
    bd90:	c226                	sw	s1,4(sp)
    bd92:	ffc58413          	addi	s0,a1,-4
    bd96:	0007d363          	bgez	a5,bd9c <_free_r+0x18>
    bd9a:	943e                	add	s0,s0,a5
    bd9c:	84aa                	mv	s1,a0
    bd9e:	175000ef          	jal	ra,c712 <__malloc_lock>
    bda2:	1fff4797          	auipc	a5,0x1fff4
    bda6:	3d278793          	addi	a5,a5,978 # 20000174 <__malloc_free_list>
    bdaa:	439c                	lw	a5,0(a5)
    bdac:	ef91                	bnez	a5,bdc8 <_free_r+0x44>
    bdae:	00042223          	sw	zero,4(s0) # 4000004 <_data_lma+0x3ff25a0>
    bdb2:	1fff4797          	auipc	a5,0x1fff4
    bdb6:	3c87a123          	sw	s0,962(a5) # 20000174 <__malloc_free_list>
    bdba:	4422                	lw	s0,8(sp)
    bdbc:	40b2                	lw	ra,12(sp)
    bdbe:	8526                	mv	a0,s1
    bdc0:	4492                	lw	s1,4(sp)
    bdc2:	0141                	addi	sp,sp,16
    bdc4:	1510006f          	j	c714 <__malloc_unlock>
    bdc8:	00f47e63          	bgeu	s0,a5,bde4 <_free_r+0x60>
    bdcc:	4014                	lw	a3,0(s0)
    bdce:	00d40733          	add	a4,s0,a3
    bdd2:	00e79663          	bne	a5,a4,bdde <_free_r+0x5a>
    bdd6:	4398                	lw	a4,0(a5)
    bdd8:	43dc                	lw	a5,4(a5)
    bdda:	9736                	add	a4,a4,a3
    bddc:	c018                	sw	a4,0(s0)
    bdde:	c05c                	sw	a5,4(s0)
    bde0:	bfc9                	j	bdb2 <_free_r+0x2e>
    bde2:	87ba                	mv	a5,a4
    bde4:	43d8                	lw	a4,4(a5)
    bde6:	c319                	beqz	a4,bdec <_free_r+0x68>
    bde8:	fee47de3          	bgeu	s0,a4,bde2 <_free_r+0x5e>
    bdec:	4394                	lw	a3,0(a5)
    bdee:	00d78633          	add	a2,a5,a3
    bdf2:	00861f63          	bne	a2,s0,be10 <_free_r+0x8c>
    bdf6:	4010                	lw	a2,0(s0)
    bdf8:	96b2                	add	a3,a3,a2
    bdfa:	c394                	sw	a3,0(a5)
    bdfc:	00d78633          	add	a2,a5,a3
    be00:	fac71de3          	bne	a4,a2,bdba <_free_r+0x36>
    be04:	4310                	lw	a2,0(a4)
    be06:	4358                	lw	a4,4(a4)
    be08:	96b2                	add	a3,a3,a2
    be0a:	c394                	sw	a3,0(a5)
    be0c:	c3d8                	sw	a4,4(a5)
    be0e:	b775                	j	bdba <_free_r+0x36>
    be10:	00c47563          	bgeu	s0,a2,be1a <_free_r+0x96>
    be14:	47b1                	li	a5,12
    be16:	c09c                	sw	a5,0(s1)
    be18:	b74d                	j	bdba <_free_r+0x36>
    be1a:	4010                	lw	a2,0(s0)
    be1c:	00c406b3          	add	a3,s0,a2
    be20:	00d71663          	bne	a4,a3,be2c <_free_r+0xa8>
    be24:	4314                	lw	a3,0(a4)
    be26:	4358                	lw	a4,4(a4)
    be28:	96b2                	add	a3,a3,a2
    be2a:	c014                	sw	a3,0(s0)
    be2c:	c058                	sw	a4,4(s0)
    be2e:	c3c0                	sw	s0,4(a5)
    be30:	b769                	j	bdba <_free_r+0x36>
    be32:	8082                	ret

0000be34 <_malloc_r>:
    be34:	1101                	addi	sp,sp,-32
    be36:	ca26                	sw	s1,20(sp)
    be38:	00358493          	addi	s1,a1,3
    be3c:	98f1                	andi	s1,s1,-4
    be3e:	ce06                	sw	ra,28(sp)
    be40:	cc22                	sw	s0,24(sp)
    be42:	c84a                	sw	s2,16(sp)
    be44:	c64e                	sw	s3,12(sp)
    be46:	04a1                	addi	s1,s1,8
    be48:	47b1                	li	a5,12
    be4a:	04f4f963          	bgeu	s1,a5,be9c <_malloc_r+0x68>
    be4e:	44b1                	li	s1,12
    be50:	04b4e863          	bltu	s1,a1,bea0 <_malloc_r+0x6c>
    be54:	892a                	mv	s2,a0
    be56:	0bd000ef          	jal	ra,c712 <__malloc_lock>
    be5a:	1fff4797          	auipc	a5,0x1fff4
    be5e:	31a78793          	addi	a5,a5,794 # 20000174 <__malloc_free_list>
    be62:	4398                	lw	a4,0(a5)
    be64:	843a                	mv	s0,a4
    be66:	e439                	bnez	s0,beb4 <_malloc_r+0x80>
    be68:	1fff4797          	auipc	a5,0x1fff4
    be6c:	31078793          	addi	a5,a5,784 # 20000178 <__malloc_sbrk_start>
    be70:	439c                	lw	a5,0(a5)
    be72:	eb81                	bnez	a5,be82 <_malloc_r+0x4e>
    be74:	4581                	li	a1,0
    be76:	854a                	mv	a0,s2
    be78:	22d9                	jal	c03e <_sbrk_r>
    be7a:	1fff4797          	auipc	a5,0x1fff4
    be7e:	2ea7af23          	sw	a0,766(a5) # 20000178 <__malloc_sbrk_start>
    be82:	85a6                	mv	a1,s1
    be84:	854a                	mv	a0,s2
    be86:	2a65                	jal	c03e <_sbrk_r>
    be88:	59fd                	li	s3,-1
    be8a:	07351b63          	bne	a0,s3,bf00 <_malloc_r+0xcc>
    be8e:	47b1                	li	a5,12
    be90:	00f92023          	sw	a5,0(s2)
    be94:	854a                	mv	a0,s2
    be96:	07f000ef          	jal	ra,c714 <__malloc_unlock>
    be9a:	a029                	j	bea4 <_malloc_r+0x70>
    be9c:	fa04dae3          	bgez	s1,be50 <_malloc_r+0x1c>
    bea0:	47b1                	li	a5,12
    bea2:	c11c                	sw	a5,0(a0)
    bea4:	4501                	li	a0,0
    bea6:	40f2                	lw	ra,28(sp)
    bea8:	4462                	lw	s0,24(sp)
    beaa:	44d2                	lw	s1,20(sp)
    beac:	4942                	lw	s2,16(sp)
    beae:	49b2                	lw	s3,12(sp)
    beb0:	6105                	addi	sp,sp,32
    beb2:	8082                	ret
    beb4:	401c                	lw	a5,0(s0)
    beb6:	8f85                	sub	a5,a5,s1
    beb8:	0407c163          	bltz	a5,befa <_malloc_r+0xc6>
    bebc:	46ad                	li	a3,11
    bebe:	00f6f663          	bgeu	a3,a5,beca <_malloc_r+0x96>
    bec2:	c01c                	sw	a5,0(s0)
    bec4:	943e                	add	s0,s0,a5
    bec6:	c004                	sw	s1,0(s0)
    bec8:	a801                	j	bed8 <_malloc_r+0xa4>
    beca:	405c                	lw	a5,4(s0)
    becc:	02871563          	bne	a4,s0,bef6 <_malloc_r+0xc2>
    bed0:	1fff4717          	auipc	a4,0x1fff4
    bed4:	2af72223          	sw	a5,676(a4) # 20000174 <__malloc_free_list>
    bed8:	854a                	mv	a0,s2
    beda:	03b000ef          	jal	ra,c714 <__malloc_unlock>
    bede:	00b40513          	addi	a0,s0,11
    bee2:	00440793          	addi	a5,s0,4
    bee6:	9961                	andi	a0,a0,-8
    bee8:	40f50733          	sub	a4,a0,a5
    beec:	df4d                	beqz	a4,bea6 <_malloc_r+0x72>
    beee:	943a                	add	s0,s0,a4
    bef0:	8f89                	sub	a5,a5,a0
    bef2:	c01c                	sw	a5,0(s0)
    bef4:	bf4d                	j	bea6 <_malloc_r+0x72>
    bef6:	c35c                	sw	a5,4(a4)
    bef8:	b7c5                	j	bed8 <_malloc_r+0xa4>
    befa:	8722                	mv	a4,s0
    befc:	4040                	lw	s0,4(s0)
    befe:	b7a5                	j	be66 <_malloc_r+0x32>
    bf00:	00350413          	addi	s0,a0,3
    bf04:	9871                	andi	s0,s0,-4
    bf06:	fc8500e3          	beq	a0,s0,bec6 <_malloc_r+0x92>
    bf0a:	40a405b3          	sub	a1,s0,a0
    bf0e:	854a                	mv	a0,s2
    bf10:	223d                	jal	c03e <_sbrk_r>
    bf12:	fb351ae3          	bne	a0,s3,bec6 <_malloc_r+0x92>
    bf16:	bfa5                	j	be8e <_malloc_r+0x5a>

0000bf18 <iprintf>:
    bf18:	7139                	addi	sp,sp,-64
    bf1a:	da3e                	sw	a5,52(sp)
    bf1c:	d22e                	sw	a1,36(sp)
    bf1e:	d432                	sw	a2,40(sp)
    bf20:	d636                	sw	a3,44(sp)
    bf22:	d83a                	sw	a4,48(sp)
    bf24:	dc42                	sw	a6,56(sp)
    bf26:	de46                	sw	a7,60(sp)
    bf28:	81c18793          	addi	a5,gp,-2020 # 2000009c <_impure_ptr>
    bf2c:	cc22                	sw	s0,24(sp)
    bf2e:	4380                	lw	s0,0(a5)
    bf30:	ca26                	sw	s1,20(sp)
    bf32:	ce06                	sw	ra,28(sp)
    bf34:	84aa                	mv	s1,a0
    bf36:	c409                	beqz	s0,bf40 <iprintf+0x28>
    bf38:	4c1c                	lw	a5,24(s0)
    bf3a:	e399                	bnez	a5,bf40 <iprintf+0x28>
    bf3c:	8522                	mv	a0,s0
    bf3e:	2385                	jal	c49e <__sinit>
    bf40:	440c                	lw	a1,8(s0)
    bf42:	1054                	addi	a3,sp,36
    bf44:	8626                	mv	a2,s1
    bf46:	8522                	mv	a0,s0
    bf48:	c636                	sw	a3,12(sp)
    bf4a:	03b000ef          	jal	ra,c784 <_vfiprintf_r>
    bf4e:	40f2                	lw	ra,28(sp)
    bf50:	4462                	lw	s0,24(sp)
    bf52:	44d2                	lw	s1,20(sp)
    bf54:	6121                	addi	sp,sp,64
    bf56:	8082                	ret

0000bf58 <_puts_r>:
    bf58:	1101                	addi	sp,sp,-32
    bf5a:	ca26                	sw	s1,20(sp)
    bf5c:	c84a                	sw	s2,16(sp)
    bf5e:	ce06                	sw	ra,28(sp)
    bf60:	cc22                	sw	s0,24(sp)
    bf62:	c64e                	sw	s3,12(sp)
    bf64:	c452                	sw	s4,8(sp)
    bf66:	84aa                	mv	s1,a0
    bf68:	892e                	mv	s2,a1
    bf6a:	c501                	beqz	a0,bf72 <_puts_r+0x1a>
    bf6c:	4d1c                	lw	a5,24(a0)
    bf6e:	e391                	bnez	a5,bf72 <_puts_r+0x1a>
    bf70:	233d                	jal	c49e <__sinit>
    bf72:	4c9c                	lw	a5,24(s1)
    bf74:	4480                	lw	s0,8(s1)
    bf76:	e399                	bnez	a5,bf7c <_puts_r+0x24>
    bf78:	8526                	mv	a0,s1
    bf7a:	2315                	jal	c49e <__sinit>
    bf7c:	00002797          	auipc	a5,0x2
    bf80:	a6c78793          	addi	a5,a5,-1428 # d9e8 <__sf_fake_stdin>
    bf84:	02f41c63          	bne	s0,a5,bfbc <_puts_r+0x64>
    bf88:	40c0                	lw	s0,4(s1)
    bf8a:	00c45783          	lhu	a5,12(s0)
    bf8e:	8ba1                	andi	a5,a5,8
    bf90:	c7b1                	beqz	a5,bfdc <_puts_r+0x84>
    bf92:	481c                	lw	a5,16(s0)
    bf94:	c7a1                	beqz	a5,bfdc <_puts_r+0x84>
    bf96:	59fd                	li	s3,-1
    bf98:	4a29                	li	s4,10
    bf9a:	441c                	lw	a5,8(s0)
    bf9c:	00094583          	lbu	a1,0(s2)
    bfa0:	17fd                	addi	a5,a5,-1
    bfa2:	e9b1                	bnez	a1,bff6 <_puts_r+0x9e>
    bfa4:	c41c                	sw	a5,8(s0)
    bfa6:	0607de63          	bgez	a5,c022 <_puts_r+0xca>
    bfaa:	8622                	mv	a2,s0
    bfac:	45a9                	li	a1,10
    bfae:	8526                	mv	a0,s1
    bfb0:	20c1                	jal	c070 <__swbuf_r>
    bfb2:	57fd                	li	a5,-1
    bfb4:	02f50863          	beq	a0,a5,bfe4 <_puts_r+0x8c>
    bfb8:	4529                	li	a0,10
    bfba:	a035                	j	bfe6 <_puts_r+0x8e>
    bfbc:	00002797          	auipc	a5,0x2
    bfc0:	a4c78793          	addi	a5,a5,-1460 # da08 <__sf_fake_stdout>
    bfc4:	00f41463          	bne	s0,a5,bfcc <_puts_r+0x74>
    bfc8:	4480                	lw	s0,8(s1)
    bfca:	b7c1                	j	bf8a <_puts_r+0x32>
    bfcc:	00002797          	auipc	a5,0x2
    bfd0:	9fc78793          	addi	a5,a5,-1540 # d9c8 <__sf_fake_stderr>
    bfd4:	faf41be3          	bne	s0,a5,bf8a <_puts_r+0x32>
    bfd8:	44c0                	lw	s0,12(s1)
    bfda:	bf45                	j	bf8a <_puts_r+0x32>
    bfdc:	85a2                	mv	a1,s0
    bfde:	8526                	mv	a0,s1
    bfe0:	2a81                	jal	c130 <__swsetup_r>
    bfe2:	d955                	beqz	a0,bf96 <_puts_r+0x3e>
    bfe4:	557d                	li	a0,-1
    bfe6:	40f2                	lw	ra,28(sp)
    bfe8:	4462                	lw	s0,24(sp)
    bfea:	44d2                	lw	s1,20(sp)
    bfec:	4942                	lw	s2,16(sp)
    bfee:	49b2                	lw	s3,12(sp)
    bff0:	4a22                	lw	s4,8(sp)
    bff2:	6105                	addi	sp,sp,32
    bff4:	8082                	ret
    bff6:	c41c                	sw	a5,8(s0)
    bff8:	0905                	addi	s2,s2,1
    bffa:	0007d763          	bgez	a5,c008 <_puts_r+0xb0>
    bffe:	4c18                	lw	a4,24(s0)
    c000:	00e7cb63          	blt	a5,a4,c016 <_puts_r+0xbe>
    c004:	01458963          	beq	a1,s4,c016 <_puts_r+0xbe>
    c008:	401c                	lw	a5,0(s0)
    c00a:	00178713          	addi	a4,a5,1
    c00e:	c018                	sw	a4,0(s0)
    c010:	00b78023          	sb	a1,0(a5)
    c014:	b759                	j	bf9a <_puts_r+0x42>
    c016:	8622                	mv	a2,s0
    c018:	8526                	mv	a0,s1
    c01a:	2899                	jal	c070 <__swbuf_r>
    c01c:	f7351fe3          	bne	a0,s3,bf9a <_puts_r+0x42>
    c020:	b7d1                	j	bfe4 <_puts_r+0x8c>
    c022:	401c                	lw	a5,0(s0)
    c024:	00178713          	addi	a4,a5,1
    c028:	c018                	sw	a4,0(s0)
    c02a:	4729                	li	a4,10
    c02c:	00e78023          	sb	a4,0(a5)
    c030:	b761                	j	bfb8 <_puts_r+0x60>

0000c032 <puts>:
    c032:	81c18793          	addi	a5,gp,-2020 # 2000009c <_impure_ptr>
    c036:	85aa                	mv	a1,a0
    c038:	4388                	lw	a0,0(a5)
    c03a:	f1fff06f          	j	bf58 <_puts_r>

0000c03e <_sbrk_r>:
    c03e:	1141                	addi	sp,sp,-16
    c040:	c422                	sw	s0,8(sp)
    c042:	842a                	mv	s0,a0
    c044:	852e                	mv	a0,a1
    c046:	1fff7797          	auipc	a5,0x1fff7
    c04a:	3a07af23          	sw	zero,958(a5) # 20003404 <errno>
    c04e:	c606                	sw	ra,12(sp)
    c050:	b32f80ef          	jal	ra,4382 <_sbrk>
    c054:	57fd                	li	a5,-1
    c056:	00f51963          	bne	a0,a5,c068 <_sbrk_r+0x2a>
    c05a:	1fff7797          	auipc	a5,0x1fff7
    c05e:	3aa78793          	addi	a5,a5,938 # 20003404 <errno>
    c062:	439c                	lw	a5,0(a5)
    c064:	c391                	beqz	a5,c068 <_sbrk_r+0x2a>
    c066:	c01c                	sw	a5,0(s0)
    c068:	40b2                	lw	ra,12(sp)
    c06a:	4422                	lw	s0,8(sp)
    c06c:	0141                	addi	sp,sp,16
    c06e:	8082                	ret

0000c070 <__swbuf_r>:
    c070:	1101                	addi	sp,sp,-32
    c072:	cc22                	sw	s0,24(sp)
    c074:	ca26                	sw	s1,20(sp)
    c076:	c84a                	sw	s2,16(sp)
    c078:	ce06                	sw	ra,28(sp)
    c07a:	c64e                	sw	s3,12(sp)
    c07c:	84aa                	mv	s1,a0
    c07e:	892e                	mv	s2,a1
    c080:	8432                	mv	s0,a2
    c082:	c501                	beqz	a0,c08a <__swbuf_r+0x1a>
    c084:	4d1c                	lw	a5,24(a0)
    c086:	e391                	bnez	a5,c08a <__swbuf_r+0x1a>
    c088:	2919                	jal	c49e <__sinit>
    c08a:	00002797          	auipc	a5,0x2
    c08e:	95e78793          	addi	a5,a5,-1698 # d9e8 <__sf_fake_stdin>
    c092:	06f41963          	bne	s0,a5,c104 <__swbuf_r+0x94>
    c096:	40c0                	lw	s0,4(s1)
    c098:	4c1c                	lw	a5,24(s0)
    c09a:	c41c                	sw	a5,8(s0)
    c09c:	00c45783          	lhu	a5,12(s0)
    c0a0:	8ba1                	andi	a5,a5,8
    c0a2:	c3c9                	beqz	a5,c124 <__swbuf_r+0xb4>
    c0a4:	481c                	lw	a5,16(s0)
    c0a6:	cfbd                	beqz	a5,c124 <__swbuf_r+0xb4>
    c0a8:	481c                	lw	a5,16(s0)
    c0aa:	4008                	lw	a0,0(s0)
    c0ac:	0ff97993          	andi	s3,s2,255
    c0b0:	0ff97913          	andi	s2,s2,255
    c0b4:	8d1d                	sub	a0,a0,a5
    c0b6:	485c                	lw	a5,20(s0)
    c0b8:	00f54663          	blt	a0,a5,c0c4 <__swbuf_r+0x54>
    c0bc:	85a2                	mv	a1,s0
    c0be:	8526                	mv	a0,s1
    c0c0:	2c75                	jal	c37c <_fflush_r>
    c0c2:	e52d                	bnez	a0,c12c <__swbuf_r+0xbc>
    c0c4:	441c                	lw	a5,8(s0)
    c0c6:	0505                	addi	a0,a0,1
    c0c8:	17fd                	addi	a5,a5,-1
    c0ca:	c41c                	sw	a5,8(s0)
    c0cc:	401c                	lw	a5,0(s0)
    c0ce:	00178713          	addi	a4,a5,1
    c0d2:	c018                	sw	a4,0(s0)
    c0d4:	01378023          	sb	s3,0(a5)
    c0d8:	485c                	lw	a5,20(s0)
    c0da:	00a78963          	beq	a5,a0,c0ec <__swbuf_r+0x7c>
    c0de:	00c45783          	lhu	a5,12(s0)
    c0e2:	8b85                	andi	a5,a5,1
    c0e4:	cb81                	beqz	a5,c0f4 <__swbuf_r+0x84>
    c0e6:	47a9                	li	a5,10
    c0e8:	00f91663          	bne	s2,a5,c0f4 <__swbuf_r+0x84>
    c0ec:	85a2                	mv	a1,s0
    c0ee:	8526                	mv	a0,s1
    c0f0:	2471                	jal	c37c <_fflush_r>
    c0f2:	ed0d                	bnez	a0,c12c <__swbuf_r+0xbc>
    c0f4:	40f2                	lw	ra,28(sp)
    c0f6:	4462                	lw	s0,24(sp)
    c0f8:	854a                	mv	a0,s2
    c0fa:	44d2                	lw	s1,20(sp)
    c0fc:	4942                	lw	s2,16(sp)
    c0fe:	49b2                	lw	s3,12(sp)
    c100:	6105                	addi	sp,sp,32
    c102:	8082                	ret
    c104:	00002797          	auipc	a5,0x2
    c108:	90478793          	addi	a5,a5,-1788 # da08 <__sf_fake_stdout>
    c10c:	00f41463          	bne	s0,a5,c114 <__swbuf_r+0xa4>
    c110:	4480                	lw	s0,8(s1)
    c112:	b759                	j	c098 <__swbuf_r+0x28>
    c114:	00002797          	auipc	a5,0x2
    c118:	8b478793          	addi	a5,a5,-1868 # d9c8 <__sf_fake_stderr>
    c11c:	f6f41ee3          	bne	s0,a5,c098 <__swbuf_r+0x28>
    c120:	44c0                	lw	s0,12(s1)
    c122:	bf9d                	j	c098 <__swbuf_r+0x28>
    c124:	85a2                	mv	a1,s0
    c126:	8526                	mv	a0,s1
    c128:	2021                	jal	c130 <__swsetup_r>
    c12a:	dd3d                	beqz	a0,c0a8 <__swbuf_r+0x38>
    c12c:	597d                	li	s2,-1
    c12e:	b7d9                	j	c0f4 <__swbuf_r+0x84>

0000c130 <__swsetup_r>:
    c130:	1141                	addi	sp,sp,-16
    c132:	81c18793          	addi	a5,gp,-2020 # 2000009c <_impure_ptr>
    c136:	c226                	sw	s1,4(sp)
    c138:	4384                	lw	s1,0(a5)
    c13a:	c422                	sw	s0,8(sp)
    c13c:	c04a                	sw	s2,0(sp)
    c13e:	c606                	sw	ra,12(sp)
    c140:	892a                	mv	s2,a0
    c142:	842e                	mv	s0,a1
    c144:	c489                	beqz	s1,c14e <__swsetup_r+0x1e>
    c146:	4c9c                	lw	a5,24(s1)
    c148:	e399                	bnez	a5,c14e <__swsetup_r+0x1e>
    c14a:	8526                	mv	a0,s1
    c14c:	2e89                	jal	c49e <__sinit>
    c14e:	00002797          	auipc	a5,0x2
    c152:	89a78793          	addi	a5,a5,-1894 # d9e8 <__sf_fake_stdin>
    c156:	02f41c63          	bne	s0,a5,c18e <__swsetup_r+0x5e>
    c15a:	40c0                	lw	s0,4(s1)
    c15c:	00c41703          	lh	a4,12(s0)
    c160:	01071793          	slli	a5,a4,0x10
    c164:	83c1                	srli	a5,a5,0x10
    c166:	0087f693          	andi	a3,a5,8
    c16a:	eebd                	bnez	a3,c1e8 <__swsetup_r+0xb8>
    c16c:	0107f693          	andi	a3,a5,16
    c170:	ee9d                	bnez	a3,c1ae <__swsetup_r+0x7e>
    c172:	47a5                	li	a5,9
    c174:	00f92023          	sw	a5,0(s2)
    c178:	04076713          	ori	a4,a4,64
    c17c:	00e41623          	sh	a4,12(s0)
    c180:	557d                	li	a0,-1
    c182:	40b2                	lw	ra,12(sp)
    c184:	4422                	lw	s0,8(sp)
    c186:	4492                	lw	s1,4(sp)
    c188:	4902                	lw	s2,0(sp)
    c18a:	0141                	addi	sp,sp,16
    c18c:	8082                	ret
    c18e:	00002797          	auipc	a5,0x2
    c192:	87a78793          	addi	a5,a5,-1926 # da08 <__sf_fake_stdout>
    c196:	00f41463          	bne	s0,a5,c19e <__swsetup_r+0x6e>
    c19a:	4480                	lw	s0,8(s1)
    c19c:	b7c1                	j	c15c <__swsetup_r+0x2c>
    c19e:	00002797          	auipc	a5,0x2
    c1a2:	82a78793          	addi	a5,a5,-2006 # d9c8 <__sf_fake_stderr>
    c1a6:	faf41be3          	bne	s0,a5,c15c <__swsetup_r+0x2c>
    c1aa:	44c0                	lw	s0,12(s1)
    c1ac:	bf45                	j	c15c <__swsetup_r+0x2c>
    c1ae:	8b91                	andi	a5,a5,4
    c1b0:	c795                	beqz	a5,c1dc <__swsetup_r+0xac>
    c1b2:	584c                	lw	a1,52(s0)
    c1b4:	c991                	beqz	a1,c1c8 <__swsetup_r+0x98>
    c1b6:	04440793          	addi	a5,s0,68
    c1ba:	00f58563          	beq	a1,a5,c1c4 <__swsetup_r+0x94>
    c1be:	854a                	mv	a0,s2
    c1c0:	bc5ff0ef          	jal	ra,bd84 <_free_r>
    c1c4:	02042a23          	sw	zero,52(s0)
    c1c8:	00c45783          	lhu	a5,12(s0)
    c1cc:	00042223          	sw	zero,4(s0)
    c1d0:	fdb7f793          	andi	a5,a5,-37
    c1d4:	00f41623          	sh	a5,12(s0)
    c1d8:	481c                	lw	a5,16(s0)
    c1da:	c01c                	sw	a5,0(s0)
    c1dc:	00c45783          	lhu	a5,12(s0)
    c1e0:	0087e793          	ori	a5,a5,8
    c1e4:	00f41623          	sh	a5,12(s0)
    c1e8:	481c                	lw	a5,16(s0)
    c1ea:	ef81                	bnez	a5,c202 <__swsetup_r+0xd2>
    c1ec:	00c45783          	lhu	a5,12(s0)
    c1f0:	20000713          	li	a4,512
    c1f4:	2807f793          	andi	a5,a5,640
    c1f8:	00e78563          	beq	a5,a4,c202 <__swsetup_r+0xd2>
    c1fc:	85a2                	mv	a1,s0
    c1fe:	854a                	mv	a0,s2
    c200:	2985                	jal	c670 <__smakebuf_r>
    c202:	00c45783          	lhu	a5,12(s0)
    c206:	0017f713          	andi	a4,a5,1
    c20a:	c705                	beqz	a4,c232 <__swsetup_r+0x102>
    c20c:	485c                	lw	a5,20(s0)
    c20e:	00042423          	sw	zero,8(s0)
    c212:	40f007b3          	neg	a5,a5
    c216:	cc1c                	sw	a5,24(s0)
    c218:	481c                	lw	a5,16(s0)
    c21a:	4501                	li	a0,0
    c21c:	f3bd                	bnez	a5,c182 <__swsetup_r+0x52>
    c21e:	00c41783          	lh	a5,12(s0)
    c222:	0807f713          	andi	a4,a5,128
    c226:	df31                	beqz	a4,c182 <__swsetup_r+0x52>
    c228:	0407e793          	ori	a5,a5,64
    c22c:	00f41623          	sh	a5,12(s0)
    c230:	bf81                	j	c180 <__swsetup_r+0x50>
    c232:	8b89                	andi	a5,a5,2
    c234:	4701                	li	a4,0
    c236:	e391                	bnez	a5,c23a <__swsetup_r+0x10a>
    c238:	4858                	lw	a4,20(s0)
    c23a:	c418                	sw	a4,8(s0)
    c23c:	bff1                	j	c218 <__swsetup_r+0xe8>

0000c23e <__sflush_r>:
    c23e:	00c5d783          	lhu	a5,12(a1)
    c242:	1101                	addi	sp,sp,-32
    c244:	cc22                	sw	s0,24(sp)
    c246:	ca26                	sw	s1,20(sp)
    c248:	ce06                	sw	ra,28(sp)
    c24a:	c84a                	sw	s2,16(sp)
    c24c:	c64e                	sw	s3,12(sp)
    c24e:	0087f713          	andi	a4,a5,8
    c252:	84aa                	mv	s1,a0
    c254:	842e                	mv	s0,a1
    c256:	ef79                	bnez	a4,c334 <__sflush_r+0xf6>
    c258:	41d8                	lw	a4,4(a1)
    c25a:	00e04d63          	bgtz	a4,c274 <__sflush_r+0x36>
    c25e:	41b8                	lw	a4,64(a1)
    c260:	00e04a63          	bgtz	a4,c274 <__sflush_r+0x36>
    c264:	4501                	li	a0,0
    c266:	40f2                	lw	ra,28(sp)
    c268:	4462                	lw	s0,24(sp)
    c26a:	44d2                	lw	s1,20(sp)
    c26c:	4942                	lw	s2,16(sp)
    c26e:	49b2                	lw	s3,12(sp)
    c270:	6105                	addi	sp,sp,32
    c272:	8082                	ret
    c274:	5458                	lw	a4,44(s0)
    c276:	d77d                	beqz	a4,c264 <__sflush_r+0x26>
    c278:	0004a903          	lw	s2,0(s1)
    c27c:	01379693          	slli	a3,a5,0x13
    c280:	0004a023          	sw	zero,0(s1)
    c284:	0606de63          	bgez	a3,c300 <__sflush_r+0xc2>
    c288:	4870                	lw	a2,84(s0)
    c28a:	00c45783          	lhu	a5,12(s0)
    c28e:	8b91                	andi	a5,a5,4
    c290:	c799                	beqz	a5,c29e <__sflush_r+0x60>
    c292:	405c                	lw	a5,4(s0)
    c294:	8e1d                	sub	a2,a2,a5
    c296:	585c                	lw	a5,52(s0)
    c298:	c399                	beqz	a5,c29e <__sflush_r+0x60>
    c29a:	403c                	lw	a5,64(s0)
    c29c:	8e1d                	sub	a2,a2,a5
    c29e:	545c                	lw	a5,44(s0)
    c2a0:	500c                	lw	a1,32(s0)
    c2a2:	4681                	li	a3,0
    c2a4:	8526                	mv	a0,s1
    c2a6:	9782                	jalr	a5
    c2a8:	57fd                	li	a5,-1
    c2aa:	00c45703          	lhu	a4,12(s0)
    c2ae:	00f51d63          	bne	a0,a5,c2c8 <__sflush_r+0x8a>
    c2b2:	4094                	lw	a3,0(s1)
    c2b4:	47f5                	li	a5,29
    c2b6:	06d7e963          	bltu	a5,a3,c328 <__sflush_r+0xea>
    c2ba:	204007b7          	lui	a5,0x20400
    c2be:	0785                	addi	a5,a5,1
    c2c0:	00d7d7b3          	srl	a5,a5,a3
    c2c4:	8b85                	andi	a5,a5,1
    c2c6:	c3ad                	beqz	a5,c328 <__sflush_r+0xea>
    c2c8:	481c                	lw	a5,16(s0)
    c2ca:	00042223          	sw	zero,4(s0)
    c2ce:	c01c                	sw	a5,0(s0)
    c2d0:	01371793          	slli	a5,a4,0x13
    c2d4:	0007d863          	bgez	a5,c2e4 <__sflush_r+0xa6>
    c2d8:	57fd                	li	a5,-1
    c2da:	00f51463          	bne	a0,a5,c2e2 <__sflush_r+0xa4>
    c2de:	409c                	lw	a5,0(s1)
    c2e0:	e391                	bnez	a5,c2e4 <__sflush_r+0xa6>
    c2e2:	c868                	sw	a0,84(s0)
    c2e4:	584c                	lw	a1,52(s0)
    c2e6:	0124a023          	sw	s2,0(s1)
    c2ea:	ddad                	beqz	a1,c264 <__sflush_r+0x26>
    c2ec:	04440793          	addi	a5,s0,68
    c2f0:	00f58563          	beq	a1,a5,c2fa <__sflush_r+0xbc>
    c2f4:	8526                	mv	a0,s1
    c2f6:	a8fff0ef          	jal	ra,bd84 <_free_r>
    c2fa:	02042a23          	sw	zero,52(s0)
    c2fe:	b79d                	j	c264 <__sflush_r+0x26>
    c300:	500c                	lw	a1,32(s0)
    c302:	4601                	li	a2,0
    c304:	4685                	li	a3,1
    c306:	8526                	mv	a0,s1
    c308:	9702                	jalr	a4
    c30a:	57fd                	li	a5,-1
    c30c:	862a                	mv	a2,a0
    c30e:	f6f51ee3          	bne	a0,a5,c28a <__sflush_r+0x4c>
    c312:	409c                	lw	a5,0(s1)
    c314:	dbbd                	beqz	a5,c28a <__sflush_r+0x4c>
    c316:	4775                	li	a4,29
    c318:	00e78563          	beq	a5,a4,c322 <__sflush_r+0xe4>
    c31c:	4759                	li	a4,22
    c31e:	04e79463          	bne	a5,a4,c366 <__sflush_r+0x128>
    c322:	0124a023          	sw	s2,0(s1)
    c326:	bf3d                	j	c264 <__sflush_r+0x26>
    c328:	04076713          	ori	a4,a4,64
    c32c:	00e41623          	sh	a4,12(s0)
    c330:	557d                	li	a0,-1
    c332:	bf15                	j	c266 <__sflush_r+0x28>
    c334:	0105a983          	lw	s3,16(a1)
    c338:	f20986e3          	beqz	s3,c264 <__sflush_r+0x26>
    c33c:	0005a903          	lw	s2,0(a1)
    c340:	8b8d                	andi	a5,a5,3
    c342:	0135a023          	sw	s3,0(a1)
    c346:	41390933          	sub	s2,s2,s3
    c34a:	4701                	li	a4,0
    c34c:	e391                	bnez	a5,c350 <__sflush_r+0x112>
    c34e:	49d8                	lw	a4,20(a1)
    c350:	c418                	sw	a4,8(s0)
    c352:	f12059e3          	blez	s2,c264 <__sflush_r+0x26>
    c356:	541c                	lw	a5,40(s0)
    c358:	500c                	lw	a1,32(s0)
    c35a:	86ca                	mv	a3,s2
    c35c:	864e                	mv	a2,s3
    c35e:	8526                	mv	a0,s1
    c360:	9782                	jalr	a5
    c362:	00a04963          	bgtz	a0,c374 <__sflush_r+0x136>
    c366:	00c45783          	lhu	a5,12(s0)
    c36a:	0407e793          	ori	a5,a5,64
    c36e:	00f41623          	sh	a5,12(s0)
    c372:	bf7d                	j	c330 <__sflush_r+0xf2>
    c374:	99aa                	add	s3,s3,a0
    c376:	40a90933          	sub	s2,s2,a0
    c37a:	bfe1                	j	c352 <__sflush_r+0x114>

0000c37c <_fflush_r>:
    c37c:	499c                	lw	a5,16(a1)
    c37e:	c3a5                	beqz	a5,c3de <_fflush_r+0x62>
    c380:	1101                	addi	sp,sp,-32
    c382:	cc22                	sw	s0,24(sp)
    c384:	ce06                	sw	ra,28(sp)
    c386:	842a                	mv	s0,a0
    c388:	c511                	beqz	a0,c394 <_fflush_r+0x18>
    c38a:	4d1c                	lw	a5,24(a0)
    c38c:	e781                	bnez	a5,c394 <_fflush_r+0x18>
    c38e:	c62e                	sw	a1,12(sp)
    c390:	2239                	jal	c49e <__sinit>
    c392:	45b2                	lw	a1,12(sp)
    c394:	00001797          	auipc	a5,0x1
    c398:	65478793          	addi	a5,a5,1620 # d9e8 <__sf_fake_stdin>
    c39c:	00f59c63          	bne	a1,a5,c3b4 <_fflush_r+0x38>
    c3a0:	404c                	lw	a1,4(s0)
    c3a2:	00c59783          	lh	a5,12(a1)
    c3a6:	c79d                	beqz	a5,c3d4 <_fflush_r+0x58>
    c3a8:	8522                	mv	a0,s0
    c3aa:	4462                	lw	s0,24(sp)
    c3ac:	40f2                	lw	ra,28(sp)
    c3ae:	6105                	addi	sp,sp,32
    c3b0:	e8fff06f          	j	c23e <__sflush_r>
    c3b4:	00001797          	auipc	a5,0x1
    c3b8:	65478793          	addi	a5,a5,1620 # da08 <__sf_fake_stdout>
    c3bc:	00f59463          	bne	a1,a5,c3c4 <_fflush_r+0x48>
    c3c0:	440c                	lw	a1,8(s0)
    c3c2:	b7c5                	j	c3a2 <_fflush_r+0x26>
    c3c4:	00001797          	auipc	a5,0x1
    c3c8:	60478793          	addi	a5,a5,1540 # d9c8 <__sf_fake_stderr>
    c3cc:	fcf59be3          	bne	a1,a5,c3a2 <_fflush_r+0x26>
    c3d0:	444c                	lw	a1,12(s0)
    c3d2:	bfc1                	j	c3a2 <_fflush_r+0x26>
    c3d4:	40f2                	lw	ra,28(sp)
    c3d6:	4462                	lw	s0,24(sp)
    c3d8:	4501                	li	a0,0
    c3da:	6105                	addi	sp,sp,32
    c3dc:	8082                	ret
    c3de:	4501                	li	a0,0
    c3e0:	8082                	ret

0000c3e2 <std>:
    c3e2:	1141                	addi	sp,sp,-16
    c3e4:	c422                	sw	s0,8(sp)
    c3e6:	c606                	sw	ra,12(sp)
    c3e8:	842a                	mv	s0,a0
    c3ea:	00b51623          	sh	a1,12(a0)
    c3ee:	00c51723          	sh	a2,14(a0)
    c3f2:	00052023          	sw	zero,0(a0)
    c3f6:	00052223          	sw	zero,4(a0)
    c3fa:	00052423          	sw	zero,8(a0)
    c3fe:	06052223          	sw	zero,100(a0)
    c402:	00052823          	sw	zero,16(a0)
    c406:	00052a23          	sw	zero,20(a0)
    c40a:	00052c23          	sw	zero,24(a0)
    c40e:	4621                	li	a2,8
    c410:	4581                	li	a1,0
    c412:	05c50513          	addi	a0,a0,92
    c416:	938f40ef          	jal	ra,54e <memset>
    c41a:	00001797          	auipc	a5,0x1
    c41e:	9bc78793          	addi	a5,a5,-1604 # cdd6 <__sread>
    c422:	d05c                	sw	a5,36(s0)
    c424:	00001797          	auipc	a5,0x1
    c428:	9e278793          	addi	a5,a5,-1566 # ce06 <__swrite>
    c42c:	d41c                	sw	a5,40(s0)
    c42e:	00001797          	auipc	a5,0x1
    c432:	a2678793          	addi	a5,a5,-1498 # ce54 <__sseek>
    c436:	d45c                	sw	a5,44(s0)
    c438:	00001797          	auipc	a5,0x1
    c43c:	a5278793          	addi	a5,a5,-1454 # ce8a <__sclose>
    c440:	d000                	sw	s0,32(s0)
    c442:	d81c                	sw	a5,48(s0)
    c444:	40b2                	lw	ra,12(sp)
    c446:	4422                	lw	s0,8(sp)
    c448:	0141                	addi	sp,sp,16
    c44a:	8082                	ret

0000c44c <_cleanup_r>:
    c44c:	00000597          	auipc	a1,0x0
    c450:	f3058593          	addi	a1,a1,-208 # c37c <_fflush_r>
    c454:	aa99                	j	c5aa <_fwalk_reent>

0000c456 <__sfmoreglue>:
    c456:	1141                	addi	sp,sp,-16
    c458:	c226                	sw	s1,4(sp)
    c45a:	06800613          	li	a2,104
    c45e:	fff58493          	addi	s1,a1,-1
    c462:	02c484b3          	mul	s1,s1,a2
    c466:	c04a                	sw	s2,0(sp)
    c468:	892e                	mv	s2,a1
    c46a:	c422                	sw	s0,8(sp)
    c46c:	c606                	sw	ra,12(sp)
    c46e:	07448593          	addi	a1,s1,116
    c472:	9c3ff0ef          	jal	ra,be34 <_malloc_r>
    c476:	842a                	mv	s0,a0
    c478:	cd01                	beqz	a0,c490 <__sfmoreglue+0x3a>
    c47a:	00052023          	sw	zero,0(a0)
    c47e:	01252223          	sw	s2,4(a0)
    c482:	0531                	addi	a0,a0,12
    c484:	c408                	sw	a0,8(s0)
    c486:	06848613          	addi	a2,s1,104
    c48a:	4581                	li	a1,0
    c48c:	8c2f40ef          	jal	ra,54e <memset>
    c490:	8522                	mv	a0,s0
    c492:	40b2                	lw	ra,12(sp)
    c494:	4422                	lw	s0,8(sp)
    c496:	4492                	lw	s1,4(sp)
    c498:	4902                	lw	s2,0(sp)
    c49a:	0141                	addi	sp,sp,16
    c49c:	8082                	ret

0000c49e <__sinit>:
    c49e:	4d1c                	lw	a5,24(a0)
    c4a0:	e7a5                	bnez	a5,c508 <__sinit+0x6a>
    c4a2:	1141                	addi	sp,sp,-16
    c4a4:	c606                	sw	ra,12(sp)
    c4a6:	c422                	sw	s0,8(sp)
    c4a8:	00000797          	auipc	a5,0x0
    c4ac:	fa478793          	addi	a5,a5,-92 # c44c <_cleanup_r>
    c4b0:	d51c                	sw	a5,40(a0)
    c4b2:	82418793          	addi	a5,gp,-2012 # 200000a4 <_global_impure_ptr>
    c4b6:	439c                	lw	a5,0(a5)
    c4b8:	04052423          	sw	zero,72(a0)
    c4bc:	04052623          	sw	zero,76(a0)
    c4c0:	04052823          	sw	zero,80(a0)
    c4c4:	00f51463          	bne	a0,a5,c4cc <__sinit+0x2e>
    c4c8:	4785                	li	a5,1
    c4ca:	cd1c                	sw	a5,24(a0)
    c4cc:	842a                	mv	s0,a0
    c4ce:	2835                	jal	c50a <__sfp>
    c4d0:	c048                	sw	a0,4(s0)
    c4d2:	8522                	mv	a0,s0
    c4d4:	281d                	jal	c50a <__sfp>
    c4d6:	c408                	sw	a0,8(s0)
    c4d8:	8522                	mv	a0,s0
    c4da:	2805                	jal	c50a <__sfp>
    c4dc:	c448                	sw	a0,12(s0)
    c4de:	4048                	lw	a0,4(s0)
    c4e0:	4601                	li	a2,0
    c4e2:	4591                	li	a1,4
    c4e4:	effff0ef          	jal	ra,c3e2 <std>
    c4e8:	4408                	lw	a0,8(s0)
    c4ea:	4605                	li	a2,1
    c4ec:	45a5                	li	a1,9
    c4ee:	ef5ff0ef          	jal	ra,c3e2 <std>
    c4f2:	4448                	lw	a0,12(s0)
    c4f4:	4609                	li	a2,2
    c4f6:	45c9                	li	a1,18
    c4f8:	eebff0ef          	jal	ra,c3e2 <std>
    c4fc:	4785                	li	a5,1
    c4fe:	cc1c                	sw	a5,24(s0)
    c500:	40b2                	lw	ra,12(sp)
    c502:	4422                	lw	s0,8(sp)
    c504:	0141                	addi	sp,sp,16
    c506:	8082                	ret
    c508:	8082                	ret

0000c50a <__sfp>:
    c50a:	1141                	addi	sp,sp,-16
    c50c:	82418793          	addi	a5,gp,-2012 # 200000a4 <_global_impure_ptr>
    c510:	c226                	sw	s1,4(sp)
    c512:	4384                	lw	s1,0(a5)
    c514:	c04a                	sw	s2,0(sp)
    c516:	c606                	sw	ra,12(sp)
    c518:	4c9c                	lw	a5,24(s1)
    c51a:	c422                	sw	s0,8(sp)
    c51c:	892a                	mv	s2,a0
    c51e:	e781                	bnez	a5,c526 <__sfp+0x1c>
    c520:	8526                	mv	a0,s1
    c522:	f7dff0ef          	jal	ra,c49e <__sinit>
    c526:	04848493          	addi	s1,s1,72
    c52a:	4480                	lw	s0,8(s1)
    c52c:	40dc                	lw	a5,4(s1)
    c52e:	17fd                	addi	a5,a5,-1
    c530:	0007d663          	bgez	a5,c53c <__sfp+0x32>
    c534:	409c                	lw	a5,0(s1)
    c536:	cfb9                	beqz	a5,c594 <__sfp+0x8a>
    c538:	4084                	lw	s1,0(s1)
    c53a:	bfc5                	j	c52a <__sfp+0x20>
    c53c:	00c41703          	lh	a4,12(s0)
    c540:	e739                	bnez	a4,c58e <__sfp+0x84>
    c542:	77c1                	lui	a5,0xffff0
    c544:	0785                	addi	a5,a5,1
    c546:	06042223          	sw	zero,100(s0)
    c54a:	00042023          	sw	zero,0(s0)
    c54e:	00042223          	sw	zero,4(s0)
    c552:	00042423          	sw	zero,8(s0)
    c556:	c45c                	sw	a5,12(s0)
    c558:	00042823          	sw	zero,16(s0)
    c55c:	00042a23          	sw	zero,20(s0)
    c560:	00042c23          	sw	zero,24(s0)
    c564:	4621                	li	a2,8
    c566:	4581                	li	a1,0
    c568:	05c40513          	addi	a0,s0,92
    c56c:	fe3f30ef          	jal	ra,54e <memset>
    c570:	02042a23          	sw	zero,52(s0)
    c574:	02042c23          	sw	zero,56(s0)
    c578:	04042423          	sw	zero,72(s0)
    c57c:	04042623          	sw	zero,76(s0)
    c580:	8522                	mv	a0,s0
    c582:	40b2                	lw	ra,12(sp)
    c584:	4422                	lw	s0,8(sp)
    c586:	4492                	lw	s1,4(sp)
    c588:	4902                	lw	s2,0(sp)
    c58a:	0141                	addi	sp,sp,16
    c58c:	8082                	ret
    c58e:	06840413          	addi	s0,s0,104
    c592:	bf71                	j	c52e <__sfp+0x24>
    c594:	4591                	li	a1,4
    c596:	854a                	mv	a0,s2
    c598:	ebfff0ef          	jal	ra,c456 <__sfmoreglue>
    c59c:	c088                	sw	a0,0(s1)
    c59e:	fd49                	bnez	a0,c538 <__sfp+0x2e>
    c5a0:	47b1                	li	a5,12
    c5a2:	00f92023          	sw	a5,0(s2)
    c5a6:	4401                	li	s0,0
    c5a8:	bfe1                	j	c580 <__sfp+0x76>

0000c5aa <_fwalk_reent>:
    c5aa:	7179                	addi	sp,sp,-48
    c5ac:	d422                	sw	s0,40(sp)
    c5ae:	d04a                	sw	s2,32(sp)
    c5b0:	cc52                	sw	s4,24(sp)
    c5b2:	ca56                	sw	s5,20(sp)
    c5b4:	c85a                	sw	s6,16(sp)
    c5b6:	c65e                	sw	s7,12(sp)
    c5b8:	d606                	sw	ra,44(sp)
    c5ba:	d226                	sw	s1,36(sp)
    c5bc:	ce4e                	sw	s3,28(sp)
    c5be:	8a2a                	mv	s4,a0
    c5c0:	8aae                	mv	s5,a1
    c5c2:	04850413          	addi	s0,a0,72
    c5c6:	4901                	li	s2,0
    c5c8:	4b05                	li	s6,1
    c5ca:	5bfd                	li	s7,-1
    c5cc:	ec09                	bnez	s0,c5e6 <_fwalk_reent+0x3c>
    c5ce:	50b2                	lw	ra,44(sp)
    c5d0:	5422                	lw	s0,40(sp)
    c5d2:	854a                	mv	a0,s2
    c5d4:	5492                	lw	s1,36(sp)
    c5d6:	5902                	lw	s2,32(sp)
    c5d8:	49f2                	lw	s3,28(sp)
    c5da:	4a62                	lw	s4,24(sp)
    c5dc:	4ad2                	lw	s5,20(sp)
    c5de:	4b42                	lw	s6,16(sp)
    c5e0:	4bb2                	lw	s7,12(sp)
    c5e2:	6145                	addi	sp,sp,48
    c5e4:	8082                	ret
    c5e6:	4404                	lw	s1,8(s0)
    c5e8:	00442983          	lw	s3,4(s0)
    c5ec:	19fd                	addi	s3,s3,-1
    c5ee:	0009d463          	bgez	s3,c5f6 <_fwalk_reent+0x4c>
    c5f2:	4000                	lw	s0,0(s0)
    c5f4:	bfe1                	j	c5cc <_fwalk_reent+0x22>
    c5f6:	00c4d783          	lhu	a5,12(s1)
    c5fa:	00fb7b63          	bgeu	s6,a5,c610 <_fwalk_reent+0x66>
    c5fe:	00e49783          	lh	a5,14(s1)
    c602:	01778763          	beq	a5,s7,c610 <_fwalk_reent+0x66>
    c606:	85a6                	mv	a1,s1
    c608:	8552                	mv	a0,s4
    c60a:	9a82                	jalr	s5
    c60c:	00a96933          	or	s2,s2,a0
    c610:	06848493          	addi	s1,s1,104
    c614:	bfe1                	j	c5ec <_fwalk_reent+0x42>

0000c616 <__swhatbuf_r>:
    c616:	7119                	addi	sp,sp,-128
    c618:	daa6                	sw	s1,116(sp)
    c61a:	84ae                	mv	s1,a1
    c61c:	00e59583          	lh	a1,14(a1)
    c620:	dca2                	sw	s0,120(sp)
    c622:	de86                	sw	ra,124(sp)
    c624:	8432                	mv	s0,a2
    c626:	0005dc63          	bgez	a1,c63e <__swhatbuf_r+0x28>
    c62a:	00c4d783          	lhu	a5,12(s1)
    c62e:	0006a023          	sw	zero,0(a3)
    c632:	0807f793          	andi	a5,a5,128
    c636:	e785                	bnez	a5,c65e <__swhatbuf_r+0x48>
    c638:	40000793          	li	a5,1024
    c63c:	a01d                	j	c662 <__swhatbuf_r+0x4c>
    c63e:	0830                	addi	a2,sp,24
    c640:	c636                	sw	a3,12(sp)
    c642:	0b5000ef          	jal	ra,cef6 <_fstat_r>
    c646:	46b2                	lw	a3,12(sp)
    c648:	fe0541e3          	bltz	a0,c62a <__swhatbuf_r+0x14>
    c64c:	4772                	lw	a4,28(sp)
    c64e:	67bd                	lui	a5,0xf
    c650:	8ff9                	and	a5,a5,a4
    c652:	7779                	lui	a4,0xffffe
    c654:	97ba                	add	a5,a5,a4
    c656:	0017b793          	seqz	a5,a5
    c65a:	c29c                	sw	a5,0(a3)
    c65c:	bff1                	j	c638 <__swhatbuf_r+0x22>
    c65e:	04000793          	li	a5,64
    c662:	c01c                	sw	a5,0(s0)
    c664:	50f6                	lw	ra,124(sp)
    c666:	5466                	lw	s0,120(sp)
    c668:	54d6                	lw	s1,116(sp)
    c66a:	4501                	li	a0,0
    c66c:	6109                	addi	sp,sp,128
    c66e:	8082                	ret

0000c670 <__smakebuf_r>:
    c670:	00c5d783          	lhu	a5,12(a1)
    c674:	1101                	addi	sp,sp,-32
    c676:	cc22                	sw	s0,24(sp)
    c678:	ce06                	sw	ra,28(sp)
    c67a:	ca26                	sw	s1,20(sp)
    c67c:	c84a                	sw	s2,16(sp)
    c67e:	8b89                	andi	a5,a5,2
    c680:	842e                	mv	s0,a1
    c682:	cf89                	beqz	a5,c69c <__smakebuf_r+0x2c>
    c684:	04740793          	addi	a5,s0,71
    c688:	c01c                	sw	a5,0(s0)
    c68a:	c81c                	sw	a5,16(s0)
    c68c:	4785                	li	a5,1
    c68e:	c85c                	sw	a5,20(s0)
    c690:	40f2                	lw	ra,28(sp)
    c692:	4462                	lw	s0,24(sp)
    c694:	44d2                	lw	s1,20(sp)
    c696:	4942                	lw	s2,16(sp)
    c698:	6105                	addi	sp,sp,32
    c69a:	8082                	ret
    c69c:	0074                	addi	a3,sp,12
    c69e:	0030                	addi	a2,sp,8
    c6a0:	84aa                	mv	s1,a0
    c6a2:	f75ff0ef          	jal	ra,c616 <__swhatbuf_r>
    c6a6:	45a2                	lw	a1,8(sp)
    c6a8:	892a                	mv	s2,a0
    c6aa:	8526                	mv	a0,s1
    c6ac:	f88ff0ef          	jal	ra,be34 <_malloc_r>
    c6b0:	ed01                	bnez	a0,c6c8 <__smakebuf_r+0x58>
    c6b2:	00c41783          	lh	a5,12(s0)
    c6b6:	2007f713          	andi	a4,a5,512
    c6ba:	fb79                	bnez	a4,c690 <__smakebuf_r+0x20>
    c6bc:	9bf1                	andi	a5,a5,-4
    c6be:	0027e793          	ori	a5,a5,2
    c6c2:	00f41623          	sh	a5,12(s0)
    c6c6:	bf7d                	j	c684 <__smakebuf_r+0x14>
    c6c8:	00000797          	auipc	a5,0x0
    c6cc:	d8478793          	addi	a5,a5,-636 # c44c <_cleanup_r>
    c6d0:	d49c                	sw	a5,40(s1)
    c6d2:	00c45783          	lhu	a5,12(s0)
    c6d6:	c008                	sw	a0,0(s0)
    c6d8:	c808                	sw	a0,16(s0)
    c6da:	0807e793          	ori	a5,a5,128
    c6de:	00f41623          	sh	a5,12(s0)
    c6e2:	47a2                	lw	a5,8(sp)
    c6e4:	c85c                	sw	a5,20(s0)
    c6e6:	47b2                	lw	a5,12(sp)
    c6e8:	cf91                	beqz	a5,c704 <__smakebuf_r+0x94>
    c6ea:	00e41583          	lh	a1,14(s0)
    c6ee:	8526                	mv	a0,s1
    c6f0:	039000ef          	jal	ra,cf28 <_isatty_r>
    c6f4:	c901                	beqz	a0,c704 <__smakebuf_r+0x94>
    c6f6:	00c45783          	lhu	a5,12(s0)
    c6fa:	9bf1                	andi	a5,a5,-4
    c6fc:	0017e793          	ori	a5,a5,1
    c700:	00f41623          	sh	a5,12(s0)
    c704:	00c45783          	lhu	a5,12(s0)
    c708:	00f96933          	or	s2,s2,a5
    c70c:	01241623          	sh	s2,12(s0)
    c710:	b741                	j	c690 <__smakebuf_r+0x20>

0000c712 <__malloc_lock>:
    c712:	8082                	ret

0000c714 <__malloc_unlock>:
    c714:	8082                	ret

0000c716 <__sfputc_r>:
    c716:	461c                	lw	a5,8(a2)
    c718:	17fd                	addi	a5,a5,-1
    c71a:	c61c                	sw	a5,8(a2)
    c71c:	0007da63          	bgez	a5,c730 <__sfputc_r+0x1a>
    c720:	4e18                	lw	a4,24(a2)
    c722:	00e7c563          	blt	a5,a4,c72c <__sfputc_r+0x16>
    c726:	47a9                	li	a5,10
    c728:	00f59463          	bne	a1,a5,c730 <__sfputc_r+0x1a>
    c72c:	945ff06f          	j	c070 <__swbuf_r>
    c730:	421c                	lw	a5,0(a2)
    c732:	852e                	mv	a0,a1
    c734:	00178713          	addi	a4,a5,1
    c738:	c218                	sw	a4,0(a2)
    c73a:	00b78023          	sb	a1,0(a5)
    c73e:	8082                	ret

0000c740 <__sfputs_r>:
    c740:	1101                	addi	sp,sp,-32
    c742:	cc22                	sw	s0,24(sp)
    c744:	ca26                	sw	s1,20(sp)
    c746:	c84a                	sw	s2,16(sp)
    c748:	c64e                	sw	s3,12(sp)
    c74a:	c452                	sw	s4,8(sp)
    c74c:	ce06                	sw	ra,28(sp)
    c74e:	892a                	mv	s2,a0
    c750:	89ae                	mv	s3,a1
    c752:	8432                	mv	s0,a2
    c754:	00d604b3          	add	s1,a2,a3
    c758:	5a7d                	li	s4,-1
    c75a:	00941463          	bne	s0,s1,c762 <__sfputs_r+0x22>
    c75e:	4501                	li	a0,0
    c760:	a811                	j	c774 <__sfputs_r+0x34>
    c762:	00044583          	lbu	a1,0(s0)
    c766:	864e                	mv	a2,s3
    c768:	854a                	mv	a0,s2
    c76a:	fadff0ef          	jal	ra,c716 <__sfputc_r>
    c76e:	0405                	addi	s0,s0,1
    c770:	ff4515e3          	bne	a0,s4,c75a <__sfputs_r+0x1a>
    c774:	40f2                	lw	ra,28(sp)
    c776:	4462                	lw	s0,24(sp)
    c778:	44d2                	lw	s1,20(sp)
    c77a:	4942                	lw	s2,16(sp)
    c77c:	49b2                	lw	s3,12(sp)
    c77e:	4a22                	lw	s4,8(sp)
    c780:	6105                	addi	sp,sp,32
    c782:	8082                	ret

0000c784 <_vfiprintf_r>:
    c784:	7135                	addi	sp,sp,-160
    c786:	cd22                	sw	s0,152(sp)
    c788:	cb26                	sw	s1,148(sp)
    c78a:	c94a                	sw	s2,144(sp)
    c78c:	c74e                	sw	s3,140(sp)
    c78e:	cf06                	sw	ra,156(sp)
    c790:	c552                	sw	s4,136(sp)
    c792:	c356                	sw	s5,132(sp)
    c794:	c15a                	sw	s6,128(sp)
    c796:	dede                	sw	s7,124(sp)
    c798:	dce2                	sw	s8,120(sp)
    c79a:	dae6                	sw	s9,116(sp)
    c79c:	89aa                	mv	s3,a0
    c79e:	84ae                	mv	s1,a1
    c7a0:	8932                	mv	s2,a2
    c7a2:	8436                	mv	s0,a3
    c7a4:	c509                	beqz	a0,c7ae <_vfiprintf_r+0x2a>
    c7a6:	4d1c                	lw	a5,24(a0)
    c7a8:	e399                	bnez	a5,c7ae <_vfiprintf_r+0x2a>
    c7aa:	cf5ff0ef          	jal	ra,c49e <__sinit>
    c7ae:	00001797          	auipc	a5,0x1
    c7b2:	23a78793          	addi	a5,a5,570 # d9e8 <__sf_fake_stdin>
    c7b6:	0cf49c63          	bne	s1,a5,c88e <_vfiprintf_r+0x10a>
    c7ba:	0049a483          	lw	s1,4(s3)
    c7be:	00c4d783          	lhu	a5,12(s1)
    c7c2:	8ba1                	andi	a5,a5,8
    c7c4:	c7fd                	beqz	a5,c8b2 <_vfiprintf_r+0x12e>
    c7c6:	489c                	lw	a5,16(s1)
    c7c8:	c7ed                	beqz	a5,c8b2 <_vfiprintf_r+0x12e>
    c7ca:	02000793          	li	a5,32
    c7ce:	02f104a3          	sb	a5,41(sp)
    c7d2:	03000793          	li	a5,48
    c7d6:	d202                	sw	zero,36(sp)
    c7d8:	02f10523          	sb	a5,42(sp)
    c7dc:	c622                	sw	s0,12(sp)
    c7de:	02500b93          	li	s7,37
    c7e2:	00001a97          	auipc	s5,0x1
    c7e6:	246a8a93          	addi	s5,s5,582 # da28 <__sf_fake_stdout+0x20>
    c7ea:	4c05                	li	s8,1
    c7ec:	4b29                	li	s6,10
    c7ee:	844a                	mv	s0,s2
    c7f0:	00044783          	lbu	a5,0(s0)
    c7f4:	c399                	beqz	a5,c7fa <_vfiprintf_r+0x76>
    c7f6:	0f779163          	bne	a5,s7,c8d8 <_vfiprintf_r+0x154>
    c7fa:	41240cb3          	sub	s9,s0,s2
    c7fe:	000c8e63          	beqz	s9,c81a <_vfiprintf_r+0x96>
    c802:	86e6                	mv	a3,s9
    c804:	864a                	mv	a2,s2
    c806:	85a6                	mv	a1,s1
    c808:	854e                	mv	a0,s3
    c80a:	f37ff0ef          	jal	ra,c740 <__sfputs_r>
    c80e:	57fd                	li	a5,-1
    c810:	1ef50663          	beq	a0,a5,c9fc <_vfiprintf_r+0x278>
    c814:	5692                	lw	a3,36(sp)
    c816:	96e6                	add	a3,a3,s9
    c818:	d236                	sw	a3,36(sp)
    c81a:	00044783          	lbu	a5,0(s0)
    c81e:	1c078f63          	beqz	a5,c9fc <_vfiprintf_r+0x278>
    c822:	57fd                	li	a5,-1
    c824:	00140913          	addi	s2,s0,1
    c828:	c802                	sw	zero,16(sp)
    c82a:	ce02                	sw	zero,28(sp)
    c82c:	ca3e                	sw	a5,20(sp)
    c82e:	cc02                	sw	zero,24(sp)
    c830:	040109a3          	sb	zero,83(sp)
    c834:	d482                	sw	zero,104(sp)
    c836:	00094583          	lbu	a1,0(s2)
    c83a:	4615                	li	a2,5
    c83c:	8556                	mv	a0,s5
    c83e:	27b9                	jal	cf8c <memchr>
    c840:	00190413          	addi	s0,s2,1
    c844:	47c2                	lw	a5,16(sp)
    c846:	e959                	bnez	a0,c8dc <_vfiprintf_r+0x158>
    c848:	0107f713          	andi	a4,a5,16
    c84c:	c709                	beqz	a4,c856 <_vfiprintf_r+0xd2>
    c84e:	02000713          	li	a4,32
    c852:	04e109a3          	sb	a4,83(sp)
    c856:	0087f713          	andi	a4,a5,8
    c85a:	c709                	beqz	a4,c864 <_vfiprintf_r+0xe0>
    c85c:	02b00713          	li	a4,43
    c860:	04e109a3          	sb	a4,83(sp)
    c864:	00094683          	lbu	a3,0(s2)
    c868:	02a00713          	li	a4,42
    c86c:	08e68063          	beq	a3,a4,c8ec <_vfiprintf_r+0x168>
    c870:	47f2                	lw	a5,28(sp)
    c872:	844a                	mv	s0,s2
    c874:	4681                	li	a3,0
    c876:	4625                	li	a2,9
    c878:	00044703          	lbu	a4,0(s0)
    c87c:	00140593          	addi	a1,s0,1
    c880:	fd070713          	addi	a4,a4,-48 # ffffdfd0 <__freertos_irq_stack_top+0xdfff8fd0>
    c884:	0ae67963          	bgeu	a2,a4,c936 <_vfiprintf_r+0x1b2>
    c888:	cab5                	beqz	a3,c8fc <_vfiprintf_r+0x178>
    c88a:	ce3e                	sw	a5,28(sp)
    c88c:	a885                	j	c8fc <_vfiprintf_r+0x178>
    c88e:	00001797          	auipc	a5,0x1
    c892:	17a78793          	addi	a5,a5,378 # da08 <__sf_fake_stdout>
    c896:	00f49563          	bne	s1,a5,c8a0 <_vfiprintf_r+0x11c>
    c89a:	0089a483          	lw	s1,8(s3)
    c89e:	b705                	j	c7be <_vfiprintf_r+0x3a>
    c8a0:	00001797          	auipc	a5,0x1
    c8a4:	12878793          	addi	a5,a5,296 # d9c8 <__sf_fake_stderr>
    c8a8:	f0f49be3          	bne	s1,a5,c7be <_vfiprintf_r+0x3a>
    c8ac:	00c9a483          	lw	s1,12(s3)
    c8b0:	b739                	j	c7be <_vfiprintf_r+0x3a>
    c8b2:	85a6                	mv	a1,s1
    c8b4:	854e                	mv	a0,s3
    c8b6:	87bff0ef          	jal	ra,c130 <__swsetup_r>
    c8ba:	d901                	beqz	a0,c7ca <_vfiprintf_r+0x46>
    c8bc:	557d                	li	a0,-1
    c8be:	40fa                	lw	ra,156(sp)
    c8c0:	446a                	lw	s0,152(sp)
    c8c2:	44da                	lw	s1,148(sp)
    c8c4:	494a                	lw	s2,144(sp)
    c8c6:	49ba                	lw	s3,140(sp)
    c8c8:	4a2a                	lw	s4,136(sp)
    c8ca:	4a9a                	lw	s5,132(sp)
    c8cc:	4b0a                	lw	s6,128(sp)
    c8ce:	5bf6                	lw	s7,124(sp)
    c8d0:	5c66                	lw	s8,120(sp)
    c8d2:	5cd6                	lw	s9,116(sp)
    c8d4:	610d                	addi	sp,sp,160
    c8d6:	8082                	ret
    c8d8:	0405                	addi	s0,s0,1
    c8da:	bf19                	j	c7f0 <_vfiprintf_r+0x6c>
    c8dc:	41550533          	sub	a0,a0,s5
    c8e0:	00ac1533          	sll	a0,s8,a0
    c8e4:	8fc9                	or	a5,a5,a0
    c8e6:	c83e                	sw	a5,16(sp)
    c8e8:	8922                	mv	s2,s0
    c8ea:	b7b1                	j	c836 <_vfiprintf_r+0xb2>
    c8ec:	4732                	lw	a4,12(sp)
    c8ee:	00470693          	addi	a3,a4,4
    c8f2:	4318                	lw	a4,0(a4)
    c8f4:	c636                	sw	a3,12(sp)
    c8f6:	02074963          	bltz	a4,c928 <_vfiprintf_r+0x1a4>
    c8fa:	ce3a                	sw	a4,28(sp)
    c8fc:	00044703          	lbu	a4,0(s0)
    c900:	02e00793          	li	a5,46
    c904:	04f71f63          	bne	a4,a5,c962 <_vfiprintf_r+0x1de>
    c908:	00144703          	lbu	a4,1(s0)
    c90c:	02a00793          	li	a5,42
    c910:	02f71b63          	bne	a4,a5,c946 <_vfiprintf_r+0x1c2>
    c914:	47b2                	lw	a5,12(sp)
    c916:	0409                	addi	s0,s0,2
    c918:	00478713          	addi	a4,a5,4
    c91c:	439c                	lw	a5,0(a5)
    c91e:	c63a                	sw	a4,12(sp)
    c920:	0207c163          	bltz	a5,c942 <_vfiprintf_r+0x1be>
    c924:	ca3e                	sw	a5,20(sp)
    c926:	a835                	j	c962 <_vfiprintf_r+0x1de>
    c928:	40e00733          	neg	a4,a4
    c92c:	0027e793          	ori	a5,a5,2
    c930:	ce3a                	sw	a4,28(sp)
    c932:	c83e                	sw	a5,16(sp)
    c934:	b7e1                	j	c8fc <_vfiprintf_r+0x178>
    c936:	036787b3          	mul	a5,a5,s6
    c93a:	4685                	li	a3,1
    c93c:	842e                	mv	s0,a1
    c93e:	97ba                	add	a5,a5,a4
    c940:	bf25                	j	c878 <_vfiprintf_r+0xf4>
    c942:	57fd                	li	a5,-1
    c944:	b7c5                	j	c924 <_vfiprintf_r+0x1a0>
    c946:	0405                	addi	s0,s0,1
    c948:	ca02                	sw	zero,20(sp)
    c94a:	4681                	li	a3,0
    c94c:	4781                	li	a5,0
    c94e:	4625                	li	a2,9
    c950:	00044703          	lbu	a4,0(s0)
    c954:	00140593          	addi	a1,s0,1
    c958:	fd070713          	addi	a4,a4,-48
    c95c:	06e67663          	bgeu	a2,a4,c9c8 <_vfiprintf_r+0x244>
    c960:	f2f1                	bnez	a3,c924 <_vfiprintf_r+0x1a0>
    c962:	00044583          	lbu	a1,0(s0)
    c966:	460d                	li	a2,3
    c968:	00001517          	auipc	a0,0x1
    c96c:	0c850513          	addi	a0,a0,200 # da30 <__sf_fake_stdout+0x28>
    c970:	2d31                	jal	cf8c <memchr>
    c972:	cd11                	beqz	a0,c98e <_vfiprintf_r+0x20a>
    c974:	00001797          	auipc	a5,0x1
    c978:	0bc78793          	addi	a5,a5,188 # da30 <__sf_fake_stdout+0x28>
    c97c:	8d1d                	sub	a0,a0,a5
    c97e:	04000793          	li	a5,64
    c982:	00a797b3          	sll	a5,a5,a0
    c986:	4542                	lw	a0,16(sp)
    c988:	0405                	addi	s0,s0,1
    c98a:	8d5d                	or	a0,a0,a5
    c98c:	c82a                	sw	a0,16(sp)
    c98e:	00044583          	lbu	a1,0(s0)
    c992:	4619                	li	a2,6
    c994:	00001517          	auipc	a0,0x1
    c998:	0a050513          	addi	a0,a0,160 # da34 <__sf_fake_stdout+0x2c>
    c99c:	00140913          	addi	s2,s0,1
    c9a0:	02b10423          	sb	a1,40(sp)
    c9a4:	23e5                	jal	cf8c <memchr>
    c9a6:	c13d                	beqz	a0,ca0c <_vfiprintf_r+0x288>
    c9a8:	ffff3797          	auipc	a5,0xffff3
    c9ac:	65878793          	addi	a5,a5,1624 # 0 <_sinit>
    c9b0:	e795                	bnez	a5,c9dc <_vfiprintf_r+0x258>
    c9b2:	4742                	lw	a4,16(sp)
    c9b4:	47b2                	lw	a5,12(sp)
    c9b6:	10077713          	andi	a4,a4,256
    c9ba:	cf09                	beqz	a4,c9d4 <_vfiprintf_r+0x250>
    c9bc:	0791                	addi	a5,a5,4
    c9be:	c63e                	sw	a5,12(sp)
    c9c0:	5792                	lw	a5,36(sp)
    c9c2:	97d2                	add	a5,a5,s4
    c9c4:	d23e                	sw	a5,36(sp)
    c9c6:	b525                	j	c7ee <_vfiprintf_r+0x6a>
    c9c8:	036787b3          	mul	a5,a5,s6
    c9cc:	4685                	li	a3,1
    c9ce:	842e                	mv	s0,a1
    c9d0:	97ba                	add	a5,a5,a4
    c9d2:	bfbd                	j	c950 <_vfiprintf_r+0x1cc>
    c9d4:	079d                	addi	a5,a5,7
    c9d6:	9be1                	andi	a5,a5,-8
    c9d8:	07a1                	addi	a5,a5,8
    c9da:	b7d5                	j	c9be <_vfiprintf_r+0x23a>
    c9dc:	0078                	addi	a4,sp,12
    c9de:	00000697          	auipc	a3,0x0
    c9e2:	d6268693          	addi	a3,a3,-670 # c740 <__sfputs_r>
    c9e6:	8626                	mv	a2,s1
    c9e8:	080c                	addi	a1,sp,16
    c9ea:	854e                	mv	a0,s3
    c9ec:	00000097          	auipc	ra,0x0
    c9f0:	000000e7          	jalr	zero # 0 <_sinit>
    c9f4:	57fd                	li	a5,-1
    c9f6:	8a2a                	mv	s4,a0
    c9f8:	fcf514e3          	bne	a0,a5,c9c0 <_vfiprintf_r+0x23c>
    c9fc:	00c4d783          	lhu	a5,12(s1)
    ca00:	0407f793          	andi	a5,a5,64
    ca04:	ea079ce3          	bnez	a5,c8bc <_vfiprintf_r+0x138>
    ca08:	5512                	lw	a0,36(sp)
    ca0a:	bd55                	j	c8be <_vfiprintf_r+0x13a>
    ca0c:	0078                	addi	a4,sp,12
    ca0e:	00000697          	auipc	a3,0x0
    ca12:	d3268693          	addi	a3,a3,-718 # c740 <__sfputs_r>
    ca16:	8626                	mv	a2,s1
    ca18:	080c                	addi	a1,sp,16
    ca1a:	854e                	mv	a0,s3
    ca1c:	2a01                	jal	cb2c <_printf_i>
    ca1e:	bfd9                	j	c9f4 <_vfiprintf_r+0x270>

0000ca20 <_printf_common>:
    ca20:	7179                	addi	sp,sp,-48
    ca22:	ca56                	sw	s5,20(sp)
    ca24:	499c                	lw	a5,16(a1)
    ca26:	8aba                	mv	s5,a4
    ca28:	4598                	lw	a4,8(a1)
    ca2a:	d422                	sw	s0,40(sp)
    ca2c:	d226                	sw	s1,36(sp)
    ca2e:	ce4e                	sw	s3,28(sp)
    ca30:	cc52                	sw	s4,24(sp)
    ca32:	d606                	sw	ra,44(sp)
    ca34:	d04a                	sw	s2,32(sp)
    ca36:	c85a                	sw	s6,16(sp)
    ca38:	c65e                	sw	s7,12(sp)
    ca3a:	89aa                	mv	s3,a0
    ca3c:	842e                	mv	s0,a1
    ca3e:	84b2                	mv	s1,a2
    ca40:	8a36                	mv	s4,a3
    ca42:	00e7d363          	bge	a5,a4,ca48 <_printf_common+0x28>
    ca46:	87ba                	mv	a5,a4
    ca48:	c09c                	sw	a5,0(s1)
    ca4a:	04344703          	lbu	a4,67(s0)
    ca4e:	c319                	beqz	a4,ca54 <_printf_common+0x34>
    ca50:	0785                	addi	a5,a5,1
    ca52:	c09c                	sw	a5,0(s1)
    ca54:	401c                	lw	a5,0(s0)
    ca56:	0207f793          	andi	a5,a5,32
    ca5a:	c781                	beqz	a5,ca62 <_printf_common+0x42>
    ca5c:	409c                	lw	a5,0(s1)
    ca5e:	0789                	addi	a5,a5,2
    ca60:	c09c                	sw	a5,0(s1)
    ca62:	00042903          	lw	s2,0(s0)
    ca66:	00697913          	andi	s2,s2,6
    ca6a:	00091a63          	bnez	s2,ca7e <_printf_common+0x5e>
    ca6e:	01940b13          	addi	s6,s0,25
    ca72:	5bfd                	li	s7,-1
    ca74:	445c                	lw	a5,12(s0)
    ca76:	4098                	lw	a4,0(s1)
    ca78:	8f99                	sub	a5,a5,a4
    ca7a:	04f94c63          	blt	s2,a5,cad2 <_printf_common+0xb2>
    ca7e:	401c                	lw	a5,0(s0)
    ca80:	04344683          	lbu	a3,67(s0)
    ca84:	0207f793          	andi	a5,a5,32
    ca88:	00d036b3          	snez	a3,a3
    ca8c:	eba5                	bnez	a5,cafc <_printf_common+0xdc>
    ca8e:	04340613          	addi	a2,s0,67
    ca92:	85d2                	mv	a1,s4
    ca94:	854e                	mv	a0,s3
    ca96:	9a82                	jalr	s5
    ca98:	57fd                	li	a5,-1
    ca9a:	04f50363          	beq	a0,a5,cae0 <_printf_common+0xc0>
    ca9e:	401c                	lw	a5,0(s0)
    caa0:	4611                	li	a2,4
    caa2:	4098                	lw	a4,0(s1)
    caa4:	8b99                	andi	a5,a5,6
    caa6:	4454                	lw	a3,12(s0)
    caa8:	4481                	li	s1,0
    caaa:	00c79763          	bne	a5,a2,cab8 <_printf_common+0x98>
    caae:	40e684b3          	sub	s1,a3,a4
    cab2:	0004d363          	bgez	s1,cab8 <_printf_common+0x98>
    cab6:	4481                	li	s1,0
    cab8:	441c                	lw	a5,8(s0)
    caba:	4818                	lw	a4,16(s0)
    cabc:	00f75463          	bge	a4,a5,cac4 <_printf_common+0xa4>
    cac0:	8f99                	sub	a5,a5,a4
    cac2:	94be                	add	s1,s1,a5
    cac4:	4901                	li	s2,0
    cac6:	0469                	addi	s0,s0,26
    cac8:	5b7d                	li	s6,-1
    caca:	05249863          	bne	s1,s2,cb1a <_printf_common+0xfa>
    cace:	4501                	li	a0,0
    cad0:	a809                	j	cae2 <_printf_common+0xc2>
    cad2:	4685                	li	a3,1
    cad4:	865a                	mv	a2,s6
    cad6:	85d2                	mv	a1,s4
    cad8:	854e                	mv	a0,s3
    cada:	9a82                	jalr	s5
    cadc:	01751e63          	bne	a0,s7,caf8 <_printf_common+0xd8>
    cae0:	557d                	li	a0,-1
    cae2:	50b2                	lw	ra,44(sp)
    cae4:	5422                	lw	s0,40(sp)
    cae6:	5492                	lw	s1,36(sp)
    cae8:	5902                	lw	s2,32(sp)
    caea:	49f2                	lw	s3,28(sp)
    caec:	4a62                	lw	s4,24(sp)
    caee:	4ad2                	lw	s5,20(sp)
    caf0:	4b42                	lw	s6,16(sp)
    caf2:	4bb2                	lw	s7,12(sp)
    caf4:	6145                	addi	sp,sp,48
    caf6:	8082                	ret
    caf8:	0905                	addi	s2,s2,1
    cafa:	bfad                	j	ca74 <_printf_common+0x54>
    cafc:	00d40733          	add	a4,s0,a3
    cb00:	03000613          	li	a2,48
    cb04:	04c701a3          	sb	a2,67(a4)
    cb08:	04544703          	lbu	a4,69(s0)
    cb0c:	00168793          	addi	a5,a3,1
    cb10:	97a2                	add	a5,a5,s0
    cb12:	0689                	addi	a3,a3,2
    cb14:	04e781a3          	sb	a4,67(a5)
    cb18:	bf9d                	j	ca8e <_printf_common+0x6e>
    cb1a:	4685                	li	a3,1
    cb1c:	8622                	mv	a2,s0
    cb1e:	85d2                	mv	a1,s4
    cb20:	854e                	mv	a0,s3
    cb22:	9a82                	jalr	s5
    cb24:	fb650ee3          	beq	a0,s6,cae0 <_printf_common+0xc0>
    cb28:	0905                	addi	s2,s2,1
    cb2a:	b745                	j	caca <_printf_common+0xaa>

0000cb2c <_printf_i>:
    cb2c:	7179                	addi	sp,sp,-48
    cb2e:	d422                	sw	s0,40(sp)
    cb30:	d226                	sw	s1,36(sp)
    cb32:	d04a                	sw	s2,32(sp)
    cb34:	ce4e                	sw	s3,28(sp)
    cb36:	d606                	sw	ra,44(sp)
    cb38:	cc52                	sw	s4,24(sp)
    cb3a:	ca56                	sw	s5,20(sp)
    cb3c:	c85a                	sw	s6,16(sp)
    cb3e:	89b6                	mv	s3,a3
    cb40:	0185c683          	lbu	a3,24(a1)
    cb44:	06900793          	li	a5,105
    cb48:	8932                	mv	s2,a2
    cb4a:	84aa                	mv	s1,a0
    cb4c:	842e                	mv	s0,a1
    cb4e:	04358613          	addi	a2,a1,67
    cb52:	02f68d63          	beq	a3,a5,cb8c <_printf_i+0x60>
    cb56:	06d7e263          	bltu	a5,a3,cbba <_printf_i+0x8e>
    cb5a:	05800793          	li	a5,88
    cb5e:	18f68863          	beq	a3,a5,ccee <_printf_i+0x1c2>
    cb62:	00d7ed63          	bltu	a5,a3,cb7c <_printf_i+0x50>
    cb66:	22068163          	beqz	a3,cd88 <_printf_i+0x25c>
    cb6a:	04300793          	li	a5,67
    cb6e:	0af68e63          	beq	a3,a5,cc2a <_printf_i+0xfe>
    cb72:	04240a93          	addi	s5,s0,66
    cb76:	04d40123          	sb	a3,66(s0)
    cb7a:	a0c9                	j	cc3c <_printf_i+0x110>
    cb7c:	06300793          	li	a5,99
    cb80:	0af68563          	beq	a3,a5,cc2a <_printf_i+0xfe>
    cb84:	06400793          	li	a5,100
    cb88:	fef695e3          	bne	a3,a5,cb72 <_printf_i+0x46>
    cb8c:	401c                	lw	a5,0(s0)
    cb8e:	4308                	lw	a0,0(a4)
    cb90:	0807f693          	andi	a3,a5,128
    cb94:	00450593          	addi	a1,a0,4
    cb98:	c6c5                	beqz	a3,cc40 <_printf_i+0x114>
    cb9a:	411c                	lw	a5,0(a0)
    cb9c:	c30c                	sw	a1,0(a4)
    cb9e:	0007d863          	bgez	a5,cbae <_printf_i+0x82>
    cba2:	02d00713          	li	a4,45
    cba6:	40f007b3          	neg	a5,a5
    cbaa:	04e401a3          	sb	a4,67(s0)
    cbae:	00001697          	auipc	a3,0x1
    cbb2:	e8e68693          	addi	a3,a3,-370 # da3c <__sf_fake_stdout+0x34>
    cbb6:	4729                	li	a4,10
    cbb8:	a86d                	j	cc72 <_printf_i+0x146>
    cbba:	07000793          	li	a5,112
    cbbe:	16f68463          	beq	a3,a5,cd26 <_printf_i+0x1fa>
    cbc2:	02d7e563          	bltu	a5,a3,cbec <_printf_i+0xc0>
    cbc6:	06e00793          	li	a5,110
    cbca:	18f68b63          	beq	a3,a5,cd60 <_printf_i+0x234>
    cbce:	06f00793          	li	a5,111
    cbd2:	faf690e3          	bne	a3,a5,cb72 <_printf_i+0x46>
    cbd6:	400c                	lw	a1,0(s0)
    cbd8:	431c                	lw	a5,0(a4)
    cbda:	0805f813          	andi	a6,a1,128
    cbde:	00478513          	addi	a0,a5,4
    cbe2:	06080763          	beqz	a6,cc50 <_printf_i+0x124>
    cbe6:	c308                	sw	a0,0(a4)
    cbe8:	439c                	lw	a5,0(a5)
    cbea:	a88d                	j	cc5c <_printf_i+0x130>
    cbec:	07500793          	li	a5,117
    cbf0:	fef683e3          	beq	a3,a5,cbd6 <_printf_i+0xaa>
    cbf4:	07800793          	li	a5,120
    cbf8:	12f68b63          	beq	a3,a5,cd2e <_printf_i+0x202>
    cbfc:	07300793          	li	a5,115
    cc00:	f6f699e3          	bne	a3,a5,cb72 <_printf_i+0x46>
    cc04:	431c                	lw	a5,0(a4)
    cc06:	41d0                	lw	a2,4(a1)
    cc08:	4581                	li	a1,0
    cc0a:	00478693          	addi	a3,a5,4
    cc0e:	c314                	sw	a3,0(a4)
    cc10:	0007aa83          	lw	s5,0(a5)
    cc14:	8556                	mv	a0,s5
    cc16:	2e9d                	jal	cf8c <memchr>
    cc18:	c501                	beqz	a0,cc20 <_printf_i+0xf4>
    cc1a:	41550533          	sub	a0,a0,s5
    cc1e:	c048                	sw	a0,4(s0)
    cc20:	405c                	lw	a5,4(s0)
    cc22:	c81c                	sw	a5,16(s0)
    cc24:	040401a3          	sb	zero,67(s0)
    cc28:	a871                	j	ccc4 <_printf_i+0x198>
    cc2a:	431c                	lw	a5,0(a4)
    cc2c:	04240a93          	addi	s5,s0,66
    cc30:	00478693          	addi	a3,a5,4
    cc34:	439c                	lw	a5,0(a5)
    cc36:	c314                	sw	a3,0(a4)
    cc38:	04f40123          	sb	a5,66(s0)
    cc3c:	4785                	li	a5,1
    cc3e:	b7d5                	j	cc22 <_printf_i+0xf6>
    cc40:	0407f693          	andi	a3,a5,64
    cc44:	411c                	lw	a5,0(a0)
    cc46:	c30c                	sw	a1,0(a4)
    cc48:	dab9                	beqz	a3,cb9e <_printf_i+0x72>
    cc4a:	07c2                	slli	a5,a5,0x10
    cc4c:	87c1                	srai	a5,a5,0x10
    cc4e:	bf81                	j	cb9e <_printf_i+0x72>
    cc50:	0405f593          	andi	a1,a1,64
    cc54:	c308                	sw	a0,0(a4)
    cc56:	d9c9                	beqz	a1,cbe8 <_printf_i+0xbc>
    cc58:	0007d783          	lhu	a5,0(a5)
    cc5c:	06f00713          	li	a4,111
    cc60:	0ee68863          	beq	a3,a4,cd50 <_printf_i+0x224>
    cc64:	00001697          	auipc	a3,0x1
    cc68:	dd868693          	addi	a3,a3,-552 # da3c <__sf_fake_stdout+0x34>
    cc6c:	4729                	li	a4,10
    cc6e:	040401a3          	sb	zero,67(s0)
    cc72:	404c                	lw	a1,4(s0)
    cc74:	c40c                	sw	a1,8(s0)
    cc76:	0005c563          	bltz	a1,cc80 <_printf_i+0x154>
    cc7a:	4008                	lw	a0,0(s0)
    cc7c:	996d                	andi	a0,a0,-5
    cc7e:	c008                	sw	a0,0(s0)
    cc80:	e399                	bnez	a5,cc86 <_printf_i+0x15a>
    cc82:	8ab2                	mv	s5,a2
    cc84:	cd91                	beqz	a1,cca0 <_printf_i+0x174>
    cc86:	8ab2                	mv	s5,a2
    cc88:	02e7f5b3          	remu	a1,a5,a4
    cc8c:	1afd                	addi	s5,s5,-1
    cc8e:	95b6                	add	a1,a1,a3
    cc90:	0005c583          	lbu	a1,0(a1)
    cc94:	00ba8023          	sb	a1,0(s5)
    cc98:	02e7d5b3          	divu	a1,a5,a4
    cc9c:	0ce7f063          	bgeu	a5,a4,cd5c <_printf_i+0x230>
    cca0:	47a1                	li	a5,8
    cca2:	00f71e63          	bne	a4,a5,ccbe <_printf_i+0x192>
    cca6:	401c                	lw	a5,0(s0)
    cca8:	8b85                	andi	a5,a5,1
    ccaa:	cb91                	beqz	a5,ccbe <_printf_i+0x192>
    ccac:	4058                	lw	a4,4(s0)
    ccae:	481c                	lw	a5,16(s0)
    ccb0:	00e7c763          	blt	a5,a4,ccbe <_printf_i+0x192>
    ccb4:	03000793          	li	a5,48
    ccb8:	fefa8fa3          	sb	a5,-1(s5)
    ccbc:	1afd                	addi	s5,s5,-1
    ccbe:	41560633          	sub	a2,a2,s5
    ccc2:	c810                	sw	a2,16(s0)
    ccc4:	874e                	mv	a4,s3
    ccc6:	86ca                	mv	a3,s2
    ccc8:	0070                	addi	a2,sp,12
    ccca:	85a2                	mv	a1,s0
    cccc:	8526                	mv	a0,s1
    ccce:	d53ff0ef          	jal	ra,ca20 <_printf_common>
    ccd2:	5a7d                	li	s4,-1
    ccd4:	0b451e63          	bne	a0,s4,cd90 <_printf_i+0x264>
    ccd8:	557d                	li	a0,-1
    ccda:	50b2                	lw	ra,44(sp)
    ccdc:	5422                	lw	s0,40(sp)
    ccde:	5492                	lw	s1,36(sp)
    cce0:	5902                	lw	s2,32(sp)
    cce2:	49f2                	lw	s3,28(sp)
    cce4:	4a62                	lw	s4,24(sp)
    cce6:	4ad2                	lw	s5,20(sp)
    cce8:	4b42                	lw	s6,16(sp)
    ccea:	6145                	addi	sp,sp,48
    ccec:	8082                	ret
    ccee:	04d582a3          	sb	a3,69(a1)
    ccf2:	00001697          	auipc	a3,0x1
    ccf6:	d4a68693          	addi	a3,a3,-694 # da3c <__sf_fake_stdout+0x34>
    ccfa:	400c                	lw	a1,0(s0)
    ccfc:	4308                	lw	a0,0(a4)
    ccfe:	0805f813          	andi	a6,a1,128
    cd02:	411c                	lw	a5,0(a0)
    cd04:	0511                	addi	a0,a0,4
    cd06:	02080d63          	beqz	a6,cd40 <_printf_i+0x214>
    cd0a:	c308                	sw	a0,0(a4)
    cd0c:	0015f713          	andi	a4,a1,1
    cd10:	c701                	beqz	a4,cd18 <_printf_i+0x1ec>
    cd12:	0205e593          	ori	a1,a1,32
    cd16:	c00c                	sw	a1,0(s0)
    cd18:	4741                	li	a4,16
    cd1a:	fbb1                	bnez	a5,cc6e <_printf_i+0x142>
    cd1c:	400c                	lw	a1,0(s0)
    cd1e:	fdf5f593          	andi	a1,a1,-33
    cd22:	c00c                	sw	a1,0(s0)
    cd24:	b7a9                	j	cc6e <_printf_i+0x142>
    cd26:	419c                	lw	a5,0(a1)
    cd28:	0207e793          	ori	a5,a5,32
    cd2c:	c19c                	sw	a5,0(a1)
    cd2e:	07800793          	li	a5,120
    cd32:	04f402a3          	sb	a5,69(s0)
    cd36:	00001697          	auipc	a3,0x1
    cd3a:	d1a68693          	addi	a3,a3,-742 # da50 <__sf_fake_stdout+0x48>
    cd3e:	bf75                	j	ccfa <_printf_i+0x1ce>
    cd40:	0405f813          	andi	a6,a1,64
    cd44:	c308                	sw	a0,0(a4)
    cd46:	fc0803e3          	beqz	a6,cd0c <_printf_i+0x1e0>
    cd4a:	07c2                	slli	a5,a5,0x10
    cd4c:	83c1                	srli	a5,a5,0x10
    cd4e:	bf7d                	j	cd0c <_printf_i+0x1e0>
    cd50:	00001697          	auipc	a3,0x1
    cd54:	cec68693          	addi	a3,a3,-788 # da3c <__sf_fake_stdout+0x34>
    cd58:	4721                	li	a4,8
    cd5a:	bf11                	j	cc6e <_printf_i+0x142>
    cd5c:	87ae                	mv	a5,a1
    cd5e:	b72d                	j	cc88 <_printf_i+0x15c>
    cd60:	4194                	lw	a3,0(a1)
    cd62:	431c                	lw	a5,0(a4)
    cd64:	49cc                	lw	a1,20(a1)
    cd66:	0806f813          	andi	a6,a3,128
    cd6a:	00478513          	addi	a0,a5,4
    cd6e:	00080663          	beqz	a6,cd7a <_printf_i+0x24e>
    cd72:	c308                	sw	a0,0(a4)
    cd74:	439c                	lw	a5,0(a5)
    cd76:	c38c                	sw	a1,0(a5)
    cd78:	a801                	j	cd88 <_printf_i+0x25c>
    cd7a:	c308                	sw	a0,0(a4)
    cd7c:	0406f693          	andi	a3,a3,64
    cd80:	439c                	lw	a5,0(a5)
    cd82:	daf5                	beqz	a3,cd76 <_printf_i+0x24a>
    cd84:	00b79023          	sh	a1,0(a5)
    cd88:	00042823          	sw	zero,16(s0)
    cd8c:	8ab2                	mv	s5,a2
    cd8e:	bf1d                	j	ccc4 <_printf_i+0x198>
    cd90:	4814                	lw	a3,16(s0)
    cd92:	8656                	mv	a2,s5
    cd94:	85ca                	mv	a1,s2
    cd96:	8526                	mv	a0,s1
    cd98:	9982                	jalr	s3
    cd9a:	f3450fe3          	beq	a0,s4,ccd8 <_printf_i+0x1ac>
    cd9e:	401c                	lw	a5,0(s0)
    cda0:	8b89                	andi	a5,a5,2
    cda2:	e78d                	bnez	a5,cdcc <_printf_i+0x2a0>
    cda4:	47b2                	lw	a5,12(sp)
    cda6:	4448                	lw	a0,12(s0)
    cda8:	f2f559e3          	bge	a0,a5,ccda <_printf_i+0x1ae>
    cdac:	853e                	mv	a0,a5
    cdae:	b735                	j	ccda <_printf_i+0x1ae>
    cdb0:	4685                	li	a3,1
    cdb2:	8656                	mv	a2,s5
    cdb4:	85ca                	mv	a1,s2
    cdb6:	8526                	mv	a0,s1
    cdb8:	9982                	jalr	s3
    cdba:	f1650fe3          	beq	a0,s6,ccd8 <_printf_i+0x1ac>
    cdbe:	0a05                	addi	s4,s4,1
    cdc0:	445c                	lw	a5,12(s0)
    cdc2:	4732                	lw	a4,12(sp)
    cdc4:	8f99                	sub	a5,a5,a4
    cdc6:	fefa45e3          	blt	s4,a5,cdb0 <_printf_i+0x284>
    cdca:	bfe9                	j	cda4 <_printf_i+0x278>
    cdcc:	4a01                	li	s4,0
    cdce:	01940a93          	addi	s5,s0,25
    cdd2:	5b7d                	li	s6,-1
    cdd4:	b7f5                	j	cdc0 <_printf_i+0x294>

0000cdd6 <__sread>:
    cdd6:	1141                	addi	sp,sp,-16
    cdd8:	c422                	sw	s0,8(sp)
    cdda:	842e                	mv	s0,a1
    cddc:	00e59583          	lh	a1,14(a1)
    cde0:	c606                	sw	ra,12(sp)
    cde2:	22d1                	jal	cfa6 <_read_r>
    cde4:	00054963          	bltz	a0,cdf6 <__sread+0x20>
    cde8:	487c                	lw	a5,84(s0)
    cdea:	97aa                	add	a5,a5,a0
    cdec:	c87c                	sw	a5,84(s0)
    cdee:	40b2                	lw	ra,12(sp)
    cdf0:	4422                	lw	s0,8(sp)
    cdf2:	0141                	addi	sp,sp,16
    cdf4:	8082                	ret
    cdf6:	00c45783          	lhu	a5,12(s0)
    cdfa:	777d                	lui	a4,0xfffff
    cdfc:	177d                	addi	a4,a4,-1
    cdfe:	8ff9                	and	a5,a5,a4
    ce00:	00f41623          	sh	a5,12(s0)
    ce04:	b7ed                	j	cdee <__sread+0x18>

0000ce06 <__swrite>:
    ce06:	00c5d783          	lhu	a5,12(a1)
    ce0a:	1101                	addi	sp,sp,-32
    ce0c:	cc22                	sw	s0,24(sp)
    ce0e:	ca26                	sw	s1,20(sp)
    ce10:	c84a                	sw	s2,16(sp)
    ce12:	c64e                	sw	s3,12(sp)
    ce14:	ce06                	sw	ra,28(sp)
    ce16:	1007f793          	andi	a5,a5,256
    ce1a:	84aa                	mv	s1,a0
    ce1c:	842e                	mv	s0,a1
    ce1e:	8932                	mv	s2,a2
    ce20:	89b6                	mv	s3,a3
    ce22:	c791                	beqz	a5,ce2e <__swrite+0x28>
    ce24:	00e59583          	lh	a1,14(a1)
    ce28:	4689                	li	a3,2
    ce2a:	4601                	li	a2,0
    ce2c:	2235                	jal	cf58 <_lseek_r>
    ce2e:	00c45783          	lhu	a5,12(s0)
    ce32:	777d                	lui	a4,0xfffff
    ce34:	177d                	addi	a4,a4,-1
    ce36:	8ff9                	and	a5,a5,a4
    ce38:	00f41623          	sh	a5,12(s0)
    ce3c:	00e41583          	lh	a1,14(s0)
    ce40:	4462                	lw	s0,24(sp)
    ce42:	40f2                	lw	ra,28(sp)
    ce44:	86ce                	mv	a3,s3
    ce46:	864a                	mv	a2,s2
    ce48:	49b2                	lw	s3,12(sp)
    ce4a:	4942                	lw	s2,16(sp)
    ce4c:	8526                	mv	a0,s1
    ce4e:	44d2                	lw	s1,20(sp)
    ce50:	6105                	addi	sp,sp,32
    ce52:	a83d                	j	ce90 <_write_r>

0000ce54 <__sseek>:
    ce54:	1141                	addi	sp,sp,-16
    ce56:	c422                	sw	s0,8(sp)
    ce58:	842e                	mv	s0,a1
    ce5a:	00e59583          	lh	a1,14(a1)
    ce5e:	c606                	sw	ra,12(sp)
    ce60:	28e5                	jal	cf58 <_lseek_r>
    ce62:	57fd                	li	a5,-1
    ce64:	00c45703          	lhu	a4,12(s0)
    ce68:	00f51b63          	bne	a0,a5,ce7e <__sseek+0x2a>
    ce6c:	77fd                	lui	a5,0xfffff
    ce6e:	17fd                	addi	a5,a5,-1
    ce70:	8ff9                	and	a5,a5,a4
    ce72:	00f41623          	sh	a5,12(s0)
    ce76:	40b2                	lw	ra,12(sp)
    ce78:	4422                	lw	s0,8(sp)
    ce7a:	0141                	addi	sp,sp,16
    ce7c:	8082                	ret
    ce7e:	6785                	lui	a5,0x1
    ce80:	8fd9                	or	a5,a5,a4
    ce82:	00f41623          	sh	a5,12(s0)
    ce86:	c868                	sw	a0,84(s0)
    ce88:	b7fd                	j	ce76 <__sseek+0x22>

0000ce8a <__sclose>:
    ce8a:	00e59583          	lh	a1,14(a1)
    ce8e:	a825                	j	cec6 <_close_r>

0000ce90 <_write_r>:
    ce90:	1141                	addi	sp,sp,-16
    ce92:	c422                	sw	s0,8(sp)
    ce94:	842a                	mv	s0,a0
    ce96:	852e                	mv	a0,a1
    ce98:	85b2                	mv	a1,a2
    ce9a:	8636                	mv	a2,a3
    ce9c:	1fff6797          	auipc	a5,0x1fff6
    cea0:	5607a423          	sw	zero,1384(a5) # 20003404 <errno>
    cea4:	c606                	sw	ra,12(sp)
    cea6:	c9ef70ef          	jal	ra,4344 <_write>
    ceaa:	57fd                	li	a5,-1
    ceac:	00f51963          	bne	a0,a5,cebe <_write_r+0x2e>
    ceb0:	1fff6797          	auipc	a5,0x1fff6
    ceb4:	55478793          	addi	a5,a5,1364 # 20003404 <errno>
    ceb8:	439c                	lw	a5,0(a5)
    ceba:	c391                	beqz	a5,cebe <_write_r+0x2e>
    cebc:	c01c                	sw	a5,0(s0)
    cebe:	40b2                	lw	ra,12(sp)
    cec0:	4422                	lw	s0,8(sp)
    cec2:	0141                	addi	sp,sp,16
    cec4:	8082                	ret

0000cec6 <_close_r>:
    cec6:	1141                	addi	sp,sp,-16
    cec8:	c422                	sw	s0,8(sp)
    ceca:	842a                	mv	s0,a0
    cecc:	852e                	mv	a0,a1
    cece:	1fff6797          	auipc	a5,0x1fff6
    ced2:	5207ab23          	sw	zero,1334(a5) # 20003404 <errno>
    ced6:	c606                	sw	ra,12(sp)
    ced8:	2209                	jal	cfda <_close>
    ceda:	57fd                	li	a5,-1
    cedc:	00f51963          	bne	a0,a5,ceee <_close_r+0x28>
    cee0:	1fff6797          	auipc	a5,0x1fff6
    cee4:	52478793          	addi	a5,a5,1316 # 20003404 <errno>
    cee8:	439c                	lw	a5,0(a5)
    ceea:	c391                	beqz	a5,ceee <_close_r+0x28>
    ceec:	c01c                	sw	a5,0(s0)
    ceee:	40b2                	lw	ra,12(sp)
    cef0:	4422                	lw	s0,8(sp)
    cef2:	0141                	addi	sp,sp,16
    cef4:	8082                	ret

0000cef6 <_fstat_r>:
    cef6:	1141                	addi	sp,sp,-16
    cef8:	c422                	sw	s0,8(sp)
    cefa:	842a                	mv	s0,a0
    cefc:	852e                	mv	a0,a1
    cefe:	85b2                	mv	a1,a2
    cf00:	1fff6797          	auipc	a5,0x1fff6
    cf04:	5007a223          	sw	zero,1284(a5) # 20003404 <errno>
    cf08:	c606                	sw	ra,12(sp)
    cf0a:	20c5                	jal	cfea <_fstat>
    cf0c:	57fd                	li	a5,-1
    cf0e:	00f51963          	bne	a0,a5,cf20 <_fstat_r+0x2a>
    cf12:	1fff6797          	auipc	a5,0x1fff6
    cf16:	4f278793          	addi	a5,a5,1266 # 20003404 <errno>
    cf1a:	439c                	lw	a5,0(a5)
    cf1c:	c391                	beqz	a5,cf20 <_fstat_r+0x2a>
    cf1e:	c01c                	sw	a5,0(s0)
    cf20:	40b2                	lw	ra,12(sp)
    cf22:	4422                	lw	s0,8(sp)
    cf24:	0141                	addi	sp,sp,16
    cf26:	8082                	ret

0000cf28 <_isatty_r>:
    cf28:	1141                	addi	sp,sp,-16
    cf2a:	c422                	sw	s0,8(sp)
    cf2c:	842a                	mv	s0,a0
    cf2e:	852e                	mv	a0,a1
    cf30:	1fff6797          	auipc	a5,0x1fff6
    cf34:	4c07aa23          	sw	zero,1236(a5) # 20003404 <errno>
    cf38:	c606                	sw	ra,12(sp)
    cf3a:	20c1                	jal	cffa <_isatty>
    cf3c:	57fd                	li	a5,-1
    cf3e:	00f51963          	bne	a0,a5,cf50 <_isatty_r+0x28>
    cf42:	1fff6797          	auipc	a5,0x1fff6
    cf46:	4c278793          	addi	a5,a5,1218 # 20003404 <errno>
    cf4a:	439c                	lw	a5,0(a5)
    cf4c:	c391                	beqz	a5,cf50 <_isatty_r+0x28>
    cf4e:	c01c                	sw	a5,0(s0)
    cf50:	40b2                	lw	ra,12(sp)
    cf52:	4422                	lw	s0,8(sp)
    cf54:	0141                	addi	sp,sp,16
    cf56:	8082                	ret

0000cf58 <_lseek_r>:
    cf58:	1141                	addi	sp,sp,-16
    cf5a:	c422                	sw	s0,8(sp)
    cf5c:	842a                	mv	s0,a0
    cf5e:	852e                	mv	a0,a1
    cf60:	85b2                	mv	a1,a2
    cf62:	8636                	mv	a2,a3
    cf64:	1fff6797          	auipc	a5,0x1fff6
    cf68:	4a07a023          	sw	zero,1184(a5) # 20003404 <errno>
    cf6c:	c606                	sw	ra,12(sp)
    cf6e:	2871                	jal	d00a <_lseek>
    cf70:	57fd                	li	a5,-1
    cf72:	00f51963          	bne	a0,a5,cf84 <_lseek_r+0x2c>
    cf76:	1fff6797          	auipc	a5,0x1fff6
    cf7a:	48e78793          	addi	a5,a5,1166 # 20003404 <errno>
    cf7e:	439c                	lw	a5,0(a5)
    cf80:	c391                	beqz	a5,cf84 <_lseek_r+0x2c>
    cf82:	c01c                	sw	a5,0(s0)
    cf84:	40b2                	lw	ra,12(sp)
    cf86:	4422                	lw	s0,8(sp)
    cf88:	0141                	addi	sp,sp,16
    cf8a:	8082                	ret

0000cf8c <memchr>:
    cf8c:	0ff5f593          	andi	a1,a1,255
    cf90:	962a                	add	a2,a2,a0
    cf92:	00c51463          	bne	a0,a2,cf9a <memchr+0xe>
    cf96:	4501                	li	a0,0
    cf98:	8082                	ret
    cf9a:	00054783          	lbu	a5,0(a0)
    cf9e:	feb78de3          	beq	a5,a1,cf98 <memchr+0xc>
    cfa2:	0505                	addi	a0,a0,1
    cfa4:	b7fd                	j	cf92 <memchr+0x6>

0000cfa6 <_read_r>:
    cfa6:	1141                	addi	sp,sp,-16
    cfa8:	c422                	sw	s0,8(sp)
    cfaa:	842a                	mv	s0,a0
    cfac:	852e                	mv	a0,a1
    cfae:	85b2                	mv	a1,a2
    cfb0:	8636                	mv	a2,a3
    cfb2:	1fff6797          	auipc	a5,0x1fff6
    cfb6:	4407a923          	sw	zero,1106(a5) # 20003404 <errno>
    cfba:	c606                	sw	ra,12(sp)
    cfbc:	28b9                	jal	d01a <_read>
    cfbe:	57fd                	li	a5,-1
    cfc0:	00f51963          	bne	a0,a5,cfd2 <_read_r+0x2c>
    cfc4:	1fff6797          	auipc	a5,0x1fff6
    cfc8:	44078793          	addi	a5,a5,1088 # 20003404 <errno>
    cfcc:	439c                	lw	a5,0(a5)
    cfce:	c391                	beqz	a5,cfd2 <_read_r+0x2c>
    cfd0:	c01c                	sw	a5,0(s0)
    cfd2:	40b2                	lw	ra,12(sp)
    cfd4:	4422                	lw	s0,8(sp)
    cfd6:	0141                	addi	sp,sp,16
    cfd8:	8082                	ret

0000cfda <_close>:
    cfda:	05800793          	li	a5,88
    cfde:	1fff6717          	auipc	a4,0x1fff6
    cfe2:	42f72323          	sw	a5,1062(a4) # 20003404 <errno>
    cfe6:	557d                	li	a0,-1
    cfe8:	8082                	ret

0000cfea <_fstat>:
    cfea:	05800793          	li	a5,88
    cfee:	1fff6717          	auipc	a4,0x1fff6
    cff2:	40f72b23          	sw	a5,1046(a4) # 20003404 <errno>
    cff6:	557d                	li	a0,-1
    cff8:	8082                	ret

0000cffa <_isatty>:
    cffa:	05800793          	li	a5,88
    cffe:	1fff6717          	auipc	a4,0x1fff6
    d002:	40f72323          	sw	a5,1030(a4) # 20003404 <errno>
    d006:	4501                	li	a0,0
    d008:	8082                	ret

0000d00a <_lseek>:
    d00a:	05800793          	li	a5,88
    d00e:	1fff6717          	auipc	a4,0x1fff6
    d012:	3ef72b23          	sw	a5,1014(a4) # 20003404 <errno>
    d016:	557d                	li	a0,-1
    d018:	8082                	ret

0000d01a <_read>:
    d01a:	05800793          	li	a5,88
    d01e:	1fff6717          	auipc	a4,0x1fff6
    d022:	3ef72323          	sw	a5,998(a4) # 20003404 <errno>
    d026:	557d                	li	a0,-1
    d028:	8082                	ret
    d02a:	0000                	unimp
    d02c:	0001                	nop
    d02e:	0000                	unimp
    d030:	0001                	nop
    d032:	0000                	unimp
    d034:	0000                	unimp
    d036:	0000                	unimp
    d038:	2e2e                	fld	ft8,200(sp)
    d03a:	646f432f          	0x646f432f
    d03e:	2f65                	jal	d7f6 <TWO52+0x8e>
    d040:	76726553          	0x76726553
    d044:	6369                	lui	t1,0x1a
    d046:	2f65                	jal	d7fe <TWO52+0x96>
    d048:	7246                	flw	ft4,112(sp)
    d04a:	6565                	lui	a0,0x19
    d04c:	5452                	lw	s0,52(sp)
    d04e:	702f534f          	fnmadd.s	ft6,ft10,ft2,fa4,unknown
    d052:	6174726f          	jal	tp,54e68 <_data_lma+0x47404>
    d056:	6c62                	flw	fs8,24(sp)
    d058:	2f65                	jal	d810 <TWO52+0xa8>
    d05a:	654d                	lui	a0,0x13
    d05c:	4d6d                	li	s10,27
    d05e:	6e61                	lui	t3,0x18
    d060:	65682f67          	0x65682f67
    d064:	7061                	c.lui	zero,0xffff8
    d066:	345f 632e 0000      	0x632e345f
    d06c:	7265                	lui	tp,0xffff9
    d06e:	2072                	fld	ft0,280(sp)
    d070:	7461                	lui	s0,0xffff8
    d072:	6c20                	flw	fs0,88(s0)
    d074:	6e69                	lui	t3,0x1a
    d076:	2065                	jal	d11e <_read+0x104>
    d078:	6425                	lui	s0,0x9
    d07a:	6f20                	flw	fs0,88(a4)
    d07c:	2066                	fld	ft0,88(sp)
    d07e:	6966                	flw	fs2,88(sp)
    d080:	656c                	flw	fa1,76(a0)
    d082:	2220                	fld	fs0,64(a2)
    d084:	7325                	lui	t1,0xfffe9
    d086:	2e22                	fld	ft8,8(sp)
    d088:	0d20                	addi	s0,sp,664
    d08a:	200a                	fld	ft0,128(sp)
    d08c:	0000                	unimp
    d08e:	0000                	unimp
    d090:	2e2e                	fld	ft8,200(sp)
    d092:	646f432f          	0x646f432f
    d096:	2f65                	jal	d84e <TWO52+0xe6>
    d098:	76726553          	0x76726553
    d09c:	6369                	lui	t1,0x1a
    d09e:	2f65                	jal	d856 <TWO52+0xee>
    d0a0:	7246                	flw	ft4,112(sp)
    d0a2:	6565                	lui	a0,0x19
    d0a4:	5452                	lw	s0,52(sp)
    d0a6:	702f534f          	fnmadd.s	ft6,ft10,ft2,fa4,unknown
    d0aa:	6174726f          	jal	tp,54ec0 <_data_lma+0x4745c>
    d0ae:	6c62                	flw	fs8,24(sp)
    d0b0:	2f65                	jal	d868 <TWO52+0x100>
    d0b2:	2f434347          	fmsub.q	ft6,ft6,fs4,ft5,rmm
    d0b6:	4952                	lw	s2,20(sp)
    d0b8:	562d4353          	0x562d4353
    d0bc:	726f702f          	0x726f702f
    d0c0:	2e74                	fld	fa3,216(a2)
    d0c2:	2e2e0063          	beq	t3,sp,d3a2 <atanlo+0x5a>
    d0c6:	646f432f          	0x646f432f
    d0ca:	2f65                	jal	d882 <TWO52+0x11a>
    d0cc:	76726553          	0x76726553
    d0d0:	6369                	lui	t1,0x1a
    d0d2:	2f65                	jal	d88a <TWO52+0x122>
    d0d4:	7246                	flw	ft4,112(sp)
    d0d6:	6565                	lui	a0,0x19
    d0d8:	5452                	lw	s0,52(sp)
    d0da:	712f534f          	fnmadd.s	ft6,ft10,fs2,fa4,unknown
    d0de:	6575                	lui	a0,0x1d
    d0e0:	6575                	lui	a0,0x1d
    d0e2:	632e                	flw	ft6,200(sp)
    d0e4:	0000                	unimp
    d0e6:	0000                	unimp
    d0e8:	1eb0                	addi	a2,sp,888
    d0ea:	0000                	unimp
    d0ec:	1ea2                	slli	t4,t4,0x28
    d0ee:	0000                	unimp
    d0f0:	1eaa                	slli	t4,t4,0x2a
    d0f2:	0000                	unimp
    d0f4:	1ea6                	slli	t4,t4,0x29
    d0f6:	0000                	unimp
    d0f8:	1ec6                	slli	t4,t4,0x31
    d0fa:	0000                	unimp
    d0fc:	2e2e                	fld	ft8,200(sp)
    d0fe:	646f432f          	0x646f432f
    d102:	2f65                	jal	d8ba <TWO52+0x152>
    d104:	76726553          	0x76726553
    d108:	6369                	lui	t1,0x1a
    d10a:	2f65                	jal	d8c2 <TWO52+0x15a>
    d10c:	7246                	flw	ft4,112(sp)
    d10e:	6565                	lui	a0,0x19
    d110:	5452                	lw	s0,52(sp)
    d112:	742f534f          	0x742f534f
    d116:	7361                	lui	t1,0xffff8
    d118:	632e736b          	0x632e736b
    d11c:	0000                	unimp
    d11e:	0000                	unimp
    d120:	4449                	li	s0,18
    d122:	454c                	lw	a1,12(a0)
    d124:	0000                	unimp
    d126:	0000                	unimp
    d128:	2328                	fld	fa0,64(a4)
    d12a:	0000                	unimp
    d12c:	2328                	fld	fa0,64(a4)
    d12e:	0000                	unimp
    d130:	2368                	fld	fa0,192(a4)
    d132:	0000                	unimp
    d134:	2374                	fld	fa3,192(a4)
    d136:	0000                	unimp
    d138:	23b6                	fld	ft7,328(sp)
    d13a:	0000                	unimp
    d13c:	2328                	fld	fa0,64(a4)
    d13e:	0000                	unimp
    d140:	2328                	fld	fa0,64(a4)
    d142:	0000                	unimp
    d144:	2368                	fld	fa0,192(a4)
    d146:	0000                	unimp
    d148:	2374                	fld	fa3,192(a4)
    d14a:	0000                	unimp
    d14c:	6d54                	flw	fa3,28(a0)
    d14e:	5172                	lw	sp,60(sp)
    d150:	0000                	unimp
    d152:	0000                	unimp
    d154:	2e2e                	fld	ft8,200(sp)
    d156:	646f432f          	0x646f432f
    d15a:	2f65                	jal	d912 <__clz_tab+0x4a>
    d15c:	76726553          	0x76726553
    d160:	6369                	lui	t1,0x1a
    d162:	2f65                	jal	d91a <__clz_tab+0x52>
    d164:	7246                	flw	ft4,112(sp)
    d166:	6565                	lui	a0,0x19
    d168:	5452                	lw	s0,52(sp)
    d16a:	742f534f          	0x742f534f
    d16e:	6d69                	lui	s10,0x1a
    d170:	7265                	lui	tp,0xffff9
    d172:	00632e73          	csrrs	t3,0x6,t1
    d176:	0000                	unimp
    d178:	6d54                	flw	fa3,28(a0)
    d17a:	2072                	fld	ft0,280(sp)
    d17c:	00637653          	fadd.s	fa2,ft6,ft6
    d180:	0000                	unimp
    d182:	4461                	li	s0,24
	...
    d18c:	0000                	unimp
    d18e:	3fe0                	fld	fs0,248(a5)
    d190:	0000                	unimp
    d192:	4040                	lw	s0,4(s0)
    d194:	0000                	unimp
    d196:	4080                	lw	s0,0(s1)
    d198:	e712                	fsw	ft4,140(sp)
    d19a:	a1fa                	fsd	ft10,192(sp)
    d19c:	df46                	sw	a7,188(sp)
    d19e:	3f91                	jal	d0f2 <_read+0xd8>
    d1a0:	5c2d                	li	s8,-21
    d1a2:	3dad                	jal	d01c <_read+0x2>
    d1a4:	0000                	unimp
    d1a6:	0000                	unimp
    d1a8:	1af05a77          	0x1af05a77
    d1ac:	a5dc                	fsd	fa5,136(a1)
    d1ae:	404c                	lw	a1,4(s0)
    d1b0:	0000                	unimp
    d1b2:	3f80                	fld	fs0,56(a5)
    d1b4:	0000                	unimp
    d1b6:	4120                	lw	s0,64(a0)
    d1b8:	0000                	unimp
    d1ba:	42c8                	lw	a0,4(a3)
	...
    d1c4:	0000                	unimp
    d1c6:	3f30                	fld	fa2,120(a4)
    d1c8:	6666                	flw	fa2,88(sp)
    d1ca:	6666                	flw	fa2,88(sp)
    d1cc:	6666                	flw	fa2,88(sp)
    d1ce:	400a                	0x400a
    d1d0:	33333333          	0x33333333
    d1d4:	4033b333          	0x4033b333
    d1d8:	cccd                	beqz	s1,d292 <_read+0x278>
    d1da:	cccc                	sw	a1,28(s1)
    d1dc:	cccc                	sw	a1,28(s1)
    d1de:	4012                	0x4012
    d1e0:	cccc                	sw	a1,28(s1)
    d1e2:	cccc                	sw	a1,28(s1)
    d1e4:	cccc                	sw	a1,28(s1)
    d1e6:	4004                	lw	s1,0(s0)
    d1e8:	0000                	unimp
    d1ea:	3980                	fld	fs0,48(a1)
	...
    d1f4:	6000                	flw	fs0,0(s0)
    d1f6:	4050                	lw	a2,4(s0)
    d1f8:	0000                	unimp
    d1fa:	44fa                	lw	s1,156(sp)
	...
    d204:	3000                	fld	fs0,32(s0)
    d206:	4070                	lw	a2,68(s0)
    d208:	0000                	unimp
    d20a:	0000                	unimp
    d20c:	1000                	addi	s0,sp,32
    d20e:	4078                	lw	a4,68(s0)
    d210:	0000                	unimp
    d212:	0000                	unimp
    d214:	6000                	flw	fs0,0(s0)
    d216:	4064                	lw	s1,68(s0)
    d218:	c49c                	sw	a5,8(s1)
    d21a:	b020                	fsd	fs0,96(s0)
    d21c:	6872                	flw	fa6,28(sp)
    d21e:	3f91                	jal	d172 <_read+0x158>
    d220:	0000                	unimp
    d222:	46c8                	lw	a0,12(a3)
    d224:	0000                	unimp
    d226:	0000                	unimp
    d228:	1a36e2eb          	0x1a36e2eb
    d22c:	5bc0                	lw	s0,52(a5)
    d22e:	3fc8                	fld	fa0,184(a5)
    d230:	0000                	unimp
    d232:	0000                	unimp
    d234:	0000                	unimp
    d236:	3ff0                	fld	fa2,248(a5)
    d238:	0000                	unimp
    d23a:	0000                	unimp
    d23c:	a540                	fsd	fs0,136(a0)
    d23e:	40e5                	li	ra,25
    d240:	0000                	unimp
    d242:	3f00                	fld	fs0,56(a4)
    d244:	736e6553          	0x736e6553
    d248:	4320726f          	jal	tp,1467a <_data_lma+0x6c16>
    d24c:	656c6c6f          	jal	s8,d38a2 <_data_lma+0xc5e3e>
    d250:	6f697463          	bgeu	s2,s6,d938 <__clz_tab+0x70>
    d254:	006e                	c.slli	zero,0x1b
    d256:	0000                	unimp
    d258:	736e6553          	0x736e6553
    d25c:	4620726f          	jal	tp,146be <_data_lma+0x6c5a>
    d260:	7375                	lui	t1,0xffffd
    d262:	6f69                	lui	t5,0x1a
    d264:	006e                	c.slli	zero,0x1b
    d266:	0000                	unimp
    d268:	7041                	c.lui	zero,0xffff0
    d26a:	2070                	fld	fa2,192(s0)
    d26c:	6d6d6f43          	0x6d6d6f43
    d270:	6e75                	lui	t3,0x1d
    d272:	6369                	lui	t1,0x1a
    d274:	7461                	lui	s0,0xffff8
    d276:	6f69                	lui	t5,0x1a
    d278:	006e                	c.slli	zero,0x1b
    d27a:	0000                	unimp
    d27c:	614d                	addi	sp,sp,176
    d27e:	72657473          	csrrci	s0,0x726,10
    d282:	0000                	unimp
    d284:	756f6873          	csrrsi	a6,0x756,30
    d288:	646c                	flw	fa1,76(s0)
    d28a:	276e                	fld	fa4,216(sp)
    d28c:	2074                	fld	fa3,192(s0)
    d28e:	7572                	flw	fa0,60(sp)
    d290:	206e                	fld	ft0,216(sp)
    d292:	7461                	lui	s0,0xffff8
    d294:	6820                	flw	fs0,80(s0)
    d296:	7265                	lui	tp,0xffff9
    d298:	2165                	jal	d740 <init_jk+0x20>
    d29a:	0021                	c.nop	8
    d29c:	0000                	unimp
    d29e:	0000                	unimp
    d2a0:	2d18                	fld	fa4,24(a0)
    d2a2:	5444                	lw	s1,44(s0)
    d2a4:	3ff921fb          	0x3ff921fb
    d2a8:	2d18                	fld	fa4,24(a0)
    d2aa:	5444                	lw	s1,44(s0)
    d2ac:	bff921fb          	0xbff921fb
    d2b0:	759c                	flw	fa5,40(a1)
    d2b2:	8800                	0x8800
    d2b4:	e43c                	fsw	fa5,72(s0)
    d2b6:	00007e37          	lui	t3,0x7
    d2ba:	0000                	unimp
    d2bc:	0000                	unimp
    d2be:	4000                	lw	s0,0(s0)
    d2c0:	0000                	unimp
    d2c2:	0000                	unimp
    d2c4:	0000                	unimp
    d2c6:	3ff8                	fld	fa4,248(a5)
    d2c8:	0000                	unimp
    d2ca:	0000                	unimp
    d2cc:	0000                	unimp
    d2ce:	bff0                	fsd	fa2,248(a5)
    d2d0:	da11                	beqz	a2,d1e4 <_read+0x1ca>
    d2d2:	e322                	fsw	fs0,132(sp)
    d2d4:	ad3a                	fsd	fa4,152(sp)
    d2d6:	3f90                	fld	fa2,56(a5)
    d2d8:	24760deb          	0x24760deb
    d2dc:	3fa97b4b          	fnmsub.q	fs6,fs2,fs10,ft7
    d2e0:	3d51                	jal	d174 <_read+0x15a>
    d2e2:	a0d0                	fsd	fa2,128(s1)
    d2e4:	0d66                	slli	s10,s10,0x19
    d2e6:	3fb1                	jal	d242 <_read+0x228>
    d2e8:	206e                	fld	ft0,216(sp)
    d2ea:	c54c                	sw	a1,12(a0)
    d2ec:	45cd                	li	a1,19
    d2ee:	83ff3fb7          	lui	t6,0x83ff3
    d2f2:	9200                	0x9200
    d2f4:	4924                	lw	s1,80(a0)
    d2f6:	3fc2                	fld	ft11,48(sp)
    d2f8:	550d                	li	a0,-29
    d2fa:	5555                	li	a0,-11
    d2fc:	5555                	li	a0,-11
    d2fe:	3fd5                	jal	d2f2 <_read+0x2d8>
    d300:	2c6a6c2f          	0x2c6a6c2f
    d304:	b444                	fsd	fs1,168(s0)
    d306:	bfa2                	fsd	fs0,504(sp)
    d308:	fd9a                	fsw	ft6,248(sp)
    d30a:	52de                	lw	t0,244(sp)
    d30c:	de2d                	beqz	a2,d286 <_read+0x26c>
    d30e:	3fad                	jal	d288 <_read+0x26e>
    d310:	9a6d                	andi	a2,a2,-5
    d312:	af74                	fsd	fa3,216(a4)
    d314:	b0f2                	fsd	ft8,96(sp)
    d316:	16713fb3          	0x16713fb3
    d31a:	71c6fe23          	0x71c6fe23
    d31e:	3fbc                	fld	fa5,120(a5)
    d320:	ebc4                	fsw	fs1,20(a5)
    d322:	9998                	0x9998
    d324:	9999                	andi	a1,a1,-26
    d326:	3fc9                	jal	d2f8 <_read+0x2de>

0000d328 <atanhi>:
    d328:	bb4f 0561 ac67 3fdd 2d18 5444 21fb 3fe9     O.a.g..?.-DT.!.?
    d338:	f69b d281 730b 3fef 2d18 5444 21fb 3ff9     .....s.?.-DT.!.?

0000d348 <atanlo>:
    d348:	65e2 222f 2b7f 3c7a 5c07 3314 a626 3c81     .e/".+z<.\.3&..<
    d358:	cbbd 7af0 0788 3c70 5c07 3314 a626 3c91     ...z..p<.\.3&..<
    d368:	0000 0000 0000 fff0 0000 e000 ffff 47ef     ...............G
    d378:	0000 e000 ffff c7ef 0000 0000 0000 7ff0     ................
    d388:	6f70 0077 7173 7472 0000 0000 0000 0000     pow.sqrt........
    d398:	2d18 5444 21fb 4009 2d18 5444 21fb c009     .-DT.!.@.-DT.!..
    d3a8:	0000 0000 0000 8000 21d2 7f33 d97c 4002     .........!3.|..@
    d3b8:	21d2 7f33 d97c c002 2d18 5444 21fb 3fe9     .!3.|....-DT.!.?
    d3c8:	2d18 5444 21fb bfe9 5c07 3314 a626 3ca1     .-DT.!...\.3&..<
    d3d8:	0000 4000 b803 3fe2 d006 43cf fdeb 3e4c     ...@...?...C..L>
    d3e8:	0000 6000 1547 3ff7 df44 f85d ae0b 3e54     ...`G..?D.]...T>
    d3f8:	0000 0000 0000 3fd0 5555 5555 5555 3fd5     .......?UUUUUU.?
    d408:	82fe 652b 1547 3ff7 0000 0000 0000 4340     ..+eG..?......@C
    d418:	4eef 4a45 7e28 3fca db65 93c9 864a 3fcd     .NEJ(~.?e...J..?
    d428:	4101 a91d 7460 3fd1 264d 518f 5555 3fd5     .A..`t.?M&.QUU.?
    d438:	abff db6f 6db6 3fdb 3303 3333 3333 3fe3     ..o..m.?.33333.?
    d448:	0000 0000 0000 4008 0000 e000 c709 3fee     .......@.......?
    d458:	03fd dc3a c709 3fee 01f5 145b 2fe0 be3e     ..:....?..[../>.
    d468:	82fe 652b 1547 3c97 f359 c2f8 6e1f 01a5     ..+eG..<Y....n..
    d478:	0000 0000 2e43 3fe6 39ef fefa 2e42 3fe6     ....C..?.9..B..?
    d488:	6c39 0ca8 5c61 be20 a4d0 72be 3769 3e66     9l..a\ ....ri7f>
    d498:	6bf1 c5d2 bd41 3ebb de2c af25 566a 3f11     .k..A..>,.%.jV.?
    d4a8:	bd93 16be c16c 3f66 553e 5555 5555 3fc5     ....l.f?>UUUUU.?
    d4b8:	0000 5440 21fb 3ff9 6331 1a62 b461 3dd0     ..@T.!.?1cb.a..=
    d4c8:	0000 1a60 b461 3dd0 7073 2e03 198a 3ba3     ..`.a..=sp.....;
    d4d8:	c883 6dc9 5f30 3fe4 0000 2e00 198a 3ba3     ...m0_.?.......;
    d4e8:	49c1 2520 839a 397b 0000 0000 0000 4170     .I %..{9......pA

0000d4f8 <npio2_hw>:
    d4f8:	21fb 3ff9 21fb 4009 d97c 4012 21fb 4019     .!.?.!.@|..@.!.@
    d508:	6a7a 401f d97c 4022 fdbb 4025 21fb 4029     zj.@|."@..%@.!)@
    d518:	463a 402c 6a7a 402f 475c 4031 d97c 4032     :F,@zj/@\G1@|.2@
    d528:	6b9c 4034 fdbb 4035 8fdb 4037 21fb 4039     .k4@..5@..7@.!9@
    d538:	b41b 403a 463a 403c d85a 403d 6a7a 403f     ..:@:F<@Z.=@zj?@
    d548:	7e4c 4040 475c 4041 106c 4042 d97c 4042     L~@@\GA@l.B@|.B@
    d558:	a28c 4043 6b9c 4044 34ac 4045 fdbb 4045     ..C@.kD@.4E@..E@
    d568:	c6cb 4046 8fdb 4047 58eb 4048 21fb 4049     ..F@..G@.XH@.!I@

0000d578 <two_over_pi>:
    d578:	f983 00a2 4e44 006e 29fc 0015 57d1 0027     ....DNn..)...W'.
    d588:	34dd 00f5 db62 00c0 993c 0095 9041 0043     .4..b...<...A.C.
    d598:	5163 00fe debb 00ab 61b7 00c5 6e3a 0024     cQ.......a..:n$.
    d5a8:	4dd2 0042 0649 00e0 ea09 002e 921c 00d1     .MB.I...........
    d5b8:	1deb 00fe b129 001c 3ee8 00a7 35f5 0082     ....)....>...5..
    d5c8:	bb44 002e e99c 0084 26b4 0070 7e41 005f     D........&p.A~_.
    d5d8:	91d6 0039 8353 0039 f49c 0039 5f8b 0084     ..9.S.9...9.._..
    d5e8:	f928 00bd 1ff8 003b ffde 0097 980f 0005     (.....;.........
    d5f8:	2f11 00ef 5a0a 008b 1f6d 006d 7ecf 0036     ./...Z..m.m..~6.
    d608:	cb09 0027 4f46 00b7 669e 003f ea2d 005f     ..'.FO...f?.-._.
    d618:	27ba 0075 ebe5 00c7 7b3d 00f1 39f7 0007     .'u.....={...9..
    d628:	5292 008a 6bfb 00ea b11f 005f 5d08 008d     .R...k...._..]..
    d638:	0330 0056 fc7b 0046 abf0 006b bc20 00cf     0.V.{.F...k. ...
    d648:	f436 009a a9e3 001d 615e 0091 1b08 00e6     6.......^a......
    d658:	9985 0065 14a0 005f 408d 0068 d880 00ff     ..e..._..@h.....
    d668:	7327 004d 0606 0031 56ca 0015 a8c9 0073     'sM...1..V....s.
    d678:	e27b 0060 8c6b 00c0 0000 0000 0000 3fe7     {.`.k..........?
    d688:	0000 0000 0000 3fd2 38d4 be88 fae9 bda8     .......?.8......
    d698:	b1c4 bdb4 ee9e 3e21 52ad 809c 7e4f 3e92     ......!>.R..O~.>
    d6a8:	1590 19cb 01a0 3efa 5177 16c1 c16c 3f56     .......>wQ..l.V?
    d6b8:	554c 5555 5555 3fa5                         LUUUUU.?

0000d6c0 <PIo2>:
    d6c0:	0000 4000 21fb 3ff9 0000 0000 442d 3e74     ...@.!.?....-Dt>
    d6d0:	0000 8000 4698 3cf8 0000 6000 cc51 3b78     .....F.<...`Q.x;
    d6e0:	0000 8000 1b83 39f0 0000 4000 2520 387a     .......9...@ %z8
    d6f0:	0000 8000 8222 36e3 0000 0000 f31d 3569     ...."..6......i5
    d700:	0000 4000 21fb 3ff9 0000 0000 0000 3e70     ...@.!.?......p>
    d710:	0000 0000 0000 3fc0 0000 0000 0000 4020     .......?...... @

0000d720 <init_jk>:
    d720:	0002 0000 0003 0000 0004 0000 0006 0000     ................
    d730:	d57c 5acf d93a 3de5 9ceb 8a2b e5e6 3e5a     |..Z:..=..+...Z>
    d740:	fe7d 57b1 1de3 3ec7 61d5 19c1 01a0 3f2a     }..W...>.a....*?
    d750:	f8a6 1110 1111 3f81 5549 5555 5555 3fc5     .......?IUUUUU.?
    d760:	0000 0000 0000 7ff8                         ........

0000d768 <TWO52>:
    d768:	0000 0000 0000 4330 0000 0000 0000 c330     ......0C......0.
    d778:	0000 0000 0000 4350 0000 0000 0000 3c90     ......PC.......<
    d788:	c0ce ffff bf52 ffff c062 ffff c06a ffff     ....R...b...j...
    d798:	c062 ffff bf82 ffff c062 ffff c06a ffff     b.......b...j...
    d7a8:	bf52 ffff bf52 ffff bf82 ffff c06a ffff     R...R.......j...
    d7b8:	c0c4 ffff c0c4 ffff c0c4 ffff bf82 ffff     ................
    d7c8:	c7de ffff c6d0 ffff c6d0 ffff c6ce ffff     ................
    d7d8:	c6d6 ffff c6d6 ffff c69c ffff c6ce ffff     ................
    d7e8:	c6d6 ffff c69c ffff c6d6 ffff c6ce ffff     ................
    d7f8:	c7ca ffff c7ca ffff c7ca ffff c69c ffff     ................
    d808:	d826 ffff d74c ffff d820 ffff d754 ffff     &...L... ...T...
    d818:	d820 ffff d71a ffff d820 ffff d754 ffff      ....... ...T...
    d828:	d74c ffff d74c ffff d71a ffff d754 ffff     L...L.......T...
    d838:	d75a ffff d75a ffff d75a ffff d71a ffff     Z...Z...Z.......
    d848:	d70c ffff d70c ffff d7e0 ffff d8bc ffff     ................
    d858:	d7e0 ffff d6da ffff d7e0 ffff d8bc ffff     ................
    d868:	d70c ffff d70c ffff d6da ffff d8bc ffff     ................
    d878:	d71a ffff d71a ffff d71a ffff d6da ffff     ................
    d888:	daa8 ffff d9f6 ffff d9f6 ffff d9f4 ffff     ................
    d898:	d9fa ffff d9fa ffff d9ca ffff d9f4 ffff     ................
    d8a8:	d9fa ffff d9ca ffff d9fa ffff d9f4 ffff     ................
    d8b8:	da96 ffff da96 ffff da96 ffff d9ca ffff     ................

0000d8c8 <__clz_tab>:
    d8c8:	0100 0202 0303 0303 0404 0404 0404 0404     ................
    d8d8:	0505 0505 0505 0505 0505 0505 0505 0505     ................
    d8e8:	0606 0606 0606 0606 0606 0606 0606 0606     ................
    d8f8:	0606 0606 0606 0606 0606 0606 0606 0606     ................
    d908:	0707 0707 0707 0707 0707 0707 0707 0707     ................
    d918:	0707 0707 0707 0707 0707 0707 0707 0707     ................
    d928:	0707 0707 0707 0707 0707 0707 0707 0707     ................
    d938:	0707 0707 0707 0707 0707 0707 0707 0707     ................
    d948:	0808 0808 0808 0808 0808 0808 0808 0808     ................
    d958:	0808 0808 0808 0808 0808 0808 0808 0808     ................
    d968:	0808 0808 0808 0808 0808 0808 0808 0808     ................
    d978:	0808 0808 0808 0808 0808 0808 0808 0808     ................
    d988:	0808 0808 0808 0808 0808 0808 0808 0808     ................
    d998:	0808 0808 0808 0808 0808 0808 0808 0808     ................
    d9a8:	0808 0808 0808 0808 0808 0808 0808 0808     ................
    d9b8:	0808 0808 0808 0808 0808 0808 0808 0808     ................

0000d9c8 <__sf_fake_stderr>:
	...

0000d9e8 <__sf_fake_stdin>:
	...

0000da08 <__sf_fake_stdout>:
	...
    da28:	2d23 2b30 0020 0000 6c68 004c 6665 4567     #-0+ ...hlL.efgE
    da38:	4746 0000 3130 3332 3534 3736 3938 4241     FG..0123456789AB
    da48:	4443 4645 0000 0000 3130 3332 3534 3736     CDEF....01234567
    da58:	3938 6261 6463 6665 0000 0000               89abcdef....
