
Drone Board.elf:     file format elf32-littleriscv
Drone Board.elf
architecture: riscv:rv32, flags 0x00000112:
EXEC_P, HAS_SYMS, D_PAGED
start address 0x00000000

Program Header:
    LOAD off    0x00001000 vaddr 0x00000000 paddr 0x00000000 align 2**12
         filesz 0x0000ae94 memsz 0x0000ae94 flags r-x
    LOAD off    0x0000c000 vaddr 0x20000000 paddr 0x0000ae94 align 2**12
         filesz 0x000000a8 memsz 0x00003364 flags rw-
    LOAD off    0x0000c800 vaddr 0x20004800 paddr 0x20004800 align 2**12
         filesz 0x00000000 memsz 0x00000800 flags rw-

Sections:
Idx Name          Size      VMA       LMA       File off  Algn
  0 .init         00000038  00000000  00000000  00001000  2**1
                  CONTENTS, ALLOC, LOAD, READONLY, CODE
  1 .vector       00000108  00000038  00000038  00001038  2**1
                  CONTENTS, ALLOC, LOAD, READONLY, CODE
  2 .text         0000ac94  00000200  00000200  00001200  2**8
                  CONTENTS, ALLOC, LOAD, READONLY, CODE
  3 .fini         00000000  0000ae94  0000ae94  0000c0a8  2**0
                  CONTENTS, ALLOC, LOAD, CODE
  4 .dalign       00000000  20000000  20000000  0000c0a8  2**0
                  CONTENTS
  5 .dlalign      00000000  0000ae94  0000ae94  0000c0a8  2**0
                  CONTENTS
  6 .data         000000a8  20000000  0000ae94  0000c000  2**2
                  CONTENTS, ALLOC, LOAD, DATA
  7 .bss          000032bc  200000a8  0000af3c  0000c0a8  2**2
                  ALLOC
  8 .stack        00000800  20004800  20004800  0000c800  2**0
                  ALLOC
  9 .debug_info   00023cd9  00000000  00000000  0000c0a8  2**0
                  CONTENTS, READONLY, DEBUGGING
 10 .debug_abbrev 000053d4  00000000  00000000  0002fd81  2**0
                  CONTENTS, READONLY, DEBUGGING
 11 .debug_loc    0000a719  00000000  00000000  00035155  2**0
                  CONTENTS, READONLY, DEBUGGING
 12 .debug_aranges 00000fe8  00000000  00000000  0003f870  2**3
                  CONTENTS, READONLY, DEBUGGING
 13 .debug_ranges 000013a0  00000000  00000000  00040858  2**3
                  CONTENTS, READONLY, DEBUGGING
 14 .debug_line   0001baa2  00000000  00000000  00041bf8  2**0
                  CONTENTS, READONLY, DEBUGGING
 15 .debug_str    000062b4  00000000  00000000  0005d69a  2**0
                  CONTENTS, READONLY, DEBUGGING
 16 .comment      00000033  00000000  00000000  0006394e  2**0
                  CONTENTS, READONLY
 17 .debug_frame  00003bf4  00000000  00000000  00063984  2**2
                  CONTENTS, READONLY, DEBUGGING
 18 .stab         00000084  00000000  00000000  00067578  2**2
                  CONTENTS, READONLY, DEBUGGING
 19 .stabstr      00000117  00000000  00000000  000675fc  2**0
                  CONTENTS, READONLY, DEBUGGING
SYMBOL TABLE:
00000000 l    d  .init	00000000 .init
00000038 l    d  .vector	00000000 .vector
00000200 l    d  .text	00000000 .text
0000ae94 l    d  .fini	00000000 .fini
20000000 l    d  .dalign	00000000 .dalign
0000ae94 l    d  .dlalign	00000000 .dlalign
20000000 l    d  .data	00000000 .data
200000a8 l    d  .bss	00000000 .bss
20004800 l    d  .stack	00000000 .stack
00000000 l    d  .debug_info	00000000 .debug_info
00000000 l    d  .debug_abbrev	00000000 .debug_abbrev
00000000 l    d  .debug_loc	00000000 .debug_loc
00000000 l    d  .debug_aranges	00000000 .debug_aranges
00000000 l    d  .debug_ranges	00000000 .debug_ranges
00000000 l    d  .debug_line	00000000 .debug_line
00000000 l    d  .debug_str	00000000 .debug_str
00000000 l    d  .comment	00000000 .comment
00000000 l    d  .debug_frame	00000000 .debug_frame
00000000 l    d  .stab	00000000 .stab
00000000 l    d  .stabstr	00000000 .stabstr
00000000 l    df *ABS*	00000000 ./Code/MCAL/Startup/startup_ch32v20x_D6.o
00000038 l       .vector	00000000 _vector_base
00000000 l    df *ABS*	00000000 ./Code/Service/FreeRTOS/portable/GCC/RISC-V/portASM.o
0000025c l       .text	00000000 processed_source
00000428 l       .text	00000000 chip_specific_stack_frame
00000000 l    df *ABS*	00000000 Service_RTOS_wrapper.c
00000000 l    df *ABS*	00000000 heap_4.c
000006d4 l     F .text	0000004c prvInsertBlockIntoFreeList
20000168 l     O .bss	00003000 ucHeap
200000a8 l     O .bss	00000004 pxEnd
200000ac l     O .bss	00000004 xBlockAllocatedBit
200000b0 l     O .bss	00000004 xFreeBytesRemaining
200000b4 l     O .bss	00000004 xMinimumEverFreeBytesRemaining
200000b8 l     O .bss	00000004 xNumberOfSuccessfulAllocations
200000bc l     O .bss	00000004 xNumberOfSuccessfulFrees
200000c0 l     O .bss	00000008 xStart
00000000 l    df *ABS*	00000000 port.c
20000080 l     O .data	00000004 uxCriticalNesting
00000000 l    df *ABS*	00000000 list.c
00000000 l    df *ABS*	00000000 queue.c
00000b5a l     F .text	00000018 prvIsQueueEmpty
00000b72 l     F .text	00000070 prvCopyDataToQueue
00000be2 l     F .text	00000026 prvCopyDataFromQueue
00000c08 l     F .text	0000006e prvUnlockQueue
00000000 l    df *ABS*	00000000 tasks.c
00001182 l     F .text	00000024 prvResetNextTaskUnblockTime
000011a6 l     F .text	000000a6 prvAddCurrentTaskToDelayedList
0000124c l     F .text	00000052 prvIdleTask
200031a8 l     O .bss	0000008c pxReadyTasksLists
20003234 l     O .bss	00000014 xDelayedTaskList1
20003248 l     O .bss	00000014 xDelayedTaskList2
2000325c l     O .bss	00000014 xPendingReadyList
20003270 l     O .bss	00000014 xSuspendedTaskList
20003284 l     O .bss	00000014 xTasksWaitingTermination
200000cc l     O .bss	00000004 pxDelayedTaskList
200000d0 l     O .bss	00000004 pxOverflowDelayedTaskList
200000d4 l     O .bss	00000004 uxCurrentNumberOfTasks
200000d8 l     O .bss	00000004 uxDeletedTasksWaitingCleanUp
200000dc l     O .bss	00000004 uxSchedulerSuspended
200000e0 l     O .bss	00000004 uxTaskNumber
200000e4 l     O .bss	00000004 uxTopReadyPriority
200000e8 l     O .bss	00000004 xIdleTaskHandle
200000ec l     O .bss	00000004 xNextTaskUnblockTime
200000f0 l     O .bss	00000004 xNumOfOverflows
200000f4 l     O .bss	00000004 xPendedTicks
200000f8 l     O .bss	00000004 xSchedulerRunning
200000fc l     O .bss	00000004 xTickCount
20000100 l     O .bss	00000004 xYieldPending
00000000 l    df *ABS*	00000000 timers.c
00001d98 l     F .text	00000066 prvCheckForValidListAndQueue
00001dfe l     F .text	00000046 prvInsertTimerInActiveList
00001e44 l     F .text	00000028 prvReloadTimer
00001e6c l     F .text	00000044 prvProcessExpiredTimer
00001eb0 l     F .text	0000002e prvSwitchTimerLists
00001ede l     F .text	0000018c prvTimerTask
20003298 l     O .bss	00000014 xActiveTimerList1
200032ac l     O .bss	00000014 xActiveTimerList2
20000104 l     O .bss	00000004 pxCurrentTimerList
20000108 l     O .bss	00000004 pxOverflowTimerList
2000010c l     O .bss	00000004 xLastTime.5718
20000110 l     O .bss	00000004 xTimerQueue
20000114 l     O .bss	00000004 xTimerTaskHandle
00000000 l    df *ABS*	00000000 SensorFusion.c
00000000 l    df *ABS*	00000000 MCAL_wrapper.c
2000011c l     O .bss	00000001 i.4770
00000000 l    df *ABS*	00000000 ch32v20x_gpio.c
00000000 l    df *ABS*	00000000 ch32v20x_i2c.c
00000000 l    df *ABS*	00000000 ch32v20x_misc.c
00000000 l    df *ABS*	00000000 ch32v20x_rcc.c
20000000 l     O .data	00000010 APBAHBPrescTable
20000088 l     O .data	00000004 ADCPrescTable
00000000 l    df *ABS*	00000000 ch32v20x_spi.c
00000000 l    df *ABS*	00000000 ch32v20x_tim.c
00000000 l    df *ABS*	00000000 ch32v20x_usart.c
00000000 l    df *ABS*	00000000 debug.c
2000008c l     O .data	00000004 curbrk.4666
00000000 l    df *ABS*	00000000 MCAL_config.c
00000000 l    df *ABS*	00000000 system_ch32v20x.c
00000000 l    df *ABS*	00000000 HAL_wrapper.c
00000000 l    df *ABS*	00000000 MPU6050.c
00000000 l    df *ABS*	00000000 HMC5883.c
00000000 l    df *ABS*	00000000 HAL_config.c
00000000 l    df *ABS*	00000000 bmp.c
00000000 l    df *ABS*	00000000 ch32v20x_it.c
00000000 l    df *ABS*	00000000 main.c
00000000 l    df *ABS*	00000000 s_atan.c
0000a868 l     O .text	00000020 atanhi
0000a888 l     O .text	00000020 atanlo
00000000 l    df *ABS*	00000000 s_cos.c
00000000 l    df *ABS*	00000000 s_fabs.c
00000000 l    df *ABS*	00000000 s_sin.c
00000000 l    df *ABS*	00000000 w_atan2.c
00000000 l    df *ABS*	00000000 w_sqrt.c
00000000 l    df *ABS*	00000000 e_atan2.c
00000000 l    df *ABS*	00000000 e_rem_pio2.c
0000a938 l     O .text	00000080 npio2_hw
0000a9b8 l     O .text	00000108 two_over_pi
00000000 l    df *ABS*	00000000 e_sqrt.c
00000000 l    df *ABS*	00000000 k_cos.c
00000000 l    df *ABS*	00000000 k_rem_pio2.c
0000ab00 l     O .text	00000040 PIo2
0000ab60 l     O .text	00000010 init_jk
00000000 l    df *ABS*	00000000 k_sin.c
00000000 l    df *ABS*	00000000 s_floor.c
00000000 l    df *ABS*	00000000 s_matherr.c
00000000 l    df *ABS*	00000000 s_scalbn.c
00000000 l    df *ABS*	00000000 s_copysign.c
00000000 l    df *ABS*	00000000 libgcc2.c
00000000 l    df *ABS*	00000000 adddf3.c
00000000 l    df *ABS*	00000000 divdf3.c
00000000 l    df *ABS*	00000000 eqdf2.c
00000000 l    df *ABS*	00000000 gedf2.c
00000000 l    df *ABS*	00000000 ledf2.c
00000000 l    df *ABS*	00000000 muldf3.c
00000000 l    df *ABS*	00000000 subdf3.c
00000000 l    df *ABS*	00000000 unorddf2.c
00000000 l    df *ABS*	00000000 fixdfsi.c
00000000 l    df *ABS*	00000000 floatsidf.c
00000000 l    df *ABS*	00000000 addsf3.c
00000000 l    df *ABS*	00000000 divsf3.c
00000000 l    df *ABS*	00000000 mulsf3.c
00000000 l    df *ABS*	00000000 subsf3.c
00000000 l    df *ABS*	00000000 floatsisf.c
00000000 l    df *ABS*	00000000 floatdisf.c
00000000 l    df *ABS*	00000000 extendsfdf2.c
00000000 l    df *ABS*	00000000 truncdfsf2.c
00000000 l    df *ABS*	00000000 libgcc2.c
00000000 l    df *ABS*	00000000 errno.c
00000000 l    df *ABS*	00000000 memcpy.c
00000000 l    df *ABS*	00000000 printf.c
00000000 l    df *ABS*	00000000 puts.c
00000000 l    df *ABS*	00000000 wbuf.c
00000000 l    df *ABS*	00000000 wsetup.c
00000000 l    df *ABS*	00000000 fflush.c
00000000 l    df *ABS*	00000000 findfp.c
000097ea l     F .text	0000006a std
00000000 l    df *ABS*	00000000 fwalk.c
00000000 l    df *ABS*	00000000 makebuf.c
00000000 l    df *ABS*	00000000 nano-mallocr.c
00000000 l    df *ABS*	00000000 nano-mallocr.c
00000000 l    df *ABS*	00000000 nano-vfprintf.c
00009caa l     F .text	0000002a __sfputc_r
00000000 l    df *ABS*	00000000 nano-vfprintf_i.c
00000000 l    df *ABS*	00000000 sbrkr.c
00000000 l    df *ABS*	00000000 stdio.c
00000000 l    df *ABS*	00000000 writer.c
00000000 l    df *ABS*	00000000 closer.c
00000000 l    df *ABS*	00000000 fstatr.c
00000000 l    df *ABS*	00000000 isattyr.c
00000000 l    df *ABS*	00000000 lseekr.c
00000000 l    df *ABS*	00000000 memchr.c
00000000 l    df *ABS*	00000000 mlock.c
00000000 l    df *ABS*	00000000 readr.c
00000000 l    df *ABS*	00000000 close.c
00000000 l    df *ABS*	00000000 fstat.c
00000000 l    df *ABS*	00000000 isatty.c
00000000 l    df *ABS*	00000000 lseek.c
00000000 l    df *ABS*	00000000 read.c
00000000 l    df *ABS*	00000000 libgcc2.c
00000000 l    df *ABS*	00000000 impure.c
20000020 l     O .data	00000060 impure_data
00000000 l    df *ABS*	00000000 s_lib_ver.c
00000000 l    df *ABS*	00000000 reent.c
00002620  w      .text	00000000 EXTI2_IRQHandler
0000a4ee g     F .text	00000030 _isatty_r
00009396 g     F .text	000000da _puts_r
00003956 g     F .text	00000044 HAL_WRAPPER_ReadMagnet
0000487e g     F .text	00000006 fabs
0000a51e g     F .text	00000034 _lseek_r
00004918 g     F .text	000000b8 sqrt
000072f2 g     F .text	0000006a .hidden __eqdf2
00006236 g     F .text	000003d8 .hidden __divdi3
200032dc g     O .bss	0000001c MCAL_CFG_adxlSPI
00000aac g     F .text	00000046 vPortExitCritical
00009356 g     F .text	00000040 printf
20000880 g       .data	00000000 __global_pointer$
000004f6 g     F .text	00000028 .hidden __riscv_save_8
00002646  w      .text	00000000 TIM1_CC_IRQHandler
000029a2 g     F .text	0000000a I2C_ReceiveData
0000a41a g     F .text	00000036 __sseek
000098a4 g     F .text	0000006c __sinit
00002bd4 g     F .text	00000006 SPI_I2S_SendData
0000947c g     F .text	000000c0 __swbuf_r
000042da g     F .text	00000002 HardFault_Handler
00001126 g     F .text	0000005c vQueueWaitForMessageRestricted
0000985e g     F .text	00000046 __sfmoreglue
0000a56e g     F .text	00000002 __malloc_unlock
00003fe2 g     F .text	00000016 BMP280_GetTemperatureRawData
00000542 g     F .text	0000000c .hidden __riscv_restore_3
20000134 g     O .bss	00000004 yaw_calibration
00008536 g     F .text	000002b2 .hidden __divsf3
00002f2c g     F .text	00000012 TIM_OC1PreloadConfig
00000a16 g     F .text	0000007c SysTick_Handler
00002612  w      .text	00000000 PVD_IRQHandler
20000144 g     O .bss	00000004 queue_AppCommToDrone_Handle_t
0000052e g     F .text	00000020 .hidden __riscv_restore_10
00002bda g     F .text	00000006 SPI_I2S_ReceiveData
000042d8 g     F .text	00000002 NMI_Handler
00002622  w      .text	00000000 EXTI3_IRQHandler
000004f6 g     F .text	00000028 .hidden __riscv_save_11
0000735c g     F .text	000000ae .hidden __gtdf2
00009298 g     F .text	00000008 __errno
000006a6 g     F .text	0000000e SERVICE_RTOS_BlockFor
00003fae g     F .text	00000034 BMP280_ReadDataRegisters
200000c8 g     O .bss	00000004 pxCurrentTCB
000030d4 g     F .text	0000000c USART_GetFlagStatus
0000a4bc g     F .text	00000032 _fstat_r
20003360 g     O .bss	00000004 errno
00005f8e g     F .text	00000150 floor
200000a8 g       .bss	00000000 _sbss
00000800 g       *ABS*	00000000 __stack_size
00003ec6 g     F .text	00000024 BMP280_ReadUnsignedShort
00003124 g     F .text	0000005a USART_Printf_Init
00008a7c g     F .text	00000388 .hidden __subsf3
20000130 g     O .bss	00000004 roll_calibration
00001b30 g     F .text	00000016 vTaskInternalSetTimeOutState
00000542 g     F .text	0000000c .hidden __riscv_restore_2
00003eea g     F .text	00000024 BMP280_ReadSignedShort
00004bb4 g     F .text	00000466 __ieee754_rem_pio2
2000012c g     O .bss	00000004 pitch_calibration
00000986 g     F .text	00000090 xPortStartScheduler
00002ef8 g     F .text	00000016 TIM_CtrlPWMOutputs
000092a0 g     F .text	000000b6 memcpy
00001986 g     F .text	00000048 vTaskPlaceOnEventList
00009854 g     F .text	0000000a _cleanup_r
0000815a g     F .text	00000072 .hidden __floatsidf
0000094c  w    F .text	0000003a vPortSetupTimerInterrupt
00003a16 g     F .text	000000a6 mpu6050_accel_read
0000740a g     F .text	000000b6 .hidden __ltdf2
0000261c  w      .text	00000000 EXTI0_IRQHandler
00002652  w      .text	00000000 I2C2_EV_IRQHandler
00002edc g     F .text	0000001c TIM_Cmd
00009470 g     F .text	0000000c puts
20003328 g     O .bss	00000018 trimmingParameter
000008a8 g     F .text	000000a4 vPortFree
00002f6a g     F .text	0000001a TIM_OC4PreloadConfig
20000090 g     O .data	00000004 SystemCoreClock
20005000 g       .stack	00000000 __freertos_irq_stack_top
00002fc8 g     F .text	0000000e TIM_ClearFlag
20000138 g     O .bss	00000006 global_adxl345Config_t
0000a5b4 g     F .text	00000010 _fstat
000042dc g     F .text	0000008a Task_CollectSensorData
00000038 g       .init	00000000 _einit
000051f0 g     F .text	000002b8 __kernel_cos
00002fc2 g     F .text	00000006 TIM_GetCounter
00003cc0 g     F .text	000000a8 hmc5883l_init
00002b20 g     F .text	0000001e RCC_APB2PeriphClockCmd
000004ee g     F .text	00000030 .hidden __riscv_save_12
00002634  w      .text	00000000 ADC1_2_IRQHandler
00001d00 g     F .text	00000098 ulTaskGenericNotifyTake
00002700 g     F .text	00000100 GPIO_Init
0000260a  w      .text	00000000 Break_Point_Handler
0000052e g     F .text	00000020 .hidden __riscv_restore_11
20000120 g     O .bss	00000004 NVIC_Priority_Group
00002656  w      .text	00000000 SPI1_IRQHandler
000030ae g     F .text	0000001c USART_Cmd
0000a36a g     F .text	00000032 _sbrk_r
00003f0e g     F .text	000000a0 BMP280_get_trimming_parameters
00002614  w      .text	00000000 TAMPER_IRQHandler
0000051e g     F .text	0000000c .hidden __riscv_save_1
00000542 g     F .text	0000000c .hidden __riscv_restore_0
00002da8 g     F .text	000000b2 TIM_OC3Init
000038dc g     F .text	00000040 HAL_WRAPPER_ReadAcc
0000a570 g     F .text	00000034 _read_r
00000b06 g     F .text	00000006 vListInitialiseItem
0000406e g     F .text	0000020c BMP280_CompensatePressure
000043a8 g     F .text	0000004e Task_Master
00000504 g     F .text	0000001a .hidden __riscv_save_7
00000f2a g     F .text	0000014c xQueueReceive
20003168 g     O .bss	00000040 xQueueRegistry
00005dfa g     F .text	00000194 __kernel_sin
0000900c g     F .text	000000ac .hidden __extendsfdf2
00002b3e g     F .text	0000001e RCC_APB1PeriphClockCmd
20000150 g     O .bss	00000004 queue_RawSensorData_Handle_t
0000660e g     F .text	00000730 .hidden __adddf3
00002606  w      .text	00000000 Ecall_M_Mode_Handler
20004800 g       .stack	00000000 _heap_end
000005f6 g     F .text	00000022 SERVICE_RTOS_TaskCreate
0000a5c4 g     F .text	00000010 _isatty
20000094 g     O .data	00000004 __fdlib_version
200000a0 g     O .data	00000004 _global_impure_ptr
00000538 g     F .text	00000016 .hidden __riscv_restore_5
00002be0 g     F .text	0000000c SPI_I2S_GetFlagStatus
00002b02 g     F .text	0000001e RCC_AHBPeriphClockCmd
0000262c  w      .text	00000000 DMA1_Channel4_IRQHandler
0000299c g     F .text	00000006 I2C_SendData
000031bc g     F .text	0000002a _sbrk
00000720 g     F .text	00000188 pvPortMalloc
00000af2 g     F .text	00000014 vListInitialise
20000118 g     O .bss	00000004 global_UART4RecCallback
00002830 g     F .text	00000114 I2C_Init
0000400e g     F .text	00000060 BMP280_CompensateTemperature
00000538 g     F .text	00000016 .hidden __riscv_restore_6
0000265e  w      .text	00000000 USART3_IRQHandler
00001570 g     F .text	0000000a xTaskGetTickCount
00000d9c g     F .text	0000018e xQueueGenericSend
000054a8 g     F .text	00000952 __kernel_rem_pio2
00002616  w      .text	00000000 RTC_IRQHandler
20003364 g       .bss	00000000 _ebss
000030e0 g     F .text	00000044 USART_GetITStatus
00002632  w      .text	00000000 DMA1_Channel7_IRQHandler
00002c6c g     F .text	00000088 TIM_OC1Init
00002f58 g     F .text	00000012 TIM_OC3PreloadConfig
0000263a  w      .text	00000000 CAN1_RX1_IRQHandler
000080f2 g     F .text	00000068 .hidden __fixdfsi
00001c36 g     F .text	000000ca xTaskPriorityDisinherit
00008eca g     F .text	00000142 .hidden __floatdisf
20000154 g     O .bss	00000004 task_CollectSensorData_Handle_t
000049d0 g     F .text	000001e4 __ieee754_atan2
00001a44 g     F .text	000000ec xTaskRemoveFromEventList
00002800 g     F .text	00000018 GPIO_SetBits
0000264c  w      .text	00000000 TIM4_IRQHandler
00000670 g     F .text	00000036 SERVICE_RTOS_ReadFromBlockingQueue
0000740a g     F .text	000000b6 .hidden __ledf2
00002f0e g     F .text	0000001e TIM_ARRPreloadConfig
000004f6 g     F .text	00000028 .hidden __riscv_save_9
20003310 g     O .bss	0000000c global_MPU6050ACC_t
00002960 g     F .text	0000001e I2C_GenerateSTART
00002160 g     F .text	0000004e compute_azimuth
0000adf8 g     O .text	00000020 __sf_fake_stderr
00000504 g     F .text	0000001a .hidden __riscv_save_4
0000264e  w      .text	00000000 I2C1_EV_IRQHandler
00003dc4 g     F .text	0000007c hmc5883l_normalize
2000009c g     O .data	00000004 xISRStackTop
000025c2 g     F .text	00000040 MCAL_WRAPPER_DelayMS
00002666  w      .text	00000000 USBHD_IRQHandler
00002a3c g     F .text	000000c6 RCC_GetClocksFreq
00002630  w      .text	00000000 DMA1_Channel6_IRQHandler
00009222 g     F .text	00000076 .hidden __clzsi2
00009cd4 g     F .text	00000044 __sfputs_r
000047ee g     F .text	00000090 cos
000029c0 g     F .text	00000026 I2C_NACKPositionConfig
0000259c g     F .text	00000026 UART4_IRQHandler
0000a552 g     F .text	0000001a memchr
00002fd6 g     F .text	000000d8 USART_Init
00001b46 g     F .text	000000c8 xTaskCheckForTimeOut
00009b16 g     F .text	000000b0 _free_r
0000264a  w      .text	00000000 TIM3_IRQHandler
0000261a  w      .text	00000000 RCC_IRQHandler
0000051e g     F .text	0000000c .hidden __riscv_save_3
00002644  w      .text	00000000 TIM1_TRG_COM_IRQHandler
00003cb0 g     F .text	00000010 mpu6050_init
0000399a g     F .text	00000012 HAL_WRAPPER_ReadPressure
00002626  w      .text	00000000 DMA1_Channel1_IRQHandler
00000000 g       .init	00000000 _start
20000158 g     O .bss	00000004 task_Master_Handle_t
00001560 g     F .text	00000010 vTaskSuspendAll
20000010 g     O .data	00000010 AHBPrescTable
00002a00 g     F .text	00000032 I2C_GetFlagStatus
00004884 g     F .text	00000092 sin
0000a5d4 g     F .text	00000010 _lseek
00002f3e g     F .text	0000001a TIM_OC2PreloadConfig
00004916 g     F .text	00000002 atan2
00008e04 g     F .text	000000c6 .hidden __floatsisf
00000b3a g     F .text	00000020 uxListRemove
00002660  w      .text	00000000 EXTI15_10_IRQHandler
000006b4 g     F .text	00000020 SERVICE_RTOS_WaitForNotification
00002cf4 g     F .text	000000b4 TIM_OC2Init
0000266c  w      .text	00000000 DMA1_Channel8_IRQHandler
000018ec g     F .text	0000009a vTaskSwitchContext
00003bd6 g     F .text	000000da mpu6050_gyro_setup
00002944 g     F .text	0000001c I2C_Cmd
000019ce g     F .text	00000076 vTaskPlaceOnEventListRestricted
00002818 g     F .text	00000018 GPIO_ResetBits
00003e6e g     F .text	0000002e BMP280_ReadRegister
0000a48c g     F .text	00000030 _close_r
0000427a g     F .text	0000002a BMP280_Init
20000000 g       .dalign	00000000 _data_vma
000039be g     F .text	00000058 mpu6050_accel_setup
00002e5a g     F .text	00000082 TIM_OC4Init
2000011d g     O .bss	00000001 MCU_Version
00003d68 g     F .text	0000005c hmc5883l_read
0000953c g     F .text	0000010c __swsetup_r
0000263e  w      .text	00000000 EXTI9_5_IRQHandler
00006d3e g     F .text	000005b4 .hidden __divdf3
00009910 g     F .text	000000a0 __sfp
000074c0 g     F .text	000004b8 .hidden __muldf3
000004f6 g     F .text	00000028 .hidden __riscv_save_10
0000a39c g     F .text	00000030 __sread
000029ac g     F .text	00000014 I2C_Send7bitAddress
0000a56c g     F .text	00000002 __malloc_lock
00000538 g     F .text	00000016 .hidden __riscv_restore_4
0000052e g     F .text	00000020 .hidden __riscv_restore_8
00009784 g     F .text	00000066 _fflush_r
00000504 g     F .text	0000001a .hidden __riscv_save_6
00002658  w      .text	00000000 SPI2_IRQHandler
0000ae18 g     O .text	00000020 __sf_fake_stdin
0000054e g     F .text	000000a8 memset
2000014c g     O .bss	00000004 queue_FusedSensorData_Handle_t
0000052e g     F .text	00000020 .hidden __riscv_restore_9
0000242c g     F .text	00000070 I2C_start_transmission
00000538 g     F .text	00000016 .hidden __riscv_restore_7
000043f6 g     F .text	000000be main
000039ac g     F .text	00000012 HAL_WRAPPER_ReadTemperature
00000b0c g     F .text	0000002e vListInsert
00000618 g     F .text	0000000c SERVICE_RTOS_StartSchedular
0000a450 g     F .text	00000006 __sclose
000060de g     F .text	00000004 matherr
000020c8 g     F .text	00000098 kalman_filter
0000206a g     F .text	0000005e xTimerCreateTimerTask
000090b8 g     F .text	0000016a .hidden __truncdfsf2
00009bc6 g     F .text	000000e4 _malloc_r
0000262e  w      .text	00000000 DMA1_Channel5_IRQHandler
00002fbc g     F .text	00000006 TIM_SetCounter
00002624  w      .text	00000000 EXTI4_IRQHandler
00000d32 g     F .text	0000006a xQueueGenericCreate
00002638  w      .text	00000000 USB_LP_CAN1_RX0_IRQHandler
000087e8 g     F .text	00000294 .hidden __mulsf3
000024f6 g     F .text	00000028 I2C_read
000031e6 g     F .text	00000580 MCAL_Config_ConfigAllPins
00002bb6 g     F .text	0000001e SPI_Cmd
00003766 g     F .text	000000e6 SystemInit
00006220 g     F .text	00000016 copysign
000072f2 g     F .text	0000006a .hidden __nedf2
00000646 g     F .text	0000002a SERVICE_RTOS_AppendToBlockingQueue
00009356 g     F .text	00000040 iprintf
00001724 g     F .text	00000166 xTaskResumeAll
20000084 g     O .data	00000004 uxTopUsedPriority
000044b4 g     F .text	0000033a atan
00002636  w      .text	00000000 USB_HP_CAN1_TX_IRQHandler
0000acf8 g     O .text	00000100 .hidden __clz_tab
000014d0 g     F .text	00000090 vTaskStartScheduler
00003abc g     F .text	0000011a mpu6050_gyro_read
00000000 g       .init	00000000 _sinit
20003340 g     O .bss	00000010 global_AppCommMsg_t
00002668  w      .text	00000000 USBHDWakeUp_IRQHandler
0000a456 g     F .text	00000036 _write_r
00003e9c g     F .text	0000002a BMP280_WriteRegister
00000300 g       .text	00000000 xPortStartFirstTask
0000262a  w      .text	00000000 DMA1_Channel3_IRQHandler
00009fb4 g     F .text	0000010c _printf_common
20000098 g     O .data	00000004 _impure_ptr
00002642  w      .text	00000000 TIM1_UP_IRQHandler
00009648 g     F .text	0000013c __sflush_r
000060e2 g     F .text	0000013e scalbn
0000391c g     F .text	0000003a HAL_WRAPPER_ReadGyro
00002610  w      .text	00000000 WWDG_IRQHandler
000021ae g     F .text	00000210 SensorFuseWithKalman
00002608  w      .text	00000000 Ecall_U_Mode_Handler
00001c0e g     F .text	0000000c vTaskMissedYield
00002648  w      .text	00000000 TIM2_IRQHandler
20005000 g       .stack	00000000 _eusrstack
00002fa0 g     F .text	0000001c TIM_UpdateRequestConfig
0000051e g     F .text	0000000c .hidden __riscv_save_2
200032f8 g     O .bss	00000018 global_HMC5883MAGNET_t
00000200 g       .text	00000000 SW_Handler
20000124 g     O .bss	00000006 RxData
00001076 g     F .text	00000044 uxQueueMessagesWaiting
000010ba g     F .text	0000006c vQueueAddToRegistry
0000157a g     F .text	000001aa xTaskIncrementTick
0000251e g     F .text	0000007e I2C_requestFrom
0000501a g     F .text	000001d6 __ieee754_sqrt
00002640  w      .text	00000000 TIM1_BRK_IRQHandler
00009a1c g     F .text	0000005a __swhatbuf_r
000030ca g     F .text	0000000a USART_SendData
0000261e  w      .text	00000000 EXTI1_IRQHandler
000042bc g     F .text	0000001c BMP280_get_pressure
00000504 g     F .text	0000001a .hidden __riscv_save_5
00000c76 g     F .text	000000bc xQueueGenericReset
0000317e g     F .text	0000003e _write
200000a8 g       .data	00000000 _edata
2000015c g     O .bss	00000004 task_SensorFusion_Handle_t
20003364 g       .bss	00000000 _end
00000624 g     F .text	00000022 SERVICE_RTOS_CreateBlockingQueue
00002bec g     F .text	00000080 TIM_TimeBaseInit
00002662  w      .text	00000000 RTCAlarm_IRQHandler
0000129e g     F .text	00000232 xTaskCreate
0000ae94 g       .dlalign	00000000 _data_lma
0000265c  w      .text	00000000 USART2_IRQHandler
0000a3cc g     F .text	0000004e __swrite
00009d18 g     F .text	0000029c _vfiprintf_r
000099b0 g     F .text	0000006c _fwalk_reent
0000384c g     F .text	00000090 SystemCoreClockUpdate
00002654  w      .text	00000000 I2C2_ER_IRQHandler
0000188a g     F .text	00000062 vTaskDelay
00002628  w      .text	00000000 DMA1_Channel2_IRQHandler
0000ae38 g     O .text	00000020 __sf_fake_stdout
0000052a g     F .text	00000024 .hidden __riscv_restore_12
00001c1a g     F .text	0000001c xTaskGetSchedulerState
0000a5e4 g     F .text	00000010 _read
000080b6 g     F .text	0000003c .hidden __unorddf2
2000331c g     O .bss	0000000c global_MPU6050GYRO_t
0000266e  w      .text	00000000 handle_reset
0000263c  w      .text	00000000 CAN1_SCE_IRQHandler
00002618  w      .text	00000000 FLASH_IRQHandler
0000051e g     F .text	0000000c .hidden __riscv_save_0
0000265a  w      .text	00000000 USART1_IRQHandler
00009a76 g     F .text	000000a0 __smakebuf_r
00000400 g       .text	00000000 pxPortInitialiseStack
0000a0c0 g     F .text	000002aa _printf_i
20000148 g     O .bss	00000004 queue_DroneCommToApp_Handle_t
0000735c g     F .text	000000ae .hidden __gedf2
20000164 g     O .bss	00000004 __malloc_sbrk_start
000029e6 g     F .text	0000001a I2C_CheckEvent
0000297e g     F .text	0000001e I2C_GenerateSTOP
00002650  w      .text	00000000 I2C1_ER_IRQHandler
00002b5c g     F .text	0000005a SPI_Init
00002a32 g     F .text	0000000a NVIC_PriorityGroupConfig
00000a92 g     F .text	0000001a vPortEnterCritical
200032c0 g     O .bss	0000001c MCAL_CFG_BMPSPI
20000160 g     O .bss	00000004 __malloc_free_list
00000542 g     F .text	0000000c .hidden __riscv_restore_1
20003350 g     O .bss	0000000e global_MsgToRec_t
00007978 g     F .text	0000073e .hidden __subdf3
00009d18 g     F .text	0000029c _vfprintf_r
00002f84 g     F .text	0000001c TIM_UpdateDisableConfig
000042a4 g     F .text	00000018 BMP280_get_temperature
20000140 g     O .bss	00000004 t_fine
00004366 g     F .text	00000042 Task_SensorFusion
00003e40 g     F .text	0000002e HAL_Config_ConfigAllHW
000081cc g     F .text	0000036a .hidden __addsf3
00003ff8 g     F .text	00000016 BMP280_GetPressureRawData
000023be g     F .text	0000006e MCAL_WRAPEPR_SPI_POLL_TRANSFER
00002664  w      .text	00000000 USBWakeUp_IRQHandler
000024ca g     F .text	0000002c I2C_stop
0000249c g     F .text	0000002e I2C_write
0000a5a4 g     F .text	00000010 _close



Disassembly of section .init:

00000000 <_sinit>:
   0:	66e0206f          	j	266e <handle_reset>
   4:	00000013          	nop
   8:	00000013          	nop
   c:	00000013          	nop
  10:	00000013          	nop
  14:	00000013          	nop
  18:	00000013          	nop
  1c:	00000013          	nop
  20:	00000013          	nop
  24:	00000013          	nop
  28:	00000013          	nop
  2c:	00000013          	nop
  30:	00000013          	nop
  34:	00100073          	ebreak

Disassembly of section .vector:

00000038 <_vector_base>:
	...
  40:	42d8                	lw	a4,4(a3)
  42:	0000                	unimp
  44:	42da                	lw	t0,148(sp)
  46:	0000                	unimp
  48:	0000                	unimp
  4a:	0000                	unimp
  4c:	2606                	fld	fa2,64(sp)
	...
  56:	0000                	unimp
  58:	2608                	fld	fa0,8(a2)
  5a:	0000                	unimp
  5c:	260a                	fld	fa2,128(sp)
	...
  66:	0000                	unimp
  68:	0a16                	slli	s4,s4,0x5
  6a:	0000                	unimp
  6c:	0000                	unimp
  6e:	0000                	unimp
  70:	0200                	addi	s0,sp,256
  72:	0000                	unimp
  74:	0000                	unimp
  76:	0000                	unimp
  78:	2610                	fld	fa2,8(a2)
  7a:	0000                	unimp
  7c:	2612                	fld	fa2,256(sp)
  7e:	0000                	unimp
  80:	2614                	fld	fa3,8(a2)
  82:	0000                	unimp
  84:	2616                	fld	fa2,320(sp)
  86:	0000                	unimp
  88:	2618                	fld	fa4,8(a2)
  8a:	0000                	unimp
  8c:	261a                	fld	fa2,384(sp)
  8e:	0000                	unimp
  90:	261c                	fld	fa5,8(a2)
  92:	0000                	unimp
  94:	261e                	fld	fa2,448(sp)
  96:	0000                	unimp
  98:	2620                	fld	fs0,72(a2)
  9a:	0000                	unimp
  9c:	2622                	fld	fa2,8(sp)
  9e:	0000                	unimp
  a0:	2624                	fld	fs1,72(a2)
  a2:	0000                	unimp
  a4:	2626                	fld	fa2,72(sp)
  a6:	0000                	unimp
  a8:	2628                	fld	fa0,72(a2)
  aa:	0000                	unimp
  ac:	262a                	fld	fa2,136(sp)
  ae:	0000                	unimp
  b0:	262c                	fld	fa1,72(a2)
  b2:	0000                	unimp
  b4:	262e                	fld	fa2,200(sp)
  b6:	0000                	unimp
  b8:	2630                	fld	fa2,72(a2)
  ba:	0000                	unimp
  bc:	2632                	fld	fa2,264(sp)
  be:	0000                	unimp
  c0:	2634                	fld	fa3,72(a2)
  c2:	0000                	unimp
  c4:	2636                	fld	fa2,328(sp)
  c6:	0000                	unimp
  c8:	2638                	fld	fa4,72(a2)
  ca:	0000                	unimp
  cc:	263a                	fld	fa2,392(sp)
  ce:	0000                	unimp
  d0:	263c                	fld	fa5,72(a2)
  d2:	0000                	unimp
  d4:	263e                	fld	fa2,456(sp)
  d6:	0000                	unimp
  d8:	2640                	fld	fs0,136(a2)
  da:	0000                	unimp
  dc:	2642                	fld	fa2,16(sp)
  de:	0000                	unimp
  e0:	2644                	fld	fs1,136(a2)
  e2:	0000                	unimp
  e4:	2646                	fld	fa2,80(sp)
  e6:	0000                	unimp
  e8:	2648                	fld	fa0,136(a2)
  ea:	0000                	unimp
  ec:	264a                	fld	fa2,144(sp)
  ee:	0000                	unimp
  f0:	264c                	fld	fa1,136(a2)
  f2:	0000                	unimp
  f4:	264e                	fld	fa2,208(sp)
  f6:	0000                	unimp
  f8:	2650                	fld	fa2,136(a2)
  fa:	0000                	unimp
  fc:	2652                	fld	fa2,272(sp)
  fe:	0000                	unimp
 100:	2654                	fld	fa3,136(a2)
 102:	0000                	unimp
 104:	2656                	fld	fa2,336(sp)
 106:	0000                	unimp
 108:	2658                	fld	fa4,136(a2)
 10a:	0000                	unimp
 10c:	265a                	fld	fa2,400(sp)
 10e:	0000                	unimp
 110:	265c                	fld	fa5,136(a2)
 112:	0000                	unimp
 114:	265e                	fld	fa2,464(sp)
 116:	0000                	unimp
 118:	2660                	fld	fs0,200(a2)
 11a:	0000                	unimp
 11c:	2662                	fld	fa2,24(sp)
 11e:	0000                	unimp
 120:	2664                	fld	fs1,200(a2)
 122:	0000                	unimp
 124:	2666                	fld	fa2,88(sp)
 126:	0000                	unimp
 128:	2668                	fld	fa0,200(a2)
 12a:	0000                	unimp
 12c:	259c                	fld	fa5,8(a1)
 12e:	0000                	unimp
 130:	266c                	fld	fa1,200(a2)
	...

Disassembly of section .text:

00000200 <SW_Handler>:
     200:	f8810113          	addi	sp,sp,-120
     204:	c206                	sw	ra,4(sp)
     206:	c416                	sw	t0,8(sp)
     208:	c61a                	sw	t1,12(sp)
     20a:	c81e                	sw	t2,16(sp)
     20c:	ca22                	sw	s0,20(sp)
     20e:	cc26                	sw	s1,24(sp)
     210:	ce2a                	sw	a0,28(sp)
     212:	d02e                	sw	a1,32(sp)
     214:	d232                	sw	a2,36(sp)
     216:	d436                	sw	a3,40(sp)
     218:	d63a                	sw	a4,44(sp)
     21a:	d83e                	sw	a5,48(sp)
     21c:	da42                	sw	a6,52(sp)
     21e:	dc46                	sw	a7,56(sp)
     220:	de4a                	sw	s2,60(sp)
     222:	c0ce                	sw	s3,64(sp)
     224:	c2d2                	sw	s4,68(sp)
     226:	c4d6                	sw	s5,72(sp)
     228:	c6da                	sw	s6,76(sp)
     22a:	c8de                	sw	s7,80(sp)
     22c:	cae2                	sw	s8,84(sp)
     22e:	cce6                	sw	s9,88(sp)
     230:	ceea                	sw	s10,92(sp)
     232:	d0ee                	sw	s11,96(sp)
     234:	d2f2                	sw	t3,100(sp)
     236:	d4f6                	sw	t4,104(sp)
     238:	d6fa                	sw	t5,108(sp)
     23a:	d8fe                	sw	t6,112(sp)
     23c:	300022f3          	csrr	t0,mstatus
     240:	da96                	sw	t0,116(sp)
     242:	20000297          	auipc	t0,0x20000
     246:	e862a283          	lw	t0,-378(t0) # 200000c8 <pxCurrentTCB>
     24a:	0022a023          	sw	sp,0(t0)
     24e:	341025f3          	csrr	a1,mepc
     252:	c02e                	sw	a1,0(sp)
     254:	81c1a103          	lw	sp,-2020(gp) # 2000009c <xISRStackTop>
     258:	694010ef          	jal	ra,18ec <vTaskSwitchContext>

0000025c <processed_source>:
     25c:	20000317          	auipc	t1,0x20000
     260:	e6c32303          	lw	t1,-404(t1) # 200000c8 <pxCurrentTCB>
     264:	00032103          	lw	sp,0(t1)
     268:	4282                	lw	t0,0(sp)
     26a:	34129073          	csrw	mepc,t0
     26e:	52d6                	lw	t0,116(sp)
     270:	30029073          	csrw	mstatus,t0
     274:	4092                	lw	ra,4(sp)
     276:	42a2                	lw	t0,8(sp)
     278:	4332                	lw	t1,12(sp)
     27a:	43c2                	lw	t2,16(sp)
     27c:	4452                	lw	s0,20(sp)
     27e:	44e2                	lw	s1,24(sp)
     280:	4572                	lw	a0,28(sp)
     282:	5582                	lw	a1,32(sp)
     284:	5612                	lw	a2,36(sp)
     286:	56a2                	lw	a3,40(sp)
     288:	5732                	lw	a4,44(sp)
     28a:	57c2                	lw	a5,48(sp)
     28c:	5852                	lw	a6,52(sp)
     28e:	58e2                	lw	a7,56(sp)
     290:	5972                	lw	s2,60(sp)
     292:	4986                	lw	s3,64(sp)
     294:	4a16                	lw	s4,68(sp)
     296:	4aa6                	lw	s5,72(sp)
     298:	4b36                	lw	s6,76(sp)
     29a:	4bc6                	lw	s7,80(sp)
     29c:	4c56                	lw	s8,84(sp)
     29e:	4ce6                	lw	s9,88(sp)
     2a0:	4d76                	lw	s10,92(sp)
     2a2:	5d86                	lw	s11,96(sp)
     2a4:	5e16                	lw	t3,100(sp)
     2a6:	5ea6                	lw	t4,104(sp)
     2a8:	5f36                	lw	t5,108(sp)
     2aa:	5fc6                	lw	t6,112(sp)
     2ac:	07810113          	addi	sp,sp,120
     2b0:	30200073          	mret
     2b4:	00000013          	nop
     2b8:	00000013          	nop
     2bc:	00000013          	nop
     2c0:	00000013          	nop
     2c4:	00000013          	nop
     2c8:	00000013          	nop
     2cc:	00000013          	nop
     2d0:	00000013          	nop
     2d4:	00000013          	nop
     2d8:	00000013          	nop
     2dc:	00000013          	nop
     2e0:	00000013          	nop
     2e4:	00000013          	nop
     2e8:	00000013          	nop
     2ec:	00000013          	nop
     2f0:	00000013          	nop
     2f4:	00000013          	nop
     2f8:	00000013          	nop
     2fc:	00000013          	nop

00000300 <xPortStartFirstTask>:
     300:	81c1a283          	lw	t0,-2020(gp) # 2000009c <xISRStackTop>
     304:	e0028293          	addi	t0,t0,-512
     308:	34029073          	csrw	mscratch,t0
     30c:	20000117          	auipc	sp,0x20000
     310:	dbc12103          	lw	sp,-580(sp) # 200000c8 <pxCurrentTCB>
     314:	4102                	lw	sp,0(sp)
     316:	4082                	lw	ra,0(sp)
     318:	4332                	lw	t1,12(sp)
     31a:	43c2                	lw	t2,16(sp)
     31c:	4452                	lw	s0,20(sp)
     31e:	44e2                	lw	s1,24(sp)
     320:	4572                	lw	a0,28(sp)
     322:	5582                	lw	a1,32(sp)
     324:	5612                	lw	a2,36(sp)
     326:	56a2                	lw	a3,40(sp)
     328:	5732                	lw	a4,44(sp)
     32a:	57c2                	lw	a5,48(sp)
     32c:	5852                	lw	a6,52(sp)
     32e:	58e2                	lw	a7,56(sp)
     330:	5972                	lw	s2,60(sp)
     332:	4986                	lw	s3,64(sp)
     334:	4a16                	lw	s4,68(sp)
     336:	4aa6                	lw	s5,72(sp)
     338:	4b36                	lw	s6,76(sp)
     33a:	4bc6                	lw	s7,80(sp)
     33c:	4c56                	lw	s8,84(sp)
     33e:	4ce6                	lw	s9,88(sp)
     340:	4d76                	lw	s10,92(sp)
     342:	5d86                	lw	s11,96(sp)
     344:	5e16                	lw	t3,100(sp)
     346:	5ea6                	lw	t4,104(sp)
     348:	5f36                	lw	t5,108(sp)
     34a:	5fc6                	lw	t6,112(sp)
     34c:	52d6                	lw	t0,116(sp)
     34e:	02a1                	addi	t0,t0,8
     350:	30029073          	csrw	mstatus,t0
     354:	42a2                	lw	t0,8(sp)
     356:	07810113          	addi	sp,sp,120
     35a:	8082                	ret
     35c:	00000013          	nop
     360:	00000013          	nop
     364:	00000013          	nop
     368:	00000013          	nop
     36c:	00000013          	nop
     370:	00000013          	nop
     374:	00000013          	nop
     378:	00000013          	nop
     37c:	00000013          	nop
     380:	00000013          	nop
     384:	00000013          	nop
     388:	00000013          	nop
     38c:	00000013          	nop
     390:	00000013          	nop
     394:	00000013          	nop
     398:	00000013          	nop
     39c:	00000013          	nop
     3a0:	00000013          	nop
     3a4:	00000013          	nop
     3a8:	00000013          	nop
     3ac:	00000013          	nop
     3b0:	00000013          	nop
     3b4:	00000013          	nop
     3b8:	00000013          	nop
     3bc:	00000013          	nop
     3c0:	00000013          	nop
     3c4:	00000013          	nop
     3c8:	00000013          	nop
     3cc:	00000013          	nop
     3d0:	00000013          	nop
     3d4:	00000013          	nop
     3d8:	00000013          	nop
     3dc:	00000013          	nop
     3e0:	00000013          	nop
     3e4:	00000013          	nop
     3e8:	00000013          	nop
     3ec:	00000013          	nop
     3f0:	00000013          	nop
     3f4:	00000013          	nop
     3f8:	00000013          	nop
     3fc:	00000013          	nop

00000400 <pxPortInitialiseStack>:
     400:	300022f3          	csrr	t0,mstatus
     404:	ff72f293          	andi	t0,t0,-9
     408:	18800313          	li	t1,392
     40c:	0312                	slli	t1,t1,0x4
     40e:	0062e2b3          	or	t0,t0,t1
     412:	1571                	addi	a0,a0,-4
     414:	00552023          	sw	t0,0(a0)
     418:	fa850513          	addi	a0,a0,-88
     41c:	c110                	sw	a2,0(a0)
     41e:	1521                	addi	a0,a0,-24
     420:	00052023          	sw	zero,0(a0)
     424:	00000293          	li	t0,0

00000428 <chip_specific_stack_frame>:
     428:	00028763          	beqz	t0,436 <chip_specific_stack_frame+0xe>
     42c:	1571                	addi	a0,a0,-4
     42e:	00052023          	sw	zero,0(a0)
     432:	12fd                	addi	t0,t0,-1
     434:	bfd5                	j	428 <chip_specific_stack_frame>
     436:	1571                	addi	a0,a0,-4
     438:	c10c                	sw	a1,0(a0)
     43a:	8082                	ret
	...

000004ee <__riscv_save_12>:
     4ee:	7139                	addi	sp,sp,-64
     4f0:	4301                	li	t1,0
     4f2:	c66e                	sw	s11,12(sp)
     4f4:	a019                	j	4fa <__riscv_save_10+0x4>

000004f6 <__riscv_save_10>:
     4f6:	7139                	addi	sp,sp,-64
     4f8:	5341                	li	t1,-16
     4fa:	c86a                	sw	s10,16(sp)
     4fc:	ca66                	sw	s9,20(sp)
     4fe:	cc62                	sw	s8,24(sp)
     500:	ce5e                	sw	s7,28(sp)
     502:	a019                	j	508 <__riscv_save_4+0x4>

00000504 <__riscv_save_4>:
     504:	7139                	addi	sp,sp,-64
     506:	5301                	li	t1,-32
     508:	d05a                	sw	s6,32(sp)
     50a:	d256                	sw	s5,36(sp)
     50c:	d452                	sw	s4,40(sp)
     50e:	d64e                	sw	s3,44(sp)
     510:	d84a                	sw	s2,48(sp)
     512:	da26                	sw	s1,52(sp)
     514:	dc22                	sw	s0,56(sp)
     516:	de06                	sw	ra,60(sp)
     518:	40610133          	sub	sp,sp,t1
     51c:	8282                	jr	t0

0000051e <__riscv_save_0>:
     51e:	1141                	addi	sp,sp,-16
     520:	c04a                	sw	s2,0(sp)
     522:	c226                	sw	s1,4(sp)
     524:	c422                	sw	s0,8(sp)
     526:	c606                	sw	ra,12(sp)
     528:	8282                	jr	t0

0000052a <__riscv_restore_12>:
     52a:	4db2                	lw	s11,12(sp)
     52c:	0141                	addi	sp,sp,16

0000052e <__riscv_restore_10>:
     52e:	4d02                	lw	s10,0(sp)
     530:	4c92                	lw	s9,4(sp)
     532:	4c22                	lw	s8,8(sp)
     534:	4bb2                	lw	s7,12(sp)
     536:	0141                	addi	sp,sp,16

00000538 <__riscv_restore_4>:
     538:	4b02                	lw	s6,0(sp)
     53a:	4a92                	lw	s5,4(sp)
     53c:	4a22                	lw	s4,8(sp)
     53e:	49b2                	lw	s3,12(sp)
     540:	0141                	addi	sp,sp,16

00000542 <__riscv_restore_0>:
     542:	4902                	lw	s2,0(sp)
     544:	4492                	lw	s1,4(sp)
     546:	4422                	lw	s0,8(sp)
     548:	40b2                	lw	ra,12(sp)
     54a:	0141                	addi	sp,sp,16
     54c:	8082                	ret

0000054e <memset>:
     54e:	433d                	li	t1,15
     550:	872a                	mv	a4,a0
     552:	02c37363          	bgeu	t1,a2,578 <memset+0x2a>
     556:	00f77793          	andi	a5,a4,15
     55a:	efbd                	bnez	a5,5d8 <memset+0x8a>
     55c:	e5ad                	bnez	a1,5c6 <memset+0x78>
     55e:	ff067693          	andi	a3,a2,-16
     562:	8a3d                	andi	a2,a2,15
     564:	96ba                	add	a3,a3,a4
     566:	c30c                	sw	a1,0(a4)
     568:	c34c                	sw	a1,4(a4)
     56a:	c70c                	sw	a1,8(a4)
     56c:	c74c                	sw	a1,12(a4)
     56e:	0741                	addi	a4,a4,16
     570:	fed76be3          	bltu	a4,a3,566 <memset+0x18>
     574:	e211                	bnez	a2,578 <memset+0x2a>
     576:	8082                	ret
     578:	40c306b3          	sub	a3,t1,a2
     57c:	068a                	slli	a3,a3,0x2
     57e:	00000297          	auipc	t0,0x0
     582:	9696                	add	a3,a3,t0
     584:	00a68067          	jr	10(a3)
     588:	00b70723          	sb	a1,14(a4)
     58c:	00b706a3          	sb	a1,13(a4)
     590:	00b70623          	sb	a1,12(a4)
     594:	00b705a3          	sb	a1,11(a4)
     598:	00b70523          	sb	a1,10(a4)
     59c:	00b704a3          	sb	a1,9(a4)
     5a0:	00b70423          	sb	a1,8(a4)
     5a4:	00b703a3          	sb	a1,7(a4)
     5a8:	00b70323          	sb	a1,6(a4)
     5ac:	00b702a3          	sb	a1,5(a4)
     5b0:	00b70223          	sb	a1,4(a4)
     5b4:	00b701a3          	sb	a1,3(a4)
     5b8:	00b70123          	sb	a1,2(a4)
     5bc:	00b700a3          	sb	a1,1(a4)
     5c0:	00b70023          	sb	a1,0(a4)
     5c4:	8082                	ret
     5c6:	0ff5f593          	andi	a1,a1,255
     5ca:	00859693          	slli	a3,a1,0x8
     5ce:	8dd5                	or	a1,a1,a3
     5d0:	01059693          	slli	a3,a1,0x10
     5d4:	8dd5                	or	a1,a1,a3
     5d6:	b761                	j	55e <memset+0x10>
     5d8:	00279693          	slli	a3,a5,0x2
     5dc:	00000297          	auipc	t0,0x0
     5e0:	9696                	add	a3,a3,t0
     5e2:	8286                	mv	t0,ra
     5e4:	fa8680e7          	jalr	-88(a3)
     5e8:	8096                	mv	ra,t0
     5ea:	17c1                	addi	a5,a5,-16
     5ec:	8f1d                	sub	a4,a4,a5
     5ee:	963e                	add	a2,a2,a5
     5f0:	f8c374e3          	bgeu	t1,a2,578 <memset+0x2a>
     5f4:	b7a5                	j	55c <memset+0xe>

000005f6 <SERVICE_RTOS_TaskCreate>:
     5f6:	cd11                	beqz	a0,612 <SERVICE_RTOS_TaskCreate+0x1c>
     5f8:	4805                	li	a6,1
     5fa:	cd89                	beqz	a1,614 <SERVICE_RTOS_TaskCreate+0x1e>
     5fc:	ce01                	beqz	a2,614 <SERVICE_RTOS_TaskCreate+0x1e>
     5fe:	f21ff2ef          	jal	t0,51e <__riscv_save_0>
     602:	87ba                	mv	a5,a4
     604:	8736                	mv	a4,a3
     606:	4681                	li	a3,0
     608:	497000ef          	jal	ra,129e <xTaskCreate>
     60c:	4801                	li	a6,0
     60e:	8542                	mv	a0,a6
     610:	bf0d                	j	542 <__riscv_restore_0>
     612:	4805                	li	a6,1
     614:	8542                	mv	a0,a6
     616:	8082                	ret

00000618 <SERVICE_RTOS_StartSchedular>:
     618:	f07ff2ef          	jal	t0,51e <__riscv_save_0>
     61c:	6b5000ef          	jal	ra,14d0 <vTaskStartScheduler>
     620:	4501                	li	a0,0
     622:	b705                	j	542 <__riscv_restore_0>

00000624 <SERVICE_RTOS_CreateBlockingQueue>:
     624:	cd11                	beqz	a0,640 <SERVICE_RTOS_CreateBlockingQueue+0x1c>
     626:	4785                	li	a5,1
     628:	cd89                	beqz	a1,642 <SERVICE_RTOS_CreateBlockingQueue+0x1e>
     62a:	ce01                	beqz	a2,642 <SERVICE_RTOS_CreateBlockingQueue+0x1e>
     62c:	ef3ff2ef          	jal	t0,51e <__riscv_save_0>
     630:	8432                	mv	s0,a2
     632:	4601                	li	a2,0
     634:	6fe000ef          	jal	ra,d32 <xQueueGenericCreate>
     638:	4781                	li	a5,0
     63a:	c008                	sw	a0,0(s0)
     63c:	853e                	mv	a0,a5
     63e:	b711                	j	542 <__riscv_restore_0>
     640:	4785                	li	a5,1
     642:	853e                	mv	a0,a5
     644:	8082                	ret

00000646 <SERVICE_RTOS_AppendToBlockingQueue>:
     646:	4785                	li	a5,1
     648:	c195                	beqz	a1,66c <SERVICE_RTOS_AppendToBlockingQueue+0x26>
     64a:	c20d                	beqz	a2,66c <SERVICE_RTOS_AppendToBlockingQueue+0x26>
     64c:	ed3ff2ef          	jal	t0,51e <__riscv_save_0>
     650:	87b2                	mv	a5,a2
     652:	4681                	li	a3,0
     654:	00155613          	srli	a2,a0,0x1
     658:	853e                	mv	a0,a5
     65a:	742000ef          	jal	ra,d9c <xQueueGenericSend>
     65e:	4705                	li	a4,1
     660:	4781                	li	a5,0
     662:	00e50363          	beq	a0,a4,668 <SERVICE_RTOS_AppendToBlockingQueue+0x22>
     666:	4789                	li	a5,2
     668:	853e                	mv	a0,a5
     66a:	bde1                	j	542 <__riscv_restore_0>
     66c:	853e                	mv	a0,a5
     66e:	8082                	ret

00000670 <SERVICE_RTOS_ReadFromBlockingQueue>:
     670:	4785                	li	a5,1
     672:	c985                	beqz	a1,6a2 <SERVICE_RTOS_ReadFromBlockingQueue+0x32>
     674:	c61d                	beqz	a2,6a2 <SERVICE_RTOS_ReadFromBlockingQueue+0x32>
     676:	ea9ff2ef          	jal	t0,51e <__riscv_save_0>
     67a:	8432                	mv	s0,a2
     67c:	00155613          	srli	a2,a0,0x1
     680:	8522                	mv	a0,s0
     682:	84b6                	mv	s1,a3
     684:	0a7000ef          	jal	ra,f2a <xQueueReceive>
     688:	4705                	li	a4,1
     68a:	478d                	li	a5,3
     68c:	00e51963          	bne	a0,a4,69e <SERVICE_RTOS_ReadFromBlockingQueue+0x2e>
     690:	8522                	mv	a0,s0
     692:	1e5000ef          	jal	ra,1076 <uxQueueMessagesWaiting>
     696:	0505                	addi	a0,a0,1
     698:	00a48023          	sb	a0,0(s1)
     69c:	4781                	li	a5,0
     69e:	853e                	mv	a0,a5
     6a0:	b54d                	j	542 <__riscv_restore_0>
     6a2:	853e                	mv	a0,a5
     6a4:	8082                	ret

000006a6 <SERVICE_RTOS_BlockFor>:
     6a6:	e79ff2ef          	jal	t0,51e <__riscv_save_0>
     6aa:	8105                	srli	a0,a0,0x1
     6ac:	1de010ef          	jal	ra,188a <vTaskDelay>
     6b0:	4501                	li	a0,0
     6b2:	bd41                	j	542 <__riscv_restore_0>

000006b4 <SERVICE_RTOS_WaitForNotification>:
     6b4:	e6bff2ef          	jal	t0,51e <__riscv_save_0>
     6b8:	1f400613          	li	a2,500
     6bc:	02c50633          	mul	a2,a0,a2
     6c0:	3e800793          	li	a5,1000
     6c4:	4581                	li	a1,0
     6c6:	4501                	li	a0,0
     6c8:	02f65633          	divu	a2,a2,a5
     6cc:	634010ef          	jal	ra,1d00 <ulTaskGenericNotifyTake>
     6d0:	4501                	li	a0,0
     6d2:	bd85                	j	542 <__riscv_restore_0>

000006d4 <prvInsertBlockIntoFreeList>:
     6d4:	200007b7          	lui	a5,0x20000
     6d8:	0c078793          	addi	a5,a5,192 # 200000c0 <xStart>
     6dc:	4398                	lw	a4,0(a5)
     6de:	02a76f63          	bltu	a4,a0,71c <prvInsertBlockIntoFreeList+0x48>
     6e2:	43d0                	lw	a2,4(a5)
     6e4:	00c786b3          	add	a3,a5,a2
     6e8:	00d51663          	bne	a0,a3,6f4 <prvInsertBlockIntoFreeList+0x20>
     6ec:	4154                	lw	a3,4(a0)
     6ee:	853e                	mv	a0,a5
     6f0:	96b2                	add	a3,a3,a2
     6f2:	c3d4                	sw	a3,4(a5)
     6f4:	4150                	lw	a2,4(a0)
     6f6:	00c506b3          	add	a3,a0,a2
     6fa:	00d71c63          	bne	a4,a3,712 <prvInsertBlockIntoFreeList+0x3e>
     6fe:	200006b7          	lui	a3,0x20000
     702:	0a86a683          	lw	a3,168(a3) # 200000a8 <_edata>
     706:	00d70663          	beq	a4,a3,712 <prvInsertBlockIntoFreeList+0x3e>
     70a:	4354                	lw	a3,4(a4)
     70c:	4318                	lw	a4,0(a4)
     70e:	96b2                	add	a3,a3,a2
     710:	c154                	sw	a3,4(a0)
     712:	c118                	sw	a4,0(a0)
     714:	00f50363          	beq	a0,a5,71a <prvInsertBlockIntoFreeList+0x46>
     718:	c388                	sw	a0,0(a5)
     71a:	8082                	ret
     71c:	87ba                	mv	a5,a4
     71e:	bf7d                	j	6dc <prvInsertBlockIntoFreeList+0x8>

00000720 <pvPortMalloc>:
     720:	de5ff2ef          	jal	t0,504 <__riscv_save_4>
     724:	1141                	addi	sp,sp,-16
     726:	c62a                	sw	a0,12(sp)
     728:	639000ef          	jal	ra,1560 <vTaskSuspendAll>
     72c:	200006b7          	lui	a3,0x20000
     730:	0a86a783          	lw	a5,168(a3) # 200000a8 <_edata>
     734:	20000637          	lui	a2,0x20000
     738:	0a868693          	addi	a3,a3,168
     73c:	0ac60613          	addi	a2,a2,172 # 200000ac <xBlockAllocatedBit>
     740:	4532                	lw	a0,12(sp)
     742:	efa1                	bnez	a5,79a <pvPortMalloc+0x7a>
     744:	20000737          	lui	a4,0x20000
     748:	16870793          	addi	a5,a4,360 # 20000168 <ucHeap>
     74c:	00f7f593          	andi	a1,a5,15
     750:	16870713          	addi	a4,a4,360
     754:	c581                	beqz	a1,75c <pvPortMalloc+0x3c>
     756:	00f78713          	addi	a4,a5,15
     75a:	9b41                	andi	a4,a4,-16
     75c:	200005b7          	lui	a1,0x20000
     760:	0c058593          	addi	a1,a1,192 # 200000c0 <xStart>
     764:	0005a223          	sw	zero,4(a1)
     768:	c198                	sw	a4,0(a1)
     76a:	658d                	lui	a1,0x3
     76c:	15c1                	addi	a1,a1,-16
     76e:	97ae                	add	a5,a5,a1
     770:	9bc1                	andi	a5,a5,-16
     772:	0007a223          	sw	zero,4(a5)
     776:	0007a023          	sw	zero,0(a5)
     77a:	40e785b3          	sub	a1,a5,a4
     77e:	c29c                	sw	a5,0(a3)
     780:	c31c                	sw	a5,0(a4)
     782:	200007b7          	lui	a5,0x20000
     786:	0ab7aa23          	sw	a1,180(a5) # 200000b4 <xMinimumEverFreeBytesRemaining>
     78a:	200007b7          	lui	a5,0x20000
     78e:	0ab7a823          	sw	a1,176(a5) # 200000b0 <xFreeBytesRemaining>
     792:	800007b7          	lui	a5,0x80000
     796:	c34c                	sw	a1,4(a4)
     798:	c21c                	sw	a5,0(a2)
     79a:	00062a03          	lw	s4,0(a2)
     79e:	00aa77b3          	and	a5,s4,a0
     7a2:	e385                	bnez	a5,7c2 <pvPortMalloc+0xa2>
     7a4:	fff50793          	addi	a5,a0,-1
     7a8:	5739                	li	a4,-18
     7aa:	00f76c63          	bltu	a4,a5,7c2 <pvPortMalloc+0xa2>
     7ae:	01050793          	addi	a5,a0,16
     7b2:	00f7f713          	andi	a4,a5,15
     7b6:	c341                	beqz	a4,836 <__stack_size+0x36>
     7b8:	ff07f713          	andi	a4,a5,-16
     7bc:	0741                	addi	a4,a4,16
     7be:	06e7eb63          	bltu	a5,a4,834 <__stack_size+0x34>
     7c2:	4481                	li	s1,0
     7c4:	a089                	j	806 <__stack_size+0x6>
     7c6:	8722                	mv	a4,s0
     7c8:	842e                	mv	s0,a1
     7ca:	a061                	j	852 <__stack_size+0x52>
     7cc:	c158                	sw	a4,4(a0)
     7ce:	c05c                	sw	a5,4(s0)
     7d0:	3711                	jal	6d4 <prvInsertBlockIntoFreeList>
     7d2:	4058                	lw	a4,4(s0)
     7d4:	200006b7          	lui	a3,0x20000
     7d8:	0b468693          	addi	a3,a3,180 # 200000b4 <xMinimumEverFreeBytesRemaining>
     7dc:	4290                	lw	a2,0(a3)
     7de:	40e907b3          	sub	a5,s2,a4
     7e2:	00f9a023          	sw	a5,0(s3)
     7e6:	00c7f363          	bgeu	a5,a2,7ec <pvPortMalloc+0xcc>
     7ea:	c29c                	sw	a5,0(a3)
     7ec:	200007b7          	lui	a5,0x20000
     7f0:	00ea6733          	or	a4,s4,a4
     7f4:	0b878793          	addi	a5,a5,184 # 200000b8 <xNumberOfSuccessfulAllocations>
     7f8:	c058                	sw	a4,4(s0)
     7fa:	4398                	lw	a4,0(a5)
     7fc:	04c1                	addi	s1,s1,16
     7fe:	00042023          	sw	zero,0(s0)
     802:	0705                	addi	a4,a4,1
     804:	c398                	sw	a4,0(a5)
     806:	71f000ef          	jal	ra,1724 <xTaskResumeAll>
     80a:	00f4f793          	andi	a5,s1,15
     80e:	cbd1                	beqz	a5,8a2 <__stack_size+0xa2>
     810:	6789                	lui	a5,0x2
     812:	80078793          	addi	a5,a5,-2048 # 1800 <xTaskResumeAll+0xdc>
     816:	30079073          	csrw	mstatus,a5
     81a:	0000a637          	lui	a2,0xa
     81e:	0000a537          	lui	a0,0xa
     822:	60060613          	addi	a2,a2,1536 # a600 <_read+0x1c>
     826:	11000593          	li	a1,272
     82a:	63450513          	addi	a0,a0,1588 # a634 <_read+0x50>
     82e:	329080ef          	jal	ra,9356 <iprintf>
     832:	a001                	j	832 <__stack_size+0x32>
     834:	87ba                	mv	a5,a4
     836:	20000737          	lui	a4,0x20000
     83a:	0b072903          	lw	s2,176(a4) # 200000b0 <xFreeBytesRemaining>
     83e:	0b070993          	addi	s3,a4,176
     842:	f8f960e3          	bltu	s2,a5,7c2 <pvPortMalloc+0xa2>
     846:	20000737          	lui	a4,0x20000
     84a:	0c072403          	lw	s0,192(a4) # 200000c0 <xStart>
     84e:	0c070713          	addi	a4,a4,192
     852:	4050                	lw	a2,4(s0)
     854:	00f67463          	bgeu	a2,a5,85c <__stack_size+0x5c>
     858:	400c                	lw	a1,0(s0)
     85a:	f5b5                	bnez	a1,7c6 <pvPortMalloc+0xa6>
     85c:	4294                	lw	a3,0(a3)
     85e:	f68682e3          	beq	a3,s0,7c2 <pvPortMalloc+0xa2>
     862:	4014                	lw	a3,0(s0)
     864:	4304                	lw	s1,0(a4)
     866:	c314                	sw	a3,0(a4)
     868:	40f60733          	sub	a4,a2,a5
     86c:	02000693          	li	a3,32
     870:	f6e6f1e3          	bgeu	a3,a4,7d2 <pvPortMalloc+0xb2>
     874:	00f40533          	add	a0,s0,a5
     878:	00f57693          	andi	a3,a0,15
     87c:	daa1                	beqz	a3,7cc <pvPortMalloc+0xac>
     87e:	6789                	lui	a5,0x2
     880:	80078793          	addi	a5,a5,-2048 # 1800 <xTaskResumeAll+0xdc>
     884:	30079073          	csrw	mstatus,a5
     888:	0000a637          	lui	a2,0xa
     88c:	0000a537          	lui	a0,0xa
     890:	60060613          	addi	a2,a2,1536 # a600 <_read+0x1c>
     894:	0cf00593          	li	a1,207
     898:	63450513          	addi	a0,a0,1588 # a634 <_read+0x50>
     89c:	2bb080ef          	jal	ra,9356 <iprintf>
     8a0:	a001                	j	8a0 <__stack_size+0xa0>
     8a2:	8526                	mv	a0,s1
     8a4:	0141                	addi	sp,sp,16
     8a6:	b949                	j	538 <__riscv_restore_4>

000008a8 <vPortFree>:
     8a8:	c14d                	beqz	a0,94a <vPortFree+0xa2>
     8aa:	c75ff2ef          	jal	t0,51e <__riscv_save_0>
     8ae:	200007b7          	lui	a5,0x20000
     8b2:	ff452703          	lw	a4,-12(a0)
     8b6:	0ac7a783          	lw	a5,172(a5) # 200000ac <xBlockAllocatedBit>
     8ba:	842a                	mv	s0,a0
     8bc:	00f776b3          	and	a3,a4,a5
     8c0:	e29d                	bnez	a3,8e6 <vPortFree+0x3e>
     8c2:	6789                	lui	a5,0x2
     8c4:	80078793          	addi	a5,a5,-2048 # 1800 <xTaskResumeAll+0xdc>
     8c8:	30079073          	csrw	mstatus,a5
     8cc:	0000a637          	lui	a2,0xa
     8d0:	0000a537          	lui	a0,0xa
     8d4:	60060613          	addi	a2,a2,1536 # a600 <_read+0x1c>
     8d8:	12400593          	li	a1,292
     8dc:	63450513          	addi	a0,a0,1588 # a634 <_read+0x50>
     8e0:	277080ef          	jal	ra,9356 <iprintf>
     8e4:	a001                	j	8e4 <vPortFree+0x3c>
     8e6:	ff052683          	lw	a3,-16(a0)
     8ea:	c29d                	beqz	a3,910 <vPortFree+0x68>
     8ec:	6789                	lui	a5,0x2
     8ee:	80078793          	addi	a5,a5,-2048 # 1800 <xTaskResumeAll+0xdc>
     8f2:	30079073          	csrw	mstatus,a5
     8f6:	0000a637          	lui	a2,0xa
     8fa:	0000a537          	lui	a0,0xa
     8fe:	60060613          	addi	a2,a2,1536 # a600 <_read+0x1c>
     902:	12500593          	li	a1,293
     906:	63450513          	addi	a0,a0,1588 # a634 <_read+0x50>
     90a:	24d080ef          	jal	ra,9356 <iprintf>
     90e:	a001                	j	90e <vPortFree+0x66>
     910:	fff7c793          	not	a5,a5
     914:	8ff9                	and	a5,a5,a4
     916:	fef52a23          	sw	a5,-12(a0)
     91a:	447000ef          	jal	ra,1560 <vTaskSuspendAll>
     91e:	200007b7          	lui	a5,0x20000
     922:	0b078793          	addi	a5,a5,176 # 200000b0 <xFreeBytesRemaining>
     926:	4394                	lw	a3,0(a5)
     928:	ff442703          	lw	a4,-12(s0)
     92c:	ff040513          	addi	a0,s0,-16
     930:	9736                	add	a4,a4,a3
     932:	c398                	sw	a4,0(a5)
     934:	3345                	jal	6d4 <prvInsertBlockIntoFreeList>
     936:	200007b7          	lui	a5,0x20000
     93a:	0bc78793          	addi	a5,a5,188 # 200000bc <xNumberOfSuccessfulFrees>
     93e:	4398                	lw	a4,0(a5)
     940:	0705                	addi	a4,a4,1
     942:	c398                	sw	a4,0(a5)
     944:	5e1000ef          	jal	ra,1724 <xTaskResumeAll>
     948:	beed                	j	542 <__riscv_restore_0>
     94a:	8082                	ret

0000094c <vPortSetupTimerInterrupt>:
     94c:	e000e7b7          	lui	a5,0xe000e
     950:	5741                	li	a4,-16
     952:	40e78723          	sb	a4,1038(a5) # e000e40e <__freertos_irq_stack_top+0xc000940e>
     956:	40e78623          	sb	a4,1036(a5)
     95a:	e000f7b7          	lui	a5,0xe000f
     95e:	0007a023          	sw	zero,0(a5) # e000f000 <__freertos_irq_stack_top+0xc000a000>
     962:	0007a223          	sw	zero,4(a5)
     966:	4681                	li	a3,0
     968:	c794                	sw	a3,8(a5)
     96a:	4701                	li	a4,0
     96c:	c7d8                	sw	a4,12(a5)
     96e:	8101a583          	lw	a1,-2032(gp) # 20000090 <SystemCoreClock>
     972:	1f400713          	li	a4,500
     976:	4681                	li	a3,0
     978:	02e5d633          	divu	a2,a1,a4
     97c:	473d                	li	a4,15
     97e:	cb90                	sw	a2,16(a5)
     980:	cbd4                	sw	a3,20(a5)
     982:	c398                	sw	a4,0(a5)
     984:	8082                	ret

00000986 <xPortStartScheduler>:
     986:	b99ff2ef          	jal	t0,51e <__riscv_save_0>
     98a:	1141                	addi	sp,sp,-16
     98c:	c602                	sw	zero,12(sp)
     98e:	305027f3          	csrr	a5,mtvec
     992:	c63e                	sw	a5,12(sp)
     994:	47b2                	lw	a5,12(sp)
     996:	470d                	li	a4,3
     998:	8b8d                	andi	a5,a5,3
     99a:	02e78463          	beq	a5,a4,9c2 <xPortStartScheduler+0x3c>
     99e:	6789                	lui	a5,0x2
     9a0:	80078793          	addi	a5,a5,-2048 # 1800 <xTaskResumeAll+0xdc>
     9a4:	30079073          	csrw	mstatus,a5
     9a8:	0000a637          	lui	a2,0xa
     9ac:	0000a537          	lui	a0,0xa
     9b0:	65860613          	addi	a2,a2,1624 # a658 <_read+0x74>
     9b4:	0b600593          	li	a1,182
     9b8:	63450513          	addi	a0,a0,1588 # a634 <_read+0x50>
     9bc:	19b080ef          	jal	ra,9356 <iprintf>
     9c0:	a001                	j	9c0 <xPortStartScheduler+0x3a>
     9c2:	200057b7          	lui	a5,0x20005
     9c6:	00078793          	mv	a5,a5
     9ca:	8bbd                	andi	a5,a5,15
     9cc:	c39d                	beqz	a5,9f2 <xPortStartScheduler+0x6c>
     9ce:	6789                	lui	a5,0x2
     9d0:	80078793          	addi	a5,a5,-2048 # 1800 <xTaskResumeAll+0xdc>
     9d4:	30079073          	csrw	mstatus,a5
     9d8:	0000a637          	lui	a2,0xa
     9dc:	0000a537          	lui	a0,0xa
     9e0:	65860613          	addi	a2,a2,1624 # a658 <_read+0x74>
     9e4:	0bb00593          	li	a1,187
     9e8:	63450513          	addi	a0,a0,1588 # a634 <_read+0x50>
     9ec:	16b080ef          	jal	ra,9356 <iprintf>
     9f0:	a001                	j	9f0 <xPortStartScheduler+0x6a>
     9f2:	3fa9                	jal	94c <vPortSetupTimerInterrupt>
     9f4:	e000e7b7          	lui	a5,0xe000e
     9f8:	6711                	lui	a4,0x4
     9fa:	10e7a023          	sw	a4,256(a5) # e000e100 <__freertos_irq_stack_top+0xc0009100>
     9fe:	6705                	lui	a4,0x1
     a00:	10e7a023          	sw	a4,256(a5)
     a04:	200007b7          	lui	a5,0x20000
     a08:	0807a023          	sw	zero,128(a5) # 20000080 <uxCriticalNesting>
     a0c:	8f5ff0ef          	jal	ra,300 <xPortStartFirstTask>
     a10:	4501                	li	a0,0
     a12:	0141                	addi	sp,sp,16
     a14:	b63d                	j	542 <__riscv_restore_0>

00000a16 <SysTick_Handler>:
     a16:	7139                	addi	sp,sp,-64
     a18:	de06                	sw	ra,60(sp)
     a1a:	dc16                	sw	t0,56(sp)
     a1c:	da1a                	sw	t1,52(sp)
     a1e:	d81e                	sw	t2,48(sp)
     a20:	d62a                	sw	a0,44(sp)
     a22:	d42e                	sw	a1,40(sp)
     a24:	d232                	sw	a2,36(sp)
     a26:	d036                	sw	a3,32(sp)
     a28:	ce3a                	sw	a4,28(sp)
     a2a:	cc3e                	sw	a5,24(sp)
     a2c:	ca42                	sw	a6,20(sp)
     a2e:	c846                	sw	a7,16(sp)
     a30:	c672                	sw	t3,12(sp)
     a32:	c476                	sw	t4,8(sp)
     a34:	c27a                	sw	t5,4(sp)
     a36:	c07e                	sw	t6,0(sp)
     a38:	34011173          	csrrw	sp,mscratch,sp
     a3c:	6789                	lui	a5,0x2
     a3e:	80078793          	addi	a5,a5,-2048 # 1800 <xTaskResumeAll+0xdc>
     a42:	30079073          	csrw	mstatus,a5
     a46:	e000f7b7          	lui	a5,0xe000f
     a4a:	0007a223          	sw	zero,4(a5) # e000f004 <__freertos_irq_stack_top+0xc000a004>
     a4e:	32d000ef          	jal	ra,157a <xTaskIncrementTick>
     a52:	c511                	beqz	a0,a5e <SysTick_Handler+0x48>
     a54:	e000e7b7          	lui	a5,0xe000e
     a58:	6711                	lui	a4,0x4
     a5a:	20e7a023          	sw	a4,512(a5) # e000e200 <__freertos_irq_stack_top+0xc0009200>
     a5e:	6789                	lui	a5,0x2
     a60:	88878793          	addi	a5,a5,-1912 # 1888 <xTaskResumeAll+0x164>
     a64:	30079073          	csrw	mstatus,a5
     a68:	34011173          	csrrw	sp,mscratch,sp
     a6c:	50f2                	lw	ra,60(sp)
     a6e:	52e2                	lw	t0,56(sp)
     a70:	5352                	lw	t1,52(sp)
     a72:	53c2                	lw	t2,48(sp)
     a74:	5532                	lw	a0,44(sp)
     a76:	55a2                	lw	a1,40(sp)
     a78:	5612                	lw	a2,36(sp)
     a7a:	5682                	lw	a3,32(sp)
     a7c:	4772                	lw	a4,28(sp)
     a7e:	47e2                	lw	a5,24(sp)
     a80:	4852                	lw	a6,20(sp)
     a82:	48c2                	lw	a7,16(sp)
     a84:	4e32                	lw	t3,12(sp)
     a86:	4ea2                	lw	t4,8(sp)
     a88:	4f12                	lw	t5,4(sp)
     a8a:	4f82                	lw	t6,0(sp)
     a8c:	6121                	addi	sp,sp,64
     a8e:	30200073          	mret

00000a92 <vPortEnterCritical>:
     a92:	6789                	lui	a5,0x2
     a94:	80078793          	addi	a5,a5,-2048 # 1800 <xTaskResumeAll+0xdc>
     a98:	30079073          	csrw	mstatus,a5
     a9c:	200007b7          	lui	a5,0x20000
     aa0:	08078793          	addi	a5,a5,128 # 20000080 <uxCriticalNesting>
     aa4:	4398                	lw	a4,0(a5)
     aa6:	0705                	addi	a4,a4,1
     aa8:	c398                	sw	a4,0(a5)
     aaa:	8082                	ret

00000aac <vPortExitCritical>:
     aac:	20000737          	lui	a4,0x20000
     ab0:	08070713          	addi	a4,a4,128 # 20000080 <uxCriticalNesting>
     ab4:	431c                	lw	a5,0(a4)
     ab6:	e78d                	bnez	a5,ae0 <vPortExitCritical+0x34>
     ab8:	a67ff2ef          	jal	t0,51e <__riscv_save_0>
     abc:	6789                	lui	a5,0x2
     abe:	80078793          	addi	a5,a5,-2048 # 1800 <xTaskResumeAll+0xdc>
     ac2:	30079073          	csrw	mstatus,a5
     ac6:	0000a637          	lui	a2,0xa
     aca:	0000a537          	lui	a0,0xa
     ace:	65860613          	addi	a2,a2,1624 # a658 <_read+0x74>
     ad2:	10300593          	li	a1,259
     ad6:	63450513          	addi	a0,a0,1588 # a634 <_read+0x50>
     ada:	07d080ef          	jal	ra,9356 <iprintf>
     ade:	a001                	j	ade <vPortExitCritical+0x32>
     ae0:	17fd                	addi	a5,a5,-1
     ae2:	c31c                	sw	a5,0(a4)
     ae4:	e791                	bnez	a5,af0 <vPortExitCritical+0x44>
     ae6:	6789                	lui	a5,0x2
     ae8:	88878793          	addi	a5,a5,-1912 # 1888 <xTaskResumeAll+0x164>
     aec:	30079073          	csrw	mstatus,a5
     af0:	8082                	ret

00000af2 <vListInitialise>:
     af2:	00850793          	addi	a5,a0,8
     af6:	577d                	li	a4,-1
     af8:	c15c                	sw	a5,4(a0)
     afa:	c518                	sw	a4,8(a0)
     afc:	c55c                	sw	a5,12(a0)
     afe:	c91c                	sw	a5,16(a0)
     b00:	00052023          	sw	zero,0(a0)
     b04:	8082                	ret

00000b06 <vListInitialiseItem>:
     b06:	00052823          	sw	zero,16(a0)
     b0a:	8082                	ret

00000b0c <vListInsert>:
     b0c:	4198                	lw	a4,0(a1)
     b0e:	56fd                	li	a3,-1
     b10:	00850793          	addi	a5,a0,8
     b14:	00d71e63          	bne	a4,a3,b30 <vListInsert+0x24>
     b18:	491c                	lw	a5,16(a0)
     b1a:	43d8                	lw	a4,4(a5)
     b1c:	c1d8                	sw	a4,4(a1)
     b1e:	c70c                	sw	a1,8(a4)
     b20:	c59c                	sw	a5,8(a1)
     b22:	c3cc                	sw	a1,4(a5)
     b24:	411c                	lw	a5,0(a0)
     b26:	c988                	sw	a0,16(a1)
     b28:	0785                	addi	a5,a5,1
     b2a:	c11c                	sw	a5,0(a0)
     b2c:	8082                	ret
     b2e:	87b6                	mv	a5,a3
     b30:	43d4                	lw	a3,4(a5)
     b32:	4290                	lw	a2,0(a3)
     b34:	fec77de3          	bgeu	a4,a2,b2e <vListInsert+0x22>
     b38:	b7cd                	j	b1a <vListInsert+0xe>

00000b3a <uxListRemove>:
     b3a:	4154                	lw	a3,4(a0)
     b3c:	4518                	lw	a4,8(a0)
     b3e:	491c                	lw	a5,16(a0)
     b40:	c698                	sw	a4,8(a3)
     b42:	c354                	sw	a3,4(a4)
     b44:	43d4                	lw	a3,4(a5)
     b46:	00a69363          	bne	a3,a0,b4c <uxListRemove+0x12>
     b4a:	c3d8                	sw	a4,4(a5)
     b4c:	4398                	lw	a4,0(a5)
     b4e:	00052823          	sw	zero,16(a0)
     b52:	177d                	addi	a4,a4,-1
     b54:	c398                	sw	a4,0(a5)
     b56:	4388                	lw	a0,0(a5)
     b58:	8082                	ret

00000b5a <prvIsQueueEmpty>:
     b5a:	9c5ff2ef          	jal	t0,51e <__riscv_save_0>
     b5e:	1141                	addi	sp,sp,-16
     b60:	c62a                	sw	a0,12(sp)
     b62:	3f05                	jal	a92 <vPortEnterCritical>
     b64:	4532                	lw	a0,12(sp)
     b66:	5d00                	lw	s0,56(a0)
     b68:	3791                	jal	aac <vPortExitCritical>
     b6a:	00143513          	seqz	a0,s0
     b6e:	0141                	addi	sp,sp,16
     b70:	bac9                	j	542 <__riscv_restore_0>

00000b72 <prvCopyDataToQueue>:
     b72:	9adff2ef          	jal	t0,51e <__riscv_save_0>
     b76:	8932                	mv	s2,a2
     b78:	4130                	lw	a2,64(a0)
     b7a:	5d04                	lw	s1,56(a0)
     b7c:	842a                	mv	s0,a0
     b7e:	ee01                	bnez	a2,b96 <prvCopyDataToQueue+0x24>
     b80:	411c                	lw	a5,0(a0)
     b82:	4501                	li	a0,0
     b84:	e791                	bnez	a5,b90 <prvCopyDataToQueue+0x1e>
     b86:	4408                	lw	a0,8(s0)
     b88:	0ae010ef          	jal	ra,1c36 <xTaskPriorityDisinherit>
     b8c:	00042423          	sw	zero,8(s0)
     b90:	0485                	addi	s1,s1,1
     b92:	dc04                	sw	s1,56(s0)
     b94:	b27d                	j	542 <__riscv_restore_0>
     b96:	02091063          	bnez	s2,bb6 <prvCopyDataToQueue+0x44>
     b9a:	4148                	lw	a0,4(a0)
     b9c:	704080ef          	jal	ra,92a0 <memcpy>
     ba0:	405c                	lw	a5,4(s0)
     ba2:	4038                	lw	a4,64(s0)
     ba4:	4501                	li	a0,0
     ba6:	97ba                	add	a5,a5,a4
     ba8:	4418                	lw	a4,8(s0)
     baa:	c05c                	sw	a5,4(s0)
     bac:	fee7e2e3          	bltu	a5,a4,b90 <prvCopyDataToQueue+0x1e>
     bb0:	401c                	lw	a5,0(s0)
     bb2:	c05c                	sw	a5,4(s0)
     bb4:	bff1                	j	b90 <prvCopyDataToQueue+0x1e>
     bb6:	4548                	lw	a0,12(a0)
     bb8:	6e8080ef          	jal	ra,92a0 <memcpy>
     bbc:	403c                	lw	a5,64(s0)
     bbe:	4458                	lw	a4,12(s0)
     bc0:	4014                	lw	a3,0(s0)
     bc2:	40f007b3          	neg	a5,a5
     bc6:	973e                	add	a4,a4,a5
     bc8:	c458                	sw	a4,12(s0)
     bca:	00d77563          	bgeu	a4,a3,bd4 <prvCopyDataToQueue+0x62>
     bce:	4418                	lw	a4,8(s0)
     bd0:	97ba                	add	a5,a5,a4
     bd2:	c45c                	sw	a5,12(s0)
     bd4:	4789                	li	a5,2
     bd6:	4501                	li	a0,0
     bd8:	faf91ce3          	bne	s2,a5,b90 <prvCopyDataToQueue+0x1e>
     bdc:	d8d5                	beqz	s1,b90 <prvCopyDataToQueue+0x1e>
     bde:	14fd                	addi	s1,s1,-1
     be0:	bf45                	j	b90 <prvCopyDataToQueue+0x1e>

00000be2 <prvCopyDataFromQueue>:
     be2:	4130                	lw	a2,64(a0)
     be4:	c20d                	beqz	a2,c06 <prvCopyDataFromQueue+0x24>
     be6:	939ff2ef          	jal	t0,51e <__riscv_save_0>
     bea:	4558                	lw	a4,12(a0)
     bec:	4514                	lw	a3,8(a0)
     bee:	87aa                	mv	a5,a0
     bf0:	9732                	add	a4,a4,a2
     bf2:	c558                	sw	a4,12(a0)
     bf4:	00d76463          	bltu	a4,a3,bfc <prvCopyDataFromQueue+0x1a>
     bf8:	4118                	lw	a4,0(a0)
     bfa:	c558                	sw	a4,12(a0)
     bfc:	852e                	mv	a0,a1
     bfe:	47cc                	lw	a1,12(a5)
     c00:	6a0080ef          	jal	ra,92a0 <memcpy>
     c04:	ba3d                	j	542 <__riscv_restore_0>
     c06:	8082                	ret

00000c08 <prvUnlockQueue>:
     c08:	917ff2ef          	jal	t0,51e <__riscv_save_0>
     c0c:	842a                	mv	s0,a0
     c0e:	3551                	jal	a92 <vPortEnterCritical>
     c10:	04544483          	lbu	s1,69(s0)
     c14:	02440913          	addi	s2,s0,36
     c18:	04e2                	slli	s1,s1,0x18
     c1a:	84e1                	srai	s1,s1,0x18
     c1c:	02904563          	bgtz	s1,c46 <prvUnlockQueue+0x3e>
     c20:	57fd                	li	a5,-1
     c22:	04f402a3          	sb	a5,69(s0)
     c26:	3559                	jal	aac <vPortExitCritical>
     c28:	35ad                	jal	a92 <vPortEnterCritical>
     c2a:	04444483          	lbu	s1,68(s0)
     c2e:	01040913          	addi	s2,s0,16
     c32:	04e2                	slli	s1,s1,0x18
     c34:	84e1                	srai	s1,s1,0x18
     c36:	02904463          	bgtz	s1,c5e <prvUnlockQueue+0x56>
     c3a:	57fd                	li	a5,-1
     c3c:	04f40223          	sb	a5,68(s0)
     c40:	35b5                	jal	aac <vPortExitCritical>
     c42:	901ff06f          	j	542 <__riscv_restore_0>
     c46:	505c                	lw	a5,36(s0)
     c48:	dfe1                	beqz	a5,c20 <prvUnlockQueue+0x18>
     c4a:	854a                	mv	a0,s2
     c4c:	5f9000ef          	jal	ra,1a44 <xTaskRemoveFromEventList>
     c50:	c119                	beqz	a0,c56 <prvUnlockQueue+0x4e>
     c52:	7bd000ef          	jal	ra,1c0e <vTaskMissedYield>
     c56:	14fd                	addi	s1,s1,-1
     c58:	04e2                	slli	s1,s1,0x18
     c5a:	84e1                	srai	s1,s1,0x18
     c5c:	b7c1                	j	c1c <prvUnlockQueue+0x14>
     c5e:	481c                	lw	a5,16(s0)
     c60:	dfe9                	beqz	a5,c3a <prvUnlockQueue+0x32>
     c62:	854a                	mv	a0,s2
     c64:	5e1000ef          	jal	ra,1a44 <xTaskRemoveFromEventList>
     c68:	c119                	beqz	a0,c6e <prvUnlockQueue+0x66>
     c6a:	7a5000ef          	jal	ra,1c0e <vTaskMissedYield>
     c6e:	14fd                	addi	s1,s1,-1
     c70:	04e2                	slli	s1,s1,0x18
     c72:	84e1                	srai	s1,s1,0x18
     c74:	b7c9                	j	c36 <prvUnlockQueue+0x2e>

00000c76 <xQueueGenericReset>:
     c76:	8a9ff2ef          	jal	t0,51e <__riscv_save_0>
     c7a:	1141                	addi	sp,sp,-16
     c7c:	e11d                	bnez	a0,ca2 <xQueueGenericReset+0x2c>
     c7e:	6789                	lui	a5,0x2
     c80:	80078793          	addi	a5,a5,-2048 # 1800 <xTaskResumeAll+0xdc>
     c84:	30079073          	csrw	mstatus,a5
     c88:	0000a637          	lui	a2,0xa
     c8c:	0000a537          	lui	a0,0xa
     c90:	68c60613          	addi	a2,a2,1676 # a68c <_read+0xa8>
     c94:	11000593          	li	a1,272
     c98:	63450513          	addi	a0,a0,1588 # a634 <_read+0x50>
     c9c:	6ba080ef          	jal	ra,9356 <iprintf>
     ca0:	a001                	j	ca0 <xQueueGenericReset+0x2a>
     ca2:	5d5c                	lw	a5,60(a0)
     ca4:	c62e                	sw	a1,12(sp)
     ca6:	842a                	mv	s0,a0
     ca8:	c3bd                	beqz	a5,d0e <xQueueGenericReset+0x98>
     caa:	4138                	lw	a4,64(a0)
     cac:	02e7b7b3          	mulhu	a5,a5,a4
     cb0:	efb9                	bnez	a5,d0e <xQueueGenericReset+0x98>
     cb2:	33c5                	jal	a92 <vPortEnterCritical>
     cb4:	4030                	lw	a2,64(s0)
     cb6:	5c58                	lw	a4,60(s0)
     cb8:	4014                	lw	a3,0(s0)
     cba:	02042c23          	sw	zero,56(s0)
     cbe:	02e607b3          	mul	a5,a2,a4
     cc2:	45b2                	lw	a1,12(sp)
     cc4:	c054                	sw	a3,4(s0)
     cc6:	00f68733          	add	a4,a3,a5
     cca:	8f91                	sub	a5,a5,a2
     ccc:	97b6                	add	a5,a5,a3
     cce:	c45c                	sw	a5,12(s0)
     cd0:	57fd                	li	a5,-1
     cd2:	04f40223          	sb	a5,68(s0)
     cd6:	c418                	sw	a4,8(s0)
     cd8:	04f402a3          	sb	a5,69(s0)
     cdc:	e195                	bnez	a1,d00 <xQueueGenericReset+0x8a>
     cde:	481c                	lw	a5,16(s0)
     ce0:	cb99                	beqz	a5,cf6 <xQueueGenericReset+0x80>
     ce2:	01040513          	addi	a0,s0,16
     ce6:	55f000ef          	jal	ra,1a44 <xTaskRemoveFromEventList>
     cea:	c511                	beqz	a0,cf6 <xQueueGenericReset+0x80>
     cec:	e000e7b7          	lui	a5,0xe000e
     cf0:	6711                	lui	a4,0x4
     cf2:	20e7a023          	sw	a4,512(a5) # e000e200 <__freertos_irq_stack_top+0xc0009200>
     cf6:	3b5d                	jal	aac <vPortExitCritical>
     cf8:	4505                	li	a0,1
     cfa:	0141                	addi	sp,sp,16
     cfc:	847ff06f          	j	542 <__riscv_restore_0>
     d00:	01040513          	addi	a0,s0,16
     d04:	33fd                	jal	af2 <vListInitialise>
     d06:	02440513          	addi	a0,s0,36
     d0a:	33e5                	jal	af2 <vListInitialise>
     d0c:	b7ed                	j	cf6 <xQueueGenericReset+0x80>
     d0e:	6789                	lui	a5,0x2
     d10:	80078793          	addi	a5,a5,-2048 # 1800 <xTaskResumeAll+0xdc>
     d14:	30079073          	csrw	mstatus,a5
     d18:	0000a637          	lui	a2,0xa
     d1c:	0000a537          	lui	a0,0xa
     d20:	68c60613          	addi	a2,a2,1676 # a68c <_read+0xa8>
     d24:	14500593          	li	a1,325
     d28:	63450513          	addi	a0,a0,1588 # a634 <_read+0x50>
     d2c:	62a080ef          	jal	ra,9356 <iprintf>
     d30:	a001                	j	d30 <xQueueGenericReset+0xba>

00000d32 <xQueueGenericCreate>:
     d32:	fecff2ef          	jal	t0,51e <__riscv_save_0>
     d36:	1141                	addi	sp,sp,-16
     d38:	c121                	beqz	a0,d78 <xQueueGenericCreate+0x46>
     d3a:	02a5b7b3          	mulhu	a5,a1,a0
     d3e:	84aa                	mv	s1,a0
     d40:	ef85                	bnez	a5,d78 <xQueueGenericCreate+0x46>
     d42:	02b50533          	mul	a0,a0,a1
     d46:	fb700793          	li	a5,-73
     d4a:	02a7e763          	bltu	a5,a0,d78 <xQueueGenericCreate+0x46>
     d4e:	04850513          	addi	a0,a0,72
     d52:	c62e                	sw	a1,12(sp)
     d54:	32f1                	jal	720 <pvPortMalloc>
     d56:	842a                	mv	s0,a0
     d58:	cd01                	beqz	a0,d70 <xQueueGenericCreate+0x3e>
     d5a:	45b2                	lw	a1,12(sp)
     d5c:	87aa                	mv	a5,a0
     d5e:	c199                	beqz	a1,d64 <xQueueGenericCreate+0x32>
     d60:	04850793          	addi	a5,a0,72
     d64:	c02c                	sw	a1,64(s0)
     d66:	c01c                	sw	a5,0(s0)
     d68:	dc44                	sw	s1,60(s0)
     d6a:	4585                	li	a1,1
     d6c:	8522                	mv	a0,s0
     d6e:	3721                	jal	c76 <xQueueGenericReset>
     d70:	8522                	mv	a0,s0
     d72:	0141                	addi	sp,sp,16
     d74:	fceff06f          	j	542 <__riscv_restore_0>
     d78:	6789                	lui	a5,0x2
     d7a:	80078793          	addi	a5,a5,-2048 # 1800 <xTaskResumeAll+0xdc>
     d7e:	30079073          	csrw	mstatus,a5
     d82:	0000a637          	lui	a2,0xa
     d86:	0000a537          	lui	a0,0xa
     d8a:	68c60613          	addi	a2,a2,1676 # a68c <_read+0xa8>
     d8e:	1c600593          	li	a1,454
     d92:	63450513          	addi	a0,a0,1588 # a634 <_read+0x50>
     d96:	5c0080ef          	jal	ra,9356 <iprintf>
     d9a:	a001                	j	d9a <xQueueGenericCreate+0x68>

00000d9c <xQueueGenericSend>:
     d9c:	f5aff2ef          	jal	t0,4f6 <__riscv_save_10>
     da0:	1101                	addi	sp,sp,-32
     da2:	c632                	sw	a2,12(sp)
     da4:	e11d                	bnez	a0,dca <xQueueGenericSend+0x2e>
     da6:	6789                	lui	a5,0x2
     da8:	80078793          	addi	a5,a5,-2048 # 1800 <xTaskResumeAll+0xdc>
     dac:	30079073          	csrw	mstatus,a5
     db0:	0000a637          	lui	a2,0xa
     db4:	0000a537          	lui	a0,0xa
     db8:	68c60613          	addi	a2,a2,1676 # a68c <_read+0xa8>
     dbc:	32e00593          	li	a1,814
     dc0:	63450513          	addi	a0,a0,1588 # a634 <_read+0x50>
     dc4:	592080ef          	jal	ra,9356 <iprintf>
     dc8:	a001                	j	dc8 <xQueueGenericSend+0x2c>
     dca:	842a                	mv	s0,a0
     dcc:	892e                	mv	s2,a1
     dce:	84b6                	mv	s1,a3
     dd0:	e58d                	bnez	a1,dfa <xQueueGenericSend+0x5e>
     dd2:	413c                	lw	a5,64(a0)
     dd4:	c39d                	beqz	a5,dfa <xQueueGenericSend+0x5e>
     dd6:	6789                	lui	a5,0x2
     dd8:	80078793          	addi	a5,a5,-2048 # 1800 <xTaskResumeAll+0xdc>
     ddc:	30079073          	csrw	mstatus,a5
     de0:	0000a637          	lui	a2,0xa
     de4:	0000a537          	lui	a0,0xa
     de8:	68c60613          	addi	a2,a2,1676 # a68c <_read+0xa8>
     dec:	32f00593          	li	a1,815
     df0:	63450513          	addi	a0,a0,1588 # a634 <_read+0x50>
     df4:	562080ef          	jal	ra,9356 <iprintf>
     df8:	a001                	j	df8 <xQueueGenericSend+0x5c>
     dfa:	4789                	li	a5,2
     dfc:	02f49863          	bne	s1,a5,e2c <xQueueGenericSend+0x90>
     e00:	5c58                	lw	a4,60(s0)
     e02:	4785                	li	a5,1
     e04:	02f70463          	beq	a4,a5,e2c <xQueueGenericSend+0x90>
     e08:	6789                	lui	a5,0x2
     e0a:	80078793          	addi	a5,a5,-2048 # 1800 <xTaskResumeAll+0xdc>
     e0e:	30079073          	csrw	mstatus,a5
     e12:	0000a637          	lui	a2,0xa
     e16:	0000a537          	lui	a0,0xa
     e1a:	68c60613          	addi	a2,a2,1676 # a68c <_read+0xa8>
     e1e:	33000593          	li	a1,816
     e22:	63450513          	addi	a0,a0,1588 # a634 <_read+0x50>
     e26:	530080ef          	jal	ra,9356 <iprintf>
     e2a:	a001                	j	e2a <xQueueGenericSend+0x8e>
     e2c:	5ef000ef          	jal	ra,1c1a <xTaskGetSchedulerState>
     e30:	e515                	bnez	a0,e5c <xQueueGenericSend+0xc0>
     e32:	47b2                	lw	a5,12(sp)
     e34:	4c01                	li	s8,0
     e36:	c785                	beqz	a5,e5e <xQueueGenericSend+0xc2>
     e38:	6789                	lui	a5,0x2
     e3a:	80078793          	addi	a5,a5,-2048 # 1800 <xTaskResumeAll+0xdc>
     e3e:	30079073          	csrw	mstatus,a5
     e42:	0000a637          	lui	a2,0xa
     e46:	0000a537          	lui	a0,0xa
     e4a:	68c60613          	addi	a2,a2,1676 # a68c <_read+0xa8>
     e4e:	33300593          	li	a1,819
     e52:	63450513          	addi	a0,a0,1588 # a634 <_read+0x50>
     e56:	500080ef          	jal	ra,9356 <iprintf>
     e5a:	a001                	j	e5a <xQueueGenericSend+0xbe>
     e5c:	4c01                	li	s8,0
     e5e:	4b09                	li	s6,2
     e60:	59fd                	li	s3,-1
     e62:	01040b93          	addi	s7,s0,16
     e66:	e000ea37          	lui	s4,0xe000e
     e6a:	6a91                	lui	s5,0x4
     e6c:	a0ad                	j	ed6 <xQueueGenericSend+0x13a>
     e6e:	47b2                	lw	a5,12(sp)
     e70:	e781                	bnez	a5,e78 <xQueueGenericSend+0xdc>
     e72:	392d                	jal	aac <vPortExitCritical>
     e74:	4501                	li	a0,0
     e76:	a849                	j	f08 <xQueueGenericSend+0x16c>
     e78:	000c1563          	bnez	s8,e82 <xQueueGenericSend+0xe6>
     e7c:	0828                	addi	a0,sp,24
     e7e:	4b3000ef          	jal	ra,1b30 <vTaskInternalSetTimeOutState>
     e82:	312d                	jal	aac <vPortExitCritical>
     e84:	6dc000ef          	jal	ra,1560 <vTaskSuspendAll>
     e88:	3129                	jal	a92 <vPortEnterCritical>
     e8a:	04444783          	lbu	a5,68(s0)
     e8e:	07e2                	slli	a5,a5,0x18
     e90:	87e1                	srai	a5,a5,0x18
     e92:	01379463          	bne	a5,s3,e9a <xQueueGenericSend+0xfe>
     e96:	04040223          	sb	zero,68(s0)
     e9a:	04544783          	lbu	a5,69(s0)
     e9e:	07e2                	slli	a5,a5,0x18
     ea0:	87e1                	srai	a5,a5,0x18
     ea2:	01379463          	bne	a5,s3,eaa <xQueueGenericSend+0x10e>
     ea6:	040402a3          	sb	zero,69(s0)
     eaa:	3109                	jal	aac <vPortExitCritical>
     eac:	006c                	addi	a1,sp,12
     eae:	0828                	addi	a0,sp,24
     eb0:	497000ef          	jal	ra,1b46 <xTaskCheckForTimeOut>
     eb4:	e535                	bnez	a0,f20 <xQueueGenericSend+0x184>
     eb6:	3ef1                	jal	a92 <vPortEnterCritical>
     eb8:	5c18                	lw	a4,56(s0)
     eba:	5c5c                	lw	a5,60(s0)
     ebc:	04f71963          	bne	a4,a5,f0e <xQueueGenericSend+0x172>
     ec0:	36f5                	jal	aac <vPortExitCritical>
     ec2:	45b2                	lw	a1,12(sp)
     ec4:	855e                	mv	a0,s7
     ec6:	2c1000ef          	jal	ra,1986 <vTaskPlaceOnEventList>
     eca:	8522                	mv	a0,s0
     ecc:	3b35                	jal	c08 <prvUnlockQueue>
     ece:	057000ef          	jal	ra,1724 <xTaskResumeAll>
     ed2:	c521                	beqz	a0,f1a <xQueueGenericSend+0x17e>
     ed4:	4c05                	li	s8,1
     ed6:	3e75                	jal	a92 <vPortEnterCritical>
     ed8:	5c18                	lw	a4,56(s0)
     eda:	5c5c                	lw	a5,60(s0)
     edc:	00f76463          	bltu	a4,a5,ee4 <xQueueGenericSend+0x148>
     ee0:	f96497e3          	bne	s1,s6,e6e <xQueueGenericSend+0xd2>
     ee4:	8626                	mv	a2,s1
     ee6:	85ca                	mv	a1,s2
     ee8:	8522                	mv	a0,s0
     eea:	3161                	jal	b72 <prvCopyDataToQueue>
     eec:	505c                	lw	a5,36(s0)
     eee:	c789                	beqz	a5,ef8 <xQueueGenericSend+0x15c>
     ef0:	02440513          	addi	a0,s0,36
     ef4:	351000ef          	jal	ra,1a44 <xTaskRemoveFromEventList>
     ef8:	c511                	beqz	a0,f04 <xQueueGenericSend+0x168>
     efa:	e000e7b7          	lui	a5,0xe000e
     efe:	6711                	lui	a4,0x4
     f00:	20e7a023          	sw	a4,512(a5) # e000e200 <__freertos_irq_stack_top+0xc0009200>
     f04:	3665                	jal	aac <vPortExitCritical>
     f06:	4505                	li	a0,1
     f08:	6105                	addi	sp,sp,32
     f0a:	e24ff06f          	j	52e <__riscv_restore_10>
     f0e:	3e79                	jal	aac <vPortExitCritical>
     f10:	8522                	mv	a0,s0
     f12:	39dd                	jal	c08 <prvUnlockQueue>
     f14:	011000ef          	jal	ra,1724 <xTaskResumeAll>
     f18:	bf75                	j	ed4 <xQueueGenericSend+0x138>
     f1a:	215a2023          	sw	s5,512(s4) # e000e200 <__freertos_irq_stack_top+0xc0009200>
     f1e:	bf5d                	j	ed4 <xQueueGenericSend+0x138>
     f20:	8522                	mv	a0,s0
     f22:	31dd                	jal	c08 <prvUnlockQueue>
     f24:	001000ef          	jal	ra,1724 <xTaskResumeAll>
     f28:	b7b1                	j	e74 <xQueueGenericSend+0xd8>

00000f2a <xQueueReceive>:
     f2a:	dccff2ef          	jal	t0,4f6 <__riscv_save_10>
     f2e:	1101                	addi	sp,sp,-32
     f30:	c632                	sw	a2,12(sp)
     f32:	e11d                	bnez	a0,f58 <xQueueReceive+0x2e>
     f34:	6789                	lui	a5,0x2
     f36:	80078793          	addi	a5,a5,-2048 # 1800 <xTaskResumeAll+0xdc>
     f3a:	30079073          	csrw	mstatus,a5
     f3e:	0000a637          	lui	a2,0xa
     f42:	0000a537          	lui	a0,0xa
     f46:	68c60613          	addi	a2,a2,1676 # a68c <_read+0xa8>
     f4a:	55100593          	li	a1,1361
     f4e:	63450513          	addi	a0,a0,1588 # a634 <_read+0x50>
     f52:	404080ef          	jal	ra,9356 <iprintf>
     f56:	a001                	j	f56 <xQueueReceive+0x2c>
     f58:	842a                	mv	s0,a0
     f5a:	89ae                	mv	s3,a1
     f5c:	e58d                	bnez	a1,f86 <xQueueReceive+0x5c>
     f5e:	413c                	lw	a5,64(a0)
     f60:	c39d                	beqz	a5,f86 <xQueueReceive+0x5c>
     f62:	6789                	lui	a5,0x2
     f64:	80078793          	addi	a5,a5,-2048 # 1800 <xTaskResumeAll+0xdc>
     f68:	30079073          	csrw	mstatus,a5
     f6c:	0000a637          	lui	a2,0xa
     f70:	0000a537          	lui	a0,0xa
     f74:	68c60613          	addi	a2,a2,1676 # a68c <_read+0xa8>
     f78:	55500593          	li	a1,1365
     f7c:	63450513          	addi	a0,a0,1588 # a634 <_read+0x50>
     f80:	3d6080ef          	jal	ra,9356 <iprintf>
     f84:	a001                	j	f84 <xQueueReceive+0x5a>
     f86:	495000ef          	jal	ra,1c1a <xTaskGetSchedulerState>
     f8a:	e515                	bnez	a0,fb6 <xQueueReceive+0x8c>
     f8c:	47b2                	lw	a5,12(sp)
     f8e:	4901                	li	s2,0
     f90:	c785                	beqz	a5,fb8 <xQueueReceive+0x8e>
     f92:	6789                	lui	a5,0x2
     f94:	80078793          	addi	a5,a5,-2048 # 1800 <xTaskResumeAll+0xdc>
     f98:	30079073          	csrw	mstatus,a5
     f9c:	0000a637          	lui	a2,0xa
     fa0:	0000a537          	lui	a0,0xa
     fa4:	68c60613          	addi	a2,a2,1676 # a68c <_read+0xa8>
     fa8:	55a00593          	li	a1,1370
     fac:	63450513          	addi	a0,a0,1588 # a634 <_read+0x50>
     fb0:	3a6080ef          	jal	ra,9356 <iprintf>
     fb4:	a001                	j	fb4 <xQueueReceive+0x8a>
     fb6:	4901                	li	s2,0
     fb8:	5a7d                	li	s4,-1
     fba:	02440a93          	addi	s5,s0,36
     fbe:	e000eb37          	lui	s6,0xe000e
     fc2:	6b91                	lui	s7,0x4
     fc4:	a09d                	j	102a <xQueueReceive+0x100>
     fc6:	47b2                	lw	a5,12(sp)
     fc8:	e781                	bnez	a5,fd0 <xQueueReceive+0xa6>
     fca:	34cd                	jal	aac <vPortExitCritical>
     fcc:	4501                	li	a0,0
     fce:	a061                	j	1056 <xQueueReceive+0x12c>
     fd0:	00091563          	bnez	s2,fda <xQueueReceive+0xb0>
     fd4:	0828                	addi	a0,sp,24
     fd6:	35b000ef          	jal	ra,1b30 <vTaskInternalSetTimeOutState>
     fda:	3cc9                	jal	aac <vPortExitCritical>
     fdc:	2351                	jal	1560 <vTaskSuspendAll>
     fde:	3c55                	jal	a92 <vPortEnterCritical>
     fe0:	04444783          	lbu	a5,68(s0)
     fe4:	07e2                	slli	a5,a5,0x18
     fe6:	87e1                	srai	a5,a5,0x18
     fe8:	01479463          	bne	a5,s4,ff0 <xQueueReceive+0xc6>
     fec:	04040223          	sb	zero,68(s0)
     ff0:	04544783          	lbu	a5,69(s0)
     ff4:	07e2                	slli	a5,a5,0x18
     ff6:	87e1                	srai	a5,a5,0x18
     ff8:	01479463          	bne	a5,s4,1000 <xQueueReceive+0xd6>
     ffc:	040402a3          	sb	zero,69(s0)
    1000:	3475                	jal	aac <vPortExitCritical>
    1002:	006c                	addi	a1,sp,12
    1004:	0828                	addi	a0,sp,24
    1006:	341000ef          	jal	ra,1b46 <xTaskCheckForTimeOut>
    100a:	ed31                	bnez	a0,1066 <xQueueReceive+0x13c>
    100c:	8522                	mv	a0,s0
    100e:	36b1                	jal	b5a <prvIsQueueEmpty>
    1010:	c531                	beqz	a0,105c <xQueueReceive+0x132>
    1012:	45b2                	lw	a1,12(sp)
    1014:	8556                	mv	a0,s5
    1016:	171000ef          	jal	ra,1986 <vTaskPlaceOnEventList>
    101a:	8522                	mv	a0,s0
    101c:	36f5                	jal	c08 <prvUnlockQueue>
    101e:	706000ef          	jal	ra,1724 <xTaskResumeAll>
    1022:	e119                	bnez	a0,1028 <xQueueReceive+0xfe>
    1024:	217b2023          	sw	s7,512(s6) # e000e200 <__freertos_irq_stack_top+0xc0009200>
    1028:	4905                	li	s2,1
    102a:	34a5                	jal	a92 <vPortEnterCritical>
    102c:	5c04                	lw	s1,56(s0)
    102e:	dcc1                	beqz	s1,fc6 <xQueueReceive+0x9c>
    1030:	85ce                	mv	a1,s3
    1032:	8522                	mv	a0,s0
    1034:	14fd                	addi	s1,s1,-1
    1036:	3675                	jal	be2 <prvCopyDataFromQueue>
    1038:	dc04                	sw	s1,56(s0)
    103a:	481c                	lw	a5,16(s0)
    103c:	cb99                	beqz	a5,1052 <xQueueReceive+0x128>
    103e:	01040513          	addi	a0,s0,16
    1042:	203000ef          	jal	ra,1a44 <xTaskRemoveFromEventList>
    1046:	c511                	beqz	a0,1052 <xQueueReceive+0x128>
    1048:	e000e7b7          	lui	a5,0xe000e
    104c:	6711                	lui	a4,0x4
    104e:	20e7a023          	sw	a4,512(a5) # e000e200 <__freertos_irq_stack_top+0xc0009200>
    1052:	3ca9                	jal	aac <vPortExitCritical>
    1054:	4505                	li	a0,1
    1056:	6105                	addi	sp,sp,32
    1058:	cd6ff06f          	j	52e <__riscv_restore_10>
    105c:	8522                	mv	a0,s0
    105e:	366d                	jal	c08 <prvUnlockQueue>
    1060:	6c4000ef          	jal	ra,1724 <xTaskResumeAll>
    1064:	b7d1                	j	1028 <xQueueReceive+0xfe>
    1066:	8522                	mv	a0,s0
    1068:	3645                	jal	c08 <prvUnlockQueue>
    106a:	6ba000ef          	jal	ra,1724 <xTaskResumeAll>
    106e:	8522                	mv	a0,s0
    1070:	34ed                	jal	b5a <prvIsQueueEmpty>
    1072:	d95d                	beqz	a0,1028 <xQueueReceive+0xfe>
    1074:	bfa1                	j	fcc <xQueueReceive+0xa2>

00001076 <uxQueueMessagesWaiting>:
    1076:	ca8ff2ef          	jal	t0,51e <__riscv_save_0>
    107a:	1141                	addi	sp,sp,-16
    107c:	e11d                	bnez	a0,10a2 <uxQueueMessagesWaiting+0x2c>
    107e:	6789                	lui	a5,0x2
    1080:	80078793          	addi	a5,a5,-2048 # 1800 <xTaskResumeAll+0xdc>
    1084:	30079073          	csrw	mstatus,a5
    1088:	0000a637          	lui	a2,0xa
    108c:	0000a537          	lui	a0,0xa
    1090:	68c60613          	addi	a2,a2,1676 # a68c <_read+0xa8>
    1094:	7e300593          	li	a1,2019
    1098:	63450513          	addi	a0,a0,1588 # a634 <_read+0x50>
    109c:	2ba080ef          	jal	ra,9356 <iprintf>
    10a0:	a001                	j	10a0 <uxQueueMessagesWaiting+0x2a>
    10a2:	c62a                	sw	a0,12(sp)
    10a4:	9efff0ef          	jal	ra,a92 <vPortEnterCritical>
    10a8:	4532                	lw	a0,12(sp)
    10aa:	5d08                	lw	a0,56(a0)
    10ac:	c62a                	sw	a0,12(sp)
    10ae:	9ffff0ef          	jal	ra,aac <vPortExitCritical>
    10b2:	4532                	lw	a0,12(sp)
    10b4:	0141                	addi	sp,sp,16
    10b6:	c8cff06f          	j	542 <__riscv_restore_0>

000010ba <vQueueAddToRegistry>:
    10ba:	e515                	bnez	a0,10e6 <vQueueAddToRegistry+0x2c>
    10bc:	c62ff2ef          	jal	t0,51e <__riscv_save_0>
    10c0:	6789                	lui	a5,0x2
    10c2:	80078793          	addi	a5,a5,-2048 # 1800 <xTaskResumeAll+0xdc>
    10c6:	30079073          	csrw	mstatus,a5
    10ca:	0000a637          	lui	a2,0xa
    10ce:	6585                	lui	a1,0x1
    10d0:	0000a537          	lui	a0,0xa
    10d4:	68c60613          	addi	a2,a2,1676 # a68c <_read+0xa8>
    10d8:	ac858593          	addi	a1,a1,-1336 # ac8 <vPortExitCritical+0x1c>
    10dc:	63450513          	addi	a0,a0,1588 # a634 <_read+0x50>
    10e0:	276080ef          	jal	ra,9356 <iprintf>
    10e4:	a001                	j	10e4 <vQueueAddToRegistry+0x2a>
    10e6:	cd9d                	beqz	a1,1124 <vQueueAddToRegistry+0x6a>
    10e8:	20003637          	lui	a2,0x20003
    10ec:	16860693          	addi	a3,a2,360 # 20003168 <xQueueRegistry>
    10f0:	4781                	li	a5,0
    10f2:	4701                	li	a4,0
    10f4:	16860613          	addi	a2,a2,360
    10f8:	4821                	li	a6,8
    10fa:	0046a883          	lw	a7,4(a3)
    10fe:	00a89863          	bne	a7,a0,110e <vQueueAddToRegistry+0x54>
    1102:	00371793          	slli	a5,a4,0x3
    1106:	97b2                	add	a5,a5,a2
    1108:	c38c                	sw	a1,0(a5)
    110a:	c3c8                	sw	a0,4(a5)
    110c:	a821                	j	1124 <vQueueAddToRegistry+0x6a>
    110e:	e791                	bnez	a5,111a <vQueueAddToRegistry+0x60>
    1110:	0006a883          	lw	a7,0(a3)
    1114:	00089363          	bnez	a7,111a <vQueueAddToRegistry+0x60>
    1118:	87b6                	mv	a5,a3
    111a:	0705                	addi	a4,a4,1
    111c:	06a1                	addi	a3,a3,8
    111e:	fd071ee3          	bne	a4,a6,10fa <vQueueAddToRegistry+0x40>
    1122:	f3fd                	bnez	a5,1108 <vQueueAddToRegistry+0x4e>
    1124:	8082                	ret

00001126 <vQueueWaitForMessageRestricted>:
    1126:	bf8ff2ef          	jal	t0,51e <__riscv_save_0>
    112a:	1141                	addi	sp,sp,-16
    112c:	842a                	mv	s0,a0
    112e:	c62e                	sw	a1,12(sp)
    1130:	c432                	sw	a2,8(sp)
    1132:	961ff0ef          	jal	ra,a92 <vPortEnterCritical>
    1136:	04444783          	lbu	a5,68(s0)
    113a:	577d                	li	a4,-1
    113c:	4622                	lw	a2,8(sp)
    113e:	07e2                	slli	a5,a5,0x18
    1140:	87e1                	srai	a5,a5,0x18
    1142:	45b2                	lw	a1,12(sp)
    1144:	00e79463          	bne	a5,a4,114c <vQueueWaitForMessageRestricted+0x26>
    1148:	04040223          	sb	zero,68(s0)
    114c:	04544783          	lbu	a5,69(s0)
    1150:	577d                	li	a4,-1
    1152:	07e2                	slli	a5,a5,0x18
    1154:	87e1                	srai	a5,a5,0x18
    1156:	00e79463          	bne	a5,a4,115e <vQueueWaitForMessageRestricted+0x38>
    115a:	040402a3          	sb	zero,69(s0)
    115e:	c632                	sw	a2,12(sp)
    1160:	c42e                	sw	a1,8(sp)
    1162:	94bff0ef          	jal	ra,aac <vPortExitCritical>
    1166:	5c1c                	lw	a5,56(s0)
    1168:	45a2                	lw	a1,8(sp)
    116a:	4632                	lw	a2,12(sp)
    116c:	e789                	bnez	a5,1176 <vQueueWaitForMessageRestricted+0x50>
    116e:	02440513          	addi	a0,s0,36
    1172:	05d000ef          	jal	ra,19ce <vTaskPlaceOnEventListRestricted>
    1176:	8522                	mv	a0,s0
    1178:	a91ff0ef          	jal	ra,c08 <prvUnlockQueue>
    117c:	0141                	addi	sp,sp,16
    117e:	bc4ff06f          	j	542 <__riscv_restore_0>

00001182 <prvResetNextTaskUnblockTime>:
    1182:	20000737          	lui	a4,0x20000
    1186:	0cc70713          	addi	a4,a4,204 # 200000cc <pxDelayedTaskList>
    118a:	431c                	lw	a5,0(a4)
    118c:	4394                	lw	a3,0(a5)
    118e:	200007b7          	lui	a5,0x20000
    1192:	0ec78793          	addi	a5,a5,236 # 200000ec <xNextTaskUnblockTime>
    1196:	e681                	bnez	a3,119e <prvResetNextTaskUnblockTime+0x1c>
    1198:	577d                	li	a4,-1
    119a:	c398                	sw	a4,0(a5)
    119c:	8082                	ret
    119e:	4318                	lw	a4,0(a4)
    11a0:	4758                	lw	a4,12(a4)
    11a2:	4318                	lw	a4,0(a4)
    11a4:	bfdd                	j	119a <prvResetNextTaskUnblockTime+0x18>

000011a6 <prvAddCurrentTaskToDelayedList>:
    11a6:	b5eff2ef          	jal	t0,504 <__riscv_save_4>
    11aa:	20000937          	lui	s2,0x20000
    11ae:	200007b7          	lui	a5,0x20000
    11b2:	0c890493          	addi	s1,s2,200 # 200000c8 <pxCurrentTCB>
    11b6:	0fc7a983          	lw	s3,252(a5) # 200000fc <xTickCount>
    11ba:	842a                	mv	s0,a0
    11bc:	409c                	lw	a5,0(s1)
    11be:	4088                	lw	a0,0(s1)
    11c0:	1141                	addi	sp,sp,-16
    11c2:	060780a3          	sb	zero,97(a5)
    11c6:	0511                	addi	a0,a0,4
    11c8:	c62e                	sw	a1,12(sp)
    11ca:	971ff0ef          	jal	ra,b3a <uxListRemove>
    11ce:	577d                	li	a4,-1
    11d0:	0c890793          	addi	a5,s2,200
    11d4:	45b2                	lw	a1,12(sp)
    11d6:	02e41c63          	bne	s0,a4,120e <prvAddCurrentTaskToDelayedList+0x68>
    11da:	c995                	beqz	a1,120e <prvAddCurrentTaskToDelayedList+0x68>
    11dc:	200037b7          	lui	a5,0x20003
    11e0:	27078793          	addi	a5,a5,624 # 20003270 <xSuspendedTaskList>
    11e4:	4094                	lw	a3,0(s1)
    11e6:	43d8                	lw	a4,4(a5)
    11e8:	c698                	sw	a4,8(a3)
    11ea:	4710                	lw	a2,8(a4)
    11ec:	4094                	lw	a3,0(s1)
    11ee:	c6d0                	sw	a2,12(a3)
    11f0:	4094                	lw	a3,0(s1)
    11f2:	4710                	lw	a2,8(a4)
    11f4:	0691                	addi	a3,a3,4
    11f6:	c254                	sw	a3,4(a2)
    11f8:	4094                	lw	a3,0(s1)
    11fa:	0691                	addi	a3,a3,4
    11fc:	c714                	sw	a3,8(a4)
    11fe:	4098                	lw	a4,0(s1)
    1200:	cb5c                	sw	a5,20(a4)
    1202:	4398                	lw	a4,0(a5)
    1204:	0705                	addi	a4,a4,1
    1206:	c398                	sw	a4,0(a5)
    1208:	0141                	addi	sp,sp,16
    120a:	b2eff06f          	j	538 <__riscv_restore_4>
    120e:	4398                	lw	a4,0(a5)
    1210:	944e                	add	s0,s0,s3
    1212:	c340                	sw	s0,4(a4)
    1214:	01347b63          	bgeu	s0,s3,122a <prvAddCurrentTaskToDelayedList+0x84>
    1218:	20000737          	lui	a4,0x20000
    121c:	0d072503          	lw	a0,208(a4) # 200000d0 <pxOverflowDelayedTaskList>
    1220:	438c                	lw	a1,0(a5)
    1222:	0591                	addi	a1,a1,4
    1224:	8e9ff0ef          	jal	ra,b0c <vListInsert>
    1228:	b7c5                	j	1208 <prvAddCurrentTaskToDelayedList+0x62>
    122a:	20000737          	lui	a4,0x20000
    122e:	0cc72503          	lw	a0,204(a4) # 200000cc <pxDelayedTaskList>
    1232:	438c                	lw	a1,0(a5)
    1234:	0591                	addi	a1,a1,4
    1236:	8d7ff0ef          	jal	ra,b0c <vListInsert>
    123a:	200007b7          	lui	a5,0x20000
    123e:	0ec78793          	addi	a5,a5,236 # 200000ec <xNextTaskUnblockTime>
    1242:	4398                	lw	a4,0(a5)
    1244:	fce472e3          	bgeu	s0,a4,1208 <prvAddCurrentTaskToDelayedList+0x62>
    1248:	c380                	sw	s0,0(a5)
    124a:	bf7d                	j	1208 <prvAddCurrentTaskToDelayedList+0x62>

0000124c <prvIdleTask>:
    124c:	ab8ff2ef          	jal	t0,504 <__riscv_save_4>
    1250:	20003437          	lui	s0,0x20003
    1254:	200009b7          	lui	s3,0x20000
    1258:	28440413          	addi	s0,s0,644 # 20003284 <xTasksWaitingTermination>
    125c:	20000a37          	lui	s4,0x20000
    1260:	0d898493          	addi	s1,s3,216 # 200000d8 <uxDeletedTasksWaitingCleanUp>
    1264:	409c                	lw	a5,0(s1)
    1266:	dfed                	beqz	a5,1260 <prvIdleTask+0x14>
    1268:	82bff0ef          	jal	ra,a92 <vPortEnterCritical>
    126c:	445c                	lw	a5,12(s0)
    126e:	00c7a903          	lw	s2,12(a5)
    1272:	00490513          	addi	a0,s2,4
    1276:	8c5ff0ef          	jal	ra,b3a <uxListRemove>
    127a:	0d4a0713          	addi	a4,s4,212 # 200000d4 <uxCurrentNumberOfTasks>
    127e:	431c                	lw	a5,0(a4)
    1280:	17fd                	addi	a5,a5,-1
    1282:	c31c                	sw	a5,0(a4)
    1284:	409c                	lw	a5,0(s1)
    1286:	17fd                	addi	a5,a5,-1
    1288:	c09c                	sw	a5,0(s1)
    128a:	823ff0ef          	jal	ra,aac <vPortExitCritical>
    128e:	03092503          	lw	a0,48(s2)
    1292:	e16ff0ef          	jal	ra,8a8 <vPortFree>
    1296:	854a                	mv	a0,s2
    1298:	e10ff0ef          	jal	ra,8a8 <vPortFree>
    129c:	b7d1                	j	1260 <prvIdleTask+0x14>

0000129e <xTaskCreate>:
    129e:	a58ff2ef          	jal	t0,4f6 <__riscv_save_10>
    12a2:	00261913          	slli	s2,a2,0x2
    12a6:	8aaa                	mv	s5,a0
    12a8:	854a                	mv	a0,s2
    12aa:	89ae                	mv	s3,a1
    12ac:	8b36                	mv	s6,a3
    12ae:	8bba                	mv	s7,a4
    12b0:	8a3e                	mv	s4,a5
    12b2:	c6eff0ef          	jal	ra,720 <pvPortMalloc>
    12b6:	c505                	beqz	a0,12de <xTaskCreate+0x40>
    12b8:	84aa                	mv	s1,a0
    12ba:	06400513          	li	a0,100
    12be:	c62ff0ef          	jal	ra,720 <pvPortMalloc>
    12c2:	842a                	mv	s0,a0
    12c4:	c911                	beqz	a0,12d8 <xTaskCreate+0x3a>
    12c6:	d904                	sw	s1,48(a0)
    12c8:	4781                	li	a5,0
    12ca:	02000693          	li	a3,32
    12ce:	00099a63          	bnez	s3,12e2 <xTaskCreate+0x44>
    12d2:	02050a23          	sb	zero,52(a0)
    12d6:	a025                	j	12fe <xTaskCreate+0x60>
    12d8:	8526                	mv	a0,s1
    12da:	dceff0ef          	jal	ra,8a8 <vPortFree>
    12de:	557d                	li	a0,-1
    12e0:	aad1                	j	14b4 <xTaskCreate+0x216>
    12e2:	00f98733          	add	a4,s3,a5
    12e6:	00070703          	lb	a4,0(a4)
    12ea:	00f40633          	add	a2,s0,a5
    12ee:	02e60a23          	sb	a4,52(a2)
    12f2:	c701                	beqz	a4,12fa <xTaskCreate+0x5c>
    12f4:	0785                	addi	a5,a5,1
    12f6:	fed796e3          	bne	a5,a3,12e2 <xTaskCreate+0x44>
    12fa:	040409a3          	sb	zero,83(s0)
    12fe:	4799                	li	a5,6
    1300:	0377f463          	bgeu	a5,s7,1328 <xTaskCreate+0x8a>
    1304:	6789                	lui	a5,0x2
    1306:	80078793          	addi	a5,a5,-2048 # 1800 <xTaskResumeAll+0xdc>
    130a:	30079073          	csrw	mstatus,a5
    130e:	0000a637          	lui	a2,0xa
    1312:	0000a537          	lui	a0,0xa
    1316:	6b060613          	addi	a2,a2,1712 # a6b0 <_read+0xcc>
    131a:	39700593          	li	a1,919
    131e:	63450513          	addi	a0,a0,1588 # a634 <_read+0x50>
    1322:	034080ef          	jal	ra,9356 <iprintf>
    1326:	a001                	j	1326 <xTaskCreate+0x88>
    1328:	00440993          	addi	s3,s0,4
    132c:	854e                	mv	a0,s3
    132e:	03742623          	sw	s7,44(s0)
    1332:	05742a23          	sw	s7,84(s0)
    1336:	04042c23          	sw	zero,88(s0)
    133a:	fccff0ef          	jal	ra,b06 <vListInitialiseItem>
    133e:	01840513          	addi	a0,s0,24
    1342:	fc4ff0ef          	jal	ra,b06 <vListInitialiseItem>
    1346:	471d                	li	a4,7
    1348:	ffc90513          	addi	a0,s2,-4
    134c:	41770733          	sub	a4,a4,s7
    1350:	9526                	add	a0,a0,s1
    1352:	c800                	sw	s0,16(s0)
    1354:	cc18                	sw	a4,24(s0)
    1356:	d040                	sw	s0,36(s0)
    1358:	04040e23          	sb	zero,92(s0)
    135c:	04040ea3          	sb	zero,93(s0)
    1360:	04040f23          	sb	zero,94(s0)
    1364:	04040fa3          	sb	zero,95(s0)
    1368:	06040023          	sb	zero,96(s0)
    136c:	060400a3          	sb	zero,97(s0)
    1370:	865a                	mv	a2,s6
    1372:	85d6                	mv	a1,s5
    1374:	9941                	andi	a0,a0,-16
    1376:	88aff0ef          	jal	ra,400 <pxPortInitialiseStack>
    137a:	c008                	sw	a0,0(s0)
    137c:	000a0463          	beqz	s4,1384 <xTaskCreate+0xe6>
    1380:	008a2023          	sw	s0,0(s4)
    1384:	f0eff0ef          	jal	ra,a92 <vPortEnterCritical>
    1388:	200007b7          	lui	a5,0x20000
    138c:	0d478793          	addi	a5,a5,212 # 200000d4 <uxCurrentNumberOfTasks>
    1390:	4398                	lw	a4,0(a5)
    1392:	20000937          	lui	s2,0x20000
    1396:	20003537          	lui	a0,0x20003
    139a:	0705                	addi	a4,a4,1
    139c:	c398                	sw	a4,0(a5)
    139e:	0c890713          	addi	a4,s2,200 # 200000c8 <pxCurrentTCB>
    13a2:	4318                	lw	a4,0(a4)
    13a4:	20000a37          	lui	s4,0x20000
    13a8:	0c890913          	addi	s2,s2,200
    13ac:	1a850493          	addi	s1,a0,424 # 200031a8 <pxReadyTasksLists>
    13b0:	0f8a0a13          	addi	s4,s4,248 # 200000f8 <xSchedulerRunning>
    13b4:	10071263          	bnez	a4,14b8 <xTaskCreate+0x21a>
    13b8:	00892023          	sw	s0,0(s2)
    13bc:	4398                	lw	a4,0(a5)
    13be:	4785                	li	a5,1
    13c0:	08f71863          	bne	a4,a5,1450 <xTaskCreate+0x1b2>
    13c4:	1a850513          	addi	a0,a0,424
    13c8:	f2aff0ef          	jal	ra,af2 <vListInitialise>
    13cc:	01448513          	addi	a0,s1,20
    13d0:	f22ff0ef          	jal	ra,af2 <vListInitialise>
    13d4:	02848513          	addi	a0,s1,40
    13d8:	f1aff0ef          	jal	ra,af2 <vListInitialise>
    13dc:	03c48513          	addi	a0,s1,60
    13e0:	f12ff0ef          	jal	ra,af2 <vListInitialise>
    13e4:	05048513          	addi	a0,s1,80
    13e8:	f0aff0ef          	jal	ra,af2 <vListInitialise>
    13ec:	06448513          	addi	a0,s1,100
    13f0:	f02ff0ef          	jal	ra,af2 <vListInitialise>
    13f4:	07848513          	addi	a0,s1,120
    13f8:	efaff0ef          	jal	ra,af2 <vListInitialise>
    13fc:	20003537          	lui	a0,0x20003
    1400:	23450b13          	addi	s6,a0,564 # 20003234 <xDelayedTaskList1>
    1404:	23450513          	addi	a0,a0,564
    1408:	eeaff0ef          	jal	ra,af2 <vListInitialise>
    140c:	20003537          	lui	a0,0x20003
    1410:	24850a93          	addi	s5,a0,584 # 20003248 <xDelayedTaskList2>
    1414:	24850513          	addi	a0,a0,584
    1418:	edaff0ef          	jal	ra,af2 <vListInitialise>
    141c:	20003537          	lui	a0,0x20003
    1420:	25c50513          	addi	a0,a0,604 # 2000325c <xPendingReadyList>
    1424:	eceff0ef          	jal	ra,af2 <vListInitialise>
    1428:	20003537          	lui	a0,0x20003
    142c:	28450513          	addi	a0,a0,644 # 20003284 <xTasksWaitingTermination>
    1430:	ec2ff0ef          	jal	ra,af2 <vListInitialise>
    1434:	20003537          	lui	a0,0x20003
    1438:	27050513          	addi	a0,a0,624 # 20003270 <xSuspendedTaskList>
    143c:	eb6ff0ef          	jal	ra,af2 <vListInitialise>
    1440:	200007b7          	lui	a5,0x20000
    1444:	0d67a623          	sw	s6,204(a5) # 200000cc <pxDelayedTaskList>
    1448:	200007b7          	lui	a5,0x20000
    144c:	0d57a823          	sw	s5,208(a5) # 200000d0 <pxOverflowDelayedTaskList>
    1450:	200007b7          	lui	a5,0x20000
    1454:	0e078793          	addi	a5,a5,224 # 200000e0 <uxTaskNumber>
    1458:	4398                	lw	a4,0(a5)
    145a:	0705                	addi	a4,a4,1
    145c:	c398                	sw	a4,0(a5)
    145e:	20000737          	lui	a4,0x20000
    1462:	0e470713          	addi	a4,a4,228 # 200000e4 <uxTopReadyPriority>
    1466:	545c                	lw	a5,44(s0)
    1468:	4314                	lw	a3,0(a4)
    146a:	00f6f363          	bgeu	a3,a5,1470 <xTaskCreate+0x1d2>
    146e:	c31c                	sw	a5,0(a4)
    1470:	4751                	li	a4,20
    1472:	02e787b3          	mul	a5,a5,a4
    1476:	94be                	add	s1,s1,a5
    1478:	40dc                	lw	a5,4(s1)
    147a:	4798                	lw	a4,8(a5)
    147c:	c41c                	sw	a5,8(s0)
    147e:	c458                	sw	a4,12(s0)
    1480:	4798                	lw	a4,8(a5)
    1482:	01372223          	sw	s3,4(a4)
    1486:	0137a423          	sw	s3,8(a5)
    148a:	409c                	lw	a5,0(s1)
    148c:	c844                	sw	s1,20(s0)
    148e:	0785                	addi	a5,a5,1
    1490:	c09c                	sw	a5,0(s1)
    1492:	e1aff0ef          	jal	ra,aac <vPortExitCritical>
    1496:	000a2783          	lw	a5,0(s4)
    149a:	4505                	li	a0,1
    149c:	cf81                	beqz	a5,14b4 <xTaskCreate+0x216>
    149e:	00092783          	lw	a5,0(s2)
    14a2:	57d8                	lw	a4,44(a5)
    14a4:	545c                	lw	a5,44(s0)
    14a6:	00f77763          	bgeu	a4,a5,14b4 <xTaskCreate+0x216>
    14aa:	e000e7b7          	lui	a5,0xe000e
    14ae:	6711                	lui	a4,0x4
    14b0:	20e7a023          	sw	a4,512(a5) # e000e200 <__freertos_irq_stack_top+0xc0009200>
    14b4:	87aff06f          	j	52e <__riscv_restore_10>
    14b8:	000a2783          	lw	a5,0(s4)
    14bc:	fbd1                	bnez	a5,1450 <xTaskCreate+0x1b2>
    14be:	00092783          	lw	a5,0(s2)
    14c2:	57d8                	lw	a4,44(a5)
    14c4:	545c                	lw	a5,44(s0)
    14c6:	f8e7e5e3          	bltu	a5,a4,1450 <xTaskCreate+0x1b2>
    14ca:	00892023          	sw	s0,0(s2)
    14ce:	b749                	j	1450 <xTaskCreate+0x1b2>

000014d0 <vTaskStartScheduler>:
    14d0:	84eff2ef          	jal	t0,51e <__riscv_save_0>
    14d4:	200007b7          	lui	a5,0x20000
    14d8:	0000a5b7          	lui	a1,0xa
    14dc:	00001537          	lui	a0,0x1
    14e0:	0e878793          	addi	a5,a5,232 # 200000e8 <xIdleTaskHandle>
    14e4:	4701                	li	a4,0
    14e6:	4681                	li	a3,0
    14e8:	10000613          	li	a2,256
    14ec:	6d458593          	addi	a1,a1,1748 # a6d4 <_read+0xf0>
    14f0:	24c50513          	addi	a0,a0,588 # 124c <prvIdleTask>
    14f4:	336d                	jal	129e <xTaskCreate>
    14f6:	4405                	li	s0,1
    14f8:	02851e63          	bne	a0,s0,1534 <vTaskStartScheduler+0x64>
    14fc:	36f000ef          	jal	ra,206a <xTimerCreateTimerTask>
    1500:	02851a63          	bne	a0,s0,1534 <vTaskStartScheduler+0x64>
    1504:	6789                	lui	a5,0x2
    1506:	80078793          	addi	a5,a5,-2048 # 1800 <xTaskResumeAll+0xdc>
    150a:	30079073          	csrw	mstatus,a5
    150e:	200007b7          	lui	a5,0x20000
    1512:	577d                	li	a4,-1
    1514:	0ee7a623          	sw	a4,236(a5) # 200000ec <xNextTaskUnblockTime>
    1518:	200007b7          	lui	a5,0x20000
    151c:	0ea7ac23          	sw	a0,248(a5) # 200000f8 <xSchedulerRunning>
    1520:	200007b7          	lui	a5,0x20000
    1524:	0e07ae23          	sw	zero,252(a5) # 200000fc <xTickCount>
    1528:	c5eff0ef          	jal	ra,986 <xPortStartScheduler>
    152c:	8041a783          	lw	a5,-2044(gp) # 20000084 <uxTopUsedPriority>
    1530:	812ff06f          	j	542 <__riscv_restore_0>
    1534:	57fd                	li	a5,-1
    1536:	fef51be3          	bne	a0,a5,152c <vTaskStartScheduler+0x5c>
    153a:	6789                	lui	a5,0x2
    153c:	80078793          	addi	a5,a5,-2048 # 1800 <xTaskResumeAll+0xdc>
    1540:	30079073          	csrw	mstatus,a5
    1544:	0000a637          	lui	a2,0xa
    1548:	6585                	lui	a1,0x1
    154a:	0000a537          	lui	a0,0xa
    154e:	6b060613          	addi	a2,a2,1712 # a6b0 <_read+0xcc>
    1552:	84058593          	addi	a1,a1,-1984 # 840 <__stack_size+0x40>
    1556:	63450513          	addi	a0,a0,1588 # a634 <_read+0x50>
    155a:	5fd070ef          	jal	ra,9356 <iprintf>
    155e:	a001                	j	155e <vTaskStartScheduler+0x8e>

00001560 <vTaskSuspendAll>:
    1560:	200007b7          	lui	a5,0x20000
    1564:	0dc78793          	addi	a5,a5,220 # 200000dc <uxSchedulerSuspended>
    1568:	4398                	lw	a4,0(a5)
    156a:	0705                	addi	a4,a4,1
    156c:	c398                	sw	a4,0(a5)
    156e:	8082                	ret

00001570 <xTaskGetTickCount>:
    1570:	200007b7          	lui	a5,0x20000
    1574:	0fc7a503          	lw	a0,252(a5) # 200000fc <xTickCount>
    1578:	8082                	ret

0000157a <xTaskIncrementTick>:
    157a:	200007b7          	lui	a5,0x20000
    157e:	0dc7a783          	lw	a5,220(a5) # 200000dc <uxSchedulerSuspended>
    1582:	18079863          	bnez	a5,1712 <xTaskIncrementTick+0x198>
    1586:	f99fe2ef          	jal	t0,51e <__riscv_save_0>
    158a:	200007b7          	lui	a5,0x20000
    158e:	0fc78793          	addi	a5,a5,252 # 200000fc <xTickCount>
    1592:	4380                	lw	s0,0(a5)
    1594:	0405                	addi	s0,s0,1
    1596:	c380                	sw	s0,0(a5)
    1598:	e839                	bnez	s0,15ee <xTaskIncrementTick+0x74>
    159a:	200007b7          	lui	a5,0x20000
    159e:	0cc78793          	addi	a5,a5,204 # 200000cc <pxDelayedTaskList>
    15a2:	4398                	lw	a4,0(a5)
    15a4:	4318                	lw	a4,0(a4)
    15a6:	c705                	beqz	a4,15ce <xTaskIncrementTick+0x54>
    15a8:	6789                	lui	a5,0x2
    15aa:	80078793          	addi	a5,a5,-2048 # 1800 <xTaskResumeAll+0xdc>
    15ae:	30079073          	csrw	mstatus,a5
    15b2:	0000a637          	lui	a2,0xa
    15b6:	6585                	lui	a1,0x1
    15b8:	0000a537          	lui	a0,0xa
    15bc:	6b060613          	addi	a2,a2,1712 # a6b0 <_read+0xcc>
    15c0:	ac758593          	addi	a1,a1,-1337 # ac7 <vPortExitCritical+0x1b>
    15c4:	63450513          	addi	a0,a0,1588 # a634 <_read+0x50>
    15c8:	58f070ef          	jal	ra,9356 <iprintf>
    15cc:	a001                	j	15cc <xTaskIncrementTick+0x52>
    15ce:	20000737          	lui	a4,0x20000
    15d2:	0d070713          	addi	a4,a4,208 # 200000d0 <pxOverflowDelayedTaskList>
    15d6:	4394                	lw	a3,0(a5)
    15d8:	4310                	lw	a2,0(a4)
    15da:	c390                	sw	a2,0(a5)
    15dc:	200007b7          	lui	a5,0x20000
    15e0:	c314                	sw	a3,0(a4)
    15e2:	0f078793          	addi	a5,a5,240 # 200000f0 <xNumOfOverflows>
    15e6:	4398                	lw	a4,0(a5)
    15e8:	0705                	addi	a4,a4,1
    15ea:	c398                	sw	a4,0(a5)
    15ec:	3e59                	jal	1182 <prvResetNextTaskUnblockTime>
    15ee:	20000637          	lui	a2,0x20000
    15f2:	0ec60793          	addi	a5,a2,236 # 200000ec <xNextTaskUnblockTime>
    15f6:	439c                	lw	a5,0(a5)
    15f8:	20003737          	lui	a4,0x20003
    15fc:	200005b7          	lui	a1,0x20000
    1600:	0ec60613          	addi	a2,a2,236
    1604:	1a870713          	addi	a4,a4,424 # 200031a8 <pxReadyTasksLists>
    1608:	0c858593          	addi	a1,a1,200 # 200000c8 <pxCurrentTCB>
    160c:	4501                	li	a0,0
    160e:	02f47563          	bgeu	s0,a5,1638 <xTaskIncrementTick+0xbe>
    1612:	419c                	lw	a5,0(a1)
    1614:	46d1                	li	a3,20
    1616:	57dc                	lw	a5,44(a5)
    1618:	02d787b3          	mul	a5,a5,a3
    161c:	973e                	add	a4,a4,a5
    161e:	4318                	lw	a4,0(a4)
    1620:	4785                	li	a5,1
    1622:	00e7f363          	bgeu	a5,a4,1628 <xTaskIncrementTick+0xae>
    1626:	4505                	li	a0,1
    1628:	200007b7          	lui	a5,0x20000
    162c:	1007a783          	lw	a5,256(a5) # 20000100 <xYieldPending>
    1630:	c391                	beqz	a5,1634 <xTaskIncrementTick+0xba>
    1632:	4505                	li	a0,1
    1634:	f0ffe06f          	j	542 <__riscv_restore_0>
    1638:	20000e37          	lui	t3,0x20000
    163c:	20000eb7          	lui	t4,0x20000
    1640:	4f51                	li	t5,20
    1642:	0cce0793          	addi	a5,t3,204 # 200000cc <pxDelayedTaskList>
    1646:	4394                	lw	a3,0(a5)
    1648:	4294                	lw	a3,0(a3)
    164a:	e681                	bnez	a3,1652 <xTaskIncrementTick+0xd8>
    164c:	57fd                	li	a5,-1
    164e:	c21c                	sw	a5,0(a2)
    1650:	b7c9                	j	1612 <xTaskIncrementTick+0x98>
    1652:	439c                	lw	a5,0(a5)
    1654:	47dc                	lw	a5,12(a5)
    1656:	47dc                	lw	a5,12(a5)
    1658:	43d4                	lw	a3,4(a5)
    165a:	00d47463          	bgeu	s0,a3,1662 <xTaskIncrementTick+0xe8>
    165e:	c214                	sw	a3,0(a2)
    1660:	bf4d                	j	1612 <xTaskIncrementTick+0x98>
    1662:	0087a883          	lw	a7,8(a5)
    1666:	00c7a803          	lw	a6,12(a5)
    166a:	4bd4                	lw	a3,20(a5)
    166c:	00478313          	addi	t1,a5,4
    1670:	0108a423          	sw	a6,8(a7)
    1674:	01182223          	sw	a7,4(a6)
    1678:	0046a883          	lw	a7,4(a3)
    167c:	00689463          	bne	a7,t1,1684 <xTaskIncrementTick+0x10a>
    1680:	0106a223          	sw	a6,4(a3)
    1684:	0006a803          	lw	a6,0(a3)
    1688:	0007aa23          	sw	zero,20(a5)
    168c:	187d                	addi	a6,a6,-1
    168e:	0106a023          	sw	a6,0(a3)
    1692:	5794                	lw	a3,40(a5)
    1694:	ca95                	beqz	a3,16c8 <xTaskIncrementTick+0x14e>
    1696:	01c7a803          	lw	a6,28(a5)
    169a:	0207a883          	lw	a7,32(a5)
    169e:	0046af83          	lw	t6,4(a3)
    16a2:	01182423          	sw	a7,8(a6)
    16a6:	0207a883          	lw	a7,32(a5)
    16aa:	0108a223          	sw	a6,4(a7)
    16ae:	01878813          	addi	a6,a5,24
    16b2:	010f9463          	bne	t6,a6,16ba <xTaskIncrementTick+0x140>
    16b6:	0116a223          	sw	a7,4(a3)
    16ba:	0006a803          	lw	a6,0(a3)
    16be:	0207a423          	sw	zero,40(a5)
    16c2:	187d                	addi	a6,a6,-1
    16c4:	0106a023          	sw	a6,0(a3)
    16c8:	0e4e8693          	addi	a3,t4,228 # 200000e4 <uxTopReadyPriority>
    16cc:	02c7a803          	lw	a6,44(a5)
    16d0:	0006a883          	lw	a7,0(a3)
    16d4:	0108f463          	bgeu	a7,a6,16dc <xTaskIncrementTick+0x162>
    16d8:	0106a023          	sw	a6,0(a3)
    16dc:	03e806b3          	mul	a3,a6,t5
    16e0:	96ba                	add	a3,a3,a4
    16e2:	0046a883          	lw	a7,4(a3)
    16e6:	0088af83          	lw	t6,8(a7)
    16ea:	0117a423          	sw	a7,8(a5)
    16ee:	01f7a623          	sw	t6,12(a5)
    16f2:	0088af83          	lw	t6,8(a7)
    16f6:	006fa223          	sw	t1,4(t6)
    16fa:	0068a423          	sw	t1,8(a7)
    16fe:	cbd4                	sw	a3,20(a5)
    1700:	429c                	lw	a5,0(a3)
    1702:	0785                	addi	a5,a5,1
    1704:	c29c                	sw	a5,0(a3)
    1706:	419c                	lw	a5,0(a1)
    1708:	57dc                	lw	a5,44(a5)
    170a:	f2f86ce3          	bltu	a6,a5,1642 <xTaskIncrementTick+0xc8>
    170e:	4505                	li	a0,1
    1710:	bf0d                	j	1642 <xTaskIncrementTick+0xc8>
    1712:	200007b7          	lui	a5,0x20000
    1716:	0f478793          	addi	a5,a5,244 # 200000f4 <xPendedTicks>
    171a:	4398                	lw	a4,0(a5)
    171c:	4501                	li	a0,0
    171e:	0705                	addi	a4,a4,1
    1720:	c398                	sw	a4,0(a5)
    1722:	8082                	ret

00001724 <xTaskResumeAll>:
    1724:	de1fe2ef          	jal	t0,504 <__riscv_save_4>
    1728:	20000437          	lui	s0,0x20000
    172c:	0dc40413          	addi	s0,s0,220 # 200000dc <uxSchedulerSuspended>
    1730:	401c                	lw	a5,0(s0)
    1732:	1141                	addi	sp,sp,-16
    1734:	e785                	bnez	a5,175c <xTaskResumeAll+0x38>
    1736:	6789                	lui	a5,0x2
    1738:	80078793          	addi	a5,a5,-2048 # 1800 <xTaskResumeAll+0xdc>
    173c:	30079073          	csrw	mstatus,a5
    1740:	0000a637          	lui	a2,0xa
    1744:	6585                	lui	a1,0x1
    1746:	0000a537          	lui	a0,0xa
    174a:	6b060613          	addi	a2,a2,1712 # a6b0 <_read+0xcc>
    174e:	8b358593          	addi	a1,a1,-1869 # 8b3 <vPortFree+0xb>
    1752:	63450513          	addi	a0,a0,1588 # a634 <_read+0x50>
    1756:	401070ef          	jal	ra,9356 <iprintf>
    175a:	a001                	j	175a <xTaskResumeAll+0x36>
    175c:	b36ff0ef          	jal	ra,a92 <vPortEnterCritical>
    1760:	401c                	lw	a5,0(s0)
    1762:	17fd                	addi	a5,a5,-1
    1764:	c01c                	sw	a5,0(s0)
    1766:	401c                	lw	a5,0(s0)
    1768:	cb89                	beqz	a5,177a <xTaskResumeAll+0x56>
    176a:	4501                	li	a0,0
    176c:	c62a                	sw	a0,12(sp)
    176e:	b3eff0ef          	jal	ra,aac <vPortExitCritical>
    1772:	4532                	lw	a0,12(sp)
    1774:	0141                	addi	sp,sp,16
    1776:	dc3fe06f          	j	538 <__riscv_restore_4>
    177a:	200007b7          	lui	a5,0x20000
    177e:	0d47a783          	lw	a5,212(a5) # 200000d4 <uxCurrentNumberOfTasks>
    1782:	d7e5                	beqz	a5,176a <xTaskResumeAll+0x46>
    1784:	200036b7          	lui	a3,0x20003
    1788:	20003537          	lui	a0,0x20003
    178c:	4781                	li	a5,0
    178e:	25c68693          	addi	a3,a3,604 # 2000325c <xPendingReadyList>
    1792:	20000f37          	lui	t5,0x20000
    1796:	1a850513          	addi	a0,a0,424 # 200031a8 <pxReadyTasksLists>
    179a:	48d1                	li	a7,20
    179c:	20000337          	lui	t1,0x20000
    17a0:	20000e37          	lui	t3,0x20000
    17a4:	4e85                	li	t4,1
    17a6:	a859                	j	183c <xTaskResumeAll+0x118>
    17a8:	46dc                	lw	a5,12(a3)
    17aa:	47dc                	lw	a5,12(a5)
    17ac:	4fcc                	lw	a1,28(a5)
    17ae:	5390                	lw	a2,32(a5)
    17b0:	5798                	lw	a4,40(a5)
    17b2:	c590                	sw	a2,8(a1)
    17b4:	0207a803          	lw	a6,32(a5)
    17b8:	00b82223          	sw	a1,4(a6)
    17bc:	00472803          	lw	a6,4(a4)
    17c0:	01878593          	addi	a1,a5,24
    17c4:	00b81363          	bne	a6,a1,17ca <xTaskResumeAll+0xa6>
    17c8:	c350                	sw	a2,4(a4)
    17ca:	4310                	lw	a2,0(a4)
    17cc:	0207a423          	sw	zero,40(a5)
    17d0:	167d                	addi	a2,a2,-1
    17d2:	c310                	sw	a2,0(a4)
    17d4:	478c                	lw	a1,8(a5)
    17d6:	47d0                	lw	a2,12(a5)
    17d8:	4bd8                	lw	a4,20(a5)
    17da:	00478813          	addi	a6,a5,4
    17de:	c590                	sw	a2,8(a1)
    17e0:	c24c                	sw	a1,4(a2)
    17e2:	434c                	lw	a1,4(a4)
    17e4:	01059363          	bne	a1,a6,17ea <xTaskResumeAll+0xc6>
    17e8:	c350                	sw	a2,4(a4)
    17ea:	4310                	lw	a2,0(a4)
    17ec:	0007aa23          	sw	zero,20(a5)
    17f0:	167d                	addi	a2,a2,-1
    17f2:	c310                	sw	a2,0(a4)
    17f4:	0e4f0713          	addi	a4,t5,228 # 200000e4 <uxTopReadyPriority>
    17f8:	57d0                	lw	a2,44(a5)
    17fa:	430c                	lw	a1,0(a4)
    17fc:	00c5f363          	bgeu	a1,a2,1802 <xTaskResumeAll+0xde>
    1800:	c310                	sw	a2,0(a4)
    1802:	03160733          	mul	a4,a2,a7
    1806:	972a                	add	a4,a4,a0
    1808:	434c                	lw	a1,4(a4)
    180a:	0085af83          	lw	t6,8(a1)
    180e:	c78c                	sw	a1,8(a5)
    1810:	01f7a623          	sw	t6,12(a5)
    1814:	0085af83          	lw	t6,8(a1)
    1818:	010fa223          	sw	a6,4(t6)
    181c:	0105a423          	sw	a6,8(a1)
    1820:	430c                	lw	a1,0(a4)
    1822:	cbd8                	sw	a4,20(a5)
    1824:	0585                	addi	a1,a1,1
    1826:	c30c                	sw	a1,0(a4)
    1828:	0c830713          	addi	a4,t1,200 # 200000c8 <pxCurrentTCB>
    182c:	4318                	lw	a4,0(a4)
    182e:	5758                	lw	a4,44(a4)
    1830:	00e66663          	bltu	a2,a4,183c <xTaskResumeAll+0x118>
    1834:	100e0713          	addi	a4,t3,256 # 20000100 <xYieldPending>
    1838:	01d72023          	sw	t4,0(a4)
    183c:	4298                	lw	a4,0(a3)
    183e:	f72d                	bnez	a4,17a8 <xTaskResumeAll+0x84>
    1840:	c399                	beqz	a5,1846 <xTaskResumeAll+0x122>
    1842:	941ff0ef          	jal	ra,1182 <prvResetNextTaskUnblockTime>
    1846:	200007b7          	lui	a5,0x20000
    184a:	0f478713          	addi	a4,a5,244 # 200000f4 <xPendedTicks>
    184e:	4304                	lw	s1,0(a4)
    1850:	0f478413          	addi	s0,a5,244
    1854:	cc91                	beqz	s1,1870 <xTaskResumeAll+0x14c>
    1856:	20000937          	lui	s2,0x20000
    185a:	4985                	li	s3,1
    185c:	3b39                	jal	157a <xTaskIncrementTick>
    185e:	c509                	beqz	a0,1868 <xTaskResumeAll+0x144>
    1860:	10090793          	addi	a5,s2,256 # 20000100 <xYieldPending>
    1864:	0137a023          	sw	s3,0(a5)
    1868:	14fd                	addi	s1,s1,-1
    186a:	f8ed                	bnez	s1,185c <xTaskResumeAll+0x138>
    186c:	00042023          	sw	zero,0(s0)
    1870:	200007b7          	lui	a5,0x20000
    1874:	1007a783          	lw	a5,256(a5) # 20000100 <xYieldPending>
    1878:	ee0789e3          	beqz	a5,176a <xTaskResumeAll+0x46>
    187c:	e000e7b7          	lui	a5,0xe000e
    1880:	6711                	lui	a4,0x4
    1882:	20e7a023          	sw	a4,512(a5) # e000e200 <__freertos_irq_stack_top+0xc0009200>
    1886:	4505                	li	a0,1
    1888:	b5d5                	j	176c <xTaskResumeAll+0x48>

0000188a <vTaskDelay>:
    188a:	e519                	bnez	a0,1898 <vTaskDelay+0xe>
    188c:	e000e7b7          	lui	a5,0xe000e
    1890:	6711                	lui	a4,0x4
    1892:	20e7a023          	sw	a4,512(a5) # e000e200 <__freertos_irq_stack_top+0xc0009200>
    1896:	8082                	ret
    1898:	c87fe2ef          	jal	t0,51e <__riscv_save_0>
    189c:	200007b7          	lui	a5,0x20000
    18a0:	0dc7a783          	lw	a5,220(a5) # 200000dc <uxSchedulerSuspended>
    18a4:	1141                	addi	sp,sp,-16
    18a6:	c39d                	beqz	a5,18cc <vTaskDelay+0x42>
    18a8:	6789                	lui	a5,0x2
    18aa:	80078793          	addi	a5,a5,-2048 # 1800 <xTaskResumeAll+0xdc>
    18ae:	30079073          	csrw	mstatus,a5
    18b2:	0000a637          	lui	a2,0xa
    18b6:	0000a537          	lui	a0,0xa
    18ba:	6b060613          	addi	a2,a2,1712 # a6b0 <_read+0xcc>
    18be:	54900593          	li	a1,1353
    18c2:	63450513          	addi	a0,a0,1588 # a634 <_read+0x50>
    18c6:	291070ef          	jal	ra,9356 <iprintf>
    18ca:	a001                	j	18ca <vTaskDelay+0x40>
    18cc:	c62a                	sw	a0,12(sp)
    18ce:	3949                	jal	1560 <vTaskSuspendAll>
    18d0:	4532                	lw	a0,12(sp)
    18d2:	4581                	li	a1,0
    18d4:	8d3ff0ef          	jal	ra,11a6 <prvAddCurrentTaskToDelayedList>
    18d8:	35b1                	jal	1724 <xTaskResumeAll>
    18da:	e511                	bnez	a0,18e6 <vTaskDelay+0x5c>
    18dc:	e000e7b7          	lui	a5,0xe000e
    18e0:	6711                	lui	a4,0x4
    18e2:	20e7a023          	sw	a4,512(a5) # e000e200 <__freertos_irq_stack_top+0xc0009200>
    18e6:	0141                	addi	sp,sp,16
    18e8:	c5bfe06f          	j	542 <__riscv_restore_0>

000018ec <vTaskSwitchContext>:
    18ec:	200007b7          	lui	a5,0x20000
    18f0:	0dc7a703          	lw	a4,220(a5) # 200000dc <uxSchedulerSuspended>
    18f4:	200007b7          	lui	a5,0x20000
    18f8:	10078793          	addi	a5,a5,256 # 20000100 <xYieldPending>
    18fc:	c701                	beqz	a4,1904 <vTaskSwitchContext+0x18>
    18fe:	4705                	li	a4,1
    1900:	c398                	sw	a4,0(a5)
    1902:	8082                	ret
    1904:	0007a023          	sw	zero,0(a5)
    1908:	200007b7          	lui	a5,0x20000
    190c:	0e478713          	addi	a4,a5,228 # 200000e4 <uxTopReadyPriority>
    1910:	4318                	lw	a4,0(a4)
    1912:	0e478613          	addi	a2,a5,228
    1916:	200037b7          	lui	a5,0x20003
    191a:	1a878793          	addi	a5,a5,424 # 200031a8 <pxReadyTasksLists>
    191e:	4851                	li	a6,20
    1920:	030706b3          	mul	a3,a4,a6
    1924:	00d785b3          	add	a1,a5,a3
    1928:	4188                	lw	a0,0(a1)
    192a:	c515                	beqz	a0,1956 <vTaskSwitchContext+0x6a>
    192c:	41c8                	lw	a0,4(a1)
    192e:	06a1                	addi	a3,a3,8
    1930:	96be                	add	a3,a3,a5
    1932:	4148                	lw	a0,4(a0)
    1934:	c1c8                	sw	a0,4(a1)
    1936:	00d51463          	bne	a0,a3,193e <vTaskSwitchContext+0x52>
    193a:	4154                	lw	a3,4(a0)
    193c:	c1d4                	sw	a3,4(a1)
    193e:	46d1                	li	a3,20
    1940:	02d706b3          	mul	a3,a4,a3
    1944:	97b6                	add	a5,a5,a3
    1946:	43dc                	lw	a5,4(a5)
    1948:	47d4                	lw	a3,12(a5)
    194a:	200007b7          	lui	a5,0x20000
    194e:	0cd7a423          	sw	a3,200(a5) # 200000c8 <pxCurrentTCB>
    1952:	c218                	sw	a4,0(a2)
    1954:	8082                	ret
    1956:	e715                	bnez	a4,1982 <vTaskSwitchContext+0x96>
    1958:	bc7fe2ef          	jal	t0,51e <__riscv_save_0>
    195c:	6789                	lui	a5,0x2
    195e:	80078793          	addi	a5,a5,-2048 # 1800 <xTaskResumeAll+0xdc>
    1962:	30079073          	csrw	mstatus,a5
    1966:	0000a637          	lui	a2,0xa
    196a:	6585                	lui	a1,0x1
    196c:	0000a537          	lui	a0,0xa
    1970:	6b060613          	addi	a2,a2,1712 # a6b0 <_read+0xcc>
    1974:	c0258593          	addi	a1,a1,-1022 # c02 <prvCopyDataFromQueue+0x20>
    1978:	63450513          	addi	a0,a0,1588 # a634 <_read+0x50>
    197c:	1db070ef          	jal	ra,9356 <iprintf>
    1980:	a001                	j	1980 <vTaskSwitchContext+0x94>
    1982:	177d                	addi	a4,a4,-1
    1984:	bf71                	j	1920 <vTaskSwitchContext+0x34>

00001986 <vTaskPlaceOnEventList>:
    1986:	b99fe2ef          	jal	t0,51e <__riscv_save_0>
    198a:	e505                	bnez	a0,19b2 <vTaskPlaceOnEventList+0x2c>
    198c:	6789                	lui	a5,0x2
    198e:	80078793          	addi	a5,a5,-2048 # 1800 <xTaskResumeAll+0xdc>
    1992:	30079073          	csrw	mstatus,a5
    1996:	0000a637          	lui	a2,0xa
    199a:	6585                	lui	a1,0x1
    199c:	0000a537          	lui	a0,0xa
    19a0:	6b060613          	addi	a2,a2,1712 # a6b0 <_read+0xcc>
    19a4:	c1c58593          	addi	a1,a1,-996 # c1c <prvUnlockQueue+0x14>
    19a8:	63450513          	addi	a0,a0,1588 # a634 <_read+0x50>
    19ac:	1ab070ef          	jal	ra,9356 <iprintf>
    19b0:	a001                	j	19b0 <vTaskPlaceOnEventList+0x2a>
    19b2:	200007b7          	lui	a5,0x20000
    19b6:	842e                	mv	s0,a1
    19b8:	0c87a583          	lw	a1,200(a5) # 200000c8 <pxCurrentTCB>
    19bc:	05e1                	addi	a1,a1,24
    19be:	94eff0ef          	jal	ra,b0c <vListInsert>
    19c2:	4585                	li	a1,1
    19c4:	8522                	mv	a0,s0
    19c6:	fe0ff0ef          	jal	ra,11a6 <prvAddCurrentTaskToDelayedList>
    19ca:	b79fe06f          	j	542 <__riscv_restore_0>

000019ce <vTaskPlaceOnEventListRestricted>:
    19ce:	b51fe2ef          	jal	t0,51e <__riscv_save_0>
    19d2:	872a                	mv	a4,a0
    19d4:	e505                	bnez	a0,19fc <vTaskPlaceOnEventListRestricted+0x2e>
    19d6:	6789                	lui	a5,0x2
    19d8:	80078793          	addi	a5,a5,-2048 # 1800 <xTaskResumeAll+0xdc>
    19dc:	30079073          	csrw	mstatus,a5
    19e0:	0000a637          	lui	a2,0xa
    19e4:	6585                	lui	a1,0x1
    19e6:	0000a537          	lui	a0,0xa
    19ea:	6b060613          	addi	a2,a2,1712 # a6b0 <_read+0xcc>
    19ee:	c5258593          	addi	a1,a1,-942 # c52 <prvUnlockQueue+0x4a>
    19f2:	63450513          	addi	a0,a0,1588 # a634 <_read+0x50>
    19f6:	161070ef          	jal	ra,9356 <iprintf>
    19fa:	a001                	j	19fa <vTaskPlaceOnEventListRestricted+0x2c>
    19fc:	200007b7          	lui	a5,0x20000
    1a00:	0c878793          	addi	a5,a5,200 # 200000c8 <pxCurrentTCB>
    1a04:	4354                	lw	a3,4(a4)
    1a06:	852e                	mv	a0,a1
    1a08:	438c                	lw	a1,0(a5)
    1a0a:	0086a803          	lw	a6,8(a3)
    1a0e:	cdd4                	sw	a3,28(a1)
    1a10:	438c                	lw	a1,0(a5)
    1a12:	0305a023          	sw	a6,32(a1)
    1a16:	0007a803          	lw	a6,0(a5)
    1a1a:	468c                	lw	a1,8(a3)
    1a1c:	0861                	addi	a6,a6,24
    1a1e:	0105a223          	sw	a6,4(a1)
    1a22:	0007a803          	lw	a6,0(a5)
    1a26:	439c                	lw	a5,0(a5)
    1a28:	0861                	addi	a6,a6,24
    1a2a:	0106a423          	sw	a6,8(a3)
    1a2e:	d798                	sw	a4,40(a5)
    1a30:	431c                	lw	a5,0(a4)
    1a32:	0785                	addi	a5,a5,1
    1a34:	c31c                	sw	a5,0(a4)
    1a36:	c211                	beqz	a2,1a3a <vTaskPlaceOnEventListRestricted+0x6c>
    1a38:	557d                	li	a0,-1
    1a3a:	85b2                	mv	a1,a2
    1a3c:	f6aff0ef          	jal	ra,11a6 <prvAddCurrentTaskToDelayedList>
    1a40:	b03fe06f          	j	542 <__riscv_restore_0>

00001a44 <xTaskRemoveFromEventList>:
    1a44:	455c                	lw	a5,12(a0)
    1a46:	47dc                	lw	a5,12(a5)
    1a48:	e795                	bnez	a5,1a74 <xTaskRemoveFromEventList+0x30>
    1a4a:	ad5fe2ef          	jal	t0,51e <__riscv_save_0>
    1a4e:	6789                	lui	a5,0x2
    1a50:	80078793          	addi	a5,a5,-2048 # 1800 <xTaskResumeAll+0xdc>
    1a54:	30079073          	csrw	mstatus,a5
    1a58:	0000a637          	lui	a2,0xa
    1a5c:	6585                	lui	a1,0x1
    1a5e:	0000a537          	lui	a0,0xa
    1a62:	6b060613          	addi	a2,a2,1712 # a6b0 <_read+0xcc>
    1a66:	c8258593          	addi	a1,a1,-894 # c82 <xQueueGenericReset+0xc>
    1a6a:	63450513          	addi	a0,a0,1588 # a634 <_read+0x50>
    1a6e:	0e9070ef          	jal	ra,9356 <iprintf>
    1a72:	a001                	j	1a72 <xTaskRemoveFromEventList+0x2e>
    1a74:	4fd0                	lw	a2,28(a5)
    1a76:	5394                	lw	a3,32(a5)
    1a78:	5798                	lw	a4,40(a5)
    1a7a:	01878593          	addi	a1,a5,24
    1a7e:	c614                	sw	a3,8(a2)
    1a80:	c2d0                	sw	a2,4(a3)
    1a82:	4350                	lw	a2,4(a4)
    1a84:	00b61363          	bne	a2,a1,1a8a <xTaskRemoveFromEventList+0x46>
    1a88:	c354                	sw	a3,4(a4)
    1a8a:	4314                	lw	a3,0(a4)
    1a8c:	0207a423          	sw	zero,40(a5)
    1a90:	16fd                	addi	a3,a3,-1
    1a92:	c314                	sw	a3,0(a4)
    1a94:	20000737          	lui	a4,0x20000
    1a98:	0dc72703          	lw	a4,220(a4) # 200000dc <uxSchedulerSuspended>
    1a9c:	57d4                	lw	a3,44(a5)
    1a9e:	ef25                	bnez	a4,1b16 <xTaskRemoveFromEventList+0xd2>
    1aa0:	478c                	lw	a1,8(a5)
    1aa2:	47d0                	lw	a2,12(a5)
    1aa4:	4bd8                	lw	a4,20(a5)
    1aa6:	c590                	sw	a2,8(a1)
    1aa8:	47d0                	lw	a2,12(a5)
    1aaa:	4348                	lw	a0,4(a4)
    1aac:	c24c                	sw	a1,4(a2)
    1aae:	00478593          	addi	a1,a5,4
    1ab2:	00b51363          	bne	a0,a1,1ab8 <xTaskRemoveFromEventList+0x74>
    1ab6:	c350                	sw	a2,4(a4)
    1ab8:	4310                	lw	a2,0(a4)
    1aba:	0007aa23          	sw	zero,20(a5)
    1abe:	167d                	addi	a2,a2,-1
    1ac0:	c310                	sw	a2,0(a4)
    1ac2:	20000737          	lui	a4,0x20000
    1ac6:	0e470713          	addi	a4,a4,228 # 200000e4 <uxTopReadyPriority>
    1aca:	4310                	lw	a2,0(a4)
    1acc:	00d67363          	bgeu	a2,a3,1ad2 <xTaskRemoveFromEventList+0x8e>
    1ad0:	c314                	sw	a3,0(a4)
    1ad2:	4751                	li	a4,20
    1ad4:	02e68633          	mul	a2,a3,a4
    1ad8:	20003737          	lui	a4,0x20003
    1adc:	1a870713          	addi	a4,a4,424 # 200031a8 <pxReadyTasksLists>
    1ae0:	9732                	add	a4,a4,a2
    1ae2:	4350                	lw	a2,4(a4)
    1ae4:	4608                	lw	a0,8(a2)
    1ae6:	c790                	sw	a2,8(a5)
    1ae8:	c7c8                	sw	a0,12(a5)
    1aea:	4608                	lw	a0,8(a2)
    1aec:	c14c                	sw	a1,4(a0)
    1aee:	c60c                	sw	a1,8(a2)
    1af0:	cbd8                	sw	a4,20(a5)
    1af2:	431c                	lw	a5,0(a4)
    1af4:	4501                	li	a0,0
    1af6:	0785                	addi	a5,a5,1
    1af8:	c31c                	sw	a5,0(a4)
    1afa:	200007b7          	lui	a5,0x20000
    1afe:	0c87a783          	lw	a5,200(a5) # 200000c8 <pxCurrentTCB>
    1b02:	57dc                	lw	a5,44(a5)
    1b04:	00d7f863          	bgeu	a5,a3,1b14 <xTaskRemoveFromEventList+0xd0>
    1b08:	200007b7          	lui	a5,0x20000
    1b0c:	4705                	li	a4,1
    1b0e:	10e7a023          	sw	a4,256(a5) # 20000100 <xYieldPending>
    1b12:	4505                	li	a0,1
    1b14:	8082                	ret
    1b16:	20003737          	lui	a4,0x20003
    1b1a:	25c70713          	addi	a4,a4,604 # 2000325c <xPendingReadyList>
    1b1e:	4350                	lw	a2,4(a4)
    1b20:	4608                	lw	a0,8(a2)
    1b22:	cfd0                	sw	a2,28(a5)
    1b24:	d388                	sw	a0,32(a5)
    1b26:	4608                	lw	a0,8(a2)
    1b28:	c14c                	sw	a1,4(a0)
    1b2a:	c60c                	sw	a1,8(a2)
    1b2c:	d798                	sw	a4,40(a5)
    1b2e:	b7d1                	j	1af2 <xTaskRemoveFromEventList+0xae>

00001b30 <vTaskInternalSetTimeOutState>:
    1b30:	200007b7          	lui	a5,0x20000
    1b34:	0f07a783          	lw	a5,240(a5) # 200000f0 <xNumOfOverflows>
    1b38:	c11c                	sw	a5,0(a0)
    1b3a:	200007b7          	lui	a5,0x20000
    1b3e:	0fc7a783          	lw	a5,252(a5) # 200000fc <xTickCount>
    1b42:	c15c                	sw	a5,4(a0)
    1b44:	8082                	ret

00001b46 <xTaskCheckForTimeOut>:
    1b46:	9d9fe2ef          	jal	t0,51e <__riscv_save_0>
    1b4a:	1141                	addi	sp,sp,-16
    1b4c:	e505                	bnez	a0,1b74 <xTaskCheckForTimeOut+0x2e>
    1b4e:	6789                	lui	a5,0x2
    1b50:	80078793          	addi	a5,a5,-2048 # 1800 <xTaskResumeAll+0xdc>
    1b54:	30079073          	csrw	mstatus,a5
    1b58:	0000a637          	lui	a2,0xa
    1b5c:	6585                	lui	a1,0x1
    1b5e:	0000a537          	lui	a0,0xa
    1b62:	6b060613          	addi	a2,a2,1712 # a6b0 <_read+0xcc>
    1b66:	cfd58593          	addi	a1,a1,-771 # cfd <xQueueGenericReset+0x87>
    1b6a:	63450513          	addi	a0,a0,1588 # a634 <_read+0x50>
    1b6e:	7e8070ef          	jal	ra,9356 <iprintf>
    1b72:	a001                	j	1b72 <xTaskCheckForTimeOut+0x2c>
    1b74:	e585                	bnez	a1,1b9c <xTaskCheckForTimeOut+0x56>
    1b76:	6789                	lui	a5,0x2
    1b78:	80078793          	addi	a5,a5,-2048 # 1800 <xTaskResumeAll+0xdc>
    1b7c:	30079073          	csrw	mstatus,a5
    1b80:	0000a637          	lui	a2,0xa
    1b84:	6585                	lui	a1,0x1
    1b86:	0000a537          	lui	a0,0xa
    1b8a:	6b060613          	addi	a2,a2,1712 # a6b0 <_read+0xcc>
    1b8e:	cfe58593          	addi	a1,a1,-770 # cfe <xQueueGenericReset+0x88>
    1b92:	63450513          	addi	a0,a0,1588 # a634 <_read+0x50>
    1b96:	7c0070ef          	jal	ra,9356 <iprintf>
    1b9a:	a001                	j	1b9a <xTaskCheckForTimeOut+0x54>
    1b9c:	c62e                	sw	a1,12(sp)
    1b9e:	c42a                	sw	a0,8(sp)
    1ba0:	ef3fe0ef          	jal	ra,a92 <vPortEnterCritical>
    1ba4:	20000737          	lui	a4,0x20000
    1ba8:	200007b7          	lui	a5,0x20000
    1bac:	0c870713          	addi	a4,a4,200 # 200000c8 <pxCurrentTCB>
    1bb0:	0fc7a683          	lw	a3,252(a5) # 200000fc <xTickCount>
    1bb4:	431c                	lw	a5,0(a4)
    1bb6:	4522                	lw	a0,8(sp)
    1bb8:	45b2                	lw	a1,12(sp)
    1bba:	0617c783          	lbu	a5,97(a5)
    1bbe:	cb99                	beqz	a5,1bd4 <xTaskCheckForTimeOut+0x8e>
    1bc0:	431c                	lw	a5,0(a4)
    1bc2:	060780a3          	sb	zero,97(a5)
    1bc6:	4405                	li	s0,1
    1bc8:	ee5fe0ef          	jal	ra,aac <vPortExitCritical>
    1bcc:	8522                	mv	a0,s0
    1bce:	0141                	addi	sp,sp,16
    1bd0:	973fe06f          	j	542 <__riscv_restore_0>
    1bd4:	419c                	lw	a5,0(a1)
    1bd6:	577d                	li	a4,-1
    1bd8:	4401                	li	s0,0
    1bda:	fee787e3          	beq	a5,a4,1bc8 <xTaskCheckForTimeOut+0x82>
    1bde:	20000637          	lui	a2,0x20000
    1be2:	0f062603          	lw	a2,240(a2) # 200000f0 <xNumOfOverflows>
    1be6:	00052803          	lw	a6,0(a0)
    1bea:	4158                	lw	a4,4(a0)
    1bec:	00c80763          	beq	a6,a2,1bfa <xTaskCheckForTimeOut+0xb4>
    1bf0:	00e6e563          	bltu	a3,a4,1bfa <xTaskCheckForTimeOut+0xb4>
    1bf4:	0005a023          	sw	zero,0(a1)
    1bf8:	b7f9                	j	1bc6 <xTaskCheckForTimeOut+0x80>
    1bfa:	40e68633          	sub	a2,a3,a4
    1bfe:	fef67be3          	bgeu	a2,a5,1bf4 <xTaskCheckForTimeOut+0xae>
    1c02:	8f95                	sub	a5,a5,a3
    1c04:	97ba                	add	a5,a5,a4
    1c06:	c19c                	sw	a5,0(a1)
    1c08:	3725                	jal	1b30 <vTaskInternalSetTimeOutState>
    1c0a:	4401                	li	s0,0
    1c0c:	bf75                	j	1bc8 <xTaskCheckForTimeOut+0x82>

00001c0e <vTaskMissedYield>:
    1c0e:	200007b7          	lui	a5,0x20000
    1c12:	4705                	li	a4,1
    1c14:	10e7a023          	sw	a4,256(a5) # 20000100 <xYieldPending>
    1c18:	8082                	ret

00001c1a <xTaskGetSchedulerState>:
    1c1a:	200007b7          	lui	a5,0x20000
    1c1e:	0f87a783          	lw	a5,248(a5) # 200000f8 <xSchedulerRunning>
    1c22:	4505                	li	a0,1
    1c24:	cb81                	beqz	a5,1c34 <xTaskGetSchedulerState+0x1a>
    1c26:	200007b7          	lui	a5,0x20000
    1c2a:	0dc7a503          	lw	a0,220(a5) # 200000dc <uxSchedulerSuspended>
    1c2e:	00153513          	seqz	a0,a0
    1c32:	0506                	slli	a0,a0,0x1
    1c34:	8082                	ret

00001c36 <xTaskPriorityDisinherit>:
    1c36:	e511                	bnez	a0,1c42 <xTaskPriorityDisinherit+0xc>
    1c38:	4501                	li	a0,0
    1c3a:	8082                	ret
    1c3c:	4501                	li	a0,0
    1c3e:	905fe06f          	j	542 <__riscv_restore_0>
    1c42:	8ddfe2ef          	jal	t0,51e <__riscv_save_0>
    1c46:	200007b7          	lui	a5,0x20000
    1c4a:	0c87a783          	lw	a5,200(a5) # 200000c8 <pxCurrentTCB>
    1c4e:	842a                	mv	s0,a0
    1c50:	02a78563          	beq	a5,a0,1c7a <xTaskPriorityDisinherit+0x44>
    1c54:	6789                	lui	a5,0x2
    1c56:	80078793          	addi	a5,a5,-2048 # 1800 <xTaskResumeAll+0xdc>
    1c5a:	30079073          	csrw	mstatus,a5
    1c5e:	0000a637          	lui	a2,0xa
    1c62:	6585                	lui	a1,0x1
    1c64:	0000a537          	lui	a0,0xa
    1c68:	6b060613          	addi	a2,a2,1712 # a6b0 <_read+0xcc>
    1c6c:	04f58593          	addi	a1,a1,79 # 104f <xQueueReceive+0x125>
    1c70:	63450513          	addi	a0,a0,1588 # a634 <_read+0x50>
    1c74:	6e2070ef          	jal	ra,9356 <iprintf>
    1c78:	a001                	j	1c78 <xTaskPriorityDisinherit+0x42>
    1c7a:	4fbc                	lw	a5,88(a5)
    1c7c:	e785                	bnez	a5,1ca4 <xTaskPriorityDisinherit+0x6e>
    1c7e:	6789                	lui	a5,0x2
    1c80:	80078793          	addi	a5,a5,-2048 # 1800 <xTaskResumeAll+0xdc>
    1c84:	30079073          	csrw	mstatus,a5
    1c88:	0000a637          	lui	a2,0xa
    1c8c:	6585                	lui	a1,0x1
    1c8e:	0000a537          	lui	a0,0xa
    1c92:	6b060613          	addi	a2,a2,1712 # a6b0 <_read+0xcc>
    1c96:	05058593          	addi	a1,a1,80 # 1050 <xQueueReceive+0x126>
    1c9a:	63450513          	addi	a0,a0,1588 # a634 <_read+0x50>
    1c9e:	6b8070ef          	jal	ra,9356 <iprintf>
    1ca2:	a001                	j	1ca2 <xTaskPriorityDisinherit+0x6c>
    1ca4:	5554                	lw	a3,44(a0)
    1ca6:	4978                	lw	a4,84(a0)
    1ca8:	17fd                	addi	a5,a5,-1
    1caa:	cd3c                	sw	a5,88(a0)
    1cac:	f8e688e3          	beq	a3,a4,1c3c <xTaskPriorityDisinherit+0x6>
    1cb0:	f7d1                	bnez	a5,1c3c <xTaskPriorityDisinherit+0x6>
    1cb2:	00450493          	addi	s1,a0,4
    1cb6:	8526                	mv	a0,s1
    1cb8:	e83fe0ef          	jal	ra,b3a <uxListRemove>
    1cbc:	487c                	lw	a5,84(s0)
    1cbe:	471d                	li	a4,7
    1cc0:	8f1d                	sub	a4,a4,a5
    1cc2:	cc18                	sw	a4,24(s0)
    1cc4:	20000737          	lui	a4,0x20000
    1cc8:	0e470713          	addi	a4,a4,228 # 200000e4 <uxTopReadyPriority>
    1ccc:	4314                	lw	a3,0(a4)
    1cce:	d45c                	sw	a5,44(s0)
    1cd0:	00f6f363          	bgeu	a3,a5,1cd6 <xTaskPriorityDisinherit+0xa0>
    1cd4:	c31c                	sw	a5,0(a4)
    1cd6:	4751                	li	a4,20
    1cd8:	02e78733          	mul	a4,a5,a4
    1cdc:	200037b7          	lui	a5,0x20003
    1ce0:	1a878793          	addi	a5,a5,424 # 200031a8 <pxReadyTasksLists>
    1ce4:	4505                	li	a0,1
    1ce6:	97ba                	add	a5,a5,a4
    1ce8:	43d8                	lw	a4,4(a5)
    1cea:	4714                	lw	a3,8(a4)
    1cec:	c418                	sw	a4,8(s0)
    1cee:	c454                	sw	a3,12(s0)
    1cf0:	4714                	lw	a3,8(a4)
    1cf2:	c2c4                	sw	s1,4(a3)
    1cf4:	c704                	sw	s1,8(a4)
    1cf6:	4398                	lw	a4,0(a5)
    1cf8:	c85c                	sw	a5,20(s0)
    1cfa:	0705                	addi	a4,a4,1
    1cfc:	c398                	sw	a4,0(a5)
    1cfe:	b781                	j	1c3e <xTaskPriorityDisinherit+0x8>

00001d00 <ulTaskGenericNotifyTake>:
    1d00:	81ffe2ef          	jal	t0,51e <__riscv_save_0>
    1d04:	1141                	addi	sp,sp,-16
    1d06:	c505                	beqz	a0,1d2e <ulTaskGenericNotifyTake+0x2e>
    1d08:	6789                	lui	a5,0x2
    1d0a:	80078793          	addi	a5,a5,-2048 # 1800 <xTaskResumeAll+0xdc>
    1d0e:	30079073          	csrw	mstatus,a5
    1d12:	0000a637          	lui	a2,0xa
    1d16:	6585                	lui	a1,0x1
    1d18:	0000a537          	lui	a0,0xa
    1d1c:	6b060613          	addi	a2,a2,1712 # a6b0 <_read+0xcc>
    1d20:	26658593          	addi	a1,a1,614 # 1266 <prvIdleTask+0x1a>
    1d24:	63450513          	addi	a0,a0,1588 # a634 <_read+0x50>
    1d28:	62e070ef          	jal	ra,9356 <iprintf>
    1d2c:	a001                	j	1d2c <ulTaskGenericNotifyTake+0x2c>
    1d2e:	20000437          	lui	s0,0x20000
    1d32:	84ae                	mv	s1,a1
    1d34:	c632                	sw	a2,12(sp)
    1d36:	d5dfe0ef          	jal	ra,a92 <vPortEnterCritical>
    1d3a:	0c840793          	addi	a5,s0,200 # 200000c8 <pxCurrentTCB>
    1d3e:	439c                	lw	a5,0(a5)
    1d40:	0c840413          	addi	s0,s0,200
    1d44:	4ffc                	lw	a5,92(a5)
    1d46:	e385                	bnez	a5,1d66 <ulTaskGenericNotifyTake+0x66>
    1d48:	401c                	lw	a5,0(s0)
    1d4a:	4632                	lw	a2,12(sp)
    1d4c:	4705                	li	a4,1
    1d4e:	06e78023          	sb	a4,96(a5)
    1d52:	ca11                	beqz	a2,1d66 <ulTaskGenericNotifyTake+0x66>
    1d54:	4585                	li	a1,1
    1d56:	8532                	mv	a0,a2
    1d58:	c4eff0ef          	jal	ra,11a6 <prvAddCurrentTaskToDelayedList>
    1d5c:	e000e7b7          	lui	a5,0xe000e
    1d60:	6711                	lui	a4,0x4
    1d62:	20e7a023          	sw	a4,512(a5) # e000e200 <__freertos_irq_stack_top+0xc0009200>
    1d66:	d47fe0ef          	jal	ra,aac <vPortExitCritical>
    1d6a:	d29fe0ef          	jal	ra,a92 <vPortEnterCritical>
    1d6e:	401c                	lw	a5,0(s0)
    1d70:	4fe8                	lw	a0,92(a5)
    1d72:	c509                	beqz	a0,1d7c <ulTaskGenericNotifyTake+0x7c>
    1d74:	401c                	lw	a5,0(s0)
    1d76:	cc89                	beqz	s1,1d90 <ulTaskGenericNotifyTake+0x90>
    1d78:	0407ae23          	sw	zero,92(a5)
    1d7c:	401c                	lw	a5,0(s0)
    1d7e:	c62a                	sw	a0,12(sp)
    1d80:	06078023          	sb	zero,96(a5)
    1d84:	d29fe0ef          	jal	ra,aac <vPortExitCritical>
    1d88:	4532                	lw	a0,12(sp)
    1d8a:	0141                	addi	sp,sp,16
    1d8c:	fb6fe06f          	j	542 <__riscv_restore_0>
    1d90:	fff50713          	addi	a4,a0,-1
    1d94:	cff8                	sw	a4,92(a5)
    1d96:	b7dd                	j	1d7c <ulTaskGenericNotifyTake+0x7c>

00001d98 <prvCheckForValidListAndQueue>:
    1d98:	f86fe2ef          	jal	t0,51e <__riscv_save_0>
    1d9c:	20000437          	lui	s0,0x20000
    1da0:	cf3fe0ef          	jal	ra,a92 <vPortEnterCritical>
    1da4:	11040413          	addi	s0,s0,272 # 20000110 <xTimerQueue>
    1da8:	401c                	lw	a5,0(s0)
    1daa:	e7b1                	bnez	a5,1df6 <prvCheckForValidListAndQueue+0x5e>
    1dac:	20003537          	lui	a0,0x20003
    1db0:	29850913          	addi	s2,a0,664 # 20003298 <xActiveTimerList1>
    1db4:	29850513          	addi	a0,a0,664
    1db8:	d3bfe0ef          	jal	ra,af2 <vListInitialise>
    1dbc:	20003537          	lui	a0,0x20003
    1dc0:	2ac50493          	addi	s1,a0,684 # 200032ac <xActiveTimerList2>
    1dc4:	2ac50513          	addi	a0,a0,684
    1dc8:	d2bfe0ef          	jal	ra,af2 <vListInitialise>
    1dcc:	200007b7          	lui	a5,0x20000
    1dd0:	1127a223          	sw	s2,260(a5) # 20000104 <pxCurrentTimerList>
    1dd4:	4601                	li	a2,0
    1dd6:	200007b7          	lui	a5,0x20000
    1dda:	45c1                	li	a1,16
    1ddc:	4511                	li	a0,4
    1dde:	1097a423          	sw	s1,264(a5) # 20000108 <pxOverflowTimerList>
    1de2:	f51fe0ef          	jal	ra,d32 <xQueueGenericCreate>
    1de6:	c008                	sw	a0,0(s0)
    1de8:	c519                	beqz	a0,1df6 <prvCheckForValidListAndQueue+0x5e>
    1dea:	0000a5b7          	lui	a1,0xa
    1dee:	70058593          	addi	a1,a1,1792 # a700 <_read+0x11c>
    1df2:	ac8ff0ef          	jal	ra,10ba <vQueueAddToRegistry>
    1df6:	cb7fe0ef          	jal	ra,aac <vPortExitCritical>
    1dfa:	f48fe06f          	j	542 <__riscv_restore_0>

00001dfe <prvInsertTimerInActiveList>:
    1dfe:	f20fe2ef          	jal	t0,51e <__riscv_save_0>
    1e02:	c14c                	sw	a1,4(a0)
    1e04:	c908                	sw	a0,16(a0)
    1e06:	87aa                	mv	a5,a0
    1e08:	02b66263          	bltu	a2,a1,1e2c <prvInsertTimerInActiveList+0x2e>
    1e0c:	4d18                	lw	a4,24(a0)
    1e0e:	8e15                	sub	a2,a2,a3
    1e10:	4505                	li	a0,1
    1e12:	00e67b63          	bgeu	a2,a4,1e28 <prvInsertTimerInActiveList+0x2a>
    1e16:	00478593          	addi	a1,a5,4
    1e1a:	200007b7          	lui	a5,0x20000
    1e1e:	1087a503          	lw	a0,264(a5) # 20000108 <pxOverflowTimerList>
    1e22:	cebfe0ef          	jal	ra,b0c <vListInsert>
    1e26:	4501                	li	a0,0
    1e28:	f1afe06f          	j	542 <__riscv_restore_0>
    1e2c:	00d67563          	bgeu	a2,a3,1e36 <prvInsertTimerInActiveList+0x38>
    1e30:	4505                	li	a0,1
    1e32:	fed5fbe3          	bgeu	a1,a3,1e28 <prvInsertTimerInActiveList+0x2a>
    1e36:	00478593          	addi	a1,a5,4
    1e3a:	200007b7          	lui	a5,0x20000
    1e3e:	1047a503          	lw	a0,260(a5) # 20000104 <pxCurrentTimerList>
    1e42:	b7c5                	j	1e22 <prvInsertTimerInActiveList+0x24>

00001e44 <prvReloadTimer>:
    1e44:	edafe2ef          	jal	t0,51e <__riscv_save_0>
    1e48:	842a                	mv	s0,a0
    1e4a:	84ae                	mv	s1,a1
    1e4c:	8932                	mv	s2,a2
    1e4e:	4c0c                	lw	a1,24(s0)
    1e50:	86a6                	mv	a3,s1
    1e52:	864a                	mv	a2,s2
    1e54:	95a6                	add	a1,a1,s1
    1e56:	8522                	mv	a0,s0
    1e58:	375d                	jal	1dfe <prvInsertTimerInActiveList>
    1e5a:	e119                	bnez	a0,1e60 <prvReloadTimer+0x1c>
    1e5c:	ee6fe06f          	j	542 <__riscv_restore_0>
    1e60:	4c1c                	lw	a5,24(s0)
    1e62:	8522                	mv	a0,s0
    1e64:	94be                	add	s1,s1,a5
    1e66:	501c                	lw	a5,32(s0)
    1e68:	9782                	jalr	a5
    1e6a:	b7d5                	j	1e4e <prvReloadTimer+0xa>

00001e6c <prvProcessExpiredTimer>:
    1e6c:	eb2fe2ef          	jal	t0,51e <__riscv_save_0>
    1e70:	200007b7          	lui	a5,0x20000
    1e74:	1047a783          	lw	a5,260(a5) # 20000104 <pxCurrentTimerList>
    1e78:	1141                	addi	sp,sp,-16
    1e7a:	84aa                	mv	s1,a0
    1e7c:	47dc                	lw	a5,12(a5)
    1e7e:	c62e                	sw	a1,12(sp)
    1e80:	47c0                	lw	s0,12(a5)
    1e82:	00440513          	addi	a0,s0,4
    1e86:	cb5fe0ef          	jal	ra,b3a <uxListRemove>
    1e8a:	02444783          	lbu	a5,36(s0)
    1e8e:	4632                	lw	a2,12(sp)
    1e90:	0047f713          	andi	a4,a5,4
    1e94:	cb11                	beqz	a4,1ea8 <prvProcessExpiredTimer+0x3c>
    1e96:	85a6                	mv	a1,s1
    1e98:	8522                	mv	a0,s0
    1e9a:	376d                	jal	1e44 <prvReloadTimer>
    1e9c:	501c                	lw	a5,32(s0)
    1e9e:	8522                	mv	a0,s0
    1ea0:	9782                	jalr	a5
    1ea2:	0141                	addi	sp,sp,16
    1ea4:	e9efe06f          	j	542 <__riscv_restore_0>
    1ea8:	9bf9                	andi	a5,a5,-2
    1eaa:	02f40223          	sb	a5,36(s0)
    1eae:	b7fd                	j	1e9c <prvProcessExpiredTimer+0x30>

00001eb0 <prvSwitchTimerLists>:
    1eb0:	e6efe2ef          	jal	t0,51e <__riscv_save_0>
    1eb4:	20000437          	lui	s0,0x20000
    1eb8:	10440693          	addi	a3,s0,260 # 20000104 <pxCurrentTimerList>
    1ebc:	4298                	lw	a4,0(a3)
    1ebe:	431c                	lw	a5,0(a4)
    1ec0:	eb91                	bnez	a5,1ed4 <prvSwitchTimerLists+0x24>
    1ec2:	200007b7          	lui	a5,0x20000
    1ec6:	10878793          	addi	a5,a5,264 # 20000108 <pxOverflowTimerList>
    1eca:	4390                	lw	a2,0(a5)
    1ecc:	c398                	sw	a4,0(a5)
    1ece:	c290                	sw	a2,0(a3)
    1ed0:	e72fe06f          	j	542 <__riscv_restore_0>
    1ed4:	475c                	lw	a5,12(a4)
    1ed6:	55fd                	li	a1,-1
    1ed8:	4388                	lw	a0,0(a5)
    1eda:	3f49                	jal	1e6c <prvProcessExpiredTimer>
    1edc:	bff1                	j	1eb8 <prvSwitchTimerLists+0x8>

00001ede <prvTimerTask>:
    1ede:	e18fe2ef          	jal	t0,4f6 <__riscv_save_10>
    1ee2:	6929                	lui	s2,0xa
    1ee4:	1141                	addi	sp,sp,-16
    1ee6:	20000ab7          	lui	s5,0x20000
    1eea:	200009b7          	lui	s3,0x20000
    1eee:	20000b37          	lui	s6,0x20000
    1ef2:	20000bb7          	lui	s7,0x20000
    1ef6:	6dc90913          	addi	s2,s2,1756 # a6dc <_read+0xf8>
    1efa:	104aa783          	lw	a5,260(s5) # 20000104 <pxCurrentTimerList>
    1efe:	4398                	lw	a4,0(a5)
    1f00:	cb29                	beqz	a4,1f52 <prvTimerTask+0x74>
    1f02:	47dc                	lw	a5,12(a5)
    1f04:	4c81                	li	s9,0
    1f06:	0007ac03          	lw	s8,0(a5)
    1f0a:	e56ff0ef          	jal	ra,1560 <vTaskSuspendAll>
    1f0e:	e62ff0ef          	jal	ra,1570 <xTaskGetTickCount>
    1f12:	10c9a783          	lw	a5,268(s3) # 2000010c <xLastTime.5718>
    1f16:	842a                	mv	s0,a0
    1f18:	10c98493          	addi	s1,s3,268
    1f1c:	110b0a13          	addi	s4,s6,272 # 20000110 <xTimerQueue>
    1f20:	02f56c63          	bltu	a0,a5,1f58 <prvTimerTask+0x7a>
    1f24:	c088                	sw	a0,0(s1)
    1f26:	020c8f63          	beqz	s9,1f64 <prvTimerTask+0x86>
    1f2a:	108ba783          	lw	a5,264(s7) # 20000108 <pxOverflowTimerList>
    1f2e:	4390                	lw	a2,0(a5)
    1f30:	00163613          	seqz	a2,a2
    1f34:	000a2503          	lw	a0,0(s4)
    1f38:	408c05b3          	sub	a1,s8,s0
    1f3c:	9eaff0ef          	jal	ra,1126 <vQueueWaitForMessageRestricted>
    1f40:	fe4ff0ef          	jal	ra,1724 <xTaskResumeAll>
    1f44:	ed11                	bnez	a0,1f60 <prvTimerTask+0x82>
    1f46:	e000e7b7          	lui	a5,0xe000e
    1f4a:	6711                	lui	a4,0x4
    1f4c:	20e7a023          	sw	a4,512(a5) # e000e200 <__freertos_irq_stack_top+0xc0009200>
    1f50:	a801                	j	1f60 <prvTimerTask+0x82>
    1f52:	4c85                	li	s9,1
    1f54:	4c01                	li	s8,0
    1f56:	bf55                	j	1f0a <prvTimerTask+0x2c>
    1f58:	3fa1                	jal	1eb0 <prvSwitchTimerLists>
    1f5a:	c080                	sw	s0,0(s1)
    1f5c:	fc8ff0ef          	jal	ra,1724 <xTaskResumeAll>
    1f60:	4c21                	li	s8,8
    1f62:	a005                	j	1f82 <prvTimerTask+0xa4>
    1f64:	4601                	li	a2,0
    1f66:	fd8567e3          	bltu	a0,s8,1f34 <prvTimerTask+0x56>
    1f6a:	fbaff0ef          	jal	ra,1724 <xTaskResumeAll>
    1f6e:	85a2                	mv	a1,s0
    1f70:	8562                	mv	a0,s8
    1f72:	3ded                	jal	1e6c <prvProcessExpiredTimer>
    1f74:	b7f5                	j	1f60 <prvTimerTask+0x82>
    1f76:	4792                	lw	a5,4(sp)
    1f78:	45b2                	lw	a1,12(sp)
    1f7a:	9782                	jalr	a5
    1f7c:	4782                	lw	a5,0(sp)
    1f7e:	0007dd63          	bgez	a5,1f98 <prvTimerTask+0xba>
    1f82:	000a2503          	lw	a0,0(s4)
    1f86:	4601                	li	a2,0
    1f88:	858a                	mv	a1,sp
    1f8a:	fa1fe0ef          	jal	ra,f2a <xQueueReceive>
    1f8e:	d535                	beqz	a0,1efa <prvTimerTask+0x1c>
    1f90:	4782                	lw	a5,0(sp)
    1f92:	4522                	lw	a0,8(sp)
    1f94:	fe07c1e3          	bltz	a5,1f76 <prvTimerTask+0x98>
    1f98:	4422                	lw	s0,8(sp)
    1f9a:	485c                	lw	a5,20(s0)
    1f9c:	e395                	bnez	a5,1fc0 <prvTimerTask+0xe2>
    1f9e:	dd2ff0ef          	jal	ra,1570 <xTaskGetTickCount>
    1fa2:	409c                	lw	a5,0(s1)
    1fa4:	8caa                	mv	s9,a0
    1fa6:	00f57363          	bgeu	a0,a5,1fac <prvTimerTask+0xce>
    1faa:	3719                	jal	1eb0 <prvSwitchTimerLists>
    1fac:	4782                	lw	a5,0(sp)
    1fae:	0194a023          	sw	s9,0(s1)
    1fb2:	17fd                	addi	a5,a5,-1
    1fb4:	fcfc67e3          	bltu	s8,a5,1f82 <prvTimerTask+0xa4>
    1fb8:	078a                	slli	a5,a5,0x2
    1fba:	97ca                	add	a5,a5,s2
    1fbc:	439c                	lw	a5,0(a5)
    1fbe:	8782                	jr	a5
    1fc0:	00440513          	addi	a0,s0,4
    1fc4:	b77fe0ef          	jal	ra,b3a <uxListRemove>
    1fc8:	bfd9                	j	1f9e <prvTimerTask+0xc0>
    1fca:	02444783          	lbu	a5,36(s0)
    1fce:	4c0c                	lw	a1,24(s0)
    1fd0:	4692                	lw	a3,4(sp)
    1fd2:	0017e793          	ori	a5,a5,1
    1fd6:	02f40223          	sb	a5,36(s0)
    1fda:	8666                	mv	a2,s9
    1fdc:	95b6                	add	a1,a1,a3
    1fde:	8522                	mv	a0,s0
    1fe0:	3d39                	jal	1dfe <prvInsertTimerInActiveList>
    1fe2:	d145                	beqz	a0,1f82 <prvTimerTask+0xa4>
    1fe4:	02444783          	lbu	a5,36(s0)
    1fe8:	0047f713          	andi	a4,a5,4
    1fec:	cb19                	beqz	a4,2002 <prvTimerTask+0x124>
    1fee:	4c1c                	lw	a5,24(s0)
    1ff0:	4592                	lw	a1,4(sp)
    1ff2:	8666                	mv	a2,s9
    1ff4:	8522                	mv	a0,s0
    1ff6:	95be                	add	a1,a1,a5
    1ff8:	35b1                	jal	1e44 <prvReloadTimer>
    1ffa:	501c                	lw	a5,32(s0)
    1ffc:	8522                	mv	a0,s0
    1ffe:	9782                	jalr	a5
    2000:	b749                	j	1f82 <prvTimerTask+0xa4>
    2002:	9bf9                	andi	a5,a5,-2
    2004:	02f40223          	sb	a5,36(s0)
    2008:	bfcd                	j	1ffa <prvTimerTask+0x11c>
    200a:	02444783          	lbu	a5,36(s0)
    200e:	9bf9                	andi	a5,a5,-2
    2010:	02f40223          	sb	a5,36(s0)
    2014:	b7bd                	j	1f82 <prvTimerTask+0xa4>
    2016:	02444783          	lbu	a5,36(s0)
    201a:	4592                	lw	a1,4(sp)
    201c:	0017e793          	ori	a5,a5,1
    2020:	02f40223          	sb	a5,36(s0)
    2024:	cc0c                	sw	a1,24(s0)
    2026:	e19d                	bnez	a1,204c <prvTimerTask+0x16e>
    2028:	6789                	lui	a5,0x2
    202a:	80078793          	addi	a5,a5,-2048 # 1800 <xTaskResumeAll+0xdc>
    202e:	30079073          	csrw	mstatus,a5
    2032:	0000a637          	lui	a2,0xa
    2036:	0000a537          	lui	a0,0xa
    203a:	70860613          	addi	a2,a2,1800 # a708 <_read+0x124>
    203e:	35900593          	li	a1,857
    2042:	63450513          	addi	a0,a0,1588 # a634 <_read+0x50>
    2046:	310070ef          	jal	ra,9356 <iprintf>
    204a:	a001                	j	204a <prvTimerTask+0x16c>
    204c:	86e6                	mv	a3,s9
    204e:	8666                	mv	a2,s9
    2050:	95e6                	add	a1,a1,s9
    2052:	8522                	mv	a0,s0
    2054:	336d                	jal	1dfe <prvInsertTimerInActiveList>
    2056:	b735                	j	1f82 <prvTimerTask+0xa4>
    2058:	02444783          	lbu	a5,36(s0)
    205c:	0027f713          	andi	a4,a5,2
    2060:	f75d                	bnez	a4,200e <prvTimerTask+0x130>
    2062:	8522                	mv	a0,s0
    2064:	845fe0ef          	jal	ra,8a8 <vPortFree>
    2068:	bf29                	j	1f82 <prvTimerTask+0xa4>

0000206a <xTimerCreateTimerTask>:
    206a:	cb4fe2ef          	jal	t0,51e <__riscv_save_0>
    206e:	332d                	jal	1d98 <prvCheckForValidListAndQueue>
    2070:	200007b7          	lui	a5,0x20000
    2074:	1107a783          	lw	a5,272(a5) # 20000110 <xTimerQueue>
    2078:	e39d                	bnez	a5,209e <xTimerCreateTimerTask+0x34>
    207a:	6789                	lui	a5,0x2
    207c:	80078793          	addi	a5,a5,-2048 # 1800 <xTaskResumeAll+0xdc>
    2080:	30079073          	csrw	mstatus,a5
    2084:	0000a637          	lui	a2,0xa
    2088:	0000a537          	lui	a0,0xa
    208c:	70860613          	addi	a2,a2,1800 # a708 <_read+0x124>
    2090:	11900593          	li	a1,281
    2094:	63450513          	addi	a0,a0,1588 # a634 <_read+0x50>
    2098:	2be070ef          	jal	ra,9356 <iprintf>
    209c:	a001                	j	209c <xTimerCreateTimerTask+0x32>
    209e:	200007b7          	lui	a5,0x20000
    20a2:	0000a5b7          	lui	a1,0xa
    20a6:	00002537          	lui	a0,0x2
    20aa:	11478793          	addi	a5,a5,276 # 20000114 <xTimerTaskHandle>
    20ae:	4719                	li	a4,6
    20b0:	4681                	li	a3,0
    20b2:	10000613          	li	a2,256
    20b6:	72c58593          	addi	a1,a1,1836 # a72c <_read+0x148>
    20ba:	ede50513          	addi	a0,a0,-290 # 1ede <prvTimerTask>
    20be:	9e0ff0ef          	jal	ra,129e <xTaskCreate>
    20c2:	dd45                	beqz	a0,207a <xTimerCreateTimerTask+0x10>
    20c4:	c7efe06f          	j	542 <__riscv_restore_0>

000020c8 <kalman_filter>:
    20c8:	c3cfe2ef          	jal	t0,504 <__riscv_save_4>
    20cc:	1141                	addi	sp,sp,-16
    20ce:	842e                	mv	s0,a1
    20d0:	84aa                	mv	s1,a0
    20d2:	85b2                	mv	a1,a2
    20d4:	853a                	mv	a0,a4
    20d6:	893e                	mv	s2,a5
    20d8:	c636                	sw	a3,12(sp)
    20da:	c442                	sw	a6,8(sp)
    20dc:	c23a                	sw	a4,4(sp)
    20de:	70a060ef          	jal	ra,87e8 <__mulsf3>
    20e2:	85aa                	mv	a1,a0
    20e4:	4088                	lw	a0,0(s1)
    20e6:	0e6060ef          	jal	ra,81cc <__addsf3>
    20ea:	4712                	lw	a4,4(sp)
    20ec:	c088                	sw	a0,0(s1)
    20ee:	85ba                	mv	a1,a4
    20f0:	853a                	mv	a0,a4
    20f2:	6f6060ef          	jal	ra,87e8 <__mulsf3>
    20f6:	85ca                	mv	a1,s2
    20f8:	6f0060ef          	jal	ra,87e8 <__mulsf3>
    20fc:	85ca                	mv	a1,s2
    20fe:	6ea060ef          	jal	ra,87e8 <__mulsf3>
    2102:	400c                	lw	a1,0(s0)
    2104:	0c8060ef          	jal	ra,81cc <__addsf3>
    2108:	4822                	lw	a6,8(sp)
    210a:	892a                	mv	s2,a0
    210c:	c008                	sw	a0,0(s0)
    210e:	85c2                	mv	a1,a6
    2110:	8542                	mv	a0,a6
    2112:	6d6060ef          	jal	ra,87e8 <__mulsf3>
    2116:	85ca                	mv	a1,s2
    2118:	0b4060ef          	jal	ra,81cc <__addsf3>
    211c:	85aa                	mv	a1,a0
    211e:	854a                	mv	a0,s2
    2120:	416060ef          	jal	ra,8536 <__divsf3>
    2124:	46b2                	lw	a3,12(sp)
    2126:	0004a983          	lw	s3,0(s1)
    212a:	892a                	mv	s2,a0
    212c:	8536                	mv	a0,a3
    212e:	85ce                	mv	a1,s3
    2130:	14d060ef          	jal	ra,8a7c <__subsf3>
    2134:	85ca                	mv	a1,s2
    2136:	6b2060ef          	jal	ra,87e8 <__mulsf3>
    213a:	85ce                	mv	a1,s3
    213c:	090060ef          	jal	ra,81cc <__addsf3>
    2140:	0000a7b7          	lui	a5,0xa
    2144:	c088                	sw	a0,0(s1)
    2146:	7587a503          	lw	a0,1880(a5) # a758 <_read+0x174>
    214a:	85ca                	mv	a1,s2
    214c:	131060ef          	jal	ra,8a7c <__subsf3>
    2150:	85aa                	mv	a1,a0
    2152:	4008                	lw	a0,0(s0)
    2154:	694060ef          	jal	ra,87e8 <__mulsf3>
    2158:	c008                	sw	a0,0(s0)
    215a:	0141                	addi	sp,sp,16
    215c:	bdcfe06f          	j	538 <__riscv_restore_4>

00002160 <compute_azimuth>:
    2160:	bbefe2ef          	jal	t0,51e <__riscv_save_0>
    2164:	1141                	addi	sp,sp,-16
    2166:	842a                	mv	s0,a0
    2168:	852e                	mv	a0,a1
    216a:	6a3060ef          	jal	ra,900c <__extendsfdf2>
    216e:	c42a                	sw	a0,8(sp)
    2170:	8522                	mv	a0,s0
    2172:	c62e                	sw	a1,12(sp)
    2174:	699060ef          	jal	ra,900c <__extendsfdf2>
    2178:	4622                	lw	a2,8(sp)
    217a:	46b2                	lw	a3,12(sp)
    217c:	79a020ef          	jal	ra,4916 <atan2>
    2180:	739060ef          	jal	ra,90b8 <__truncdfsf2>
    2184:	0000a7b7          	lui	a5,0xa
    2188:	7487a583          	lw	a1,1864(a5) # a748 <_read+0x164>
    218c:	040060ef          	jal	ra,81cc <__addsf3>
    2190:	67d060ef          	jal	ra,900c <__extendsfdf2>
    2194:	0000a7b7          	lui	a5,0xa
    2198:	7507a603          	lw	a2,1872(a5) # a750 <_read+0x16c>
    219c:	7547a683          	lw	a3,1876(a5)
    21a0:	320050ef          	jal	ra,74c0 <__muldf3>
    21a4:	715060ef          	jal	ra,90b8 <__truncdfsf2>
    21a8:	0141                	addi	sp,sp,16
    21aa:	b98fe06f          	j	542 <__riscv_restore_0>

000021ae <SensorFuseWithKalman>:
    21ae:	b40fe2ef          	jal	t0,4ee <__riscv_save_12>
    21b2:	842a                	mv	s0,a0
    21b4:	4148                	lw	a0,4(a0)
    21b6:	1141                	addi	sp,sp,-16
    21b8:	84ae                	mv	s1,a1
    21ba:	653060ef          	jal	ra,900c <__extendsfdf2>
    21be:	89ae                	mv	s3,a1
    21c0:	400c                	lw	a1,0(s0)
    21c2:	00842a83          	lw	s5,8(s0)
    21c6:	892a                	mv	s2,a0
    21c8:	852e                	mv	a0,a1
    21ca:	61e060ef          	jal	ra,87e8 <__mulsf3>
    21ce:	8a2a                	mv	s4,a0
    21d0:	85d6                	mv	a1,s5
    21d2:	8556                	mv	a0,s5
    21d4:	614060ef          	jal	ra,87e8 <__mulsf3>
    21d8:	85aa                	mv	a1,a0
    21da:	8552                	mv	a0,s4
    21dc:	7f1050ef          	jal	ra,81cc <__addsf3>
    21e0:	62d060ef          	jal	ra,900c <__extendsfdf2>
    21e4:	734020ef          	jal	ra,4918 <sqrt>
    21e8:	862a                	mv	a2,a0
    21ea:	86ae                	mv	a3,a1
    21ec:	854a                	mv	a0,s2
    21ee:	85ce                	mv	a1,s3
    21f0:	34f040ef          	jal	ra,6d3e <__divdf3>
    21f4:	2c0020ef          	jal	ra,44b4 <atan>
    21f8:	8c2a                	mv	s8,a0
    21fa:	4008                	lw	a0,0(s0)
    21fc:	8cae                	mv	s9,a1
    21fe:	0000ad37          	lui	s10,0xa
    2202:	60b060ef          	jal	ra,900c <__extendsfdf2>
    2206:	89ae                	mv	s3,a1
    2208:	404c                	lw	a1,4(s0)
    220a:	00842a83          	lw	s5,8(s0)
    220e:	892a                	mv	s2,a0
    2210:	852e                	mv	a0,a1
    2212:	5d6060ef          	jal	ra,87e8 <__mulsf3>
    2216:	8a2a                	mv	s4,a0
    2218:	85d6                	mv	a1,s5
    221a:	8556                	mv	a0,s5
    221c:	5cc060ef          	jal	ra,87e8 <__mulsf3>
    2220:	85aa                	mv	a1,a0
    2222:	8552                	mv	a0,s4
    2224:	7a9050ef          	jal	ra,81cc <__addsf3>
    2228:	5e5060ef          	jal	ra,900c <__extendsfdf2>
    222c:	6ec020ef          	jal	ra,4918 <sqrt>
    2230:	862a                	mv	a2,a0
    2232:	86ae                	mv	a3,a1
    2234:	854a                	mv	a0,s2
    2236:	85ce                	mv	a1,s3
    2238:	307040ef          	jal	ra,6d3e <__divdf3>
    223c:	278020ef          	jal	ra,44b4 <atan>
    2240:	0000a7b7          	lui	a5,0xa
    2244:	7347aa03          	lw	s4,1844(a5) # a734 <_read+0x150>
    2248:	0000a7b7          	lui	a5,0xa
    224c:	7387a983          	lw	s3,1848(a5) # a738 <_read+0x154>
    2250:	8b2a                	mv	s6,a0
    2252:	0000a7b7          	lui	a5,0xa
    2256:	8bae                	mv	s7,a1
    2258:	8562                	mv	a0,s8
    225a:	85e6                	mv	a1,s9
    225c:	73c7a903          	lw	s2,1852(a5) # a73c <_read+0x158>
    2260:	659060ef          	jal	ra,90b8 <__truncdfsf2>
    2264:	5a9060ef          	jal	ra,900c <__extendsfdf2>
    2268:	0000aab7          	lui	s5,0xa
    226c:	750aa603          	lw	a2,1872(s5) # a750 <_read+0x16c>
    2270:	754aa683          	lw	a3,1876(s5)
    2274:	24c050ef          	jal	ra,74c0 <__muldf3>
    2278:	641060ef          	jal	ra,90b8 <__truncdfsf2>
    227c:	4450                	lw	a2,12(s0)
    227e:	8852                	mv	a6,s4
    2280:	874a                	mv	a4,s2
    2282:	86aa                	mv	a3,a0
    2284:	87ce                	mv	a5,s3
    2286:	00c48593          	addi	a1,s1,12
    228a:	8526                	mv	a0,s1
    228c:	3d35                	jal	20c8 <kalman_filter>
    228e:	85de                	mv	a1,s7
    2290:	855a                	mv	a0,s6
    2292:	627060ef          	jal	ra,90b8 <__truncdfsf2>
    2296:	800007b7          	lui	a5,0x80000
    229a:	8d3d                	xor	a0,a0,a5
    229c:	571060ef          	jal	ra,900c <__extendsfdf2>
    22a0:	750aa603          	lw	a2,1872(s5)
    22a4:	754aa683          	lw	a3,1876(s5)
    22a8:	218050ef          	jal	ra,74c0 <__muldf3>
    22ac:	60d060ef          	jal	ra,90b8 <__truncdfsf2>
    22b0:	4810                	lw	a2,16(s0)
    22b2:	8852                	mv	a6,s4
    22b4:	87ce                	mv	a5,s3
    22b6:	874a                	mv	a4,s2
    22b8:	86aa                	mv	a3,a0
    22ba:	01448593          	addi	a1,s1,20
    22be:	00848513          	addi	a0,s1,8
    22c2:	3519                	jal	20c8 <kalman_filter>
    22c4:	4088                	lw	a0,0(s1)
    22c6:	547060ef          	jal	ra,900c <__extendsfdf2>
    22ca:	740d2603          	lw	a2,1856(s10) # a740 <_read+0x15c>
    22ce:	744d2683          	lw	a3,1860(s10)
    22d2:	1ee050ef          	jal	ra,74c0 <__muldf3>
    22d6:	5e3060ef          	jal	ra,90b8 <__truncdfsf2>
    22da:	533060ef          	jal	ra,900c <__extendsfdf2>
    22de:	8b2a                	mv	s6,a0
    22e0:	8bae                	mv	s7,a1
    22e2:	50c020ef          	jal	ra,47ee <cos>
    22e6:	c42a                	sw	a0,8(sp)
    22e8:	5008                	lw	a0,32(s0)
    22ea:	c62e                	sw	a1,12(sp)
    22ec:	521060ef          	jal	ra,900c <__extendsfdf2>
    22f0:	8a2a                	mv	s4,a0
    22f2:	8aae                	mv	s5,a1
    22f4:	855a                	mv	a0,s6
    22f6:	85de                	mv	a1,s7
    22f8:	58c020ef          	jal	ra,4884 <sin>
    22fc:	8c2a                	mv	s8,a0
    22fe:	4c08                	lw	a0,24(s0)
    2300:	8cae                	mv	s9,a1
    2302:	50b060ef          	jal	ra,900c <__extendsfdf2>
    2306:	4622                	lw	a2,8(sp)
    2308:	46b2                	lw	a3,12(sp)
    230a:	1b6050ef          	jal	ra,74c0 <__muldf3>
    230e:	8b2a                	mv	s6,a0
    2310:	8bae                	mv	s7,a1
    2312:	8662                	mv	a2,s8
    2314:	86e6                	mv	a3,s9
    2316:	8552                	mv	a0,s4
    2318:	85d6                	mv	a1,s5
    231a:	1a6050ef          	jal	ra,74c0 <__muldf3>
    231e:	862a                	mv	a2,a0
    2320:	86ae                	mv	a3,a1
    2322:	855a                	mv	a0,s6
    2324:	85de                	mv	a1,s7
    2326:	2e8040ef          	jal	ra,660e <__adddf3>
    232a:	8b2a                	mv	s6,a0
    232c:	4488                	lw	a0,8(s1)
    232e:	8bae                	mv	s7,a1
    2330:	4dd060ef          	jal	ra,900c <__extendsfdf2>
    2334:	740d2603          	lw	a2,1856(s10)
    2338:	744d2683          	lw	a3,1860(s10)
    233c:	184050ef          	jal	ra,74c0 <__muldf3>
    2340:	579060ef          	jal	ra,90b8 <__truncdfsf2>
    2344:	4c9060ef          	jal	ra,900c <__extendsfdf2>
    2348:	8c2a                	mv	s8,a0
    234a:	8cae                	mv	s9,a1
    234c:	4a2020ef          	jal	ra,47ee <cos>
    2350:	c42a                	sw	a0,8(sp)
    2352:	c62e                	sw	a1,12(sp)
    2354:	8562                	mv	a0,s8
    2356:	85e6                	mv	a1,s9
    2358:	52c020ef          	jal	ra,4884 <sin>
    235c:	8d2a                	mv	s10,a0
    235e:	4c48                	lw	a0,28(s0)
    2360:	8dae                	mv	s11,a1
    2362:	4ab060ef          	jal	ra,900c <__extendsfdf2>
    2366:	4622                	lw	a2,8(sp)
    2368:	46b2                	lw	a3,12(sp)
    236a:	156050ef          	jal	ra,74c0 <__muldf3>
    236e:	8c2a                	mv	s8,a0
    2370:	8cae                	mv	s9,a1
    2372:	866a                	mv	a2,s10
    2374:	86ee                	mv	a3,s11
    2376:	8552                	mv	a0,s4
    2378:	85d6                	mv	a1,s5
    237a:	146050ef          	jal	ra,74c0 <__muldf3>
    237e:	862a                	mv	a2,a0
    2380:	86ae                	mv	a3,a1
    2382:	8562                	mv	a0,s8
    2384:	85e6                	mv	a1,s9
    2386:	288040ef          	jal	ra,660e <__adddf3>
    238a:	52f060ef          	jal	ra,90b8 <__truncdfsf2>
    238e:	8a2a                	mv	s4,a0
    2390:	85de                	mv	a1,s7
    2392:	855a                	mv	a0,s6
    2394:	525060ef          	jal	ra,90b8 <__truncdfsf2>
    2398:	85d2                	mv	a1,s4
    239a:	33d9                	jal	2160 <compute_azimuth>
    239c:	0000a7b7          	lui	a5,0xa
    23a0:	7587a803          	lw	a6,1880(a5) # a758 <_read+0x174>
    23a4:	4850                	lw	a2,20(s0)
    23a6:	86aa                	mv	a3,a0
    23a8:	87ce                	mv	a5,s3
    23aa:	874a                	mv	a4,s2
    23ac:	01048593          	addi	a1,s1,16
    23b0:	00448513          	addi	a0,s1,4
    23b4:	d15ff0ef          	jal	ra,20c8 <kalman_filter>
    23b8:	0141                	addi	sp,sp,16
    23ba:	970fe06f          	j	52a <__riscv_restore_12>

000023be <MCAL_WRAPEPR_SPI_POLL_TRANSFER>:
    23be:	c52d                	beqz	a0,2428 <MCAL_WRAPEPR_SPI_POLL_TRANSFER+0x6a>
    23c0:	944fe2ef          	jal	t0,504 <__riscv_save_4>
    23c4:	842a                	mv	s0,a0
    23c6:	892e                	mv	s2,a1
    23c8:	4505                	li	a0,1
    23ca:	cd91                	beqz	a1,23e6 <MCAL_WRAPEPR_SPI_POLL_TRANSFER+0x28>
    23cc:	00845583          	lhu	a1,8(s0)
    23d0:	4048                	lw	a0,4(s0)
    23d2:	84b2                	mv	s1,a2
    23d4:	89b6                	mv	s3,a3
    23d6:	4a05                	li	s4,1
    23d8:	2181                	jal	2818 <GPIO_ResetBits>
    23da:	e881                	bnez	s1,23ea <MCAL_WRAPEPR_SPI_POLL_TRANSFER+0x2c>
    23dc:	4048                	lw	a0,4(s0)
    23de:	00845583          	lhu	a1,8(s0)
    23e2:	2939                	jal	2800 <GPIO_SetBits>
    23e4:	4501                	li	a0,0
    23e6:	952fe06f          	j	538 <__riscv_restore_4>
    23ea:	00094583          	lbu	a1,0(s2)
    23ee:	4008                	lw	a0,0(s0)
    23f0:	7e4000ef          	jal	ra,2bd4 <SPI_I2S_SendData>
    23f4:	4008                	lw	a0,0(s0)
    23f6:	4589                	li	a1,2
    23f8:	7e8000ef          	jal	ra,2be0 <SPI_I2S_GetFlagStatus>
    23fc:	ff451ce3          	bne	a0,s4,23f4 <MCAL_WRAPEPR_SPI_POLL_TRANSFER+0x36>
    2400:	4008                	lw	a0,0(s0)
    2402:	08000593          	li	a1,128
    2406:	7da000ef          	jal	ra,2be0 <SPI_I2S_GetFlagStatus>
    240a:	ff450be3          	beq	a0,s4,2400 <MCAL_WRAPEPR_SPI_POLL_TRANSFER+0x42>
    240e:	0905                	addi	s2,s2,1
    2410:	00098863          	beqz	s3,2420 <MCAL_WRAPEPR_SPI_POLL_TRANSFER+0x62>
    2414:	4008                	lw	a0,0(s0)
    2416:	0985                	addi	s3,s3,1
    2418:	7c2000ef          	jal	ra,2bda <SPI_I2S_ReceiveData>
    241c:	fea98fa3          	sb	a0,-1(s3)
    2420:	14fd                	addi	s1,s1,-1
    2422:	04c2                	slli	s1,s1,0x10
    2424:	80c1                	srli	s1,s1,0x10
    2426:	bf55                	j	23da <MCAL_WRAPEPR_SPI_POLL_TRANSFER+0x1c>
    2428:	4505                	li	a0,1
    242a:	8082                	ret

0000242c <I2C_start_transmission>:
    242c:	8d8fe2ef          	jal	t0,504 <__riscv_save_4>
    2430:	84aa                	mv	s1,a0
    2432:	cdb9                	beqz	a1,2490 <I2C_start_transmission+0x64>
    2434:	00030437          	lui	s0,0x30
    2438:	0409                	addi	s0,s0,2
    243a:	4a05                	li	s4,1
    243c:	40006937          	lui	s2,0x40006
    2440:	80090993          	addi	s3,s2,-2048 # 40005800 <__freertos_irq_stack_top+0x20000800>
    2444:	000205b7          	lui	a1,0x20
    2448:	854e                	mv	a0,s3
    244a:	2b5d                	jal	2a00 <I2C_GetFlagStatus>
    244c:	fd65                	bnez	a0,2444 <I2C_start_transmission+0x18>
    244e:	80090513          	addi	a0,s2,-2048
    2452:	4585                	li	a1,1
    2454:	00030937          	lui	s2,0x30
    2458:	400069b7          	lui	s3,0x40006
    245c:	2311                	jal	2960 <I2C_GenerateSTART>
    245e:	0905                	addi	s2,s2,1
    2460:	80098a93          	addi	s5,s3,-2048 # 40005800 <__freertos_irq_stack_top+0x20000800>
    2464:	85ca                	mv	a1,s2
    2466:	8556                	mv	a0,s5
    2468:	2bbd                	jal	29e6 <I2C_CheckEvent>
    246a:	dd6d                	beqz	a0,2464 <I2C_start_transmission+0x38>
    246c:	00149593          	slli	a1,s1,0x1
    2470:	8652                	mv	a2,s4
    2472:	0fe5f593          	andi	a1,a1,254
    2476:	80098513          	addi	a0,s3,-2048
    247a:	400064b7          	lui	s1,0x40006
    247e:	233d                	jal	29ac <I2C_Send7bitAddress>
    2480:	80048493          	addi	s1,s1,-2048 # 40005800 <__freertos_irq_stack_top+0x20000800>
    2484:	85a2                	mv	a1,s0
    2486:	8526                	mv	a0,s1
    2488:	2bb9                	jal	29e6 <I2C_CheckEvent>
    248a:	dd6d                	beqz	a0,2484 <I2C_start_transmission+0x58>
    248c:	8acfe06f          	j	538 <__riscv_restore_4>
    2490:	00070437          	lui	s0,0x70
    2494:	08240413          	addi	s0,s0,130 # 70082 <_data_lma+0x651ee>
    2498:	4a01                	li	s4,0
    249a:	b74d                	j	243c <I2C_start_transmission+0x10>

0000249c <I2C_write>:
    249c:	868fe2ef          	jal	t0,504 <__riscv_save_4>
    24a0:	10000437          	lui	s0,0x10000
    24a4:	400064b7          	lui	s1,0x40006
    24a8:	892a                	mv	s2,a0
    24aa:	08040413          	addi	s0,s0,128 # 10000080 <_data_lma+0xfff51ec>
    24ae:	80048a13          	addi	s4,s1,-2048 # 40005800 <__freertos_irq_stack_top+0x20000800>
    24b2:	4985                	li	s3,1
    24b4:	85a2                	mv	a1,s0
    24b6:	8552                	mv	a0,s4
    24b8:	23a1                	jal	2a00 <I2C_GetFlagStatus>
    24ba:	ff351de3          	bne	a0,s3,24b4 <I2C_write+0x18>
    24be:	85ca                	mv	a1,s2
    24c0:	80048513          	addi	a0,s1,-2048
    24c4:	29e1                	jal	299c <I2C_SendData>
    24c6:	872fe06f          	j	538 <__riscv_restore_4>

000024ca <I2C_stop>:
    24ca:	83afe2ef          	jal	t0,504 <__riscv_save_4>
    24ce:	10000437          	lui	s0,0x10000
    24d2:	400064b7          	lui	s1,0x40006
    24d6:	08040413          	addi	s0,s0,128 # 10000080 <_data_lma+0xfff51ec>
    24da:	80048993          	addi	s3,s1,-2048 # 40005800 <__freertos_irq_stack_top+0x20000800>
    24de:	4905                	li	s2,1
    24e0:	85a2                	mv	a1,s0
    24e2:	854e                	mv	a0,s3
    24e4:	2b31                	jal	2a00 <I2C_GetFlagStatus>
    24e6:	ff251de3          	bne	a0,s2,24e0 <I2C_stop+0x16>
    24ea:	4585                	li	a1,1
    24ec:	80048513          	addi	a0,s1,-2048
    24f0:	2179                	jal	297e <I2C_GenerateSTOP>
    24f2:	846fe06f          	j	538 <__riscv_restore_4>

000024f6 <I2C_read>:
    24f6:	200006b7          	lui	a3,0x20000
    24fa:	11c68693          	addi	a3,a3,284 # 2000011c <i.4770>
    24fe:	0006c783          	lbu	a5,0(a3)
    2502:	20000737          	lui	a4,0x20000
    2506:	12470713          	addi	a4,a4,292 # 20000124 <RxData>
    250a:	973e                	add	a4,a4,a5
    250c:	4619                	li	a2,6
    250e:	0785                	addi	a5,a5,1
    2510:	02c7e7b3          	rem	a5,a5,a2
    2514:	00074503          	lbu	a0,0(a4)
    2518:	00f68023          	sb	a5,0(a3)
    251c:	8082                	ret

0000251e <I2C_requestFrom>:
    251e:	fe7fd2ef          	jal	t0,504 <__riscv_save_4>
    2522:	8a2e                	mv	s4,a1
    2524:	10000937          	lui	s2,0x10000
    2528:	4585                	li	a1,1
    252a:	400064b7          	lui	s1,0x40006
    252e:	200009b7          	lui	s3,0x20000
    2532:	3ded                	jal	242c <I2C_start_transmission>
    2534:	4401                	li	s0,0
    2536:	04090913          	addi	s2,s2,64 # 10000040 <_data_lma+0xfff51ac>
    253a:	80048493          	addi	s1,s1,-2048 # 40005800 <__freertos_irq_stack_top+0x20000800>
    253e:	12498993          	addi	s3,s3,292 # 20000124 <RxData>
    2542:	4a95                	li	s5,5
    2544:	03446763          	bltu	s0,s4,2572 <I2C_requestFrom+0x54>
    2548:	100004b7          	lui	s1,0x10000
    254c:	40006937          	lui	s2,0x40006
    2550:	04048493          	addi	s1,s1,64 # 10000040 <_data_lma+0xfff51ac>
    2554:	80090a13          	addi	s4,s2,-2048 # 40005800 <__freertos_irq_stack_top+0x20000800>
    2558:	4985                	li	s3,1
    255a:	85a6                	mv	a1,s1
    255c:	8552                	mv	a0,s4
    255e:	214d                	jal	2a00 <I2C_GetFlagStatus>
    2560:	ff351de3          	bne	a0,s3,255a <I2C_requestFrom+0x3c>
    2564:	80090513          	addi	a0,s2,-2048
    2568:	4585                	li	a1,1
    256a:	2911                	jal	297e <I2C_GenerateSTOP>
    256c:	8522                	mv	a0,s0
    256e:	fcbfd06f          	j	538 <__riscv_restore_4>
    2572:	85ca                	mv	a1,s2
    2574:	8526                	mv	a0,s1
    2576:	2169                	jal	2a00 <I2C_GetFlagStatus>
    2578:	c911                	beqz	a0,258c <I2C_requestFrom+0x6e>
    257a:	8526                	mv	a0,s1
    257c:	211d                	jal	29a2 <I2C_ReceiveData>
    257e:	013407b3          	add	a5,s0,s3
    2582:	0405                	addi	s0,s0,1
    2584:	00a78023          	sb	a0,0(a5)
    2588:	0ff47413          	andi	s0,s0,255
    258c:	fb541ce3          	bne	s0,s5,2544 <I2C_requestFrom+0x26>
    2590:	6585                	lui	a1,0x1
    2592:	80058593          	addi	a1,a1,-2048 # 800 <__stack_size>
    2596:	8526                	mv	a0,s1
    2598:	2125                	jal	29c0 <I2C_NACKPositionConfig>
    259a:	b76d                	j	2544 <I2C_requestFrom+0x26>

0000259c <UART4_IRQHandler>:
    259c:	f83fd2ef          	jal	t0,51e <__riscv_save_0>
    25a0:	40005537          	lui	a0,0x40005
    25a4:	52500593          	li	a1,1317
    25a8:	c0050513          	addi	a0,a0,-1024 # 40004c00 <__freertos_irq_stack_top+0x1ffffc00>
    25ac:	335000ef          	jal	ra,30e0 <USART_GetITStatus>
    25b0:	c519                	beqz	a0,25be <UART4_IRQHandler+0x22>
    25b2:	200007b7          	lui	a5,0x20000
    25b6:	1187a783          	lw	a5,280(a5) # 20000118 <global_UART4RecCallback>
    25ba:	c391                	beqz	a5,25be <UART4_IRQHandler+0x22>
    25bc:	9782                	jalr	a5
    25be:	f85fd06f          	j	542 <__riscv_restore_0>

000025c2 <MCAL_WRAPPER_DelayMS>:
    25c2:	f5dfd2ef          	jal	t0,51e <__riscv_save_0>
    25c6:	842a                	mv	s0,a0
    25c8:	4585                	li	a1,1
    25ca:	40000537          	lui	a0,0x40000
    25ce:	1fb000ef          	jal	ra,2fc8 <TIM_ClearFlag>
    25d2:	85a2                	mv	a1,s0
    25d4:	40000537          	lui	a0,0x40000
    25d8:	1e5000ef          	jal	ra,2fbc <TIM_SetCounter>
    25dc:	4585                	li	a1,1
    25de:	40000537          	lui	a0,0x40000
    25e2:	0fb000ef          	jal	ra,2edc <TIM_Cmd>
    25e6:	40000537          	lui	a0,0x40000
    25ea:	1d9000ef          	jal	ra,2fc2 <TIM_GetCounter>
    25ee:	fea47ce3          	bgeu	s0,a0,25e6 <MCAL_WRAPPER_DelayMS+0x24>
    25f2:	4581                	li	a1,0
    25f4:	40000537          	lui	a0,0x40000
    25f8:	0e5000ef          	jal	ra,2edc <TIM_Cmd>
    25fc:	4501                	li	a0,0
    25fe:	f45fd06f          	j	542 <__riscv_restore_0>
    2602:	a001                	j	2602 <MCAL_WRAPPER_DelayMS+0x40>
    2604:	a001                	j	2604 <MCAL_WRAPPER_DelayMS+0x42>

00002606 <Ecall_M_Mode_Handler>:
    2606:	a001                	j	2606 <Ecall_M_Mode_Handler>

00002608 <Ecall_U_Mode_Handler>:
    2608:	a001                	j	2608 <Ecall_U_Mode_Handler>

0000260a <Break_Point_Handler>:
    260a:	a001                	j	260a <Break_Point_Handler>
    260c:	a001                	j	260c <Break_Point_Handler+0x2>
    260e:	a001                	j	260e <Break_Point_Handler+0x4>

00002610 <WWDG_IRQHandler>:
    2610:	a001                	j	2610 <WWDG_IRQHandler>

00002612 <PVD_IRQHandler>:
    2612:	a001                	j	2612 <PVD_IRQHandler>

00002614 <TAMPER_IRQHandler>:
    2614:	a001                	j	2614 <TAMPER_IRQHandler>

00002616 <RTC_IRQHandler>:
    2616:	a001                	j	2616 <RTC_IRQHandler>

00002618 <FLASH_IRQHandler>:
    2618:	a001                	j	2618 <FLASH_IRQHandler>

0000261a <RCC_IRQHandler>:
    261a:	a001                	j	261a <RCC_IRQHandler>

0000261c <EXTI0_IRQHandler>:
    261c:	a001                	j	261c <EXTI0_IRQHandler>

0000261e <EXTI1_IRQHandler>:
    261e:	a001                	j	261e <EXTI1_IRQHandler>

00002620 <EXTI2_IRQHandler>:
    2620:	a001                	j	2620 <EXTI2_IRQHandler>

00002622 <EXTI3_IRQHandler>:
    2622:	a001                	j	2622 <EXTI3_IRQHandler>

00002624 <EXTI4_IRQHandler>:
    2624:	a001                	j	2624 <EXTI4_IRQHandler>

00002626 <DMA1_Channel1_IRQHandler>:
    2626:	a001                	j	2626 <DMA1_Channel1_IRQHandler>

00002628 <DMA1_Channel2_IRQHandler>:
    2628:	a001                	j	2628 <DMA1_Channel2_IRQHandler>

0000262a <DMA1_Channel3_IRQHandler>:
    262a:	a001                	j	262a <DMA1_Channel3_IRQHandler>

0000262c <DMA1_Channel4_IRQHandler>:
    262c:	a001                	j	262c <DMA1_Channel4_IRQHandler>

0000262e <DMA1_Channel5_IRQHandler>:
    262e:	a001                	j	262e <DMA1_Channel5_IRQHandler>

00002630 <DMA1_Channel6_IRQHandler>:
    2630:	a001                	j	2630 <DMA1_Channel6_IRQHandler>

00002632 <DMA1_Channel7_IRQHandler>:
    2632:	a001                	j	2632 <DMA1_Channel7_IRQHandler>

00002634 <ADC1_2_IRQHandler>:
    2634:	a001                	j	2634 <ADC1_2_IRQHandler>

00002636 <USB_HP_CAN1_TX_IRQHandler>:
    2636:	a001                	j	2636 <USB_HP_CAN1_TX_IRQHandler>

00002638 <USB_LP_CAN1_RX0_IRQHandler>:
    2638:	a001                	j	2638 <USB_LP_CAN1_RX0_IRQHandler>

0000263a <CAN1_RX1_IRQHandler>:
    263a:	a001                	j	263a <CAN1_RX1_IRQHandler>

0000263c <CAN1_SCE_IRQHandler>:
    263c:	a001                	j	263c <CAN1_SCE_IRQHandler>

0000263e <EXTI9_5_IRQHandler>:
    263e:	a001                	j	263e <EXTI9_5_IRQHandler>

00002640 <TIM1_BRK_IRQHandler>:
    2640:	a001                	j	2640 <TIM1_BRK_IRQHandler>

00002642 <TIM1_UP_IRQHandler>:
    2642:	a001                	j	2642 <TIM1_UP_IRQHandler>

00002644 <TIM1_TRG_COM_IRQHandler>:
    2644:	a001                	j	2644 <TIM1_TRG_COM_IRQHandler>

00002646 <TIM1_CC_IRQHandler>:
    2646:	a001                	j	2646 <TIM1_CC_IRQHandler>

00002648 <TIM2_IRQHandler>:
    2648:	a001                	j	2648 <TIM2_IRQHandler>

0000264a <TIM3_IRQHandler>:
    264a:	a001                	j	264a <TIM3_IRQHandler>

0000264c <TIM4_IRQHandler>:
    264c:	a001                	j	264c <TIM4_IRQHandler>

0000264e <I2C1_EV_IRQHandler>:
    264e:	a001                	j	264e <I2C1_EV_IRQHandler>

00002650 <I2C1_ER_IRQHandler>:
    2650:	a001                	j	2650 <I2C1_ER_IRQHandler>

00002652 <I2C2_EV_IRQHandler>:
    2652:	a001                	j	2652 <I2C2_EV_IRQHandler>

00002654 <I2C2_ER_IRQHandler>:
    2654:	a001                	j	2654 <I2C2_ER_IRQHandler>

00002656 <SPI1_IRQHandler>:
    2656:	a001                	j	2656 <SPI1_IRQHandler>

00002658 <SPI2_IRQHandler>:
    2658:	a001                	j	2658 <SPI2_IRQHandler>

0000265a <USART1_IRQHandler>:
    265a:	a001                	j	265a <USART1_IRQHandler>

0000265c <USART2_IRQHandler>:
    265c:	a001                	j	265c <USART2_IRQHandler>

0000265e <USART3_IRQHandler>:
    265e:	a001                	j	265e <USART3_IRQHandler>

00002660 <EXTI15_10_IRQHandler>:
    2660:	a001                	j	2660 <EXTI15_10_IRQHandler>

00002662 <RTCAlarm_IRQHandler>:
    2662:	a001                	j	2662 <RTCAlarm_IRQHandler>

00002664 <USBWakeUp_IRQHandler>:
    2664:	a001                	j	2664 <USBWakeUp_IRQHandler>

00002666 <USBHD_IRQHandler>:
    2666:	a001                	j	2666 <USBHD_IRQHandler>

00002668 <USBHDWakeUp_IRQHandler>:
    2668:	a001                	j	2668 <USBHDWakeUp_IRQHandler>
    266a:	a001                	j	266a <USBHDWakeUp_IRQHandler+0x2>

0000266c <DMA1_Channel8_IRQHandler>:
    266c:	a001                	j	266c <DMA1_Channel8_IRQHandler>

0000266e <handle_reset>:
    266e:	1fffe197          	auipc	gp,0x1fffe
    2672:	21218193          	addi	gp,gp,530 # 20000880 <__global_pointer$>
    2676:	20003117          	auipc	sp,0x20003
    267a:	98a10113          	addi	sp,sp,-1654 # 20005000 <__freertos_irq_stack_top>
    267e:	00009517          	auipc	a0,0x9
    2682:	81650513          	addi	a0,a0,-2026 # ae94 <_data_lma>
    2686:	1fffe597          	auipc	a1,0x1fffe
    268a:	97a58593          	addi	a1,a1,-1670 # 20000000 <_data_vma>
    268e:	82818613          	addi	a2,gp,-2008 # 200000a8 <_edata>
    2692:	00c5fa63          	bgeu	a1,a2,26a6 <handle_reset+0x38>
    2696:	00052283          	lw	t0,0(a0)
    269a:	0055a023          	sw	t0,0(a1)
    269e:	0511                	addi	a0,a0,4
    26a0:	0591                	addi	a1,a1,4
    26a2:	fec5eae3          	bltu	a1,a2,2696 <handle_reset+0x28>
    26a6:	1fffe517          	auipc	a0,0x1fffe
    26aa:	a0250513          	addi	a0,a0,-1534 # 200000a8 <_edata>
    26ae:	20001597          	auipc	a1,0x20001
    26b2:	cb658593          	addi	a1,a1,-842 # 20003364 <_ebss>
    26b6:	00b57763          	bgeu	a0,a1,26c4 <handle_reset+0x56>
    26ba:	00052023          	sw	zero,0(a0)
    26be:	0511                	addi	a0,a0,4
    26c0:	feb56de3          	bltu	a0,a1,26ba <handle_reset+0x4c>
    26c4:	42fd                	li	t0,31
    26c6:	bc029073          	csrw	0xbc0,t0
    26ca:	4289                	li	t0,2
    26cc:	80429073          	csrw	0x804,t0
    26d0:	000022b7          	lui	t0,0x2
    26d4:	80028293          	addi	t0,t0,-2048 # 1800 <xTaskResumeAll+0xdc>
    26d8:	3002a073          	csrs	mstatus,t0
    26dc:	ffffe297          	auipc	t0,0xffffe
    26e0:	95c28293          	addi	t0,t0,-1700 # 38 <_einit>
    26e4:	0032e293          	ori	t0,t0,3
    26e8:	30529073          	csrw	mtvec,t0
    26ec:	07a010ef          	jal	ra,3766 <SystemInit>
    26f0:	00002297          	auipc	t0,0x2
    26f4:	d0628293          	addi	t0,t0,-762 # 43f6 <main>
    26f8:	34129073          	csrw	mepc,t0
    26fc:	30200073          	mret

00002700 <GPIO_Init>:
    2700:	459c                	lw	a5,8(a1)
    2702:	0107f713          	andi	a4,a5,16
    2706:	00f7f813          	andi	a6,a5,15
    270a:	c701                	beqz	a4,2712 <GPIO_Init+0x12>
    270c:	41d8                	lw	a4,4(a1)
    270e:	00e86833          	or	a6,a6,a4
    2712:	40022737          	lui	a4,0x40022
    2716:	5b14                	lw	a3,48(a4)
    2718:	0f000737          	lui	a4,0xf000
    271c:	8f75                	and	a4,a4,a3
    271e:	ef55                	bnez	a4,27da <GPIO_Init+0xda>
    2720:	20000737          	lui	a4,0x20000
    2724:	4685                	li	a3,1
    2726:	10d70ea3          	sb	a3,285(a4) # 2000011d <MCU_Version>
    272a:	40011737          	lui	a4,0x40011
    272e:	00e51763          	bne	a0,a4,273c <GPIO_Init+0x3c>
    2732:	0005d703          	lhu	a4,0(a1)
    2736:	8335                	srli	a4,a4,0xd
    2738:	00e59023          	sh	a4,0(a1)
    273c:	0005d583          	lhu	a1,0(a1)
    2740:	0ff5f713          	andi	a4,a1,255
    2744:	c339                	beqz	a4,278a <GPIO_Init+0x8a>
    2746:	4118                	lw	a4,0(a0)
    2748:	4681                	li	a3,0
    274a:	4e85                	li	t4,1
    274c:	4f3d                	li	t5,15
    274e:	02800f93          	li	t6,40
    2752:	04800293          	li	t0,72
    2756:	4e21                	li	t3,8
    2758:	00de9633          	sll	a2,t4,a3
    275c:	00c5f8b3          	and	a7,a1,a2
    2760:	03161163          	bne	a2,a7,2782 <GPIO_Init+0x82>
    2764:	00269893          	slli	a7,a3,0x2
    2768:	011f1333          	sll	t1,t5,a7
    276c:	fff34313          	not	t1,t1
    2770:	00e37733          	and	a4,t1,a4
    2774:	011818b3          	sll	a7,a6,a7
    2778:	00e8e733          	or	a4,a7,a4
    277c:	07f79963          	bne	a5,t6,27ee <GPIO_Init+0xee>
    2780:	c950                	sw	a2,20(a0)
    2782:	0685                	addi	a3,a3,1
    2784:	fdc69ae3          	bne	a3,t3,2758 <GPIO_Init+0x58>
    2788:	c118                	sw	a4,0(a0)
    278a:	0ff00713          	li	a4,255
    278e:	04b77563          	bgeu	a4,a1,27d8 <GPIO_Init+0xd8>
    2792:	4154                	lw	a3,4(a0)
    2794:	4621                	li	a2,8
    2796:	4e85                	li	t4,1
    2798:	4f3d                	li	t5,15
    279a:	02800f93          	li	t6,40
    279e:	04800293          	li	t0,72
    27a2:	4e41                	li	t3,16
    27a4:	00ce98b3          	sll	a7,t4,a2
    27a8:	0115f733          	and	a4,a1,a7
    27ac:	02e89263          	bne	a7,a4,27d0 <GPIO_Init+0xd0>
    27b0:	00261713          	slli	a4,a2,0x2
    27b4:	1701                	addi	a4,a4,-32
    27b6:	00ef1333          	sll	t1,t5,a4
    27ba:	fff34313          	not	t1,t1
    27be:	00d376b3          	and	a3,t1,a3
    27c2:	00e81733          	sll	a4,a6,a4
    27c6:	8ed9                	or	a3,a3,a4
    27c8:	03f79763          	bne	a5,t6,27f6 <GPIO_Init+0xf6>
    27cc:	01152a23          	sw	a7,20(a0)
    27d0:	0605                	addi	a2,a2,1
    27d2:	fdc619e3          	bne	a2,t3,27a4 <GPIO_Init+0xa4>
    27d6:	c154                	sw	a3,4(a0)
    27d8:	8082                	ret
    27da:	40011737          	lui	a4,0x40011
    27de:	f4e51fe3          	bne	a0,a4,273c <GPIO_Init+0x3c>
    27e2:	20000737          	lui	a4,0x20000
    27e6:	11d74703          	lbu	a4,285(a4) # 2000011d <MCU_Version>
    27ea:	db29                	beqz	a4,273c <GPIO_Init+0x3c>
    27ec:	b799                	j	2732 <GPIO_Init+0x32>
    27ee:	f8579ae3          	bne	a5,t0,2782 <GPIO_Init+0x82>
    27f2:	c910                	sw	a2,16(a0)
    27f4:	b779                	j	2782 <GPIO_Init+0x82>
    27f6:	fc579de3          	bne	a5,t0,27d0 <GPIO_Init+0xd0>
    27fa:	01152823          	sw	a7,16(a0)
    27fe:	bfc9                	j	27d0 <GPIO_Init+0xd0>

00002800 <GPIO_SetBits>:
    2800:	400117b7          	lui	a5,0x40011
    2804:	00f51863          	bne	a0,a5,2814 <GPIO_SetBits+0x14>
    2808:	200007b7          	lui	a5,0x20000
    280c:	11d7c783          	lbu	a5,285(a5) # 2000011d <MCU_Version>
    2810:	c391                	beqz	a5,2814 <GPIO_SetBits+0x14>
    2812:	81b5                	srli	a1,a1,0xd
    2814:	c90c                	sw	a1,16(a0)
    2816:	8082                	ret

00002818 <GPIO_ResetBits>:
    2818:	400117b7          	lui	a5,0x40011
    281c:	00f51863          	bne	a0,a5,282c <GPIO_ResetBits+0x14>
    2820:	200007b7          	lui	a5,0x20000
    2824:	11d7c783          	lbu	a5,285(a5) # 2000011d <MCU_Version>
    2828:	c391                	beqz	a5,282c <GPIO_ResetBits+0x14>
    282a:	81b5                	srli	a1,a1,0xd
    282c:	c94c                	sw	a1,20(a0)
    282e:	8082                	ret

00002830 <I2C_Init>:
    2830:	ceffd2ef          	jal	t0,51e <__riscv_save_0>
    2834:	7179                	addi	sp,sp,-48
    2836:	842a                	mv	s0,a0
    2838:	00455483          	lhu	s1,4(a0)
    283c:	0868                	addi	a0,sp,28
    283e:	c62e                	sw	a1,12(sp)
    2840:	2af5                	jal	2a3c <RCC_GetClocksFreq>
    2842:	5792                	lw	a5,36(sp)
    2844:	000f4737          	lui	a4,0xf4
    2848:	24070713          	addi	a4,a4,576 # f4240 <_data_lma+0xe93ac>
    284c:	02e7d733          	divu	a4,a5,a4
    2850:	04c2                	slli	s1,s1,0x10
    2852:	80c1                	srli	s1,s1,0x10
    2854:	fc04f493          	andi	s1,s1,-64
    2858:	04c2                	slli	s1,s1,0x10
    285a:	80c1                	srli	s1,s1,0x10
    285c:	45b2                	lw	a1,12(sp)
    285e:	6561                	lui	a0,0x18
    2860:	6a050513          	addi	a0,a0,1696 # 186a0 <_data_lma+0xd80c>
    2864:	01071613          	slli	a2,a4,0x10
    2868:	8241                	srli	a2,a2,0x10
    286a:	8cd1                	or	s1,s1,a2
    286c:	00941223          	sh	s1,4(s0)
    2870:	00045683          	lhu	a3,0(s0)
    2874:	06c2                	slli	a3,a3,0x10
    2876:	82c1                	srli	a3,a3,0x10
    2878:	9af9                	andi	a3,a3,-2
    287a:	06c2                	slli	a3,a3,0x10
    287c:	82c1                	srli	a3,a3,0x10
    287e:	00d41023          	sh	a3,0(s0)
    2882:	4194                	lw	a3,0(a1)
    2884:	06d56463          	bltu	a0,a3,28ec <I2C_Init+0xbc>
    2888:	0686                	slli	a3,a3,0x1
    288a:	02d7d7b3          	divu	a5,a5,a3
    288e:	4691                	li	a3,4
    2890:	01079713          	slli	a4,a5,0x10
    2894:	8341                	srli	a4,a4,0x10
    2896:	87ba                	mv	a5,a4
    2898:	00d77363          	bgeu	a4,a3,289e <I2C_Init+0x6e>
    289c:	4791                	li	a5,4
    289e:	0605                	addi	a2,a2,1
    28a0:	0642                	slli	a2,a2,0x10
    28a2:	07c2                	slli	a5,a5,0x10
    28a4:	8241                	srli	a2,a2,0x10
    28a6:	83c1                	srli	a5,a5,0x10
    28a8:	02c41023          	sh	a2,32(s0)
    28ac:	00f41e23          	sh	a5,28(s0)
    28b0:	00045783          	lhu	a5,0(s0)
    28b4:	0045d703          	lhu	a4,4(a1)
    28b8:	00a5d683          	lhu	a3,10(a1)
    28bc:	0017e793          	ori	a5,a5,1
    28c0:	00f41023          	sh	a5,0(s0)
    28c4:	00045783          	lhu	a5,0(s0)
    28c8:	8f55                	or	a4,a4,a3
    28ca:	07c2                	slli	a5,a5,0x10
    28cc:	83c1                	srli	a5,a5,0x10
    28ce:	bf57f793          	andi	a5,a5,-1035
    28d2:	8fd9                	or	a5,a5,a4
    28d4:	00f41023          	sh	a5,0(s0)
    28d8:	0085d703          	lhu	a4,8(a1)
    28dc:	00c5d783          	lhu	a5,12(a1)
    28e0:	8fd9                	or	a5,a5,a4
    28e2:	00f41423          	sh	a5,8(s0)
    28e6:	6145                	addi	sp,sp,48
    28e8:	c5bfd06f          	j	542 <__riscv_restore_0>
    28ec:	0065d503          	lhu	a0,6(a1)
    28f0:	6631                	lui	a2,0xc
    28f2:	167d                	addi	a2,a2,-1
    28f4:	02c51e63          	bne	a0,a2,2930 <I2C_Init+0x100>
    28f8:	460d                	li	a2,3
    28fa:	02c686b3          	mul	a3,a3,a2
    28fe:	02d7d7b3          	divu	a5,a5,a3
    2902:	07c2                	slli	a5,a5,0x10
    2904:	83c1                	srli	a5,a5,0x10
    2906:	01479693          	slli	a3,a5,0x14
    290a:	e299                	bnez	a3,2910 <I2C_Init+0xe0>
    290c:	0017e793          	ori	a5,a5,1
    2910:	66a1                	lui	a3,0x8
    2912:	8fd5                	or	a5,a5,a3
    2914:	12c00693          	li	a3,300
    2918:	02d70733          	mul	a4,a4,a3
    291c:	3e800693          	li	a3,1000
    2920:	02d74733          	div	a4,a4,a3
    2924:	0705                	addi	a4,a4,1
    2926:	0742                	slli	a4,a4,0x10
    2928:	8341                	srli	a4,a4,0x10
    292a:	02e41023          	sh	a4,32(s0)
    292e:	bfbd                	j	28ac <I2C_Init+0x7c>
    2930:	4665                	li	a2,25
    2932:	02c686b3          	mul	a3,a3,a2
    2936:	02d7d7b3          	divu	a5,a5,a3
    293a:	6691                	lui	a3,0x4
    293c:	07c2                	slli	a5,a5,0x10
    293e:	83c1                	srli	a5,a5,0x10
    2940:	8fd5                	or	a5,a5,a3
    2942:	b7d1                	j	2906 <I2C_Init+0xd6>

00002944 <I2C_Cmd>:
    2944:	00055783          	lhu	a5,0(a0)
    2948:	c591                	beqz	a1,2954 <I2C_Cmd+0x10>
    294a:	0017e793          	ori	a5,a5,1
    294e:	00f51023          	sh	a5,0(a0)
    2952:	8082                	ret
    2954:	07c2                	slli	a5,a5,0x10
    2956:	83c1                	srli	a5,a5,0x10
    2958:	9bf9                	andi	a5,a5,-2
    295a:	07c2                	slli	a5,a5,0x10
    295c:	83c1                	srli	a5,a5,0x10
    295e:	bfc5                	j	294e <I2C_Cmd+0xa>

00002960 <I2C_GenerateSTART>:
    2960:	00055783          	lhu	a5,0(a0)
    2964:	c591                	beqz	a1,2970 <I2C_GenerateSTART+0x10>
    2966:	1007e793          	ori	a5,a5,256
    296a:	00f51023          	sh	a5,0(a0)
    296e:	8082                	ret
    2970:	07c2                	slli	a5,a5,0x10
    2972:	83c1                	srli	a5,a5,0x10
    2974:	eff7f793          	andi	a5,a5,-257
    2978:	07c2                	slli	a5,a5,0x10
    297a:	83c1                	srli	a5,a5,0x10
    297c:	b7fd                	j	296a <I2C_GenerateSTART+0xa>

0000297e <I2C_GenerateSTOP>:
    297e:	00055783          	lhu	a5,0(a0)
    2982:	c591                	beqz	a1,298e <I2C_GenerateSTOP+0x10>
    2984:	2007e793          	ori	a5,a5,512
    2988:	00f51023          	sh	a5,0(a0)
    298c:	8082                	ret
    298e:	07c2                	slli	a5,a5,0x10
    2990:	83c1                	srli	a5,a5,0x10
    2992:	dff7f793          	andi	a5,a5,-513
    2996:	07c2                	slli	a5,a5,0x10
    2998:	83c1                	srli	a5,a5,0x10
    299a:	b7fd                	j	2988 <I2C_GenerateSTOP+0xa>

0000299c <I2C_SendData>:
    299c:	00b51823          	sh	a1,16(a0)
    29a0:	8082                	ret

000029a2 <I2C_ReceiveData>:
    29a2:	01055503          	lhu	a0,16(a0)
    29a6:	0ff57513          	andi	a0,a0,255
    29aa:	8082                	ret

000029ac <I2C_Send7bitAddress>:
    29ac:	0fe5f793          	andi	a5,a1,254
    29b0:	c219                	beqz	a2,29b6 <I2C_Send7bitAddress+0xa>
    29b2:	0015e793          	ori	a5,a1,1
    29b6:	07c2                	slli	a5,a5,0x10
    29b8:	83c1                	srli	a5,a5,0x10
    29ba:	00f51823          	sh	a5,16(a0)
    29be:	8082                	ret

000029c0 <I2C_NACKPositionConfig>:
    29c0:	00055703          	lhu	a4,0(a0)
    29c4:	80058593          	addi	a1,a1,-2048
    29c8:	e991                	bnez	a1,29dc <I2C_NACKPositionConfig+0x1c>
    29ca:	6785                	lui	a5,0x1
    29cc:	80078793          	addi	a5,a5,-2048 # 800 <__stack_size>
    29d0:	8fd9                	or	a5,a5,a4
    29d2:	07c2                	slli	a5,a5,0x10
    29d4:	83c1                	srli	a5,a5,0x10
    29d6:	00f51023          	sh	a5,0(a0)
    29da:	8082                	ret
    29dc:	77fd                	lui	a5,0xfffff
    29de:	7ff78793          	addi	a5,a5,2047 # fffff7ff <__freertos_irq_stack_top+0xdfffa7ff>
    29e2:	8ff9                	and	a5,a5,a4
    29e4:	bfcd                	j	29d6 <I2C_NACKPositionConfig+0x16>

000029e6 <I2C_CheckEvent>:
    29e6:	01455783          	lhu	a5,20(a0)
    29ea:	01855503          	lhu	a0,24(a0)
    29ee:	0542                	slli	a0,a0,0x10
    29f0:	8d5d                	or	a0,a0,a5
    29f2:	8d6d                	and	a0,a0,a1
    29f4:	0522                	slli	a0,a0,0x8
    29f6:	8121                	srli	a0,a0,0x8
    29f8:	8d0d                	sub	a0,a0,a1
    29fa:	00153513          	seqz	a0,a0
    29fe:	8082                	ret

00002a00 <I2C_GetFlagStatus>:
    2a00:	1141                	addi	sp,sp,-16
    2a02:	c402                	sw	zero,8(sp)
    2a04:	c602                	sw	zero,12(sp)
    2a06:	01c5d793          	srli	a5,a1,0x1c
    2a0a:	c62a                	sw	a0,12(sp)
    2a0c:	c43e                	sw	a5,8(sp)
    2a0e:	47a2                	lw	a5,8(sp)
    2a10:	05a2                	slli	a1,a1,0x8
    2a12:	81a1                	srli	a1,a1,0x8
    2a14:	cb99                	beqz	a5,2a2a <I2C_GetFlagStatus+0x2a>
    2a16:	47b2                	lw	a5,12(sp)
    2a18:	07d1                	addi	a5,a5,20
    2a1a:	c63e                	sw	a5,12(sp)
    2a1c:	47b2                	lw	a5,12(sp)
    2a1e:	4388                	lw	a0,0(a5)
    2a20:	0141                	addi	sp,sp,16
    2a22:	8d6d                	and	a0,a0,a1
    2a24:	00a03533          	snez	a0,a0
    2a28:	8082                	ret
    2a2a:	47b2                	lw	a5,12(sp)
    2a2c:	81c1                	srli	a1,a1,0x10
    2a2e:	07e1                	addi	a5,a5,24
    2a30:	b7ed                	j	2a1a <I2C_GetFlagStatus+0x1a>

00002a32 <NVIC_PriorityGroupConfig>:
    2a32:	200007b7          	lui	a5,0x20000
    2a36:	12a7a023          	sw	a0,288(a5) # 20000120 <NVIC_Priority_Group>
    2a3a:	8082                	ret

00002a3c <RCC_GetClocksFreq>:
    2a3c:	40021737          	lui	a4,0x40021
    2a40:	435c                	lw	a5,4(a4)
    2a42:	4691                	li	a3,4
    2a44:	8bb1                	andi	a5,a5,12
    2a46:	00d78563          	beq	a5,a3,2a50 <RCC_GetClocksFreq+0x14>
    2a4a:	46a1                	li	a3,8
    2a4c:	06d78663          	beq	a5,a3,2ab8 <RCC_GetClocksFreq+0x7c>
    2a50:	007a17b7          	lui	a5,0x7a1
    2a54:	20078793          	addi	a5,a5,512 # 7a1200 <_data_lma+0x79636c>
    2a58:	c11c                	sw	a5,0(a0)
    2a5a:	40021637          	lui	a2,0x40021
    2a5e:	425c                	lw	a5,4(a2)
    2a60:	20000737          	lui	a4,0x20000
    2a64:	00070713          	mv	a4,a4
    2a68:	8391                	srli	a5,a5,0x4
    2a6a:	8bbd                	andi	a5,a5,15
    2a6c:	97ba                	add	a5,a5,a4
    2a6e:	0007c683          	lbu	a3,0(a5)
    2a72:	411c                	lw	a5,0(a0)
    2a74:	00d7d7b3          	srl	a5,a5,a3
    2a78:	c15c                	sw	a5,4(a0)
    2a7a:	4254                	lw	a3,4(a2)
    2a7c:	82a1                	srli	a3,a3,0x8
    2a7e:	8a9d                	andi	a3,a3,7
    2a80:	96ba                	add	a3,a3,a4
    2a82:	0006c683          	lbu	a3,0(a3) # 4000 <BMP280_GetPressureRawData+0x8>
    2a86:	00d7d6b3          	srl	a3,a5,a3
    2a8a:	c514                	sw	a3,8(a0)
    2a8c:	4254                	lw	a3,4(a2)
    2a8e:	82ad                	srli	a3,a3,0xb
    2a90:	8a9d                	andi	a3,a3,7
    2a92:	9736                	add	a4,a4,a3
    2a94:	00074703          	lbu	a4,0(a4) # 20000000 <_data_vma>
    2a98:	00e7d7b3          	srl	a5,a5,a4
    2a9c:	c55c                	sw	a5,12(a0)
    2a9e:	4258                	lw	a4,4(a2)
    2aa0:	8339                	srli	a4,a4,0xe
    2aa2:	00377693          	andi	a3,a4,3
    2aa6:	80818713          	addi	a4,gp,-2040 # 20000088 <ADCPrescTable>
    2aaa:	9736                	add	a4,a4,a3
    2aac:	00074703          	lbu	a4,0(a4)
    2ab0:	02e7d7b3          	divu	a5,a5,a4
    2ab4:	c91c                	sw	a5,16(a0)
    2ab6:	8082                	ret
    2ab8:	435c                	lw	a5,4(a4)
    2aba:	4358                	lw	a4,4(a4)
    2abc:	66c1                	lui	a3,0x10
    2abe:	83c9                	srli	a5,a5,0x12
    2ac0:	8bbd                	andi	a5,a5,15
    2ac2:	8f75                	and	a4,a4,a3
    2ac4:	0789                	addi	a5,a5,2
    2ac6:	46c5                	li	a3,17
    2ac8:	00d79363          	bne	a5,a3,2ace <RCC_GetClocksFreq+0x92>
    2acc:	47c9                	li	a5,18
    2ace:	ef01                	bnez	a4,2ae6 <RCC_GetClocksFreq+0xaa>
    2ad0:	40024737          	lui	a4,0x40024
    2ad4:	80072703          	lw	a4,-2048(a4) # 40023800 <__freertos_irq_stack_top+0x2001e800>
    2ad8:	8b41                	andi	a4,a4,16
    2ada:	cf09                	beqz	a4,2af4 <RCC_GetClocksFreq+0xb8>
    2adc:	007a1737          	lui	a4,0x7a1
    2ae0:	20070713          	addi	a4,a4,512 # 7a1200 <_data_lma+0x79636c>
    2ae4:	a821                	j	2afc <RCC_GetClocksFreq+0xc0>
    2ae6:	40021737          	lui	a4,0x40021
    2aea:	4358                	lw	a4,4(a4)
    2aec:	00e71693          	slli	a3,a4,0xe
    2af0:	fe06d6e3          	bgez	a3,2adc <RCC_GetClocksFreq+0xa0>
    2af4:	003d1737          	lui	a4,0x3d1
    2af8:	90070713          	addi	a4,a4,-1792 # 3d0900 <_data_lma+0x3c5a6c>
    2afc:	02e787b3          	mul	a5,a5,a4
    2b00:	bfa1                	j	2a58 <RCC_GetClocksFreq+0x1c>

00002b02 <RCC_AHBPeriphClockCmd>:
    2b02:	c599                	beqz	a1,2b10 <RCC_AHBPeriphClockCmd+0xe>
    2b04:	40021737          	lui	a4,0x40021
    2b08:	4b5c                	lw	a5,20(a4)
    2b0a:	8d5d                	or	a0,a0,a5
    2b0c:	cb48                	sw	a0,20(a4)
    2b0e:	8082                	ret
    2b10:	400217b7          	lui	a5,0x40021
    2b14:	4bd8                	lw	a4,20(a5)
    2b16:	fff54513          	not	a0,a0
    2b1a:	8d79                	and	a0,a0,a4
    2b1c:	cbc8                	sw	a0,20(a5)
    2b1e:	8082                	ret

00002b20 <RCC_APB2PeriphClockCmd>:
    2b20:	c599                	beqz	a1,2b2e <RCC_APB2PeriphClockCmd+0xe>
    2b22:	40021737          	lui	a4,0x40021
    2b26:	4f1c                	lw	a5,24(a4)
    2b28:	8d5d                	or	a0,a0,a5
    2b2a:	cf08                	sw	a0,24(a4)
    2b2c:	8082                	ret
    2b2e:	400217b7          	lui	a5,0x40021
    2b32:	4f98                	lw	a4,24(a5)
    2b34:	fff54513          	not	a0,a0
    2b38:	8d79                	and	a0,a0,a4
    2b3a:	cf88                	sw	a0,24(a5)
    2b3c:	8082                	ret

00002b3e <RCC_APB1PeriphClockCmd>:
    2b3e:	c599                	beqz	a1,2b4c <RCC_APB1PeriphClockCmd+0xe>
    2b40:	40021737          	lui	a4,0x40021
    2b44:	4f5c                	lw	a5,28(a4)
    2b46:	8d5d                	or	a0,a0,a5
    2b48:	cf48                	sw	a0,28(a4)
    2b4a:	8082                	ret
    2b4c:	400217b7          	lui	a5,0x40021
    2b50:	4fd8                	lw	a4,28(a5)
    2b52:	fff54513          	not	a0,a0
    2b56:	8d79                	and	a0,a0,a4
    2b58:	cfc8                	sw	a0,28(a5)
    2b5a:	8082                	ret

00002b5c <SPI_Init>:
    2b5c:	00055703          	lhu	a4,0(a0)
    2b60:	678d                	lui	a5,0x3
    2b62:	04078793          	addi	a5,a5,64 # 3040 <USART_Init+0x6a>
    2b66:	0025d683          	lhu	a3,2(a1)
    2b6a:	8f7d                	and	a4,a4,a5
    2b6c:	0005d783          	lhu	a5,0(a1)
    2b70:	8fd5                	or	a5,a5,a3
    2b72:	0045d683          	lhu	a3,4(a1)
    2b76:	8fd5                	or	a5,a5,a3
    2b78:	0065d683          	lhu	a3,6(a1)
    2b7c:	8fd5                	or	a5,a5,a3
    2b7e:	0085d683          	lhu	a3,8(a1)
    2b82:	8fd5                	or	a5,a5,a3
    2b84:	00a5d683          	lhu	a3,10(a1)
    2b88:	8fd5                	or	a5,a5,a3
    2b8a:	00c5d683          	lhu	a3,12(a1)
    2b8e:	8fd5                	or	a5,a5,a3
    2b90:	00e5d683          	lhu	a3,14(a1)
    2b94:	8fd5                	or	a5,a5,a3
    2b96:	8fd9                	or	a5,a5,a4
    2b98:	00f51023          	sh	a5,0(a0)
    2b9c:	01c55703          	lhu	a4,28(a0)
    2ba0:	77fd                	lui	a5,0xfffff
    2ba2:	7ff78793          	addi	a5,a5,2047 # fffff7ff <__freertos_irq_stack_top+0xdfffa7ff>
    2ba6:	8ff9                	and	a5,a5,a4
    2ba8:	00f51e23          	sh	a5,28(a0)
    2bac:	0105d783          	lhu	a5,16(a1)
    2bb0:	00f51823          	sh	a5,16(a0)
    2bb4:	8082                	ret

00002bb6 <SPI_Cmd>:
    2bb6:	00055783          	lhu	a5,0(a0)
    2bba:	c591                	beqz	a1,2bc6 <SPI_Cmd+0x10>
    2bbc:	0407e793          	ori	a5,a5,64
    2bc0:	00f51023          	sh	a5,0(a0)
    2bc4:	8082                	ret
    2bc6:	07c2                	slli	a5,a5,0x10
    2bc8:	83c1                	srli	a5,a5,0x10
    2bca:	fbf7f793          	andi	a5,a5,-65
    2bce:	07c2                	slli	a5,a5,0x10
    2bd0:	83c1                	srli	a5,a5,0x10
    2bd2:	b7fd                	j	2bc0 <SPI_Cmd+0xa>

00002bd4 <SPI_I2S_SendData>:
    2bd4:	00b51623          	sh	a1,12(a0)
    2bd8:	8082                	ret

00002bda <SPI_I2S_ReceiveData>:
    2bda:	00c55503          	lhu	a0,12(a0)
    2bde:	8082                	ret

00002be0 <SPI_I2S_GetFlagStatus>:
    2be0:	00855503          	lhu	a0,8(a0)
    2be4:	8d6d                	and	a0,a0,a1
    2be6:	00a03533          	snez	a0,a0
    2bea:	8082                	ret

00002bec <TIM_TimeBaseInit>:
    2bec:	00055783          	lhu	a5,0(a0)
    2bf0:	40013737          	lui	a4,0x40013
    2bf4:	c0070713          	addi	a4,a4,-1024 # 40012c00 <__freertos_irq_stack_top+0x2000dc00>
    2bf8:	07c2                	slli	a5,a5,0x10
    2bfa:	83c1                	srli	a5,a5,0x10
    2bfc:	02e50463          	beq	a0,a4,2c24 <TIM_TimeBaseInit+0x38>
    2c00:	40000737          	lui	a4,0x40000
    2c04:	02e50063          	beq	a0,a4,2c24 <TIM_TimeBaseInit+0x38>
    2c08:	40070713          	addi	a4,a4,1024 # 40000400 <__freertos_irq_stack_top+0x1fffb400>
    2c0c:	00e50c63          	beq	a0,a4,2c24 <TIM_TimeBaseInit+0x38>
    2c10:	40001737          	lui	a4,0x40001
    2c14:	80070693          	addi	a3,a4,-2048 # 40000800 <__freertos_irq_stack_top+0x1fffb800>
    2c18:	00d50663          	beq	a0,a3,2c24 <TIM_TimeBaseInit+0x38>
    2c1c:	c0070713          	addi	a4,a4,-1024
    2c20:	00e51763          	bne	a0,a4,2c2e <TIM_TimeBaseInit+0x42>
    2c24:	0025d703          	lhu	a4,2(a1)
    2c28:	f8f7f793          	andi	a5,a5,-113
    2c2c:	8fd9                	or	a5,a5,a4
    2c2e:	0065d703          	lhu	a4,6(a1)
    2c32:	cff7f793          	andi	a5,a5,-769
    2c36:	07c2                	slli	a5,a5,0x10
    2c38:	83c1                	srli	a5,a5,0x10
    2c3a:	8fd9                	or	a5,a5,a4
    2c3c:	00f51023          	sh	a5,0(a0)
    2c40:	0045d783          	lhu	a5,4(a1)
    2c44:	02f51623          	sh	a5,44(a0)
    2c48:	0005d783          	lhu	a5,0(a1)
    2c4c:	02f51423          	sh	a5,40(a0)
    2c50:	400137b7          	lui	a5,0x40013
    2c54:	c0078793          	addi	a5,a5,-1024 # 40012c00 <__freertos_irq_stack_top+0x2000dc00>
    2c58:	00f51663          	bne	a0,a5,2c64 <TIM_TimeBaseInit+0x78>
    2c5c:	0085c783          	lbu	a5,8(a1)
    2c60:	02f51823          	sh	a5,48(a0)
    2c64:	4785                	li	a5,1
    2c66:	00f51a23          	sh	a5,20(a0)
    2c6a:	8082                	ret

00002c6c <TIM_OC1Init>:
    2c6c:	02055783          	lhu	a5,32(a0)
    2c70:	0005d603          	lhu	a2,0(a1)
    2c74:	0025d803          	lhu	a6,2(a1)
    2c78:	07c2                	slli	a5,a5,0x10
    2c7a:	83c1                	srli	a5,a5,0x10
    2c7c:	9bf9                	andi	a5,a5,-2
    2c7e:	07c2                	slli	a5,a5,0x10
    2c80:	83c1                	srli	a5,a5,0x10
    2c82:	02f51023          	sh	a5,32(a0)
    2c86:	02055783          	lhu	a5,32(a0)
    2c8a:	00455683          	lhu	a3,4(a0)
    2c8e:	01855703          	lhu	a4,24(a0)
    2c92:	07c2                	slli	a5,a5,0x10
    2c94:	83c1                	srli	a5,a5,0x10
    2c96:	0742                	slli	a4,a4,0x10
    2c98:	8341                	srli	a4,a4,0x10
    2c9a:	f8c77713          	andi	a4,a4,-116
    2c9e:	8f51                	or	a4,a4,a2
    2ca0:	0085d603          	lhu	a2,8(a1)
    2ca4:	9bf5                	andi	a5,a5,-3
    2ca6:	06c2                	slli	a3,a3,0x10
    2ca8:	01066633          	or	a2,a2,a6
    2cac:	8fd1                	or	a5,a5,a2
    2cae:	40013637          	lui	a2,0x40013
    2cb2:	c0060613          	addi	a2,a2,-1024 # 40012c00 <__freertos_irq_stack_top+0x2000dc00>
    2cb6:	82c1                	srli	a3,a3,0x10
    2cb8:	02c51363          	bne	a0,a2,2cde <TIM_OC1Init+0x72>
    2cbc:	00a5d603          	lhu	a2,10(a1)
    2cc0:	9bdd                	andi	a5,a5,-9
    2cc2:	00e5d803          	lhu	a6,14(a1)
    2cc6:	8fd1                	or	a5,a5,a2
    2cc8:	0045d603          	lhu	a2,4(a1)
    2ccc:	9bed                	andi	a5,a5,-5
    2cce:	cff6f693          	andi	a3,a3,-769
    2cd2:	8fd1                	or	a5,a5,a2
    2cd4:	00c5d603          	lhu	a2,12(a1)
    2cd8:	01066633          	or	a2,a2,a6
    2cdc:	8ed1                	or	a3,a3,a2
    2cde:	00d51223          	sh	a3,4(a0)
    2ce2:	00e51c23          	sh	a4,24(a0)
    2ce6:	0065d703          	lhu	a4,6(a1)
    2cea:	02e51a23          	sh	a4,52(a0)
    2cee:	02f51023          	sh	a5,32(a0)
    2cf2:	8082                	ret

00002cf4 <TIM_OC2Init>:
    2cf4:	02055783          	lhu	a5,32(a0)
    2cf8:	7765                	lui	a4,0xffff9
    2cfa:	cff70713          	addi	a4,a4,-769 # ffff8cff <__freertos_irq_stack_top+0xdfff3cff>
    2cfe:	07c2                	slli	a5,a5,0x10
    2d00:	83c1                	srli	a5,a5,0x10
    2d02:	9bbd                	andi	a5,a5,-17
    2d04:	07c2                	slli	a5,a5,0x10
    2d06:	83c1                	srli	a5,a5,0x10
    2d08:	02f51023          	sh	a5,32(a0)
    2d0c:	02055783          	lhu	a5,32(a0)
    2d10:	00455683          	lhu	a3,4(a0)
    2d14:	0085d803          	lhu	a6,8(a1)
    2d18:	07c2                	slli	a5,a5,0x10
    2d1a:	01069613          	slli	a2,a3,0x10
    2d1e:	01855683          	lhu	a3,24(a0)
    2d22:	83c1                	srli	a5,a5,0x10
    2d24:	fdf7f793          	andi	a5,a5,-33
    2d28:	8f75                	and	a4,a4,a3
    2d2a:	0005d683          	lhu	a3,0(a1)
    2d2e:	8241                	srli	a2,a2,0x10
    2d30:	06a2                	slli	a3,a3,0x8
    2d32:	8f55                	or	a4,a4,a3
    2d34:	0025d683          	lhu	a3,2(a1)
    2d38:	0742                	slli	a4,a4,0x10
    2d3a:	8341                	srli	a4,a4,0x10
    2d3c:	0106e6b3          	or	a3,a3,a6
    2d40:	0692                	slli	a3,a3,0x4
    2d42:	8fd5                	or	a5,a5,a3
    2d44:	400136b7          	lui	a3,0x40013
    2d48:	07c2                	slli	a5,a5,0x10
    2d4a:	c0068693          	addi	a3,a3,-1024 # 40012c00 <__freertos_irq_stack_top+0x2000dc00>
    2d4e:	83c1                	srli	a5,a5,0x10
    2d50:	04d51163          	bne	a0,a3,2d92 <TIM_OC2Init+0x9e>
    2d54:	00a5d683          	lhu	a3,10(a1)
    2d58:	f7f7f793          	andi	a5,a5,-129
    2d5c:	00c5d803          	lhu	a6,12(a1)
    2d60:	0692                	slli	a3,a3,0x4
    2d62:	8fd5                	or	a5,a5,a3
    2d64:	0045d683          	lhu	a3,4(a1)
    2d68:	07c2                	slli	a5,a5,0x10
    2d6a:	83c1                	srli	a5,a5,0x10
    2d6c:	0692                	slli	a3,a3,0x4
    2d6e:	fbf7f793          	andi	a5,a5,-65
    2d72:	8fd5                	or	a5,a5,a3
    2d74:	76fd                	lui	a3,0xfffff
    2d76:	3ff68693          	addi	a3,a3,1023 # fffff3ff <__freertos_irq_stack_top+0xdfffa3ff>
    2d7a:	8ef1                	and	a3,a3,a2
    2d7c:	00e5d603          	lhu	a2,14(a1)
    2d80:	07c2                	slli	a5,a5,0x10
    2d82:	83c1                	srli	a5,a5,0x10
    2d84:	01066633          	or	a2,a2,a6
    2d88:	060a                	slli	a2,a2,0x2
    2d8a:	8ed1                	or	a3,a3,a2
    2d8c:	01069613          	slli	a2,a3,0x10
    2d90:	8241                	srli	a2,a2,0x10
    2d92:	00c51223          	sh	a2,4(a0)
    2d96:	00e51c23          	sh	a4,24(a0)
    2d9a:	0065d703          	lhu	a4,6(a1)
    2d9e:	02e51c23          	sh	a4,56(a0)
    2da2:	02f51023          	sh	a5,32(a0)
    2da6:	8082                	ret

00002da8 <TIM_OC3Init>:
    2da8:	02055783          	lhu	a5,32(a0)
    2dac:	0085d803          	lhu	a6,8(a1)
    2db0:	07c2                	slli	a5,a5,0x10
    2db2:	83c1                	srli	a5,a5,0x10
    2db4:	eff7f793          	andi	a5,a5,-257
    2db8:	07c2                	slli	a5,a5,0x10
    2dba:	83c1                	srli	a5,a5,0x10
    2dbc:	02f51023          	sh	a5,32(a0)
    2dc0:	02055783          	lhu	a5,32(a0)
    2dc4:	00455683          	lhu	a3,4(a0)
    2dc8:	01c55703          	lhu	a4,28(a0)
    2dcc:	07c2                	slli	a5,a5,0x10
    2dce:	01069613          	slli	a2,a3,0x10
    2dd2:	0742                	slli	a4,a4,0x10
    2dd4:	0005d683          	lhu	a3,0(a1)
    2dd8:	8341                	srli	a4,a4,0x10
    2dda:	f8c77713          	andi	a4,a4,-116
    2dde:	8f55                	or	a4,a4,a3
    2de0:	0025d683          	lhu	a3,2(a1)
    2de4:	83c1                	srli	a5,a5,0x10
    2de6:	dff7f793          	andi	a5,a5,-513
    2dea:	0106e6b3          	or	a3,a3,a6
    2dee:	06a2                	slli	a3,a3,0x8
    2df0:	8fd5                	or	a5,a5,a3
    2df2:	400136b7          	lui	a3,0x40013
    2df6:	07c2                	slli	a5,a5,0x10
    2df8:	c0068693          	addi	a3,a3,-1024 # 40012c00 <__freertos_irq_stack_top+0x2000dc00>
    2dfc:	8241                	srli	a2,a2,0x10
    2dfe:	83c1                	srli	a5,a5,0x10
    2e00:	04d51263          	bne	a0,a3,2e44 <TIM_OC3Init+0x9c>
    2e04:	76fd                	lui	a3,0xfffff
    2e06:	7ff68693          	addi	a3,a3,2047 # fffff7ff <__freertos_irq_stack_top+0xdfffa7ff>
    2e0a:	8ff5                	and	a5,a5,a3
    2e0c:	00a5d683          	lhu	a3,10(a1)
    2e10:	00c5d803          	lhu	a6,12(a1)
    2e14:	06a2                	slli	a3,a3,0x8
    2e16:	8fd5                	or	a5,a5,a3
    2e18:	0045d683          	lhu	a3,4(a1)
    2e1c:	07c2                	slli	a5,a5,0x10
    2e1e:	83c1                	srli	a5,a5,0x10
    2e20:	06a2                	slli	a3,a3,0x8
    2e22:	bff7f793          	andi	a5,a5,-1025
    2e26:	8fd5                	or	a5,a5,a3
    2e28:	76f5                	lui	a3,0xffffd
    2e2a:	16fd                	addi	a3,a3,-1
    2e2c:	8ef1                	and	a3,a3,a2
    2e2e:	00e5d603          	lhu	a2,14(a1)
    2e32:	07c2                	slli	a5,a5,0x10
    2e34:	83c1                	srli	a5,a5,0x10
    2e36:	01066633          	or	a2,a2,a6
    2e3a:	0612                	slli	a2,a2,0x4
    2e3c:	8ed1                	or	a3,a3,a2
    2e3e:	01069613          	slli	a2,a3,0x10
    2e42:	8241                	srli	a2,a2,0x10
    2e44:	00c51223          	sh	a2,4(a0)
    2e48:	00e51e23          	sh	a4,28(a0)
    2e4c:	0065d703          	lhu	a4,6(a1)
    2e50:	02e51e23          	sh	a4,60(a0)
    2e54:	02f51023          	sh	a5,32(a0)
    2e58:	8082                	ret

00002e5a <TIM_OC4Init>:
    2e5a:	02055703          	lhu	a4,32(a0)
    2e5e:	77fd                	lui	a5,0xfffff
    2e60:	17fd                	addi	a5,a5,-1
    2e62:	8ff9                	and	a5,a5,a4
    2e64:	02f51023          	sh	a5,32(a0)
    2e68:	02055803          	lhu	a6,32(a0)
    2e6c:	00455683          	lhu	a3,4(a0)
    2e70:	01c55783          	lhu	a5,28(a0)
    2e74:	7765                	lui	a4,0xffff9
    2e76:	0005d603          	lhu	a2,0(a1)
    2e7a:	cff70713          	addi	a4,a4,-769 # ffff8cff <__freertos_irq_stack_top+0xdfff3cff>
    2e7e:	8f7d                	and	a4,a4,a5
    2e80:	77f9                	lui	a5,0xffffe
    2e82:	0622                	slli	a2,a2,0x8
    2e84:	17fd                	addi	a5,a5,-1
    2e86:	8f51                	or	a4,a4,a2
    2e88:	0107f7b3          	and	a5,a5,a6
    2e8c:	0025d603          	lhu	a2,2(a1)
    2e90:	0085d803          	lhu	a6,8(a1)
    2e94:	06c2                	slli	a3,a3,0x10
    2e96:	0742                	slli	a4,a4,0x10
    2e98:	01066633          	or	a2,a2,a6
    2e9c:	0632                	slli	a2,a2,0xc
    2e9e:	8fd1                	or	a5,a5,a2
    2ea0:	40013637          	lui	a2,0x40013
    2ea4:	07c2                	slli	a5,a5,0x10
    2ea6:	c0060613          	addi	a2,a2,-1024 # 40012c00 <__freertos_irq_stack_top+0x2000dc00>
    2eaa:	82c1                	srli	a3,a3,0x10
    2eac:	8341                	srli	a4,a4,0x10
    2eae:	83c1                	srli	a5,a5,0x10
    2eb0:	00c51b63          	bne	a0,a2,2ec6 <TIM_OC4Init+0x6c>
    2eb4:	7671                	lui	a2,0xffffc
    2eb6:	167d                	addi	a2,a2,-1
    2eb8:	8ef1                	and	a3,a3,a2
    2eba:	00c5d603          	lhu	a2,12(a1)
    2ebe:	061a                	slli	a2,a2,0x6
    2ec0:	8ed1                	or	a3,a3,a2
    2ec2:	06c2                	slli	a3,a3,0x10
    2ec4:	82c1                	srli	a3,a3,0x10
    2ec6:	00d51223          	sh	a3,4(a0)
    2eca:	00e51e23          	sh	a4,28(a0)
    2ece:	0065d703          	lhu	a4,6(a1)
    2ed2:	04e51023          	sh	a4,64(a0)
    2ed6:	02f51023          	sh	a5,32(a0)
    2eda:	8082                	ret

00002edc <TIM_Cmd>:
    2edc:	00055783          	lhu	a5,0(a0)
    2ee0:	c591                	beqz	a1,2eec <TIM_Cmd+0x10>
    2ee2:	0017e793          	ori	a5,a5,1
    2ee6:	00f51023          	sh	a5,0(a0)
    2eea:	8082                	ret
    2eec:	07c2                	slli	a5,a5,0x10
    2eee:	83c1                	srli	a5,a5,0x10
    2ef0:	9bf9                	andi	a5,a5,-2
    2ef2:	07c2                	slli	a5,a5,0x10
    2ef4:	83c1                	srli	a5,a5,0x10
    2ef6:	bfc5                	j	2ee6 <TIM_Cmd+0xa>

00002ef8 <TIM_CtrlPWMOutputs>:
    2ef8:	04455783          	lhu	a5,68(a0)
    2efc:	c591                	beqz	a1,2f08 <TIM_CtrlPWMOutputs+0x10>
    2efe:	6721                	lui	a4,0x8
    2f00:	8fd9                	or	a5,a5,a4
    2f02:	04f51223          	sh	a5,68(a0)
    2f06:	8082                	ret
    2f08:	07c6                	slli	a5,a5,0x11
    2f0a:	83c5                	srli	a5,a5,0x11
    2f0c:	bfdd                	j	2f02 <TIM_CtrlPWMOutputs+0xa>

00002f0e <TIM_ARRPreloadConfig>:
    2f0e:	00055783          	lhu	a5,0(a0)
    2f12:	c591                	beqz	a1,2f1e <TIM_ARRPreloadConfig+0x10>
    2f14:	0807e793          	ori	a5,a5,128
    2f18:	00f51023          	sh	a5,0(a0)
    2f1c:	8082                	ret
    2f1e:	07c2                	slli	a5,a5,0x10
    2f20:	83c1                	srli	a5,a5,0x10
    2f22:	f7f7f793          	andi	a5,a5,-129
    2f26:	07c2                	slli	a5,a5,0x10
    2f28:	83c1                	srli	a5,a5,0x10
    2f2a:	b7fd                	j	2f18 <TIM_ARRPreloadConfig+0xa>

00002f2c <TIM_OC1PreloadConfig>:
    2f2c:	01855783          	lhu	a5,24(a0)
    2f30:	07c2                	slli	a5,a5,0x10
    2f32:	83c1                	srli	a5,a5,0x10
    2f34:	9bdd                	andi	a5,a5,-9
    2f36:	8ddd                	or	a1,a1,a5
    2f38:	00b51c23          	sh	a1,24(a0)
    2f3c:	8082                	ret

00002f3e <TIM_OC2PreloadConfig>:
    2f3e:	01855703          	lhu	a4,24(a0)
    2f42:	77fd                	lui	a5,0xfffff
    2f44:	7ff78793          	addi	a5,a5,2047 # fffff7ff <__freertos_irq_stack_top+0xdfffa7ff>
    2f48:	8ff9                	and	a5,a5,a4
    2f4a:	05a2                	slli	a1,a1,0x8
    2f4c:	8fcd                	or	a5,a5,a1
    2f4e:	07c2                	slli	a5,a5,0x10
    2f50:	83c1                	srli	a5,a5,0x10
    2f52:	00f51c23          	sh	a5,24(a0)
    2f56:	8082                	ret

00002f58 <TIM_OC3PreloadConfig>:
    2f58:	01c55783          	lhu	a5,28(a0)
    2f5c:	07c2                	slli	a5,a5,0x10
    2f5e:	83c1                	srli	a5,a5,0x10
    2f60:	9bdd                	andi	a5,a5,-9
    2f62:	8ddd                	or	a1,a1,a5
    2f64:	00b51e23          	sh	a1,28(a0)
    2f68:	8082                	ret

00002f6a <TIM_OC4PreloadConfig>:
    2f6a:	01c55703          	lhu	a4,28(a0)
    2f6e:	77fd                	lui	a5,0xfffff
    2f70:	7ff78793          	addi	a5,a5,2047 # fffff7ff <__freertos_irq_stack_top+0xdfffa7ff>
    2f74:	8ff9                	and	a5,a5,a4
    2f76:	05a2                	slli	a1,a1,0x8
    2f78:	8fcd                	or	a5,a5,a1
    2f7a:	07c2                	slli	a5,a5,0x10
    2f7c:	83c1                	srli	a5,a5,0x10
    2f7e:	00f51e23          	sh	a5,28(a0)
    2f82:	8082                	ret

00002f84 <TIM_UpdateDisableConfig>:
    2f84:	00055783          	lhu	a5,0(a0)
    2f88:	c591                	beqz	a1,2f94 <TIM_UpdateDisableConfig+0x10>
    2f8a:	0027e793          	ori	a5,a5,2
    2f8e:	00f51023          	sh	a5,0(a0)
    2f92:	8082                	ret
    2f94:	07c2                	slli	a5,a5,0x10
    2f96:	83c1                	srli	a5,a5,0x10
    2f98:	9bf5                	andi	a5,a5,-3
    2f9a:	07c2                	slli	a5,a5,0x10
    2f9c:	83c1                	srli	a5,a5,0x10
    2f9e:	bfc5                	j	2f8e <TIM_UpdateDisableConfig+0xa>

00002fa0 <TIM_UpdateRequestConfig>:
    2fa0:	00055783          	lhu	a5,0(a0)
    2fa4:	c591                	beqz	a1,2fb0 <TIM_UpdateRequestConfig+0x10>
    2fa6:	0047e793          	ori	a5,a5,4
    2faa:	00f51023          	sh	a5,0(a0)
    2fae:	8082                	ret
    2fb0:	07c2                	slli	a5,a5,0x10
    2fb2:	83c1                	srli	a5,a5,0x10
    2fb4:	9bed                	andi	a5,a5,-5
    2fb6:	07c2                	slli	a5,a5,0x10
    2fb8:	83c1                	srli	a5,a5,0x10
    2fba:	bfc5                	j	2faa <TIM_UpdateRequestConfig+0xa>

00002fbc <TIM_SetCounter>:
    2fbc:	02b51223          	sh	a1,36(a0)
    2fc0:	8082                	ret

00002fc2 <TIM_GetCounter>:
    2fc2:	02455503          	lhu	a0,36(a0)
    2fc6:	8082                	ret

00002fc8 <TIM_ClearFlag>:
    2fc8:	fff5c593          	not	a1,a1
    2fcc:	05c2                	slli	a1,a1,0x10
    2fce:	81c1                	srli	a1,a1,0x10
    2fd0:	00b51823          	sh	a1,16(a0)
    2fd4:	8082                	ret

00002fd6 <USART_Init>:
    2fd6:	d48fd2ef          	jal	t0,51e <__riscv_save_0>
    2fda:	01055683          	lhu	a3,16(a0)
    2fde:	77f5                	lui	a5,0xffffd
    2fe0:	17fd                	addi	a5,a5,-1
    2fe2:	8ff5                	and	a5,a5,a3
    2fe4:	0065d683          	lhu	a3,6(a1)
    2fe8:	00c5d703          	lhu	a4,12(a1)
    2fec:	7179                	addi	sp,sp,-48
    2fee:	8fd5                	or	a5,a5,a3
    2ff0:	00f51823          	sh	a5,16(a0)
    2ff4:	00c55683          	lhu	a3,12(a0)
    2ff8:	77fd                	lui	a5,0xfffff
    2ffa:	9f378793          	addi	a5,a5,-1549 # ffffe9f3 <__freertos_irq_stack_top+0xdfff99f3>
    2ffe:	8ff5                	and	a5,a5,a3
    3000:	0045d683          	lhu	a3,4(a1)
    3004:	842a                	mv	s0,a0
    3006:	c62e                	sw	a1,12(sp)
    3008:	8fd5                	or	a5,a5,a3
    300a:	0085d683          	lhu	a3,8(a1)
    300e:	8fd5                	or	a5,a5,a3
    3010:	00a5d683          	lhu	a3,10(a1)
    3014:	8fd5                	or	a5,a5,a3
    3016:	00f51623          	sh	a5,12(a0)
    301a:	01455783          	lhu	a5,20(a0)
    301e:	07c2                	slli	a5,a5,0x10
    3020:	83c1                	srli	a5,a5,0x10
    3022:	cff7f793          	andi	a5,a5,-769
    3026:	8fd9                	or	a5,a5,a4
    3028:	00f51a23          	sh	a5,20(a0)
    302c:	0868                	addi	a0,sp,28
    302e:	a0fff0ef          	jal	ra,2a3c <RCC_GetClocksFreq>
    3032:	400147b7          	lui	a5,0x40014
    3036:	80078793          	addi	a5,a5,-2048 # 40013800 <__freertos_irq_stack_top+0x2000e800>
    303a:	45b2                	lw	a1,12(sp)
    303c:	04f41d63          	bne	s0,a5,3096 <USART_Init+0xc0>
    3040:	57a2                	lw	a5,40(sp)
    3042:	00c45683          	lhu	a3,12(s0)
    3046:	4765                	li	a4,25
    3048:	02e787b3          	mul	a5,a5,a4
    304c:	06c2                	slli	a3,a3,0x10
    304e:	86c1                	srai	a3,a3,0x10
    3050:	4198                	lw	a4,0(a1)
    3052:	0406d463          	bgez	a3,309a <USART_Init+0xc4>
    3056:	0706                	slli	a4,a4,0x1
    3058:	00c45603          	lhu	a2,12(s0)
    305c:	0642                	slli	a2,a2,0x10
    305e:	02e7d7b3          	divu	a5,a5,a4
    3062:	06400713          	li	a4,100
    3066:	8641                	srai	a2,a2,0x10
    3068:	02e7d6b3          	divu	a3,a5,a4
    306c:	02e7f7b3          	remu	a5,a5,a4
    3070:	0692                	slli	a3,a3,0x4
    3072:	02065663          	bgez	a2,309e <USART_Init+0xc8>
    3076:	078e                	slli	a5,a5,0x3
    3078:	03278793          	addi	a5,a5,50
    307c:	02e7d7b3          	divu	a5,a5,a4
    3080:	0077f713          	andi	a4,a5,7
    3084:	00d767b3          	or	a5,a4,a3
    3088:	07c2                	slli	a5,a5,0x10
    308a:	83c1                	srli	a5,a5,0x10
    308c:	00f41423          	sh	a5,8(s0)
    3090:	6145                	addi	sp,sp,48
    3092:	cb0fd06f          	j	542 <__riscv_restore_0>
    3096:	5792                	lw	a5,36(sp)
    3098:	b76d                	j	3042 <USART_Init+0x6c>
    309a:	070a                	slli	a4,a4,0x2
    309c:	bf75                	j	3058 <USART_Init+0x82>
    309e:	0792                	slli	a5,a5,0x4
    30a0:	03278793          	addi	a5,a5,50
    30a4:	02e7d7b3          	divu	a5,a5,a4
    30a8:	8bbd                	andi	a5,a5,15
    30aa:	8fd5                	or	a5,a5,a3
    30ac:	bff1                	j	3088 <USART_Init+0xb2>

000030ae <USART_Cmd>:
    30ae:	c981                	beqz	a1,30be <USART_Cmd+0x10>
    30b0:	00c55783          	lhu	a5,12(a0)
    30b4:	6709                	lui	a4,0x2
    30b6:	8fd9                	or	a5,a5,a4
    30b8:	00f51623          	sh	a5,12(a0)
    30bc:	8082                	ret
    30be:	00c55703          	lhu	a4,12(a0)
    30c2:	77f9                	lui	a5,0xffffe
    30c4:	17fd                	addi	a5,a5,-1
    30c6:	8ff9                	and	a5,a5,a4
    30c8:	bfc5                	j	30b8 <USART_Cmd+0xa>

000030ca <USART_SendData>:
    30ca:	1ff5f593          	andi	a1,a1,511
    30ce:	00b51223          	sh	a1,4(a0)
    30d2:	8082                	ret

000030d4 <USART_GetFlagStatus>:
    30d4:	00055503          	lhu	a0,0(a0)
    30d8:	8d6d                	and	a0,a0,a1
    30da:	00a03533          	snez	a0,a0
    30de:	8082                	ret

000030e0 <USART_GetITStatus>:
    30e0:	0ff5f713          	andi	a4,a1,255
    30e4:	4685                	li	a3,1
    30e6:	8315                	srli	a4,a4,0x5
    30e8:	00b697b3          	sll	a5,a3,a1
    30ec:	02d71363          	bne	a4,a3,3112 <USART_GetITStatus+0x32>
    30f0:	00c55703          	lhu	a4,12(a0)
    30f4:	8ff9                	and	a5,a5,a4
    30f6:	00055703          	lhu	a4,0(a0)
    30fa:	4501                	li	a0,0
    30fc:	0742                	slli	a4,a4,0x10
    30fe:	8341                	srli	a4,a4,0x10
    3100:	cb81                	beqz	a5,3110 <USART_GetITStatus+0x30>
    3102:	4505                	li	a0,1
    3104:	81a1                	srli	a1,a1,0x8
    3106:	00b515b3          	sll	a1,a0,a1
    310a:	8f6d                	and	a4,a4,a1
    310c:	00e03533          	snez	a0,a4
    3110:	8082                	ret
    3112:	4689                	li	a3,2
    3114:	00d71563          	bne	a4,a3,311e <USART_GetITStatus+0x3e>
    3118:	01055703          	lhu	a4,16(a0)
    311c:	bfe1                	j	30f4 <USART_GetITStatus+0x14>
    311e:	01455703          	lhu	a4,20(a0)
    3122:	bfc9                	j	30f4 <USART_GetITStatus+0x14>

00003124 <USART_Printf_Init>:
    3124:	bfafd2ef          	jal	t0,51e <__riscv_save_0>
    3128:	842a                	mv	s0,a0
    312a:	6511                	lui	a0,0x4
    312c:	1101                	addi	sp,sp,-32
    312e:	4585                	li	a1,1
    3130:	0511                	addi	a0,a0,4
    3132:	9efff0ef          	jal	ra,2b20 <RCC_APB2PeriphClockCmd>
    3136:	20000793          	li	a5,512
    313a:	00f11223          	sh	a5,4(sp)
    313e:	40011537          	lui	a0,0x40011
    3142:	478d                	li	a5,3
    3144:	c43e                	sw	a5,8(sp)
    3146:	004c                	addi	a1,sp,4
    3148:	47e1                	li	a5,24
    314a:	80050513          	addi	a0,a0,-2048 # 40010800 <__freertos_irq_stack_top+0x2000b800>
    314e:	c63e                	sw	a5,12(sp)
    3150:	db0ff0ef          	jal	ra,2700 <GPIO_Init>
    3154:	c822                	sw	s0,16(sp)
    3156:	40014437          	lui	s0,0x40014
    315a:	000807b7          	lui	a5,0x80
    315e:	080c                	addi	a1,sp,16
    3160:	80040513          	addi	a0,s0,-2048 # 40013800 <__freertos_irq_stack_top+0x2000e800>
    3164:	cc3e                	sw	a5,24(sp)
    3166:	ca02                	sw	zero,20(sp)
    3168:	00011e23          	sh	zero,28(sp)
    316c:	e6bff0ef          	jal	ra,2fd6 <USART_Init>
    3170:	4585                	li	a1,1
    3172:	80040513          	addi	a0,s0,-2048
    3176:	3f25                	jal	30ae <USART_Cmd>
    3178:	6105                	addi	sp,sp,32
    317a:	bc8fd06f          	j	542 <__riscv_restore_0>

0000317e <_write>:
    317e:	b86fd2ef          	jal	t0,504 <__riscv_save_4>
    3182:	400144b7          	lui	s1,0x40014
    3186:	89ae                	mv	s3,a1
    3188:	8932                	mv	s2,a2
    318a:	4401                	li	s0,0
    318c:	80048493          	addi	s1,s1,-2048 # 40013800 <__freertos_irq_stack_top+0x2000e800>
    3190:	01244563          	blt	s0,s2,319a <_write+0x1c>
    3194:	854a                	mv	a0,s2
    3196:	ba2fd06f          	j	538 <__riscv_restore_4>
    319a:	04000593          	li	a1,64
    319e:	8526                	mv	a0,s1
    31a0:	f35ff0ef          	jal	ra,30d4 <USART_GetFlagStatus>
    31a4:	d97d                	beqz	a0,319a <_write+0x1c>
    31a6:	008987b3          	add	a5,s3,s0
    31aa:	00078583          	lb	a1,0(a5) # 80000 <_data_lma+0x7516c>
    31ae:	8526                	mv	a0,s1
    31b0:	0405                	addi	s0,s0,1
    31b2:	05c2                	slli	a1,a1,0x10
    31b4:	81c1                	srli	a1,a1,0x10
    31b6:	f15ff0ef          	jal	ra,30ca <USART_SendData>
    31ba:	bfd9                	j	3190 <_write+0x12>

000031bc <_sbrk>:
    31bc:	80c18713          	addi	a4,gp,-2036 # 2000008c <curbrk.4666>
    31c0:	431c                	lw	a5,0(a4)
    31c2:	200036b7          	lui	a3,0x20003
    31c6:	36468693          	addi	a3,a3,868 # 20003364 <_ebss>
    31ca:	953e                	add	a0,a0,a5
    31cc:	00d56b63          	bltu	a0,a3,31e2 <_sbrk+0x26>
    31d0:	200056b7          	lui	a3,0x20005
    31d4:	80068693          	addi	a3,a3,-2048 # 20004800 <_heap_end>
    31d8:	00a6e563          	bltu	a3,a0,31e2 <_sbrk+0x26>
    31dc:	c308                	sw	a0,0(a4)
    31de:	853e                	mv	a0,a5
    31e0:	8082                	ret
    31e2:	57fd                	li	a5,-1
    31e4:	bfed                	j	31de <_sbrk+0x22>

000031e6 <MCAL_Config_ConfigAllPins>:
    31e6:	b08fd2ef          	jal	t0,4ee <__riscv_save_12>
    31ea:	7119                	addi	sp,sp,-128
    31ec:	4581                	li	a1,0
    31ee:	4505                	li	a0,1
    31f0:	913ff0ef          	jal	ra,2b02 <RCC_AHBPeriphClockCmd>
    31f4:	4581                	li	a1,0
    31f6:	4509                	li	a0,2
    31f8:	90bff0ef          	jal	ra,2b02 <RCC_AHBPeriphClockCmd>
    31fc:	4581                	li	a1,0
    31fe:	4511                	li	a0,4
    3200:	903ff0ef          	jal	ra,2b02 <RCC_AHBPeriphClockCmd>
    3204:	4581                	li	a1,0
    3206:	04000513          	li	a0,64
    320a:	8f9ff0ef          	jal	ra,2b02 <RCC_AHBPeriphClockCmd>
    320e:	4581                	li	a1,0
    3210:	6505                	lui	a0,0x1
    3212:	8f1ff0ef          	jal	ra,2b02 <RCC_AHBPeriphClockCmd>
    3216:	4581                	li	a1,0
    3218:	4505                	li	a0,1
    321a:	907ff0ef          	jal	ra,2b20 <RCC_APB2PeriphClockCmd>
    321e:	4585                	li	a1,1
    3220:	4511                	li	a0,4
    3222:	8ffff0ef          	jal	ra,2b20 <RCC_APB2PeriphClockCmd>
    3226:	4585                	li	a1,1
    3228:	4521                	li	a0,8
    322a:	8f7ff0ef          	jal	ra,2b20 <RCC_APB2PeriphClockCmd>
    322e:	4585                	li	a1,1
    3230:	4541                	li	a0,16
    3232:	8efff0ef          	jal	ra,2b20 <RCC_APB2PeriphClockCmd>
    3236:	4581                	li	a1,0
    3238:	20000513          	li	a0,512
    323c:	8e5ff0ef          	jal	ra,2b20 <RCC_APB2PeriphClockCmd>
    3240:	4581                	li	a1,0
    3242:	40000513          	li	a0,1024
    3246:	8dbff0ef          	jal	ra,2b20 <RCC_APB2PeriphClockCmd>
    324a:	6985                	lui	s3,0x1
    324c:	80098513          	addi	a0,s3,-2048 # 800 <__stack_size>
    3250:	4581                	li	a1,0
    3252:	8cfff0ef          	jal	ra,2b20 <RCC_APB2PeriphClockCmd>
    3256:	4585                	li	a1,1
    3258:	6505                	lui	a0,0x1
    325a:	8c7ff0ef          	jal	ra,2b20 <RCC_APB2PeriphClockCmd>
    325e:	4581                	li	a1,0
    3260:	6509                	lui	a0,0x2
    3262:	8bfff0ef          	jal	ra,2b20 <RCC_APB2PeriphClockCmd>
    3266:	4581                	li	a1,0
    3268:	6511                	lui	a0,0x4
    326a:	8b7ff0ef          	jal	ra,2b20 <RCC_APB2PeriphClockCmd>
    326e:	4585                	li	a1,1
    3270:	4505                	li	a0,1
    3272:	8cdff0ef          	jal	ra,2b3e <RCC_APB1PeriphClockCmd>
    3276:	4581                	li	a1,0
    3278:	4509                	li	a0,2
    327a:	8c5ff0ef          	jal	ra,2b3e <RCC_APB1PeriphClockCmd>
    327e:	4585                	li	a1,1
    3280:	4511                	li	a0,4
    3282:	8bdff0ef          	jal	ra,2b3e <RCC_APB1PeriphClockCmd>
    3286:	4581                	li	a1,0
    3288:	4521                	li	a0,8
    328a:	8b5ff0ef          	jal	ra,2b3e <RCC_APB1PeriphClockCmd>
    328e:	80098513          	addi	a0,s3,-2048
    3292:	4581                	li	a1,0
    3294:	8abff0ef          	jal	ra,2b3e <RCC_APB1PeriphClockCmd>
    3298:	4581                	li	a1,0
    329a:	6511                	lui	a0,0x4
    329c:	8a3ff0ef          	jal	ra,2b3e <RCC_APB1PeriphClockCmd>
    32a0:	4581                	li	a1,0
    32a2:	00020537          	lui	a0,0x20
    32a6:	899ff0ef          	jal	ra,2b3e <RCC_APB1PeriphClockCmd>
    32aa:	4581                	li	a1,0
    32ac:	00040537          	lui	a0,0x40
    32b0:	88fff0ef          	jal	ra,2b3e <RCC_APB1PeriphClockCmd>
    32b4:	4585                	li	a1,1
    32b6:	00080537          	lui	a0,0x80
    32ba:	885ff0ef          	jal	ra,2b3e <RCC_APB1PeriphClockCmd>
    32be:	4581                	li	a1,0
    32c0:	00200537          	lui	a0,0x200
    32c4:	87bff0ef          	jal	ra,2b3e <RCC_APB1PeriphClockCmd>
    32c8:	4585                	li	a1,1
    32ca:	00400537          	lui	a0,0x400
    32ce:	871ff0ef          	jal	ra,2b3e <RCC_APB1PeriphClockCmd>
    32d2:	4581                	li	a1,0
    32d4:	00800537          	lui	a0,0x800
    32d8:	867ff0ef          	jal	ra,2b3e <RCC_APB1PeriphClockCmd>
    32dc:	4581                	li	a1,0
    32de:	02000537          	lui	a0,0x2000
    32e2:	85dff0ef          	jal	ra,2b3e <RCC_APB1PeriphClockCmd>
    32e6:	4581                	li	a1,0
    32e8:	08000537          	lui	a0,0x8000
    32ec:	853ff0ef          	jal	ra,2b3e <RCC_APB1PeriphClockCmd>
    32f0:	4581                	li	a1,0
    32f2:	10000537          	lui	a0,0x10000
    32f6:	849ff0ef          	jal	ra,2b3e <RCC_APB1PeriphClockCmd>
    32fa:	65a9                	lui	a1,0xa
    32fc:	4631                	li	a2,12
    32fe:	5f458593          	addi	a1,a1,1524 # a5f4 <_read+0x10>
    3302:	00c8                	addi	a0,sp,68
    3304:	40011437          	lui	s0,0x40011
    3308:	799050ef          	jal	ra,92a0 <memcpy>
    330c:	04800c93          	li	s9,72
    3310:	00cc                	addi	a1,sp,68
    3312:	80040513          	addi	a0,s0,-2048 # 40010800 <__freertos_irq_stack_top+0x2000b800>
    3316:	c6e6                	sw	s9,76(sp)
    3318:	be8ff0ef          	jal	ra,2700 <GPIO_Init>
    331c:	44e1                	li	s1,24
    331e:	4b09                	li	s6,2
    3320:	00cc                	addi	a1,sp,68
    3322:	80040513          	addi	a0,s0,-2048
    3326:	c6a6                	sw	s1,76(sp)
    3328:	05611223          	sh	s6,68(sp)
    332c:	bd4ff0ef          	jal	ra,2700 <GPIO_Init>
    3330:	4791                	li	a5,4
    3332:	00cc                	addi	a1,sp,68
    3334:	80040513          	addi	a0,s0,-2048
    3338:	04f11223          	sh	a5,68(sp)
    333c:	c6a6                	sw	s1,76(sp)
    333e:	bc2ff0ef          	jal	ra,2700 <GPIO_Init>
    3342:	48a1                	li	a7,8
    3344:	00cc                	addi	a1,sp,68
    3346:	80040513          	addi	a0,s0,-2048
    334a:	05111223          	sh	a7,68(sp)
    334e:	ce46                	sw	a7,28(sp)
    3350:	c6a6                	sw	s1,76(sp)
    3352:	baeff0ef          	jal	ra,2700 <GPIO_Init>
    3356:	4841                	li	a6,16
    3358:	00cc                	addi	a1,sp,68
    335a:	80040513          	addi	a0,s0,-2048
    335e:	05011223          	sh	a6,68(sp)
    3362:	cc42                	sw	a6,24(sp)
    3364:	c682                	sw	zero,76(sp)
    3366:	b9aff0ef          	jal	ra,2700 <GPIO_Init>
    336a:	02000613          	li	a2,32
    336e:	00cc                	addi	a1,sp,68
    3370:	80040513          	addi	a0,s0,-2048
    3374:	04c11223          	sh	a2,68(sp)
    3378:	ca32                	sw	a2,20(sp)
    337a:	c6a6                	sw	s1,76(sp)
    337c:	b84ff0ef          	jal	ra,2700 <GPIO_Init>
    3380:	04000693          	li	a3,64
    3384:	4911                	li	s2,4
    3386:	00cc                	addi	a1,sp,68
    3388:	80040513          	addi	a0,s0,-2048
    338c:	04d11223          	sh	a3,68(sp)
    3390:	c836                	sw	a3,16(sp)
    3392:	c6ca                	sw	s2,76(sp)
    3394:	b6cff0ef          	jal	ra,2700 <GPIO_Init>
    3398:	08000713          	li	a4,128
    339c:	00cc                	addi	a1,sp,68
    339e:	80040513          	addi	a0,s0,-2048
    33a2:	04e11223          	sh	a4,68(sp)
    33a6:	c63a                	sw	a4,12(sp)
    33a8:	c6a6                	sw	s1,76(sp)
    33aa:	b56ff0ef          	jal	ra,2700 <GPIO_Init>
    33ae:	10000793          	li	a5,256
    33b2:	00cc                	addi	a1,sp,68
    33b4:	80040513          	addi	a0,s0,-2048
    33b8:	04f11223          	sh	a5,68(sp)
    33bc:	c43e                	sw	a5,8(sp)
    33be:	c6ca                	sw	s2,76(sp)
    33c0:	b40ff0ef          	jal	ra,2700 <GPIO_Init>
    33c4:	20000d93          	li	s11,512
    33c8:	00cc                	addi	a1,sp,68
    33ca:	80040513          	addi	a0,s0,-2048
    33ce:	c6a6                	sw	s1,76(sp)
    33d0:	05b11223          	sh	s11,68(sp)
    33d4:	b2cff0ef          	jal	ra,2700 <GPIO_Init>
    33d8:	40000d13          	li	s10,1024
    33dc:	00cc                	addi	a1,sp,68
    33de:	80040513          	addi	a0,s0,-2048
    33e2:	c6a6                	sw	s1,76(sp)
    33e4:	05a11223          	sh	s10,68(sp)
    33e8:	6a85                	lui	s5,0x1
    33ea:	b16ff0ef          	jal	ra,2700 <GPIO_Init>
    33ee:	800a8a93          	addi	s5,s5,-2048 # 800 <__stack_size>
    33f2:	00cc                	addi	a1,sp,68
    33f4:	80040513          	addi	a0,s0,-2048
    33f8:	c6a6                	sw	s1,76(sp)
    33fa:	05511223          	sh	s5,68(sp)
    33fe:	b02ff0ef          	jal	ra,2700 <GPIO_Init>
    3402:	02800593          	li	a1,40
    3406:	c6ae                	sw	a1,76(sp)
    3408:	80040513          	addi	a0,s0,-2048
    340c:	00cc                	addi	a1,sp,68
    340e:	05311223          	sh	s3,68(sp)
    3412:	aeeff0ef          	jal	ra,2700 <GPIO_Init>
    3416:	6c09                	lui	s8,0x2
    3418:	00cc                	addi	a1,sp,68
    341a:	80040513          	addi	a0,s0,-2048
    341e:	c6ca                	sw	s2,76(sp)
    3420:	05811223          	sh	s8,68(sp)
    3424:	adcff0ef          	jal	ra,2700 <GPIO_Init>
    3428:	6b91                	lui	s7,0x4
    342a:	00cc                	addi	a1,sp,68
    342c:	80040513          	addi	a0,s0,-2048
    3430:	c6ca                	sw	s2,76(sp)
    3432:	05711223          	sh	s7,68(sp)
    3436:	acaff0ef          	jal	ra,2700 <GPIO_Init>
    343a:	7a61                	lui	s4,0xffff8
    343c:	00cc                	addi	a1,sp,68
    343e:	80040513          	addi	a0,s0,-2048
    3442:	c6a6                	sw	s1,76(sp)
    3444:	05411223          	sh	s4,68(sp)
    3448:	ab8ff0ef          	jal	ra,2700 <GPIO_Init>
    344c:	4585                	li	a1,1
    344e:	04b11223          	sh	a1,68(sp)
    3452:	c0040513          	addi	a0,s0,-1024
    3456:	00cc                	addi	a1,sp,68
    3458:	c6a6                	sw	s1,76(sp)
    345a:	aa6ff0ef          	jal	ra,2700 <GPIO_Init>
    345e:	00cc                	addi	a1,sp,68
    3460:	c0040513          	addi	a0,s0,-1024
    3464:	c6ca                	sw	s2,76(sp)
    3466:	05611223          	sh	s6,68(sp)
    346a:	a96ff0ef          	jal	ra,2700 <GPIO_Init>
    346e:	00cc                	addi	a1,sp,68
    3470:	c0040513          	addi	a0,s0,-1024
    3474:	c6a6                	sw	s1,76(sp)
    3476:	05211223          	sh	s2,68(sp)
    347a:	a86ff0ef          	jal	ra,2700 <GPIO_Init>
    347e:	48f2                	lw	a7,28(sp)
    3480:	00cc                	addi	a1,sp,68
    3482:	c0040513          	addi	a0,s0,-1024
    3486:	05111223          	sh	a7,68(sp)
    348a:	c6ca                	sw	s2,76(sp)
    348c:	a74ff0ef          	jal	ra,2700 <GPIO_Init>
    3490:	4862                	lw	a6,24(sp)
    3492:	00cc                	addi	a1,sp,68
    3494:	c0040513          	addi	a0,s0,-1024
    3498:	05011223          	sh	a6,68(sp)
    349c:	c6a6                	sw	s1,76(sp)
    349e:	a62ff0ef          	jal	ra,2700 <GPIO_Init>
    34a2:	4652                	lw	a2,20(sp)
    34a4:	00cc                	addi	a1,sp,68
    34a6:	c0040513          	addi	a0,s0,-1024
    34aa:	04c11223          	sh	a2,68(sp)
    34ae:	c6ca                	sw	s2,76(sp)
    34b0:	a50ff0ef          	jal	ra,2700 <GPIO_Init>
    34b4:	46c2                	lw	a3,16(sp)
    34b6:	00cc                	addi	a1,sp,68
    34b8:	c0040513          	addi	a0,s0,-1024
    34bc:	04d11223          	sh	a3,68(sp)
    34c0:	c6a6                	sw	s1,76(sp)
    34c2:	a3eff0ef          	jal	ra,2700 <GPIO_Init>
    34c6:	4732                	lw	a4,12(sp)
    34c8:	00cc                	addi	a1,sp,68
    34ca:	c0040513          	addi	a0,s0,-1024
    34ce:	04e11223          	sh	a4,68(sp)
    34d2:	c6a6                	sw	s1,76(sp)
    34d4:	a2cff0ef          	jal	ra,2700 <GPIO_Init>
    34d8:	47a2                	lw	a5,8(sp)
    34da:	00cc                	addi	a1,sp,68
    34dc:	c0040513          	addi	a0,s0,-1024
    34e0:	04f11223          	sh	a5,68(sp)
    34e4:	c6a6                	sw	s1,76(sp)
    34e6:	a1aff0ef          	jal	ra,2700 <GPIO_Init>
    34ea:	00cc                	addi	a1,sp,68
    34ec:	c0040513          	addi	a0,s0,-1024
    34f0:	c6a6                	sw	s1,76(sp)
    34f2:	05b11223          	sh	s11,68(sp)
    34f6:	a0aff0ef          	jal	ra,2700 <GPIO_Init>
    34fa:	44f1                	li	s1,28
    34fc:	00cc                	addi	a1,sp,68
    34fe:	c0040513          	addi	a0,s0,-1024
    3502:	c6a6                	sw	s1,76(sp)
    3504:	05a11223          	sh	s10,68(sp)
    3508:	9f8ff0ef          	jal	ra,2700 <GPIO_Init>
    350c:	00cc                	addi	a1,sp,68
    350e:	c0040513          	addi	a0,s0,-1024
    3512:	c6a6                	sw	s1,76(sp)
    3514:	05511223          	sh	s5,68(sp)
    3518:	9e8ff0ef          	jal	ra,2700 <GPIO_Init>
    351c:	00cc                	addi	a1,sp,68
    351e:	c0040513          	addi	a0,s0,-1024
    3522:	c6e6                	sw	s9,76(sp)
    3524:	05311223          	sh	s3,68(sp)
    3528:	9d8ff0ef          	jal	ra,2700 <GPIO_Init>
    352c:	00cc                	addi	a1,sp,68
    352e:	c0040513          	addi	a0,s0,-1024
    3532:	c6ca                	sw	s2,76(sp)
    3534:	05811223          	sh	s8,68(sp)
    3538:	9c8ff0ef          	jal	ra,2700 <GPIO_Init>
    353c:	00cc                	addi	a1,sp,68
    353e:	c0040513          	addi	a0,s0,-1024
    3542:	c6ca                	sw	s2,76(sp)
    3544:	05711223          	sh	s7,68(sp)
    3548:	9b8ff0ef          	jal	ra,2700 <GPIO_Init>
    354c:	00cc                	addi	a1,sp,68
    354e:	c0040513          	addi	a0,s0,-1024
    3552:	c6ca                	sw	s2,76(sp)
    3554:	05411223          	sh	s4,68(sp)
    3558:	9a8ff0ef          	jal	ra,2700 <GPIO_Init>
    355c:	44c1                	li	s1,16
    355e:	00cc                	addi	a1,sp,68
    3560:	40011537          	lui	a0,0x40011
    3564:	c6a6                	sw	s1,76(sp)
    3566:	05811223          	sh	s8,68(sp)
    356a:	996ff0ef          	jal	ra,2700 <GPIO_Init>
    356e:	00cc                	addi	a1,sp,68
    3570:	40011537          	lui	a0,0x40011
    3574:	c6a6                	sw	s1,76(sp)
    3576:	05711223          	sh	s7,68(sp)
    357a:	986ff0ef          	jal	ra,2700 <GPIO_Init>
    357e:	00cc                	addi	a1,sp,68
    3580:	40011537          	lui	a0,0x40011
    3584:	c6a6                	sw	s1,76(sp)
    3586:	05411223          	sh	s4,68(sp)
    358a:	200034b7          	lui	s1,0x20003
    358e:	972ff0ef          	jal	ra,2700 <GPIO_Init>
    3592:	2dc48493          	addi	s1,s1,732 # 200032dc <MCAL_CFG_adxlSPI>
    3596:	10400793          	li	a5,260
    359a:	69c1                	lui	s3,0x10
    359c:	c4dc                	sw	a5,12(s1)
    359e:	00298793          	addi	a5,s3,2 # 10002 <_data_lma+0x516e>
    35a2:	c89c                	sw	a5,16(s1)
    35a4:	20003937          	lui	s2,0x20003
    35a8:	003807b7          	lui	a5,0x380
    35ac:	2c090913          	addi	s2,s2,704 # 200032c0 <MCAL_CFG_BMPSPI>
    35b0:	20078793          	addi	a5,a5,512 # 380200 <_data_lma+0x37536c>
    35b4:	c0c0                	sw	s0,4(s1)
    35b6:	6a91                	lui	s5,0x4
    35b8:	c8dc                	sw	a5,20(s1)
    35ba:	00892223          	sw	s0,4(s2)
    35be:	000507b7          	lui	a5,0x50
    35c2:	00a48413          	addi	s0,s1,10
    35c6:	40013737          	lui	a4,0x40013
    35ca:	4649                	li	a2,18
    35cc:	cc9c                	sw	a5,24(s1)
    35ce:	85a2                	mv	a1,s0
    35d0:	0154a423          	sw	s5,8(s1)
    35d4:	00a90513          	addi	a0,s2,10
    35d8:	c098                	sw	a4,0(s1)
    35da:	00e92023          	sw	a4,0(s2)
    35de:	01491423          	sh	s4,8(s2)
    35e2:	4bf050ef          	jal	ra,92a0 <memcpy>
    35e6:	85a2                	mv	a1,s0
    35e8:	40013537          	lui	a0,0x40013
    35ec:	d70ff0ef          	jal	ra,2b5c <SPI_Init>
    35f0:	0084d583          	lhu	a1,8(s1)
    35f4:	40c8                	lw	a0,4(s1)
    35f6:	40006437          	lui	s0,0x40006
    35fa:	07098993          	addi	s3,s3,112
    35fe:	a02ff0ef          	jal	ra,2800 <GPIO_SetBits>
    3602:	00895583          	lhu	a1,8(s2)
    3606:	00492503          	lw	a0,4(s2)
    360a:	9f6ff0ef          	jal	ra,2800 <GPIO_SetBits>
    360e:	4585                	li	a1,1
    3610:	40013537          	lui	a0,0x40013
    3614:	da2ff0ef          	jal	ra,2bb6 <SPI_Cmd>
    3618:	000627b7          	lui	a5,0x62
    361c:	a8078793          	addi	a5,a5,-1408 # 61a80 <_data_lma+0x56bec>
    3620:	c8be                	sw	a5,80(sp)
    3622:	bfff07b7          	lui	a5,0xbfff0
    3626:	cabe                	sw	a5,84(sp)
    3628:	040007b7          	lui	a5,0x4000
    362c:	02f78793          	addi	a5,a5,47 # 400002f <_data_lma+0x3ff519b>
    3630:	088c                	addi	a1,sp,80
    3632:	80040513          	addi	a0,s0,-2048 # 40005800 <__freertos_irq_stack_top+0x20000800>
    3636:	ccbe                	sw	a5,88(sp)
    3638:	05511e23          	sh	s5,92(sp)
    363c:	9f4ff0ef          	jal	ra,2830 <I2C_Init>
    3640:	80040513          	addi	a0,s0,-2048
    3644:	4585                	li	a1,1
    3646:	afeff0ef          	jal	ra,2944 <I2C_Cmd>
    364a:	002007b7          	lui	a5,0x200
    364e:	08f78793          	addi	a5,a5,143 # 20008f <_data_lma+0x1f51fb>
    3652:	40001437          	lui	s0,0x40001
    3656:	d63e                	sw	a5,44(sp)
    3658:	020027b7          	lui	a5,0x2002
    365c:	71078793          	addi	a5,a5,1808 # 2002710 <_data_lma+0x1ff787c>
    3660:	106c                	addi	a1,sp,44
    3662:	80040513          	addi	a0,s0,-2048 # 40000800 <__freertos_irq_stack_top+0x1fffb800>
    3666:	d83e                	sw	a5,48(sp)
    3668:	02011a23          	sh	zero,52(sp)
    366c:	d80ff0ef          	jal	ra,2bec <TIM_TimeBaseInit>
    3670:	108c                	addi	a1,sp,96
    3672:	d482                	sw	zero,104(sp)
    3674:	80040513          	addi	a0,s0,-2048
    3678:	d0ce                	sw	s3,96(sp)
    367a:	07611423          	sh	s6,104(sp)
    367e:	d282                	sw	zero,100(sp)
    3680:	d682                	sw	zero,108(sp)
    3682:	deaff0ef          	jal	ra,2c6c <TIM_OC1Init>
    3686:	108c                	addi	a1,sp,96
    3688:	80040513          	addi	a0,s0,-2048
    368c:	e68ff0ef          	jal	ra,2cf4 <TIM_OC2Init>
    3690:	108c                	addi	a1,sp,96
    3692:	80040513          	addi	a0,s0,-2048
    3696:	f12ff0ef          	jal	ra,2da8 <TIM_OC3Init>
    369a:	108c                	addi	a1,sp,96
    369c:	80040513          	addi	a0,s0,-2048
    36a0:	fbaff0ef          	jal	ra,2e5a <TIM_OC4Init>
    36a4:	80040513          	addi	a0,s0,-2048
    36a8:	4585                	li	a1,1
    36aa:	84fff0ef          	jal	ra,2ef8 <TIM_CtrlPWMOutputs>
    36ae:	80040513          	addi	a0,s0,-2048
    36b2:	4581                	li	a1,0
    36b4:	879ff0ef          	jal	ra,2f2c <TIM_OC1PreloadConfig>
    36b8:	80040513          	addi	a0,s0,-2048
    36bc:	4581                	li	a1,0
    36be:	881ff0ef          	jal	ra,2f3e <TIM_OC2PreloadConfig>
    36c2:	80040513          	addi	a0,s0,-2048
    36c6:	4581                	li	a1,0
    36c8:	891ff0ef          	jal	ra,2f58 <TIM_OC3PreloadConfig>
    36cc:	80040513          	addi	a0,s0,-2048
    36d0:	4581                	li	a1,0
    36d2:	899ff0ef          	jal	ra,2f6a <TIM_OC4PreloadConfig>
    36d6:	80040513          	addi	a0,s0,-2048
    36da:	4585                	li	a1,1
    36dc:	833ff0ef          	jal	ra,2f0e <TIM_ARRPreloadConfig>
    36e0:	80040513          	addi	a0,s0,-2048
    36e4:	4585                	li	a1,1
    36e6:	ff6ff0ef          	jal	ra,2edc <TIM_Cmd>
    36ea:	001097b7          	lui	a5,0x109
    36ee:	c9f78793          	addi	a5,a5,-865 # 108c9f <_data_lma+0xfde0b>
    36f2:	dc3e                	sw	a5,56(sp)
    36f4:	020077b7          	lui	a5,0x2007
    36f8:	53078793          	addi	a5,a5,1328 # 2007530 <_data_lma+0x1ffc69c>
    36fc:	182c                	addi	a1,sp,56
    36fe:	40000537          	lui	a0,0x40000
    3702:	de3e                	sw	a5,60(sp)
    3704:	04011023          	sh	zero,64(sp)
    3708:	ce4ff0ef          	jal	ra,2bec <TIM_TimeBaseInit>
    370c:	4585                	li	a1,1
    370e:	40000537          	lui	a0,0x40000
    3712:	ffcff0ef          	jal	ra,2f0e <TIM_ARRPreloadConfig>
    3716:	4585                	li	a1,1
    3718:	40000537          	lui	a0,0x40000
    371c:	885ff0ef          	jal	ra,2fa0 <TIM_UpdateRequestConfig>
    3720:	4585                	li	a1,1
    3722:	40000537          	lui	a0,0x40000
    3726:	85fff0ef          	jal	ra,2f84 <TIM_UpdateDisableConfig>
    372a:	67f1                	lui	a5,0x1c
    372c:	20078793          	addi	a5,a5,512 # 1c200 <_data_lma+0x1136c>
    3730:	40005437          	lui	s0,0x40005
    3734:	de82                	sw	zero,124(sp)
    3736:	d8be                	sw	a5,112(sp)
    3738:	30000793          	li	a5,768
    373c:	dc82                	sw	zero,120(sp)
    373e:	06f11e23          	sh	a5,124(sp)
    3742:	188c                	addi	a1,sp,112
    3744:	47b1                	li	a5,12
    3746:	c0040513          	addi	a0,s0,-1024 # 40004c00 <__freertos_irq_stack_top+0x1ffffc00>
    374a:	06f11d23          	sh	a5,122(sp)
    374e:	da82                	sw	zero,116(sp)
    3750:	887ff0ef          	jal	ra,2fd6 <USART_Init>
    3754:	c0040513          	addi	a0,s0,-1024
    3758:	4585                	li	a1,1
    375a:	955ff0ef          	jal	ra,30ae <USART_Cmd>
    375e:	4501                	li	a0,0
    3760:	6109                	addi	sp,sp,128
    3762:	dc9fc06f          	j	52a <__riscv_restore_12>

00003766 <SystemInit>:
    3766:	400217b7          	lui	a5,0x40021
    376a:	4398                	lw	a4,0(a5)
    376c:	f8ff06b7          	lui	a3,0xf8ff0
    3770:	1141                	addi	sp,sp,-16
    3772:	00176713          	ori	a4,a4,1
    3776:	c398                	sw	a4,0(a5)
    3778:	43d8                	lw	a4,4(a5)
    377a:	00020637          	lui	a2,0x20
    377e:	8f75                	and	a4,a4,a3
    3780:	c3d8                	sw	a4,4(a5)
    3782:	4398                	lw	a4,0(a5)
    3784:	fef706b7          	lui	a3,0xfef70
    3788:	16fd                	addi	a3,a3,-1
    378a:	8f75                	and	a4,a4,a3
    378c:	c398                	sw	a4,0(a5)
    378e:	4398                	lw	a4,0(a5)
    3790:	fffc06b7          	lui	a3,0xfffc0
    3794:	16fd                	addi	a3,a3,-1
    3796:	8f75                	and	a4,a4,a3
    3798:	c398                	sw	a4,0(a5)
    379a:	43d8                	lw	a4,4(a5)
    379c:	ff8106b7          	lui	a3,0xff810
    37a0:	16fd                	addi	a3,a3,-1
    37a2:	8f75                	and	a4,a4,a3
    37a4:	c3d8                	sw	a4,4(a5)
    37a6:	009f0737          	lui	a4,0x9f0
    37aa:	c798                	sw	a4,8(a5)
    37ac:	c402                	sw	zero,8(sp)
    37ae:	c602                	sw	zero,12(sp)
    37b0:	4398                	lw	a4,0(a5)
    37b2:	66c1                	lui	a3,0x10
    37b4:	8f55                	or	a4,a4,a3
    37b6:	c398                	sw	a4,0(a5)
    37b8:	400216b7          	lui	a3,0x40021
    37bc:	6705                	lui	a4,0x1
    37be:	429c                	lw	a5,0(a3)
    37c0:	8ff1                	and	a5,a5,a2
    37c2:	c63e                	sw	a5,12(sp)
    37c4:	47a2                	lw	a5,8(sp)
    37c6:	0785                	addi	a5,a5,1
    37c8:	c43e                	sw	a5,8(sp)
    37ca:	47b2                	lw	a5,12(sp)
    37cc:	e781                	bnez	a5,37d4 <SystemInit+0x6e>
    37ce:	47a2                	lw	a5,8(sp)
    37d0:	fee797e3          	bne	a5,a4,37be <SystemInit+0x58>
    37d4:	400217b7          	lui	a5,0x40021
    37d8:	439c                	lw	a5,0(a5)
    37da:	00e79713          	slli	a4,a5,0xe
    37de:	06075563          	bgez	a4,3848 <SystemInit+0xe2>
    37e2:	4785                	li	a5,1
    37e4:	c63e                	sw	a5,12(sp)
    37e6:	4732                	lw	a4,12(sp)
    37e8:	4785                	li	a5,1
    37ea:	04f71d63          	bne	a4,a5,3844 <SystemInit+0xde>
    37ee:	400217b7          	lui	a5,0x40021
    37f2:	43d8                	lw	a4,4(a5)
    37f4:	ffc106b7          	lui	a3,0xffc10
    37f8:	16fd                	addi	a3,a3,-1
    37fa:	c3d8                	sw	a4,4(a5)
    37fc:	43d8                	lw	a4,4(a5)
    37fe:	c3d8                	sw	a4,4(a5)
    3800:	43d8                	lw	a4,4(a5)
    3802:	c3d8                	sw	a4,4(a5)
    3804:	43d8                	lw	a4,4(a5)
    3806:	8f75                	and	a4,a4,a3
    3808:	c3d8                	sw	a4,4(a5)
    380a:	43d8                	lw	a4,4(a5)
    380c:	003d06b7          	lui	a3,0x3d0
    3810:	8f55                	or	a4,a4,a3
    3812:	c3d8                	sw	a4,4(a5)
    3814:	4398                	lw	a4,0(a5)
    3816:	010006b7          	lui	a3,0x1000
    381a:	8f55                	or	a4,a4,a3
    381c:	c398                	sw	a4,0(a5)
    381e:	4398                	lw	a4,0(a5)
    3820:	00671693          	slli	a3,a4,0x6
    3824:	fe06dde3          	bgez	a3,381e <SystemInit+0xb8>
    3828:	43d8                	lw	a4,4(a5)
    382a:	400216b7          	lui	a3,0x40021
    382e:	9b71                	andi	a4,a4,-4
    3830:	c3d8                	sw	a4,4(a5)
    3832:	43d8                	lw	a4,4(a5)
    3834:	00276713          	ori	a4,a4,2
    3838:	c3d8                	sw	a4,4(a5)
    383a:	4721                	li	a4,8
    383c:	42dc                	lw	a5,4(a3)
    383e:	8bb1                	andi	a5,a5,12
    3840:	fee79ee3          	bne	a5,a4,383c <SystemInit+0xd6>
    3844:	0141                	addi	sp,sp,16
    3846:	8082                	ret
    3848:	c602                	sw	zero,12(sp)
    384a:	bf71                	j	37e6 <SystemInit+0x80>

0000384c <SystemCoreClockUpdate>:
    384c:	400216b7          	lui	a3,0x40021
    3850:	42dc                	lw	a5,4(a3)
    3852:	4611                	li	a2,4
    3854:	8bb1                	andi	a5,a5,12
    3856:	81018713          	addi	a4,gp,-2032 # 20000090 <SystemCoreClock>
    385a:	00c78563          	beq	a5,a2,3864 <SystemCoreClockUpdate+0x18>
    385e:	4621                	li	a2,8
    3860:	02c78963          	beq	a5,a2,3892 <SystemCoreClockUpdate+0x46>
    3864:	007a17b7          	lui	a5,0x7a1
    3868:	20078793          	addi	a5,a5,512 # 7a1200 <_data_lma+0x79636c>
    386c:	c31c                	sw	a5,0(a4)
    386e:	400217b7          	lui	a5,0x40021
    3872:	43dc                	lw	a5,4(a5)
    3874:	8391                	srli	a5,a5,0x4
    3876:	00f7f693          	andi	a3,a5,15
    387a:	200007b7          	lui	a5,0x20000
    387e:	01078793          	addi	a5,a5,16 # 20000010 <AHBPrescTable>
    3882:	97b6                	add	a5,a5,a3
    3884:	0007c683          	lbu	a3,0(a5)
    3888:	431c                	lw	a5,0(a4)
    388a:	00d7d7b3          	srl	a5,a5,a3
    388e:	c31c                	sw	a5,0(a4)
    3890:	8082                	ret
    3892:	42dc                	lw	a5,4(a3)
    3894:	42d4                	lw	a3,4(a3)
    3896:	6641                	lui	a2,0x10
    3898:	83c9                	srli	a5,a5,0x12
    389a:	8bbd                	andi	a5,a5,15
    389c:	8ef1                	and	a3,a3,a2
    389e:	0789                	addi	a5,a5,2
    38a0:	4645                	li	a2,17
    38a2:	00c79363          	bne	a5,a2,38a8 <SystemCoreClockUpdate+0x5c>
    38a6:	47c9                	li	a5,18
    38a8:	ee81                	bnez	a3,38c0 <SystemCoreClockUpdate+0x74>
    38aa:	400246b7          	lui	a3,0x40024
    38ae:	8006a683          	lw	a3,-2048(a3) # 40023800 <__freertos_irq_stack_top+0x2001e800>
    38b2:	8ac1                	andi	a3,a3,16
    38b4:	ce89                	beqz	a3,38ce <SystemCoreClockUpdate+0x82>
    38b6:	007a16b7          	lui	a3,0x7a1
    38ba:	20068693          	addi	a3,a3,512 # 7a1200 <_data_lma+0x79636c>
    38be:	a821                	j	38d6 <SystemCoreClockUpdate+0x8a>
    38c0:	400216b7          	lui	a3,0x40021
    38c4:	42d4                	lw	a3,4(a3)
    38c6:	00e69613          	slli	a2,a3,0xe
    38ca:	fe0656e3          	bgez	a2,38b6 <SystemCoreClockUpdate+0x6a>
    38ce:	003d16b7          	lui	a3,0x3d1
    38d2:	90068693          	addi	a3,a3,-1792 # 3d0900 <_data_lma+0x3c5a6c>
    38d6:	02d787b3          	mul	a5,a5,a3
    38da:	bf49                	j	386c <SystemCoreClockUpdate+0x20>

000038dc <HAL_WRAPPER_ReadAcc>:
    38dc:	cd15                	beqz	a0,3918 <HAL_WRAPPER_ReadAcc+0x3c>
    38de:	c41fc2ef          	jal	t0,51e <__riscv_save_0>
    38e2:	84aa                	mv	s1,a0
    38e4:	20003537          	lui	a0,0x20003
    38e8:	31050413          	addi	s0,a0,784 # 20003310 <global_MPU6050ACC_t>
    38ec:	00840613          	addi	a2,s0,8
    38f0:	00440593          	addi	a1,s0,4
    38f4:	31050513          	addi	a0,a0,784
    38f8:	2a39                	jal	3a16 <mpu6050_accel_read>
    38fa:	405c                	lw	a5,4(s0)
    38fc:	800006b7          	lui	a3,0x80000
    3900:	4018                	lw	a4,0(s0)
    3902:	8fb5                	xor	a5,a5,a3
    3904:	c05c                	sw	a5,4(s0)
    3906:	c0dc                	sw	a5,4(s1)
    3908:	441c                	lw	a5,8(s0)
    390a:	8f35                	xor	a4,a4,a3
    390c:	c018                	sw	a4,0(s0)
    390e:	c098                	sw	a4,0(s1)
    3910:	c49c                	sw	a5,8(s1)
    3912:	4501                	li	a0,0
    3914:	c2ffc06f          	j	542 <__riscv_restore_0>
    3918:	4505                	li	a0,1
    391a:	8082                	ret

0000391c <HAL_WRAPPER_ReadGyro>:
    391c:	c03fc2ef          	jal	t0,51e <__riscv_save_0>
    3920:	84aa                	mv	s1,a0
    3922:	20003537          	lui	a0,0x20003
    3926:	31c50413          	addi	s0,a0,796 # 2000331c <global_MPU6050GYRO_t>
    392a:	00840613          	addi	a2,s0,8
    392e:	00440593          	addi	a1,s0,4
    3932:	31c50513          	addi	a0,a0,796
    3936:	2259                	jal	3abc <mpu6050_gyro_read>
    3938:	4058                	lw	a4,4(s0)
    393a:	401c                	lw	a5,0(s0)
    393c:	800006b7          	lui	a3,0x80000
    3940:	8f35                	xor	a4,a4,a3
    3942:	8fb5                	xor	a5,a5,a3
    3944:	c01c                	sw	a5,0(s0)
    3946:	c058                	sw	a4,4(s0)
    3948:	c09c                	sw	a5,0(s1)
    394a:	441c                	lw	a5,8(s0)
    394c:	c0d8                	sw	a4,4(s1)
    394e:	4501                	li	a0,0
    3950:	c49c                	sw	a5,8(s1)
    3952:	bf1fc06f          	j	542 <__riscv_restore_0>

00003956 <HAL_WRAPPER_ReadMagnet>:
    3956:	bc9fc2ef          	jal	t0,51e <__riscv_save_0>
    395a:	20003937          	lui	s2,0x20003
    395e:	84aa                	mv	s1,a0
    3960:	2f890513          	addi	a0,s2,760 # 200032f8 <global_HMC5883MAGNET_t>
    3964:	2f890413          	addi	s0,s2,760
    3968:	2101                	jal	3d68 <hmc5883l_read>
    396a:	00045783          	lhu	a5,0(s0)
    396e:	00245703          	lhu	a4,2(s0)
    3972:	2f890513          	addi	a0,s2,760
    3976:	40f007b3          	neg	a5,a5
    397a:	40e00733          	neg	a4,a4
    397e:	00f41123          	sh	a5,2(s0)
    3982:	00e41023          	sh	a4,0(s0)
    3986:	293d                	jal	3dc4 <hmc5883l_normalize>
    3988:	441c                	lw	a5,8(s0)
    398a:	4501                	li	a0,0
    398c:	c09c                	sw	a5,0(s1)
    398e:	445c                	lw	a5,12(s0)
    3990:	c0dc                	sw	a5,4(s1)
    3992:	481c                	lw	a5,16(s0)
    3994:	c49c                	sw	a5,8(s1)
    3996:	badfc06f          	j	542 <__riscv_restore_0>

0000399a <HAL_WRAPPER_ReadPressure>:
    399a:	b85fc2ef          	jal	t0,51e <__riscv_save_0>
    399e:	842a                	mv	s0,a0
    39a0:	11d000ef          	jal	ra,42bc <BMP280_get_pressure>
    39a4:	c008                	sw	a0,0(s0)
    39a6:	4501                	li	a0,0
    39a8:	b9bfc06f          	j	542 <__riscv_restore_0>

000039ac <HAL_WRAPPER_ReadTemperature>:
    39ac:	b73fc2ef          	jal	t0,51e <__riscv_save_0>
    39b0:	842a                	mv	s0,a0
    39b2:	0f3000ef          	jal	ra,42a4 <BMP280_get_temperature>
    39b6:	c008                	sw	a0,0(s0)
    39b8:	4501                	li	a0,0
    39ba:	b89fc06f          	j	542 <__riscv_restore_0>

000039be <mpu6050_accel_setup>:
    39be:	b61fc2ef          	jal	t0,51e <__riscv_save_0>
    39c2:	4581                	li	a1,0
    39c4:	06800513          	li	a0,104
    39c8:	a65fe0ef          	jal	ra,242c <I2C_start_transmission>
    39cc:	06b00513          	li	a0,107
    39d0:	acdfe0ef          	jal	ra,249c <I2C_write>
    39d4:	4501                	li	a0,0
    39d6:	ac7fe0ef          	jal	ra,249c <I2C_write>
    39da:	af1fe0ef          	jal	ra,24ca <I2C_stop>
    39de:	4581                	li	a1,0
    39e0:	06800513          	li	a0,104
    39e4:	a49fe0ef          	jal	ra,242c <I2C_start_transmission>
    39e8:	4569                	li	a0,26
    39ea:	ab3fe0ef          	jal	ra,249c <I2C_write>
    39ee:	4515                	li	a0,5
    39f0:	aadfe0ef          	jal	ra,249c <I2C_write>
    39f4:	ad7fe0ef          	jal	ra,24ca <I2C_stop>
    39f8:	4581                	li	a1,0
    39fa:	06800513          	li	a0,104
    39fe:	a2ffe0ef          	jal	ra,242c <I2C_start_transmission>
    3a02:	4571                	li	a0,28
    3a04:	a99fe0ef          	jal	ra,249c <I2C_write>
    3a08:	4541                	li	a0,16
    3a0a:	a93fe0ef          	jal	ra,249c <I2C_write>
    3a0e:	abdfe0ef          	jal	ra,24ca <I2C_stop>
    3a12:	b31fc06f          	j	542 <__riscv_restore_0>

00003a16 <mpu6050_accel_read>:
    3a16:	aeffc2ef          	jal	t0,504 <__riscv_save_4>
    3a1a:	1141                	addi	sp,sp,-16
    3a1c:	8aaa                	mv	s5,a0
    3a1e:	8a2e                	mv	s4,a1
    3a20:	06800513          	li	a0,104
    3a24:	4581                	li	a1,0
    3a26:	c632                	sw	a2,12(sp)
    3a28:	a05fe0ef          	jal	ra,242c <I2C_start_transmission>
    3a2c:	03b00513          	li	a0,59
    3a30:	a6dfe0ef          	jal	ra,249c <I2C_write>
    3a34:	a97fe0ef          	jal	ra,24ca <I2C_stop>
    3a38:	4599                	li	a1,6
    3a3a:	06800513          	li	a0,104
    3a3e:	ae1fe0ef          	jal	ra,251e <I2C_requestFrom>
    3a42:	ab5fe0ef          	jal	ra,24f6 <I2C_read>
    3a46:	84aa                	mv	s1,a0
    3a48:	04a2                	slli	s1,s1,0x8
    3a4a:	aadfe0ef          	jal	ra,24f6 <I2C_read>
    3a4e:	8cc9                	or	s1,s1,a0
    3a50:	aa7fe0ef          	jal	ra,24f6 <I2C_read>
    3a54:	842a                	mv	s0,a0
    3a56:	0422                	slli	s0,s0,0x8
    3a58:	a9ffe0ef          	jal	ra,24f6 <I2C_read>
    3a5c:	8c49                	or	s0,s0,a0
    3a5e:	04c2                	slli	s1,s1,0x10
    3a60:	a97fe0ef          	jal	ra,24f6 <I2C_read>
    3a64:	892a                	mv	s2,a0
    3a66:	84c1                	srai	s1,s1,0x10
    3a68:	a8ffe0ef          	jal	ra,24f6 <I2C_read>
    3a6c:	89aa                	mv	s3,a0
    3a6e:	8526                	mv	a0,s1
    3a70:	394050ef          	jal	ra,8e04 <__floatsisf>
    3a74:	0000a4b7          	lui	s1,0xa
    3a78:	75c4a583          	lw	a1,1884(s1) # a75c <_read+0x178>
    3a7c:	0442                	slli	s0,s0,0x10
    3a7e:	8441                	srai	s0,s0,0x10
    3a80:	569040ef          	jal	ra,87e8 <__mulsf3>
    3a84:	00aaa023          	sw	a0,0(s5) # 4000 <BMP280_GetPressureRawData+0x8>
    3a88:	8522                	mv	a0,s0
    3a8a:	37a050ef          	jal	ra,8e04 <__floatsisf>
    3a8e:	75c4a583          	lw	a1,1884(s1)
    3a92:	557040ef          	jal	ra,87e8 <__mulsf3>
    3a96:	00aa2023          	sw	a0,0(s4) # ffff8000 <__freertos_irq_stack_top+0xdfff3000>
    3a9a:	00891513          	slli	a0,s2,0x8
    3a9e:	01356533          	or	a0,a0,s3
    3aa2:	0542                	slli	a0,a0,0x10
    3aa4:	8541                	srai	a0,a0,0x10
    3aa6:	35e050ef          	jal	ra,8e04 <__floatsisf>
    3aaa:	75c4a583          	lw	a1,1884(s1)
    3aae:	53b040ef          	jal	ra,87e8 <__mulsf3>
    3ab2:	4632                	lw	a2,12(sp)
    3ab4:	c208                	sw	a0,0(a2)
    3ab6:	0141                	addi	sp,sp,16
    3ab8:	a81fc06f          	j	538 <__riscv_restore_4>

00003abc <mpu6050_gyro_read>:
    3abc:	a3bfc2ef          	jal	t0,4f6 <__riscv_save_10>
    3ac0:	8b2a                	mv	s6,a0
    3ac2:	8aae                	mv	s5,a1
    3ac4:	06800513          	li	a0,104
    3ac8:	4581                	li	a1,0
    3aca:	89b2                	mv	s3,a2
    3acc:	961fe0ef          	jal	ra,242c <I2C_start_transmission>
    3ad0:	04300513          	li	a0,67
    3ad4:	9c9fe0ef          	jal	ra,249c <I2C_write>
    3ad8:	9f3fe0ef          	jal	ra,24ca <I2C_stop>
    3adc:	4599                	li	a1,6
    3ade:	06800513          	li	a0,104
    3ae2:	a3dfe0ef          	jal	ra,251e <I2C_requestFrom>
    3ae6:	a11fe0ef          	jal	ra,24f6 <I2C_read>
    3aea:	84aa                	mv	s1,a0
    3aec:	04a2                	slli	s1,s1,0x8
    3aee:	a09fe0ef          	jal	ra,24f6 <I2C_read>
    3af2:	8cc9                	or	s1,s1,a0
    3af4:	a03fe0ef          	jal	ra,24f6 <I2C_read>
    3af8:	842a                	mv	s0,a0
    3afa:	0422                	slli	s0,s0,0x8
    3afc:	9fbfe0ef          	jal	ra,24f6 <I2C_read>
    3b00:	8c49                	or	s0,s0,a0
    3b02:	04c2                	slli	s1,s1,0x10
    3b04:	9f3fe0ef          	jal	ra,24f6 <I2C_read>
    3b08:	892a                	mv	s2,a0
    3b0a:	84c1                	srai	s1,s1,0x10
    3b0c:	9ebfe0ef          	jal	ra,24f6 <I2C_read>
    3b10:	8a2a                	mv	s4,a0
    3b12:	8526                	mv	a0,s1
    3b14:	2f0050ef          	jal	ra,8e04 <__floatsisf>
    3b18:	4f4050ef          	jal	ra,900c <__extendsfdf2>
    3b1c:	0000a4b7          	lui	s1,0xa
    3b20:	7604a603          	lw	a2,1888(s1) # a760 <_read+0x17c>
    3b24:	7644a683          	lw	a3,1892(s1)
    3b28:	0442                	slli	s0,s0,0x10
    3b2a:	8441                	srai	s0,s0,0x10
    3b2c:	212030ef          	jal	ra,6d3e <__divdf3>
    3b30:	200007b7          	lui	a5,0x20000
    3b34:	8c2a                	mv	s8,a0
    3b36:	1307a503          	lw	a0,304(a5) # 20000130 <roll_calibration>
    3b3a:	8cae                	mv	s9,a1
    3b3c:	4d0050ef          	jal	ra,900c <__extendsfdf2>
    3b40:	862a                	mv	a2,a0
    3b42:	86ae                	mv	a3,a1
    3b44:	8562                	mv	a0,s8
    3b46:	85e6                	mv	a1,s9
    3b48:	631030ef          	jal	ra,7978 <__subdf3>
    3b4c:	56c050ef          	jal	ra,90b8 <__truncdfsf2>
    3b50:	00ab2023          	sw	a0,0(s6)
    3b54:	8522                	mv	a0,s0
    3b56:	2ae050ef          	jal	ra,8e04 <__floatsisf>
    3b5a:	4b2050ef          	jal	ra,900c <__extendsfdf2>
    3b5e:	7604a603          	lw	a2,1888(s1)
    3b62:	7644a683          	lw	a3,1892(s1)
    3b66:	1d8030ef          	jal	ra,6d3e <__divdf3>
    3b6a:	200007b7          	lui	a5,0x20000
    3b6e:	8b2a                	mv	s6,a0
    3b70:	12c7a503          	lw	a0,300(a5) # 2000012c <pitch_calibration>
    3b74:	8bae                	mv	s7,a1
    3b76:	496050ef          	jal	ra,900c <__extendsfdf2>
    3b7a:	862a                	mv	a2,a0
    3b7c:	86ae                	mv	a3,a1
    3b7e:	855a                	mv	a0,s6
    3b80:	85de                	mv	a1,s7
    3b82:	5f7030ef          	jal	ra,7978 <__subdf3>
    3b86:	532050ef          	jal	ra,90b8 <__truncdfsf2>
    3b8a:	00aaa023          	sw	a0,0(s5)
    3b8e:	00891513          	slli	a0,s2,0x8
    3b92:	01456533          	or	a0,a0,s4
    3b96:	0542                	slli	a0,a0,0x10
    3b98:	8541                	srai	a0,a0,0x10
    3b9a:	26a050ef          	jal	ra,8e04 <__floatsisf>
    3b9e:	46e050ef          	jal	ra,900c <__extendsfdf2>
    3ba2:	7604a603          	lw	a2,1888(s1)
    3ba6:	7644a683          	lw	a3,1892(s1)
    3baa:	194030ef          	jal	ra,6d3e <__divdf3>
    3bae:	200007b7          	lui	a5,0x20000
    3bb2:	842a                	mv	s0,a0
    3bb4:	1347a503          	lw	a0,308(a5) # 20000134 <yaw_calibration>
    3bb8:	84ae                	mv	s1,a1
    3bba:	452050ef          	jal	ra,900c <__extendsfdf2>
    3bbe:	862a                	mv	a2,a0
    3bc0:	86ae                	mv	a3,a1
    3bc2:	8522                	mv	a0,s0
    3bc4:	85a6                	mv	a1,s1
    3bc6:	5b3030ef          	jal	ra,7978 <__subdf3>
    3bca:	4ee050ef          	jal	ra,90b8 <__truncdfsf2>
    3bce:	00a9a023          	sw	a0,0(s3)
    3bd2:	95dfc06f          	j	52e <__riscv_restore_10>

00003bd6 <mpu6050_gyro_setup>:
    3bd6:	92ffc2ef          	jal	t0,504 <__riscv_save_4>
    3bda:	1141                	addi	sp,sp,-16
    3bdc:	4581                	li	a1,0
    3bde:	06800513          	li	a0,104
    3be2:	84bfe0ef          	jal	ra,242c <I2C_start_transmission>
    3be6:	06b00513          	li	a0,107
    3bea:	8b3fe0ef          	jal	ra,249c <I2C_write>
    3bee:	4501                	li	a0,0
    3bf0:	8adfe0ef          	jal	ra,249c <I2C_write>
    3bf4:	8d7fe0ef          	jal	ra,24ca <I2C_stop>
    3bf8:	4581                	li	a1,0
    3bfa:	06800513          	li	a0,104
    3bfe:	82ffe0ef          	jal	ra,242c <I2C_start_transmission>
    3c02:	4569                	li	a0,26
    3c04:	899fe0ef          	jal	ra,249c <I2C_write>
    3c08:	4515                	li	a0,5
    3c0a:	893fe0ef          	jal	ra,249c <I2C_write>
    3c0e:	8bdfe0ef          	jal	ra,24ca <I2C_stop>
    3c12:	4581                	li	a1,0
    3c14:	06800513          	li	a0,104
    3c18:	815fe0ef          	jal	ra,242c <I2C_start_transmission>
    3c1c:	456d                	li	a0,27
    3c1e:	87ffe0ef          	jal	ra,249c <I2C_write>
    3c22:	4521                	li	a0,8
    3c24:	00000493          	li	s1,0
    3c28:	875fe0ef          	jal	ra,249c <I2C_write>
    3c2c:	7d100413          	li	s0,2001
    3c30:	89bfe0ef          	jal	ra,24ca <I2C_stop>
    3c34:	8926                	mv	s2,s1
    3c36:	89a6                	mv	s3,s1
    3c38:	147d                	addi	s0,s0,-1
    3c3a:	0442                	slli	s0,s0,0x10
    3c3c:	8041                	srli	s0,s0,0x10
    3c3e:	e029                	bnez	s0,3c80 <mpu6050_gyro_setup+0xaa>
    3c40:	0000a437          	lui	s0,0xa
    3c44:	76842583          	lw	a1,1896(s0) # a768 <_read+0x184>
    3c48:	854e                	mv	a0,s3
    3c4a:	20000a37          	lui	s4,0x20000
    3c4e:	0e9040ef          	jal	ra,8536 <__divsf3>
    3c52:	76842583          	lw	a1,1896(s0)
    3c56:	12aa2823          	sw	a0,304(s4) # 20000130 <roll_calibration>
    3c5a:	854a                	mv	a0,s2
    3c5c:	0db040ef          	jal	ra,8536 <__divsf3>
    3c60:	76842583          	lw	a1,1896(s0)
    3c64:	200009b7          	lui	s3,0x20000
    3c68:	12a9a623          	sw	a0,300(s3) # 2000012c <pitch_calibration>
    3c6c:	8526                	mv	a0,s1
    3c6e:	0c9040ef          	jal	ra,8536 <__divsf3>
    3c72:	20000937          	lui	s2,0x20000
    3c76:	12a92a23          	sw	a0,308(s2) # 20000134 <yaw_calibration>
    3c7a:	0141                	addi	sp,sp,16
    3c7c:	8bdfc06f          	j	538 <__riscv_restore_4>
    3c80:	0070                	addi	a2,sp,12
    3c82:	002c                	addi	a1,sp,8
    3c84:	0048                	addi	a0,sp,4
    3c86:	e37ff0ef          	jal	ra,3abc <mpu6050_gyro_read>
    3c8a:	4592                	lw	a1,4(sp)
    3c8c:	854e                	mv	a0,s3
    3c8e:	53e040ef          	jal	ra,81cc <__addsf3>
    3c92:	45a2                	lw	a1,8(sp)
    3c94:	89aa                	mv	s3,a0
    3c96:	854a                	mv	a0,s2
    3c98:	534040ef          	jal	ra,81cc <__addsf3>
    3c9c:	45b2                	lw	a1,12(sp)
    3c9e:	892a                	mv	s2,a0
    3ca0:	8526                	mv	a0,s1
    3ca2:	52a040ef          	jal	ra,81cc <__addsf3>
    3ca6:	84aa                	mv	s1,a0
    3ca8:	4505                	li	a0,1
    3caa:	919fe0ef          	jal	ra,25c2 <MCAL_WRAPPER_DelayMS>
    3cae:	b769                	j	3c38 <mpu6050_gyro_setup+0x62>

00003cb0 <mpu6050_init>:
    3cb0:	86ffc2ef          	jal	t0,51e <__riscv_save_0>
    3cb4:	f23ff0ef          	jal	ra,3bd6 <mpu6050_gyro_setup>
    3cb8:	d07ff0ef          	jal	ra,39be <mpu6050_accel_setup>
    3cbc:	887fc06f          	j	542 <__riscv_restore_0>

00003cc0 <hmc5883l_init>:
    3cc0:	85ffc2ef          	jal	t0,51e <__riscv_save_0>
    3cc4:	4581                	li	a1,0
    3cc6:	06800513          	li	a0,104
    3cca:	f62fe0ef          	jal	ra,242c <I2C_start_transmission>
    3cce:	06a00513          	li	a0,106
    3cd2:	fcafe0ef          	jal	ra,249c <I2C_write>
    3cd6:	4501                	li	a0,0
    3cd8:	fc4fe0ef          	jal	ra,249c <I2C_write>
    3cdc:	feefe0ef          	jal	ra,24ca <I2C_stop>
    3ce0:	4581                	li	a1,0
    3ce2:	06800513          	li	a0,104
    3ce6:	f46fe0ef          	jal	ra,242c <I2C_start_transmission>
    3cea:	03700513          	li	a0,55
    3cee:	faefe0ef          	jal	ra,249c <I2C_write>
    3cf2:	4509                	li	a0,2
    3cf4:	fa8fe0ef          	jal	ra,249c <I2C_write>
    3cf8:	fd2fe0ef          	jal	ra,24ca <I2C_stop>
    3cfc:	4581                	li	a1,0
    3cfe:	06800513          	li	a0,104
    3d02:	f2afe0ef          	jal	ra,242c <I2C_start_transmission>
    3d06:	06b00513          	li	a0,107
    3d0a:	f92fe0ef          	jal	ra,249c <I2C_write>
    3d0e:	4501                	li	a0,0
    3d10:	f8cfe0ef          	jal	ra,249c <I2C_write>
    3d14:	fb6fe0ef          	jal	ra,24ca <I2C_stop>
    3d18:	4581                	li	a1,0
    3d1a:	4579                	li	a0,30
    3d1c:	f10fe0ef          	jal	ra,242c <I2C_start_transmission>
    3d20:	4509                	li	a0,2
    3d22:	f7afe0ef          	jal	ra,249c <I2C_write>
    3d26:	4501                	li	a0,0
    3d28:	f74fe0ef          	jal	ra,249c <I2C_write>
    3d2c:	f9efe0ef          	jal	ra,24ca <I2C_stop>
    3d30:	4581                	li	a1,0
    3d32:	4579                	li	a0,30
    3d34:	ef8fe0ef          	jal	ra,242c <I2C_start_transmission>
    3d38:	4501                	li	a0,0
    3d3a:	f62fe0ef          	jal	ra,249c <I2C_write>
    3d3e:	07000513          	li	a0,112
    3d42:	f5afe0ef          	jal	ra,249c <I2C_write>
    3d46:	f84fe0ef          	jal	ra,24ca <I2C_stop>
    3d4a:	4581                	li	a1,0
    3d4c:	4579                	li	a0,30
    3d4e:	edefe0ef          	jal	ra,242c <I2C_start_transmission>
    3d52:	4505                	li	a0,1
    3d54:	f48fe0ef          	jal	ra,249c <I2C_write>
    3d58:	02000513          	li	a0,32
    3d5c:	f40fe0ef          	jal	ra,249c <I2C_write>
    3d60:	f6afe0ef          	jal	ra,24ca <I2C_stop>
    3d64:	fdefc06f          	j	542 <__riscv_restore_0>

00003d68 <hmc5883l_read>:
    3d68:	fb6fc2ef          	jal	t0,51e <__riscv_save_0>
    3d6c:	84aa                	mv	s1,a0
    3d6e:	4581                	li	a1,0
    3d70:	4579                	li	a0,30
    3d72:	ebafe0ef          	jal	ra,242c <I2C_start_transmission>
    3d76:	450d                	li	a0,3
    3d78:	f24fe0ef          	jal	ra,249c <I2C_write>
    3d7c:	f4efe0ef          	jal	ra,24ca <I2C_stop>
    3d80:	4599                	li	a1,6
    3d82:	4579                	li	a0,30
    3d84:	f9afe0ef          	jal	ra,251e <I2C_requestFrom>
    3d88:	f6efe0ef          	jal	ra,24f6 <I2C_read>
    3d8c:	842a                	mv	s0,a0
    3d8e:	0422                	slli	s0,s0,0x8
    3d90:	f66fe0ef          	jal	ra,24f6 <I2C_read>
    3d94:	8c49                	or	s0,s0,a0
    3d96:	00849023          	sh	s0,0(s1)
    3d9a:	f5cfe0ef          	jal	ra,24f6 <I2C_read>
    3d9e:	842a                	mv	s0,a0
    3da0:	0422                	slli	s0,s0,0x8
    3da2:	f54fe0ef          	jal	ra,24f6 <I2C_read>
    3da6:	8c49                	or	s0,s0,a0
    3da8:	00849223          	sh	s0,4(s1)
    3dac:	f4afe0ef          	jal	ra,24f6 <I2C_read>
    3db0:	842a                	mv	s0,a0
    3db2:	f44fe0ef          	jal	ra,24f6 <I2C_read>
    3db6:	00841793          	slli	a5,s0,0x8
    3dba:	8d5d                	or	a0,a0,a5
    3dbc:	00a49123          	sh	a0,2(s1)
    3dc0:	f82fc06f          	j	542 <__riscv_restore_0>

00003dc4 <hmc5883l_normalize>:
    3dc4:	f5afc2ef          	jal	t0,51e <__riscv_save_0>
    3dc8:	842a                	mv	s0,a0
    3dca:	00051503          	lh	a0,0(a0)
    3dce:	0000a4b7          	lui	s1,0xa
    3dd2:	388040ef          	jal	ra,815a <__floatsidf>
    3dd6:	0000a7b7          	lui	a5,0xa
    3dda:	7707a603          	lw	a2,1904(a5) # a770 <_read+0x18c>
    3dde:	7747a683          	lw	a3,1908(a5)
    3de2:	397030ef          	jal	ra,7978 <__subdf3>
    3de6:	7784a603          	lw	a2,1912(s1) # a778 <_read+0x194>
    3dea:	77c4a683          	lw	a3,1916(s1)
    3dee:	751020ef          	jal	ra,6d3e <__divdf3>
    3df2:	2c6050ef          	jal	ra,90b8 <__truncdfsf2>
    3df6:	c408                	sw	a0,8(s0)
    3df8:	00241503          	lh	a0,2(s0)
    3dfc:	35e040ef          	jal	ra,815a <__floatsidf>
    3e00:	0000a7b7          	lui	a5,0xa
    3e04:	7807a603          	lw	a2,1920(a5) # a780 <_read+0x19c>
    3e08:	7847a683          	lw	a3,1924(a5)
    3e0c:	003020ef          	jal	ra,660e <__adddf3>
    3e10:	7784a603          	lw	a2,1912(s1)
    3e14:	77c4a683          	lw	a3,1916(s1)
    3e18:	727020ef          	jal	ra,6d3e <__divdf3>
    3e1c:	29c050ef          	jal	ra,90b8 <__truncdfsf2>
    3e20:	c448                	sw	a0,12(s0)
    3e22:	00441503          	lh	a0,4(s0)
    3e26:	334040ef          	jal	ra,815a <__floatsidf>
    3e2a:	7784a603          	lw	a2,1912(s1)
    3e2e:	77c4a683          	lw	a3,1916(s1)
    3e32:	70d020ef          	jal	ra,6d3e <__divdf3>
    3e36:	282050ef          	jal	ra,90b8 <__truncdfsf2>
    3e3a:	c808                	sw	a0,16(s0)
    3e3c:	f06fc06f          	j	542 <__riscv_restore_0>

00003e40 <HAL_Config_ConfigAllHW>:
    3e40:	edefc2ef          	jal	t0,51e <__riscv_save_0>
    3e44:	200007b7          	lui	a5,0x20000
    3e48:	01020737          	lui	a4,0x1020
    3e4c:	13878793          	addi	a5,a5,312 # 20000138 <global_adxl345Config_t>
    3e50:	70d70713          	addi	a4,a4,1805 # 102070d <_data_lma+0x1015879>
    3e54:	c398                	sw	a4,0(a5)
    3e56:	10200713          	li	a4,258
    3e5a:	00e79223          	sh	a4,4(a5)
    3e5e:	e53ff0ef          	jal	ra,3cb0 <mpu6050_init>
    3e62:	e5fff0ef          	jal	ra,3cc0 <hmc5883l_init>
    3e66:	2911                	jal	427a <BMP280_Init>
    3e68:	4501                	li	a0,0
    3e6a:	ed8fc06f          	j	542 <__riscv_restore_0>

00003e6e <BMP280_ReadRegister>:
    3e6e:	eb0fc2ef          	jal	t0,51e <__riscv_save_0>
    3e72:	1141                	addi	sp,sp,-16
    3e74:	f8056513          	ori	a0,a0,-128
    3e78:	0074                	addi	a3,sp,12
    3e7a:	00a10623          	sb	a0,12(sp)
    3e7e:	20003537          	lui	a0,0x20003
    3e82:	4609                	li	a2,2
    3e84:	85b6                	mv	a1,a3
    3e86:	2c050513          	addi	a0,a0,704 # 200032c0 <MCAL_CFG_BMPSPI>
    3e8a:	000106a3          	sb	zero,13(sp)
    3e8e:	d30fe0ef          	jal	ra,23be <MCAL_WRAPEPR_SPI_POLL_TRANSFER>
    3e92:	00d14503          	lbu	a0,13(sp)
    3e96:	0141                	addi	sp,sp,16
    3e98:	eaafc06f          	j	542 <__riscv_restore_0>

00003e9c <BMP280_WriteRegister>:
    3e9c:	e82fc2ef          	jal	t0,51e <__riscv_save_0>
    3ea0:	1141                	addi	sp,sp,-16
    3ea2:	07f57513          	andi	a0,a0,127
    3ea6:	00a10623          	sb	a0,12(sp)
    3eaa:	20003537          	lui	a0,0x20003
    3eae:	00b106a3          	sb	a1,13(sp)
    3eb2:	4681                	li	a3,0
    3eb4:	006c                	addi	a1,sp,12
    3eb6:	4609                	li	a2,2
    3eb8:	2c050513          	addi	a0,a0,704 # 200032c0 <MCAL_CFG_BMPSPI>
    3ebc:	d02fe0ef          	jal	ra,23be <MCAL_WRAPEPR_SPI_POLL_TRANSFER>
    3ec0:	0141                	addi	sp,sp,16
    3ec2:	e80fc06f          	j	542 <__riscv_restore_0>

00003ec6 <BMP280_ReadUnsignedShort>:
    3ec6:	e58fc2ef          	jal	t0,51e <__riscv_save_0>
    3eca:	842a                	mv	s0,a0
    3ecc:	fa3ff0ef          	jal	ra,3e6e <BMP280_ReadRegister>
    3ed0:	84aa                	mv	s1,a0
    3ed2:	00140513          	addi	a0,s0,1
    3ed6:	0ff57513          	andi	a0,a0,255
    3eda:	f95ff0ef          	jal	ra,3e6e <BMP280_ReadRegister>
    3ede:	0522                	slli	a0,a0,0x8
    3ee0:	8d45                	or	a0,a0,s1
    3ee2:	0542                	slli	a0,a0,0x10
    3ee4:	8141                	srli	a0,a0,0x10
    3ee6:	e5cfc06f          	j	542 <__riscv_restore_0>

00003eea <BMP280_ReadSignedShort>:
    3eea:	e34fc2ef          	jal	t0,51e <__riscv_save_0>
    3eee:	842a                	mv	s0,a0
    3ef0:	f7fff0ef          	jal	ra,3e6e <BMP280_ReadRegister>
    3ef4:	84aa                	mv	s1,a0
    3ef6:	00140513          	addi	a0,s0,1
    3efa:	0ff57513          	andi	a0,a0,255
    3efe:	f71ff0ef          	jal	ra,3e6e <BMP280_ReadRegister>
    3f02:	0522                	slli	a0,a0,0x8
    3f04:	8d45                	or	a0,a0,s1
    3f06:	0542                	slli	a0,a0,0x10
    3f08:	8541                	srai	a0,a0,0x10
    3f0a:	e38fc06f          	j	542 <__riscv_restore_0>

00003f0e <BMP280_get_trimming_parameters>:
    3f0e:	e10fc2ef          	jal	t0,51e <__riscv_save_0>
    3f12:	08800513          	li	a0,136
    3f16:	20003437          	lui	s0,0x20003
    3f1a:	32840413          	addi	s0,s0,808 # 20003328 <trimmingParameter>
    3f1e:	fa9ff0ef          	jal	ra,3ec6 <BMP280_ReadUnsignedShort>
    3f22:	00a41023          	sh	a0,0(s0)
    3f26:	08e00513          	li	a0,142
    3f2a:	f9dff0ef          	jal	ra,3ec6 <BMP280_ReadUnsignedShort>
    3f2e:	00a41323          	sh	a0,6(s0)
    3f32:	08a00513          	li	a0,138
    3f36:	fb5ff0ef          	jal	ra,3eea <BMP280_ReadSignedShort>
    3f3a:	00a41123          	sh	a0,2(s0)
    3f3e:	08c00513          	li	a0,140
    3f42:	fa9ff0ef          	jal	ra,3eea <BMP280_ReadSignedShort>
    3f46:	00a41223          	sh	a0,4(s0)
    3f4a:	09000513          	li	a0,144
    3f4e:	f9dff0ef          	jal	ra,3eea <BMP280_ReadSignedShort>
    3f52:	00a41423          	sh	a0,8(s0)
    3f56:	09200513          	li	a0,146
    3f5a:	f91ff0ef          	jal	ra,3eea <BMP280_ReadSignedShort>
    3f5e:	00a41523          	sh	a0,10(s0)
    3f62:	09400513          	li	a0,148
    3f66:	f85ff0ef          	jal	ra,3eea <BMP280_ReadSignedShort>
    3f6a:	00a41623          	sh	a0,12(s0)
    3f6e:	09600513          	li	a0,150
    3f72:	f79ff0ef          	jal	ra,3eea <BMP280_ReadSignedShort>
    3f76:	00a41723          	sh	a0,14(s0)
    3f7a:	09800513          	li	a0,152
    3f7e:	f6dff0ef          	jal	ra,3eea <BMP280_ReadSignedShort>
    3f82:	00a41823          	sh	a0,16(s0)
    3f86:	09a00513          	li	a0,154
    3f8a:	f61ff0ef          	jal	ra,3eea <BMP280_ReadSignedShort>
    3f8e:	00a41923          	sh	a0,18(s0)
    3f92:	09c00513          	li	a0,156
    3f96:	f55ff0ef          	jal	ra,3eea <BMP280_ReadSignedShort>
    3f9a:	00a41a23          	sh	a0,20(s0)
    3f9e:	09e00513          	li	a0,158
    3fa2:	f49ff0ef          	jal	ra,3eea <BMP280_ReadSignedShort>
    3fa6:	00a41b23          	sh	a0,22(s0)
    3faa:	d98fc06f          	j	542 <__riscv_restore_0>

00003fae <BMP280_ReadDataRegisters>:
    3fae:	d70fc2ef          	jal	t0,51e <__riscv_save_0>
    3fb2:	84aa                	mv	s1,a0
    3fb4:	ebbff0ef          	jal	ra,3e6e <BMP280_ReadRegister>
    3fb8:	842a                	mv	s0,a0
    3fba:	00148513          	addi	a0,s1,1
    3fbe:	0ff57513          	andi	a0,a0,255
    3fc2:	eadff0ef          	jal	ra,3e6e <BMP280_ReadRegister>
    3fc6:	892a                	mv	s2,a0
    3fc8:	00248513          	addi	a0,s1,2
    3fcc:	0922                	slli	s2,s2,0x8
    3fce:	0ff57513          	andi	a0,a0,255
    3fd2:	0442                	slli	s0,s0,0x10
    3fd4:	e9bff0ef          	jal	ra,3e6e <BMP280_ReadRegister>
    3fd8:	01246433          	or	s0,s0,s2
    3fdc:	8d41                	or	a0,a0,s0
    3fde:	d64fc06f          	j	542 <__riscv_restore_0>

00003fe2 <BMP280_GetTemperatureRawData>:
    3fe2:	d3cfc2ef          	jal	t0,51e <__riscv_save_0>
    3fe6:	842a                	mv	s0,a0
    3fe8:	0fa00513          	li	a0,250
    3fec:	fc3ff0ef          	jal	ra,3fae <BMP280_ReadDataRegisters>
    3ff0:	8511                	srai	a0,a0,0x4
    3ff2:	c008                	sw	a0,0(s0)
    3ff4:	d4efc06f          	j	542 <__riscv_restore_0>

00003ff8 <BMP280_GetPressureRawData>:
    3ff8:	d26fc2ef          	jal	t0,51e <__riscv_save_0>
    3ffc:	842a                	mv	s0,a0
    3ffe:	0f700513          	li	a0,247
    4002:	fadff0ef          	jal	ra,3fae <BMP280_ReadDataRegisters>
    4006:	8511                	srai	a0,a0,0x4
    4008:	c008                	sw	a0,0(s0)
    400a:	d38fc06f          	j	542 <__riscv_restore_0>

0000400e <BMP280_CompensateTemperature>:
    400e:	d10fc2ef          	jal	t0,51e <__riscv_save_0>
    4012:	20003737          	lui	a4,0x20003
    4016:	32870713          	addi	a4,a4,808 # 20003328 <trimmingParameter>
    401a:	00075683          	lhu	a3,0(a4)
    401e:	40455793          	srai	a5,a0,0x4
    4022:	850d                	srai	a0,a0,0x3
    4024:	8f95                	sub	a5,a5,a3
    4026:	02f787b3          	mul	a5,a5,a5
    402a:	0686                	slli	a3,a3,0x1
    402c:	8d15                	sub	a0,a0,a3
    402e:	00271683          	lh	a3,2(a4)
    4032:	00471703          	lh	a4,4(a4)
    4036:	87b1                	srai	a5,a5,0xc
    4038:	02d50533          	mul	a0,a0,a3
    403c:	02e787b3          	mul	a5,a5,a4
    4040:	852d                	srai	a0,a0,0xb
    4042:	87b9                	srai	a5,a5,0xe
    4044:	953e                	add	a0,a0,a5
    4046:	200007b7          	lui	a5,0x20000
    404a:	14a7a023          	sw	a0,320(a5) # 20000140 <t_fine>
    404e:	4795                	li	a5,5
    4050:	02f50533          	mul	a0,a0,a5
    4054:	08050513          	addi	a0,a0,128
    4058:	8521                	srai	a0,a0,0x8
    405a:	5ab040ef          	jal	ra,8e04 <__floatsisf>
    405e:	0000a7b7          	lui	a5,0xa
    4062:	78c7a583          	lw	a1,1932(a5) # a78c <_read+0x1a8>
    4066:	4d0040ef          	jal	ra,8536 <__divsf3>
    406a:	cd8fc06f          	j	542 <__riscv_restore_0>

0000406e <BMP280_CompensatePressure>:
    406e:	cb0fc2ef          	jal	t0,51e <__riscv_save_0>
    4072:	200007b7          	lui	a5,0x20000
    4076:	1407a583          	lw	a1,320(a5) # 20000140 <t_fine>
    407a:	7705                	lui	a4,0xfffe1
    407c:	c0070713          	addi	a4,a4,-1024 # fffe0c00 <__freertos_irq_stack_top+0xdffdbc00>
    4080:	972e                	add	a4,a4,a1
    4082:	41f5d793          	srai	a5,a1,0x1f
    4086:	17fd                	addi	a5,a5,-1
    4088:	00b735b3          	sltu	a1,a4,a1
    408c:	95be                	add	a1,a1,a5
    408e:	02e588b3          	mul	a7,a1,a4
    4092:	20003437          	lui	s0,0x20003
    4096:	32840413          	addi	s0,s0,808 # 20003328 <trimmingParameter>
    409a:	00841803          	lh	a6,8(s0)
    409e:	41f85693          	srai	a3,a6,0x1f
    40a2:	02e737b3          	mulhu	a5,a4,a4
    40a6:	0886                	slli	a7,a7,0x1
    40a8:	98be                	add	a7,a7,a5
    40aa:	02e686b3          	mul	a3,a3,a4
    40ae:	030587b3          	mul	a5,a1,a6
    40b2:	02e80633          	mul	a2,a6,a4
    40b6:	96be                	add	a3,a3,a5
    40b8:	02e83833          	mulhu	a6,a6,a4
    40bc:	01465793          	srli	a5,a2,0x14
    40c0:	00c61e13          	slli	t3,a2,0xc
    40c4:	02e70333          	mul	t1,a4,a4
    40c8:	96c2                	add	a3,a3,a6
    40ca:	00c69813          	slli	a6,a3,0xc
    40ce:	00a41683          	lh	a3,10(s0)
    40d2:	0107e833          	or	a6,a5,a6
    40d6:	41f6d613          	srai	a2,a3,0x1f
    40da:	02d887b3          	mul	a5,a7,a3
    40de:	02660633          	mul	a2,a2,t1
    40e2:	963e                	add	a2,a2,a5
    40e4:	026687b3          	mul	a5,a3,t1
    40e8:	0266b6b3          	mulhu	a3,a3,t1
    40ec:	83a1                	srli	a5,a5,0x8
    40ee:	9636                	add	a2,a2,a3
    40f0:	01861693          	slli	a3,a2,0x18
    40f4:	8fd5                	or	a5,a5,a3
    40f6:	40865693          	srai	a3,a2,0x8
    40fa:	01c78633          	add	a2,a5,t3
    40fe:	00f637b3          	sltu	a5,a2,a5
    4102:	96c2                	add	a3,a3,a6
    4104:	96be                	add	a3,a3,a5
    4106:	67a1                	lui	a5,0x8
    4108:	96be                	add	a3,a3,a5
    410a:	00645783          	lhu	a5,6(s0)
    410e:	02f63633          	mulhu	a2,a2,a5
    4112:	02f686b3          	mul	a3,a3,a5
    4116:	96b2                	add	a3,a3,a2
    4118:	4016d613          	srai	a2,a3,0x1
    411c:	86fd                	srai	a3,a3,0x1f
    411e:	00d667b3          	or	a5,a2,a3
    4122:	14078963          	beqz	a5,4274 <BMP280_CompensatePressure+0x206>
    4126:	01041e03          	lh	t3,16(s0)
    412a:	41fe5813          	srai	a6,t3,0x1f
    412e:	02680833          	mul	a6,a6,t1
    4132:	03c888b3          	mul	a7,a7,t3
    4136:	98c2                	add	a7,a7,a6
    4138:	026e0833          	mul	a6,t3,t1
    413c:	026e3333          	mulhu	t1,t3,t1
    4140:	9346                	add	t1,t1,a7
    4142:	00e41883          	lh	a7,14(s0)
    4146:	41f8d793          	srai	a5,a7,0x1f
    414a:	031585b3          	mul	a1,a1,a7
    414e:	02e787b3          	mul	a5,a5,a4
    4152:	97ae                	add	a5,a5,a1
    4154:	02e885b3          	mul	a1,a7,a4
    4158:	02e8b733          	mulhu	a4,a7,a4
    415c:	973e                	add	a4,a4,a5
    415e:	0746                	slli	a4,a4,0x11
    4160:	00f5d793          	srli	a5,a1,0xf
    4164:	05c6                	slli	a1,a1,0x11
    4166:	8f5d                	or	a4,a4,a5
    4168:	982e                	add	a6,a6,a1
    416a:	00b835b3          	sltu	a1,a6,a1
    416e:	971a                	add	a4,a4,t1
    4170:	972e                	add	a4,a4,a1
    4172:	001005b7          	lui	a1,0x100
    4176:	40a58533          	sub	a0,a1,a0
    417a:	41f55793          	srai	a5,a0,0x1f
    417e:	00155593          	srli	a1,a0,0x1
    4182:	07fe                	slli	a5,a5,0x1f
    4184:	8fcd                	or	a5,a5,a1
    4186:	00c41583          	lh	a1,12(s0)
    418a:	057e                	slli	a0,a0,0x1f
    418c:	41050833          	sub	a6,a0,a6
    4190:	058e                	slli	a1,a1,0x3
    4192:	972e                	add	a4,a4,a1
    4194:	01053533          	sltu	a0,a0,a6
    4198:	8f99                	sub	a5,a5,a4
    419a:	8f89                	sub	a5,a5,a0
    419c:	6505                	lui	a0,0x1
    419e:	c3550513          	addi	a0,a0,-971 # c35 <prvUnlockQueue+0x2d>
    41a2:	02a787b3          	mul	a5,a5,a0
    41a6:	02a835b3          	mulhu	a1,a6,a0
    41aa:	02a80533          	mul	a0,a6,a0
    41ae:	95be                	add	a1,a1,a5
    41b0:	086020ef          	jal	ra,6236 <__divdi3>
    41b4:	01641703          	lh	a4,22(s0)
    41b8:	01359793          	slli	a5,a1,0x13
    41bc:	00d55693          	srli	a3,a0,0xd
    41c0:	8edd                	or	a3,a3,a5
    41c2:	40d5d813          	srai	a6,a1,0xd
    41c6:	41f75793          	srai	a5,a4,0x1f
    41ca:	02e80633          	mul	a2,a6,a4
    41ce:	02d787b3          	mul	a5,a5,a3
    41d2:	97b2                	add	a5,a5,a2
    41d4:	02d70633          	mul	a2,a4,a3
    41d8:	02d73733          	mulhu	a4,a4,a3
    41dc:	97ba                	add	a5,a5,a4
    41de:	02c80833          	mul	a6,a6,a2
    41e2:	02d787b3          	mul	a5,a5,a3
    41e6:	02d60733          	mul	a4,a2,a3
    41ea:	97c2                	add	a5,a5,a6
    41ec:	02d636b3          	mulhu	a3,a2,a3
    41f0:	8365                	srli	a4,a4,0x19
    41f2:	01441603          	lh	a2,20(s0)
    41f6:	97b6                	add	a5,a5,a3
    41f8:	00779693          	slli	a3,a5,0x7
    41fc:	8f55                	or	a4,a4,a3
    41fe:	00a706b3          	add	a3,a4,a0
    4202:	87e5                	srai	a5,a5,0x19
    4204:	00e6b733          	sltu	a4,a3,a4
    4208:	97ae                	add	a5,a5,a1
    420a:	97ba                	add	a5,a5,a4
    420c:	41f65713          	srai	a4,a2,0x1f
    4210:	02a70733          	mul	a4,a4,a0
    4214:	02b605b3          	mul	a1,a2,a1
    4218:	95ba                	add	a1,a1,a4
    421a:	02a60733          	mul	a4,a2,a0
    421e:	02a63633          	mulhu	a2,a2,a0
    4222:	01375513          	srli	a0,a4,0x13
    4226:	95b2                	add	a1,a1,a2
    4228:	00d59613          	slli	a2,a1,0xd
    422c:	8d51                	or	a0,a0,a2
    422e:	85cd                	srai	a1,a1,0x13
    4230:	9536                	add	a0,a0,a3
    4232:	00d536b3          	sltu	a3,a0,a3
    4236:	97ae                	add	a5,a5,a1
    4238:	97b6                	add	a5,a5,a3
    423a:	01879713          	slli	a4,a5,0x18
    423e:	8121                	srli	a0,a0,0x8
    4240:	8d59                	or	a0,a0,a4
    4242:	01241703          	lh	a4,18(s0)
    4246:	87a1                	srai	a5,a5,0x8
    4248:	41f75593          	srai	a1,a4,0x1f
    424c:	01c75693          	srli	a3,a4,0x1c
    4250:	0592                	slli	a1,a1,0x4
    4252:	0712                	slli	a4,a4,0x4
    4254:	8dd5                	or	a1,a1,a3
    4256:	953a                	add	a0,a0,a4
    4258:	95be                	add	a1,a1,a5
    425a:	00e53733          	sltu	a4,a0,a4
    425e:	95ba                	add	a1,a1,a4
    4260:	46b040ef          	jal	ra,8eca <__floatdisf>
    4264:	0000a7b7          	lui	a5,0xa
    4268:	7887a583          	lw	a1,1928(a5) # a788 <_read+0x1a4>
    426c:	2ca040ef          	jal	ra,8536 <__divsf3>
    4270:	ad2fc06f          	j	542 <__riscv_restore_0>
    4274:	00000513          	li	a0,0
    4278:	bfe5                	j	4270 <BMP280_CompensatePressure+0x202>

0000427a <BMP280_Init>:
    427a:	aa4fc2ef          	jal	t0,51e <__riscv_save_0>
    427e:	c91ff0ef          	jal	ra,3f0e <BMP280_get_trimming_parameters>
    4282:	4581                	li	a1,0
    4284:	0f500513          	li	a0,245
    4288:	c15ff0ef          	jal	ra,3e9c <BMP280_WriteRegister>
    428c:	0b700593          	li	a1,183
    4290:	0f400513          	li	a0,244
    4294:	c09ff0ef          	jal	ra,3e9c <BMP280_WriteRegister>
    4298:	09600513          	li	a0,150
    429c:	b26fe0ef          	jal	ra,25c2 <MCAL_WRAPPER_DelayMS>
    42a0:	aa2fc06f          	j	542 <__riscv_restore_0>

000042a4 <BMP280_get_temperature>:
    42a4:	a7afc2ef          	jal	t0,51e <__riscv_save_0>
    42a8:	1141                	addi	sp,sp,-16
    42aa:	0068                	addi	a0,sp,12
    42ac:	d37ff0ef          	jal	ra,3fe2 <BMP280_GetTemperatureRawData>
    42b0:	4532                	lw	a0,12(sp)
    42b2:	d5dff0ef          	jal	ra,400e <BMP280_CompensateTemperature>
    42b6:	0141                	addi	sp,sp,16
    42b8:	a8afc06f          	j	542 <__riscv_restore_0>

000042bc <BMP280_get_pressure>:
    42bc:	a62fc2ef          	jal	t0,51e <__riscv_save_0>
    42c0:	1141                	addi	sp,sp,-16
    42c2:	fe3ff0ef          	jal	ra,42a4 <BMP280_get_temperature>
    42c6:	0068                	addi	a0,sp,12
    42c8:	d31ff0ef          	jal	ra,3ff8 <BMP280_GetPressureRawData>
    42cc:	4532                	lw	a0,12(sp)
    42ce:	da1ff0ef          	jal	ra,406e <BMP280_CompensatePressure>
    42d2:	0141                	addi	sp,sp,16
    42d4:	a6efc06f          	j	542 <__riscv_restore_0>

000042d8 <NMI_Handler>:
    42d8:	a001                	j	42d8 <NMI_Handler>

000042da <HardFault_Handler>:
    42da:	a001                	j	42da <HardFault_Handler>

000042dc <Task_CollectSensorData>:
    42dc:	a42fc2ef          	jal	t0,51e <__riscv_save_0>
    42e0:	711d                	addi	sp,sp,-96
    42e2:	00000793          	li	a5,0
    42e6:	02c00613          	li	a2,44
    42ea:	4581                	li	a1,0
    42ec:	1848                	addi	a0,sp,52
    42ee:	c802                	sw	zero,16(sp)
    42f0:	ca02                	sw	zero,20(sp)
    42f2:	cc02                	sw	zero,24(sp)
    42f4:	ce02                	sw	zero,28(sp)
    42f6:	d002                	sw	zero,32(sp)
    42f8:	d202                	sw	zero,36(sp)
    42fa:	d402                	sw	zero,40(sp)
    42fc:	d602                	sw	zero,44(sp)
    42fe:	d802                	sw	zero,48(sp)
    4300:	c43e                	sw	a5,8(sp)
    4302:	c63e                	sw	a5,12(sp)
    4304:	20000437          	lui	s0,0x20000
    4308:	a46fc0ef          	jal	ra,54e <memset>
    430c:	0808                	addi	a0,sp,16
    430e:	dceff0ef          	jal	ra,38dc <HAL_WRAPPER_ReadAcc>
    4312:	0868                	addi	a0,sp,28
    4314:	e08ff0ef          	jal	ra,391c <HAL_WRAPPER_ReadGyro>
    4318:	1028                	addi	a0,sp,40
    431a:	e3cff0ef          	jal	ra,3956 <HAL_WRAPPER_ReadMagnet>
    431e:	0028                	addi	a0,sp,8
    4320:	e7aff0ef          	jal	ra,399a <HAL_WRAPPER_ReadPressure>
    4324:	0068                	addi	a0,sp,12
    4326:	e86ff0ef          	jal	ra,39ac <HAL_WRAPPER_ReadTemperature>
    432a:	080c                	addi	a1,sp,16
    432c:	4631                	li	a2,12
    432e:	1848                	addi	a0,sp,52
    4330:	771040ef          	jal	ra,92a0 <memcpy>
    4334:	086c                	addi	a1,sp,28
    4336:	4631                	li	a2,12
    4338:	0088                	addi	a0,sp,64
    433a:	767040ef          	jal	ra,92a0 <memcpy>
    433e:	102c                	addi	a1,sp,40
    4340:	4631                	li	a2,12
    4342:	00e8                	addi	a0,sp,76
    4344:	75d040ef          	jal	ra,92a0 <memcpy>
    4348:	47a2                	lw	a5,8(sp)
    434a:	15042603          	lw	a2,336(s0) # 20000150 <queue_RawSensorData_Handle_t>
    434e:	184c                	addi	a1,sp,52
    4350:	ccbe                	sw	a5,88(sp)
    4352:	47b2                	lw	a5,12(sp)
    4354:	3e800513          	li	a0,1000
    4358:	cebe                	sw	a5,92(sp)
    435a:	aecfc0ef          	jal	ra,646 <SERVICE_RTOS_AppendToBlockingQueue>
    435e:	4515                	li	a0,5
    4360:	b46fc0ef          	jal	ra,6a6 <SERVICE_RTOS_BlockFor>
    4364:	b765                	j	430c <Task_CollectSensorData+0x30>

00004366 <Task_SensorFusion>:
    4366:	9b8fc2ef          	jal	t0,51e <__riscv_save_0>
    436a:	715d                	addi	sp,sp,-80
    436c:	02c00613          	li	a2,44
    4370:	4581                	li	a1,0
    4372:	1048                	addi	a0,sp,36
    4374:	9dafc0ef          	jal	ra,54e <memset>
    4378:	4661                	li	a2,24
    437a:	4581                	li	a1,0
    437c:	0068                	addi	a0,sp,12
    437e:	9d0fc0ef          	jal	ra,54e <memset>
    4382:	20000437          	lui	s0,0x20000
    4386:	000105a3          	sb	zero,11(sp)
    438a:	15042603          	lw	a2,336(s0) # 20000150 <queue_RawSensorData_Handle_t>
    438e:	00b10693          	addi	a3,sp,11
    4392:	104c                	addi	a1,sp,36
    4394:	3e800513          	li	a0,1000
    4398:	ad8fc0ef          	jal	ra,670 <SERVICE_RTOS_ReadFromBlockingQueue>
    439c:	f57d                	bnez	a0,438a <Task_SensorFusion+0x24>
    439e:	006c                	addi	a1,sp,12
    43a0:	1048                	addi	a0,sp,36
    43a2:	e0dfd0ef          	jal	ra,21ae <SensorFuseWithKalman>
    43a6:	b7d5                	j	438a <Task_SensorFusion+0x24>

000043a8 <Task_Master>:
    43a8:	976fc2ef          	jal	t0,51e <__riscv_save_0>
    43ac:	200037b7          	lui	a5,0x20003
    43b0:	20003737          	lui	a4,0x20003
    43b4:	34078793          	addi	a5,a5,832 # 20003340 <global_AppCommMsg_t>
    43b8:	35070713          	addi	a4,a4,848 # 20003350 <global_MsgToRec_t>
    43bc:	c3d8                	sw	a4,4(a5)
    43be:	4739                	li	a4,14
    43c0:	00e79523          	sh	a4,10(a5)
    43c4:	00078623          	sb	zero,12(a5)
    43c8:	00078723          	sb	zero,14(a5)
    43cc:	b9aff0ef          	jal	ra,3766 <SystemInit>
    43d0:	c7cff0ef          	jal	ra,384c <SystemCoreClockUpdate>
    43d4:	4509                	li	a0,2
    43d6:	e5cfe0ef          	jal	ra,2a32 <NVIC_PriorityGroupConfig>
    43da:	e0dfe0ef          	jal	ra,31e6 <MCAL_Config_ConfigAllPins>
    43de:	a63ff0ef          	jal	ra,3e40 <HAL_Config_ConfigAllHW>
    43e2:	6571                	lui	a0,0x1c
    43e4:	20050513          	addi	a0,a0,512 # 1c200 <_data_lma+0x1136c>
    43e8:	d3dfe0ef          	jal	ra,3124 <USART_Printf_Init>
    43ec:	3e800513          	li	a0,1000
    43f0:	ac4fc0ef          	jal	ra,6b4 <SERVICE_RTOS_WaitForNotification>
    43f4:	bfe5                	j	43ec <Task_Master+0x44>

000043f6 <main>:
    43f6:	928fc2ef          	jal	t0,51e <__riscv_save_0>
    43fa:	20000637          	lui	a2,0x20000
    43fe:	15060613          	addi	a2,a2,336 # 20000150 <queue_RawSensorData_Handle_t>
    4402:	02c00593          	li	a1,44
    4406:	4529                	li	a0,10
    4408:	a1cfc0ef          	jal	ra,624 <SERVICE_RTOS_CreateBlockingQueue>
    440c:	20000637          	lui	a2,0x20000
    4410:	14c60613          	addi	a2,a2,332 # 2000014c <queue_FusedSensorData_Handle_t>
    4414:	45e1                	li	a1,24
    4416:	4529                	li	a0,10
    4418:	a0cfc0ef          	jal	ra,624 <SERVICE_RTOS_CreateBlockingQueue>
    441c:	20000637          	lui	a2,0x20000
    4420:	14460613          	addi	a2,a2,324 # 20000144 <queue_AppCommToDrone_Handle_t>
    4424:	45b9                	li	a1,14
    4426:	4529                	li	a0,10
    4428:	9fcfc0ef          	jal	ra,624 <SERVICE_RTOS_CreateBlockingQueue>
    442c:	20000637          	lui	a2,0x20000
    4430:	14860613          	addi	a2,a2,328 # 20000148 <queue_DroneCommToApp_Handle_t>
    4434:	45b9                	li	a1,14
    4436:	4529                	li	a0,10
    4438:	9ecfc0ef          	jal	ra,624 <SERVICE_RTOS_CreateBlockingQueue>
    443c:	20000737          	lui	a4,0x20000
    4440:	0000a5b7          	lui	a1,0xa
    4444:	00004537          	lui	a0,0x4
    4448:	15470713          	addi	a4,a4,340 # 20000154 <task_CollectSensorData_Handle_t>
    444c:	4691                	li	a3,4
    444e:	10000613          	li	a2,256
    4452:	79058593          	addi	a1,a1,1936 # a790 <_read+0x1ac>
    4456:	2dc50513          	addi	a0,a0,732 # 42dc <Task_CollectSensorData>
    445a:	99cfc0ef          	jal	ra,5f6 <SERVICE_RTOS_TaskCreate>
    445e:	20000737          	lui	a4,0x20000
    4462:	0000a5b7          	lui	a1,0xa
    4466:	00004537          	lui	a0,0x4
    446a:	15c70713          	addi	a4,a4,348 # 2000015c <task_SensorFusion_Handle_t>
    446e:	468d                	li	a3,3
    4470:	10000613          	li	a2,256
    4474:	7a458593          	addi	a1,a1,1956 # a7a4 <_read+0x1c0>
    4478:	36650513          	addi	a0,a0,870 # 4366 <Task_SensorFusion>
    447c:	97afc0ef          	jal	ra,5f6 <SERVICE_RTOS_TaskCreate>
    4480:	20000737          	lui	a4,0x20000
    4484:	0000a5b7          	lui	a1,0xa
    4488:	00004537          	lui	a0,0x4
    448c:	15870713          	addi	a4,a4,344 # 20000158 <task_Master_Handle_t>
    4490:	4695                	li	a3,5
    4492:	10000613          	li	a2,256
    4496:	7b458593          	addi	a1,a1,1972 # a7b4 <_read+0x1d0>
    449a:	3a850513          	addi	a0,a0,936 # 43a8 <Task_Master>
    449e:	958fc0ef          	jal	ra,5f6 <SERVICE_RTOS_TaskCreate>
    44a2:	976fc0ef          	jal	ra,618 <SERVICE_RTOS_StartSchedular>
    44a6:	0000a437          	lui	s0,0xa
    44aa:	7bc40513          	addi	a0,s0,1980 # a7bc <_read+0x1d8>
    44ae:	7c3040ef          	jal	ra,9470 <puts>
    44b2:	bfe5                	j	44aa <main+0xb4>

000044b4 <atan>:
    44b4:	7179                	addi	sp,sp,-48
    44b6:	d04a                	sw	s2,32(sp)
    44b8:	00159913          	slli	s2,a1,0x1
    44bc:	d422                	sw	s0,40(sp)
    44be:	d226                	sw	s1,36(sp)
    44c0:	ca56                	sw	s5,20(sp)
    44c2:	d606                	sw	ra,44(sp)
    44c4:	ce4e                	sw	s3,28(sp)
    44c6:	cc52                	sw	s4,24(sp)
    44c8:	c85a                	sw	s6,16(sp)
    44ca:	c65e                	sw	s7,12(sp)
    44cc:	00195913          	srli	s2,s2,0x1
    44d0:	441007b7          	lui	a5,0x44100
    44d4:	842e                	mv	s0,a1
    44d6:	84aa                	mv	s1,a0
    44d8:	8aae                	mv	s5,a1
    44da:	04f94763          	blt	s2,a5,4528 <atan+0x74>
    44de:	7ff007b7          	lui	a5,0x7ff00
    44e2:	0127ce63          	blt	a5,s2,44fe <atan+0x4a>
    44e6:	00f90b63          	beq	s2,a5,44fc <atan+0x48>
    44ea:	1f505b63          	blez	s5,46e0 <atan+0x22c>
    44ee:	00006797          	auipc	a5,0x6
    44f2:	2ea78793          	addi	a5,a5,746 # a7d8 <_read+0x1f4>
    44f6:	4384                	lw	s1,0(a5)
    44f8:	43c0                	lw	s0,4(a5)
    44fa:	a811                	j	450e <atan+0x5a>
    44fc:	d57d                	beqz	a0,44ea <atan+0x36>
    44fe:	8626                	mv	a2,s1
    4500:	8526                	mv	a0,s1
    4502:	86a2                	mv	a3,s0
    4504:	85a2                	mv	a1,s0
    4506:	108020ef          	jal	ra,660e <__adddf3>
    450a:	84aa                	mv	s1,a0
    450c:	842e                	mv	s0,a1
    450e:	85a2                	mv	a1,s0
    4510:	50b2                	lw	ra,44(sp)
    4512:	5422                	lw	s0,40(sp)
    4514:	8526                	mv	a0,s1
    4516:	5902                	lw	s2,32(sp)
    4518:	5492                	lw	s1,36(sp)
    451a:	49f2                	lw	s3,28(sp)
    451c:	4a62                	lw	s4,24(sp)
    451e:	4ad2                	lw	s5,20(sp)
    4520:	4b42                	lw	s6,16(sp)
    4522:	4bb2                	lw	s7,12(sp)
    4524:	6145                	addi	sp,sp,48
    4526:	8082                	ret
    4528:	3fdc07b7          	lui	a5,0x3fdc0
    452c:	1cf95863          	bge	s2,a5,46fc <atan+0x248>
    4530:	3e2007b7          	lui	a5,0x3e200
    4534:	18f94363          	blt	s2,a5,46ba <atan+0x206>
    4538:	5a7d                	li	s4,-1
    453a:	8626                	mv	a2,s1
    453c:	86a2                	mv	a3,s0
    453e:	8526                	mv	a0,s1
    4540:	85a2                	mv	a1,s0
    4542:	77f020ef          	jal	ra,74c0 <__muldf3>
    4546:	862a                	mv	a2,a0
    4548:	86ae                	mv	a3,a1
    454a:	8b2a                	mv	s6,a0
    454c:	8bae                	mv	s7,a1
    454e:	773020ef          	jal	ra,74c0 <__muldf3>
    4552:	00006797          	auipc	a5,0x6
    4556:	2be78793          	addi	a5,a5,702 # a810 <_read+0x22c>
    455a:	4390                	lw	a2,0(a5)
    455c:	43d4                	lw	a3,4(a5)
    455e:	892a                	mv	s2,a0
    4560:	89ae                	mv	s3,a1
    4562:	75f020ef          	jal	ra,74c0 <__muldf3>
    4566:	00006797          	auipc	a5,0x6
    456a:	2b278793          	addi	a5,a5,690 # a818 <_read+0x234>
    456e:	4390                	lw	a2,0(a5)
    4570:	43d4                	lw	a3,4(a5)
    4572:	09c020ef          	jal	ra,660e <__adddf3>
    4576:	864a                	mv	a2,s2
    4578:	86ce                	mv	a3,s3
    457a:	747020ef          	jal	ra,74c0 <__muldf3>
    457e:	00006797          	auipc	a5,0x6
    4582:	2a278793          	addi	a5,a5,674 # a820 <_read+0x23c>
    4586:	4390                	lw	a2,0(a5)
    4588:	43d4                	lw	a3,4(a5)
    458a:	084020ef          	jal	ra,660e <__adddf3>
    458e:	864a                	mv	a2,s2
    4590:	86ce                	mv	a3,s3
    4592:	72f020ef          	jal	ra,74c0 <__muldf3>
    4596:	00006797          	auipc	a5,0x6
    459a:	29278793          	addi	a5,a5,658 # a828 <_read+0x244>
    459e:	4390                	lw	a2,0(a5)
    45a0:	43d4                	lw	a3,4(a5)
    45a2:	06c020ef          	jal	ra,660e <__adddf3>
    45a6:	864a                	mv	a2,s2
    45a8:	86ce                	mv	a3,s3
    45aa:	717020ef          	jal	ra,74c0 <__muldf3>
    45ae:	00006797          	auipc	a5,0x6
    45b2:	28278793          	addi	a5,a5,642 # a830 <_read+0x24c>
    45b6:	4390                	lw	a2,0(a5)
    45b8:	43d4                	lw	a3,4(a5)
    45ba:	054020ef          	jal	ra,660e <__adddf3>
    45be:	864a                	mv	a2,s2
    45c0:	86ce                	mv	a3,s3
    45c2:	6ff020ef          	jal	ra,74c0 <__muldf3>
    45c6:	00006797          	auipc	a5,0x6
    45ca:	27278793          	addi	a5,a5,626 # a838 <_read+0x254>
    45ce:	4390                	lw	a2,0(a5)
    45d0:	43d4                	lw	a3,4(a5)
    45d2:	03c020ef          	jal	ra,660e <__adddf3>
    45d6:	865a                	mv	a2,s6
    45d8:	86de                	mv	a3,s7
    45da:	6e7020ef          	jal	ra,74c0 <__muldf3>
    45de:	00006797          	auipc	a5,0x6
    45e2:	26278793          	addi	a5,a5,610 # a840 <_read+0x25c>
    45e6:	4390                	lw	a2,0(a5)
    45e8:	43d4                	lw	a3,4(a5)
    45ea:	8b2a                	mv	s6,a0
    45ec:	8bae                	mv	s7,a1
    45ee:	854a                	mv	a0,s2
    45f0:	85ce                	mv	a1,s3
    45f2:	6cf020ef          	jal	ra,74c0 <__muldf3>
    45f6:	00006797          	auipc	a5,0x6
    45fa:	25278793          	addi	a5,a5,594 # a848 <_read+0x264>
    45fe:	4390                	lw	a2,0(a5)
    4600:	43d4                	lw	a3,4(a5)
    4602:	376030ef          	jal	ra,7978 <__subdf3>
    4606:	864a                	mv	a2,s2
    4608:	86ce                	mv	a3,s3
    460a:	6b7020ef          	jal	ra,74c0 <__muldf3>
    460e:	00006797          	auipc	a5,0x6
    4612:	24278793          	addi	a5,a5,578 # a850 <_read+0x26c>
    4616:	4390                	lw	a2,0(a5)
    4618:	43d4                	lw	a3,4(a5)
    461a:	35e030ef          	jal	ra,7978 <__subdf3>
    461e:	864a                	mv	a2,s2
    4620:	86ce                	mv	a3,s3
    4622:	69f020ef          	jal	ra,74c0 <__muldf3>
    4626:	00006797          	auipc	a5,0x6
    462a:	23278793          	addi	a5,a5,562 # a858 <_read+0x274>
    462e:	4390                	lw	a2,0(a5)
    4630:	43d4                	lw	a3,4(a5)
    4632:	346030ef          	jal	ra,7978 <__subdf3>
    4636:	864a                	mv	a2,s2
    4638:	86ce                	mv	a3,s3
    463a:	687020ef          	jal	ra,74c0 <__muldf3>
    463e:	00006797          	auipc	a5,0x6
    4642:	22278793          	addi	a5,a5,546 # a860 <_read+0x27c>
    4646:	4390                	lw	a2,0(a5)
    4648:	43d4                	lw	a3,4(a5)
    464a:	32e030ef          	jal	ra,7978 <__subdf3>
    464e:	864a                	mv	a2,s2
    4650:	86ce                	mv	a3,s3
    4652:	66f020ef          	jal	ra,74c0 <__muldf3>
    4656:	862a                	mv	a2,a0
    4658:	86ae                	mv	a3,a1
    465a:	855a                	mv	a0,s6
    465c:	85de                	mv	a1,s7
    465e:	7b1010ef          	jal	ra,660e <__adddf3>
    4662:	8626                	mv	a2,s1
    4664:	86a2                	mv	a3,s0
    4666:	65b020ef          	jal	ra,74c0 <__muldf3>
    466a:	57fd                	li	a5,-1
    466c:	862a                	mv	a2,a0
    466e:	86ae                	mv	a3,a1
    4670:	06fa0f63          	beq	s4,a5,46ee <atan+0x23a>
    4674:	0a0e                	slli	s4,s4,0x3
    4676:	00006797          	auipc	a5,0x6
    467a:	21278793          	addi	a5,a5,530 # a888 <atanlo>
    467e:	97d2                	add	a5,a5,s4
    4680:	4390                	lw	a2,0(a5)
    4682:	43d4                	lw	a3,4(a5)
    4684:	00006797          	auipc	a5,0x6
    4688:	1e478793          	addi	a5,a5,484 # a868 <atanhi>
    468c:	9a3e                	add	s4,s4,a5
    468e:	2ea030ef          	jal	ra,7978 <__subdf3>
    4692:	8626                	mv	a2,s1
    4694:	86a2                	mv	a3,s0
    4696:	2e2030ef          	jal	ra,7978 <__subdf3>
    469a:	862a                	mv	a2,a0
    469c:	86ae                	mv	a3,a1
    469e:	000a2503          	lw	a0,0(s4)
    46a2:	004a2583          	lw	a1,4(s4)
    46a6:	2d2030ef          	jal	ra,7978 <__subdf3>
    46aa:	84aa                	mv	s1,a0
    46ac:	842e                	mv	s0,a1
    46ae:	e60ad0e3          	bgez	s5,450e <atan+0x5a>
    46b2:	80000437          	lui	s0,0x80000
    46b6:	8c2d                	xor	s0,s0,a1
    46b8:	bd99                	j	450e <atan+0x5a>
    46ba:	00006797          	auipc	a5,0x6
    46be:	12e78793          	addi	a5,a5,302 # a7e8 <_read+0x204>
    46c2:	4390                	lw	a2,0(a5)
    46c4:	43d4                	lw	a3,4(a5)
    46c6:	749010ef          	jal	ra,660e <__adddf3>
    46ca:	00006797          	auipc	a5,0x6
    46ce:	12678793          	addi	a5,a5,294 # a7f0 <_read+0x20c>
    46d2:	4390                	lw	a2,0(a5)
    46d4:	43d4                	lw	a3,4(a5)
    46d6:	487020ef          	jal	ra,735c <__gedf2>
    46da:	e4a05fe3          	blez	a0,4538 <atan+0x84>
    46de:	bd05                	j	450e <atan+0x5a>
    46e0:	00006797          	auipc	a5,0x6
    46e4:	10078793          	addi	a5,a5,256 # a7e0 <_read+0x1fc>
    46e8:	4384                	lw	s1,0(a5)
    46ea:	43c0                	lw	s0,4(a5)
    46ec:	b50d                	j	450e <atan+0x5a>
    46ee:	8526                	mv	a0,s1
    46f0:	85a2                	mv	a1,s0
    46f2:	286030ef          	jal	ra,7978 <__subdf3>
    46f6:	84aa                	mv	s1,a0
    46f8:	842e                	mv	s0,a1
    46fa:	bd11                	j	450e <atan+0x5a>
    46fc:	2249                	jal	487e <fabs>
    46fe:	3ff307b7          	lui	a5,0x3ff30
    4702:	842a                	mv	s0,a0
    4704:	84ae                	mv	s1,a1
    4706:	04f95863          	bge	s2,a5,4756 <atan+0x2a2>
    470a:	3fe607b7          	lui	a5,0x3fe60
    470e:	0af95c63          	bge	s2,a5,47c6 <atan+0x312>
    4712:	862a                	mv	a2,a0
    4714:	86ae                	mv	a3,a1
    4716:	6f9010ef          	jal	ra,660e <__adddf3>
    471a:	00006797          	auipc	a5,0x6
    471e:	0d678793          	addi	a5,a5,214 # a7f0 <_read+0x20c>
    4722:	4390                	lw	a2,0(a5)
    4724:	43d4                	lw	a3,4(a5)
    4726:	4a01                	li	s4,0
    4728:	250030ef          	jal	ra,7978 <__subdf3>
    472c:	00006797          	auipc	a5,0x6
    4730:	0cc78793          	addi	a5,a5,204 # a7f8 <_read+0x214>
    4734:	4390                	lw	a2,0(a5)
    4736:	43d4                	lw	a3,4(a5)
    4738:	892a                	mv	s2,a0
    473a:	89ae                	mv	s3,a1
    473c:	8522                	mv	a0,s0
    473e:	85a6                	mv	a1,s1
    4740:	6cf010ef          	jal	ra,660e <__adddf3>
    4744:	862a                	mv	a2,a0
    4746:	86ae                	mv	a3,a1
    4748:	854a                	mv	a0,s2
    474a:	85ce                	mv	a1,s3
    474c:	5f2020ef          	jal	ra,6d3e <__divdf3>
    4750:	84aa                	mv	s1,a0
    4752:	842e                	mv	s0,a1
    4754:	b3dd                	j	453a <atan+0x86>
    4756:	400387b7          	lui	a5,0x40038
    475a:	04f95863          	bge	s2,a5,47aa <atan+0x2f6>
    475e:	00006917          	auipc	s2,0x6
    4762:	0a290913          	addi	s2,s2,162 # a800 <_read+0x21c>
    4766:	00092603          	lw	a2,0(s2)
    476a:	00492683          	lw	a3,4(s2)
    476e:	4a09                	li	s4,2
    4770:	208030ef          	jal	ra,7978 <__subdf3>
    4774:	00092603          	lw	a2,0(s2)
    4778:	00492683          	lw	a3,4(s2)
    477c:	8b2a                	mv	s6,a0
    477e:	8bae                	mv	s7,a1
    4780:	8522                	mv	a0,s0
    4782:	85a6                	mv	a1,s1
    4784:	53d020ef          	jal	ra,74c0 <__muldf3>
    4788:	00006797          	auipc	a5,0x6
    478c:	06878793          	addi	a5,a5,104 # a7f0 <_read+0x20c>
    4790:	4390                	lw	a2,0(a5)
    4792:	43d4                	lw	a3,4(a5)
    4794:	67b010ef          	jal	ra,660e <__adddf3>
    4798:	862a                	mv	a2,a0
    479a:	86ae                	mv	a3,a1
    479c:	855a                	mv	a0,s6
    479e:	85de                	mv	a1,s7
    47a0:	59e020ef          	jal	ra,6d3e <__divdf3>
    47a4:	84aa                	mv	s1,a0
    47a6:	842e                	mv	s0,a1
    47a8:	bb49                	j	453a <atan+0x86>
    47aa:	00006797          	auipc	a5,0x6
    47ae:	05e78793          	addi	a5,a5,94 # a808 <_read+0x224>
    47b2:	4388                	lw	a0,0(a5)
    47b4:	43cc                	lw	a1,4(a5)
    47b6:	8622                	mv	a2,s0
    47b8:	86a6                	mv	a3,s1
    47ba:	584020ef          	jal	ra,6d3e <__divdf3>
    47be:	4a0d                	li	s4,3
    47c0:	84aa                	mv	s1,a0
    47c2:	842e                	mv	s0,a1
    47c4:	bb9d                	j	453a <atan+0x86>
    47c6:	00006917          	auipc	s2,0x6
    47ca:	02a90913          	addi	s2,s2,42 # a7f0 <_read+0x20c>
    47ce:	00092603          	lw	a2,0(s2)
    47d2:	00492683          	lw	a3,4(s2)
    47d6:	4a05                	li	s4,1
    47d8:	1a0030ef          	jal	ra,7978 <__subdf3>
    47dc:	8b2a                	mv	s6,a0
    47de:	8bae                	mv	s7,a1
    47e0:	00092603          	lw	a2,0(s2)
    47e4:	00492683          	lw	a3,4(s2)
    47e8:	8522                	mv	a0,s0
    47ea:	85a6                	mv	a1,s1
    47ec:	b765                	j	4794 <atan+0x2e0>

000047ee <cos>:
    47ee:	1101                	addi	sp,sp,-32
    47f0:	cc22                	sw	s0,24(sp)
    47f2:	80000437          	lui	s0,0x80000
    47f6:	fff44793          	not	a5,s0
    47fa:	3fe92737          	lui	a4,0x3fe92
    47fe:	ce06                	sw	ra,28(sp)
    4800:	8fed                	and	a5,a5,a1
    4802:	1fb70713          	addi	a4,a4,507 # 3fe921fb <__freertos_irq_stack_top+0x1fe8d1fb>
    4806:	04f75063          	bge	a4,a5,4846 <cos+0x58>
    480a:	7ff00737          	lui	a4,0x7ff00
    480e:	00e7ca63          	blt	a5,a4,4822 <cos+0x34>
    4812:	86ae                	mv	a3,a1
    4814:	862a                	mv	a2,a0
    4816:	162030ef          	jal	ra,7978 <__subdf3>
    481a:	40f2                	lw	ra,28(sp)
    481c:	4462                	lw	s0,24(sp)
    481e:	6105                	addi	sp,sp,32
    4820:	8082                	ret
    4822:	860a                	mv	a2,sp
    4824:	2e41                	jal	4bb4 <__ieee754_rem_pio2>
    4826:	890d                	andi	a0,a0,3
    4828:	4785                	li	a5,1
    482a:	02f50663          	beq	a0,a5,4856 <cos+0x68>
    482e:	4789                	li	a5,2
    4830:	4622                	lw	a2,8(sp)
    4832:	46b2                	lw	a3,12(sp)
    4834:	02f50f63          	beq	a0,a5,4872 <cos+0x84>
    4838:	c905                	beqz	a0,4868 <cos+0x7a>
    483a:	4502                	lw	a0,0(sp)
    483c:	4592                	lw	a1,4(sp)
    483e:	4705                	li	a4,1
    4840:	5ba010ef          	jal	ra,5dfa <__kernel_sin>
    4844:	bfd9                	j	481a <cos+0x2c>
    4846:	4601                	li	a2,0
    4848:	4681                	li	a3,0
    484a:	1a7000ef          	jal	ra,51f0 <__kernel_cos>
    484e:	40f2                	lw	ra,28(sp)
    4850:	4462                	lw	s0,24(sp)
    4852:	6105                	addi	sp,sp,32
    4854:	8082                	ret
    4856:	4622                	lw	a2,8(sp)
    4858:	46b2                	lw	a3,12(sp)
    485a:	4502                	lw	a0,0(sp)
    485c:	4592                	lw	a1,4(sp)
    485e:	4705                	li	a4,1
    4860:	59a010ef          	jal	ra,5dfa <__kernel_sin>
    4864:	8da1                	xor	a1,a1,s0
    4866:	bf55                	j	481a <cos+0x2c>
    4868:	4502                	lw	a0,0(sp)
    486a:	4592                	lw	a1,4(sp)
    486c:	185000ef          	jal	ra,51f0 <__kernel_cos>
    4870:	b76d                	j	481a <cos+0x2c>
    4872:	4502                	lw	a0,0(sp)
    4874:	4592                	lw	a1,4(sp)
    4876:	17b000ef          	jal	ra,51f0 <__kernel_cos>
    487a:	8da1                	xor	a1,a1,s0
    487c:	bf79                	j	481a <cos+0x2c>

0000487e <fabs>:
    487e:	0586                	slli	a1,a1,0x1
    4880:	8185                	srli	a1,a1,0x1
    4882:	8082                	ret

00004884 <sin>:
    4884:	1101                	addi	sp,sp,-32
    4886:	cc22                	sw	s0,24(sp)
    4888:	80000437          	lui	s0,0x80000
    488c:	fff44793          	not	a5,s0
    4890:	3fe92737          	lui	a4,0x3fe92
    4894:	ce06                	sw	ra,28(sp)
    4896:	8fed                	and	a5,a5,a1
    4898:	1fb70713          	addi	a4,a4,507 # 3fe921fb <__freertos_irq_stack_top+0x1fe8d1fb>
    489c:	04f75063          	bge	a4,a5,48dc <sin+0x58>
    48a0:	7ff00737          	lui	a4,0x7ff00
    48a4:	00e7ca63          	blt	a5,a4,48b8 <sin+0x34>
    48a8:	86ae                	mv	a3,a1
    48aa:	862a                	mv	a2,a0
    48ac:	0cc030ef          	jal	ra,7978 <__subdf3>
    48b0:	40f2                	lw	ra,28(sp)
    48b2:	4462                	lw	s0,24(sp)
    48b4:	6105                	addi	sp,sp,32
    48b6:	8082                	ret
    48b8:	860a                	mv	a2,sp
    48ba:	2ced                	jal	4bb4 <__ieee754_rem_pio2>
    48bc:	890d                	andi	a0,a0,3
    48be:	4785                	li	a5,1
    48c0:	02f50763          	beq	a0,a5,48ee <sin+0x6a>
    48c4:	4789                	li	a5,2
    48c6:	4622                	lw	a2,8(sp)
    48c8:	46b2                	lw	a3,12(sp)
    48ca:	02f50f63          	beq	a0,a5,4908 <sin+0x84>
    48ce:	c51d                	beqz	a0,48fc <sin+0x78>
    48d0:	4502                	lw	a0,0(sp)
    48d2:	4592                	lw	a1,4(sp)
    48d4:	11d000ef          	jal	ra,51f0 <__kernel_cos>
    48d8:	8da1                	xor	a1,a1,s0
    48da:	bfd9                	j	48b0 <sin+0x2c>
    48dc:	4701                	li	a4,0
    48de:	4601                	li	a2,0
    48e0:	4681                	li	a3,0
    48e2:	518010ef          	jal	ra,5dfa <__kernel_sin>
    48e6:	40f2                	lw	ra,28(sp)
    48e8:	4462                	lw	s0,24(sp)
    48ea:	6105                	addi	sp,sp,32
    48ec:	8082                	ret
    48ee:	4622                	lw	a2,8(sp)
    48f0:	46b2                	lw	a3,12(sp)
    48f2:	4502                	lw	a0,0(sp)
    48f4:	4592                	lw	a1,4(sp)
    48f6:	0fb000ef          	jal	ra,51f0 <__kernel_cos>
    48fa:	bf5d                	j	48b0 <sin+0x2c>
    48fc:	4502                	lw	a0,0(sp)
    48fe:	4592                	lw	a1,4(sp)
    4900:	4705                	li	a4,1
    4902:	4f8010ef          	jal	ra,5dfa <__kernel_sin>
    4906:	b76d                	j	48b0 <sin+0x2c>
    4908:	4502                	lw	a0,0(sp)
    490a:	4592                	lw	a1,4(sp)
    490c:	4705                	li	a4,1
    490e:	4ec010ef          	jal	ra,5dfa <__kernel_sin>
    4912:	8da1                	xor	a1,a1,s0
    4914:	bf71                	j	48b0 <sin+0x2c>

00004916 <atan2>:
    4916:	a86d                	j	49d0 <__ieee754_atan2>

00004918 <sqrt>:
    4918:	715d                	addi	sp,sp,-80
    491a:	c4a2                	sw	s0,72(sp)
    491c:	c2a6                	sw	s1,68(sp)
    491e:	c0ca                	sw	s2,64(sp)
    4920:	de52                	sw	s4,60(sp)
    4922:	dc56                	sw	s5,56(sp)
    4924:	c686                	sw	ra,76(sp)
    4926:	842a                	mv	s0,a0
    4928:	84ae                	mv	s1,a1
    492a:	2dc5                	jal	501a <__ieee754_sqrt>
    492c:	81418793          	addi	a5,gp,-2028 # 20000094 <__fdlib_version>
    4930:	0007a903          	lw	s2,0(a5)
    4934:	57fd                	li	a5,-1
    4936:	8a2a                	mv	s4,a0
    4938:	8aae                	mv	s5,a1
    493a:	02f90163          	beq	s2,a5,495c <sqrt+0x44>
    493e:	8622                	mv	a2,s0
    4940:	86a6                	mv	a3,s1
    4942:	8522                	mv	a0,s0
    4944:	85a6                	mv	a1,s1
    4946:	770030ef          	jal	ra,80b6 <__unorddf2>
    494a:	e909                	bnez	a0,495c <sqrt+0x44>
    494c:	4601                	li	a2,0
    494e:	4681                	li	a3,0
    4950:	8522                	mv	a0,s0
    4952:	85a6                	mv	a1,s1
    4954:	2b7020ef          	jal	ra,740a <__ledf2>
    4958:	00054c63          	bltz	a0,4970 <sqrt+0x58>
    495c:	40b6                	lw	ra,76(sp)
    495e:	4426                	lw	s0,72(sp)
    4960:	8552                	mv	a0,s4
    4962:	85d6                	mv	a1,s5
    4964:	4496                	lw	s1,68(sp)
    4966:	4906                	lw	s2,64(sp)
    4968:	5a72                	lw	s4,60(sp)
    496a:	5ae2                	lw	s5,56(sp)
    496c:	6161                	addi	sp,sp,80
    496e:	8082                	ret
    4970:	4785                	li	a5,1
    4972:	c43e                	sw	a5,8(sp)
    4974:	00006797          	auipc	a5,0x6
    4978:	f3478793          	addi	a5,a5,-204 # a8a8 <atanlo+0x20>
    497c:	c63e                	sw	a5,12(sp)
    497e:	d402                	sw	zero,40(sp)
    4980:	cc22                	sw	s0,24(sp)
    4982:	ce26                	sw	s1,28(sp)
    4984:	c822                	sw	s0,16(sp)
    4986:	ca26                	sw	s1,20(sp)
    4988:	02090763          	beqz	s2,49b6 <sqrt+0x9e>
    498c:	4601                	li	a2,0
    498e:	4681                	li	a3,0
    4990:	8532                	mv	a0,a2
    4992:	85b6                	mv	a1,a3
    4994:	3aa020ef          	jal	ra,6d3e <__divdf3>
    4998:	d02a                	sw	a0,32(sp)
    499a:	d22e                	sw	a1,36(sp)
    499c:	4789                	li	a5,2
    499e:	00f91e63          	bne	s2,a5,49ba <sqrt+0xa2>
    49a2:	0f7040ef          	jal	ra,9298 <__errno>
    49a6:	02100793          	li	a5,33
    49aa:	c11c                	sw	a5,0(a0)
    49ac:	57a2                	lw	a5,40(sp)
    49ae:	ef81                	bnez	a5,49c6 <sqrt+0xae>
    49b0:	5a02                	lw	s4,32(sp)
    49b2:	5a92                	lw	s5,36(sp)
    49b4:	b765                	j	495c <sqrt+0x44>
    49b6:	d002                	sw	zero,32(sp)
    49b8:	d202                	sw	zero,36(sp)
    49ba:	0028                	addi	a0,sp,8
    49bc:	722010ef          	jal	ra,60de <matherr>
    49c0:	d16d                	beqz	a0,49a2 <sqrt+0x8a>
    49c2:	57a2                	lw	a5,40(sp)
    49c4:	d7f5                	beqz	a5,49b0 <sqrt+0x98>
    49c6:	0d3040ef          	jal	ra,9298 <__errno>
    49ca:	57a2                	lw	a5,40(sp)
    49cc:	c11c                	sw	a5,0(a0)
    49ce:	b7cd                	j	49b0 <sqrt+0x98>

000049d0 <__ieee754_atan2>:
    49d0:	40c007b3          	neg	a5,a2
    49d4:	80000737          	lui	a4,0x80000
    49d8:	fff74713          	not	a4,a4
    49dc:	8fd1                	or	a5,a5,a2
    49de:	1141                	addi	sp,sp,-16
    49e0:	00d77e33          	and	t3,a4,a3
    49e4:	83fd                	srli	a5,a5,0x1f
    49e6:	c606                	sw	ra,12(sp)
    49e8:	c422                	sw	s0,8(sp)
    49ea:	01c7e7b3          	or	a5,a5,t3
    49ee:	7ff00337          	lui	t1,0x7ff00
    49f2:	88aa                	mv	a7,a0
    49f4:	882e                	mv	a6,a1
    49f6:	04f36763          	bltu	t1,a5,4a44 <__ieee754_atan2+0x74>
    49fa:	40a007b3          	neg	a5,a0
    49fe:	8fc9                	or	a5,a5,a0
    4a00:	8f6d                	and	a4,a4,a1
    4a02:	83fd                	srli	a5,a5,0x1f
    4a04:	8fd9                	or	a5,a5,a4
    4a06:	8f2e                	mv	t5,a1
    4a08:	02f36e63          	bltu	t1,a5,4a44 <__ieee754_atan2+0x74>
    4a0c:	c01007b7          	lui	a5,0xc0100
    4a10:	97b6                	add	a5,a5,a3
    4a12:	8fd1                	or	a5,a5,a2
    4a14:	c7f1                	beqz	a5,4ae0 <__ieee754_atan2+0x110>
    4a16:	41e6d413          	srai	s0,a3,0x1e
    4a1a:	00247593          	andi	a1,s0,2
    4a1e:	00a767b3          	or	a5,a4,a0
    4a22:	01f85413          	srli	s0,a6,0x1f
    4a26:	8c4d                	or	s0,s0,a1
    4a28:	eb85                	bnez	a5,4a58 <__ieee754_atan2+0x88>
    4a2a:	4789                	li	a5,2
    4a2c:	0af40f63          	beq	s0,a5,4aea <__ieee754_atan2+0x11a>
    4a30:	478d                	li	a5,3
    4a32:	0af41263          	bne	s0,a5,4ad6 <__ieee754_atan2+0x106>
    4a36:	00006797          	auipc	a5,0x6
    4a3a:	e8278793          	addi	a5,a5,-382 # a8b8 <atanlo+0x30>
    4a3e:	4388                	lw	a0,0(a5)
    4a40:	43cc                	lw	a1,4(a5)
    4a42:	a039                	j	4a50 <__ieee754_atan2+0x80>
    4a44:	8532                	mv	a0,a2
    4a46:	85b6                	mv	a1,a3
    4a48:	8646                	mv	a2,a7
    4a4a:	86c2                	mv	a3,a6
    4a4c:	3c3010ef          	jal	ra,660e <__adddf3>
    4a50:	40b2                	lw	ra,12(sp)
    4a52:	4422                	lw	s0,8(sp)
    4a54:	0141                	addi	sp,sp,16
    4a56:	8082                	ret
    4a58:	00ce67b3          	or	a5,t3,a2
    4a5c:	c7a5                	beqz	a5,4ac4 <__ieee754_atan2+0xf4>
    4a5e:	0a6e0463          	beq	t3,t1,4b06 <__ieee754_atan2+0x136>
    4a62:	06670163          	beq	a4,t1,4ac4 <__ieee754_atan2+0xf4>
    4a66:	41c70733          	sub	a4,a4,t3
    4a6a:	8751                	srai	a4,a4,0x14
    4a6c:	03c00793          	li	a5,60
    4a70:	08e7c463          	blt	a5,a4,4af8 <__ieee754_atan2+0x128>
    4a74:	0006d863          	bgez	a3,4a84 <__ieee754_atan2+0xb4>
    4a78:	fc400793          	li	a5,-60
    4a7c:	4501                	li	a0,0
    4a7e:	4581                	li	a1,0
    4a80:	00f74a63          	blt	a4,a5,4a94 <__ieee754_atan2+0xc4>
    4a84:	8546                	mv	a0,a7
    4a86:	85c2                	mv	a1,a6
    4a88:	2b6020ef          	jal	ra,6d3e <__divdf3>
    4a8c:	df3ff0ef          	jal	ra,487e <fabs>
    4a90:	a25ff0ef          	jal	ra,44b4 <atan>
    4a94:	4785                	li	a5,1
    4a96:	0cf40063          	beq	s0,a5,4b56 <__ieee754_atan2+0x186>
    4a9a:	4789                	li	a5,2
    4a9c:	08f40a63          	beq	s0,a5,4b30 <__ieee754_atan2+0x160>
    4aa0:	d845                	beqz	s0,4a50 <__ieee754_atan2+0x80>
    4aa2:	00006797          	auipc	a5,0x6
    4aa6:	e4678793          	addi	a5,a5,-442 # a8e8 <atanlo+0x60>
    4aaa:	4390                	lw	a2,0(a5)
    4aac:	43d4                	lw	a3,4(a5)
    4aae:	6cb020ef          	jal	ra,7978 <__subdf3>
    4ab2:	00006797          	auipc	a5,0x6
    4ab6:	dfe78793          	addi	a5,a5,-514 # a8b0 <atanlo+0x28>
    4aba:	4390                	lw	a2,0(a5)
    4abc:	43d4                	lw	a3,4(a5)
    4abe:	6bb020ef          	jal	ra,7978 <__subdf3>
    4ac2:	b779                	j	4a50 <__ieee754_atan2+0x80>
    4ac4:	040f4f63          	bltz	t5,4b22 <__ieee754_atan2+0x152>
    4ac8:	00006797          	auipc	a5,0x6
    4acc:	d1078793          	addi	a5,a5,-752 # a7d8 <_read+0x1f4>
    4ad0:	4388                	lw	a0,0(a5)
    4ad2:	43cc                	lw	a1,4(a5)
    4ad4:	bfb5                	j	4a50 <__ieee754_atan2+0x80>
    4ad6:	40b2                	lw	ra,12(sp)
    4ad8:	4422                	lw	s0,8(sp)
    4ada:	85c2                	mv	a1,a6
    4adc:	0141                	addi	sp,sp,16
    4ade:	8082                	ret
    4ae0:	4422                	lw	s0,8(sp)
    4ae2:	40b2                	lw	ra,12(sp)
    4ae4:	0141                	addi	sp,sp,16
    4ae6:	9cfff06f          	j	44b4 <atan>
    4aea:	00006797          	auipc	a5,0x6
    4aee:	dc678793          	addi	a5,a5,-570 # a8b0 <atanlo+0x28>
    4af2:	4388                	lw	a0,0(a5)
    4af4:	43cc                	lw	a1,4(a5)
    4af6:	bfa9                	j	4a50 <__ieee754_atan2+0x80>
    4af8:	00006797          	auipc	a5,0x6
    4afc:	ce078793          	addi	a5,a5,-800 # a7d8 <_read+0x1f4>
    4b00:	4388                	lw	a0,0(a5)
    4b02:	43cc                	lw	a1,4(a5)
    4b04:	bf41                	j	4a94 <__ieee754_atan2+0xc4>
    4b06:	4789                	li	a5,2
    4b08:	05c70b63          	beq	a4,t3,4b5e <__ieee754_atan2+0x18e>
    4b0c:	fcf40fe3          	beq	s0,a5,4aea <__ieee754_atan2+0x11a>
    4b10:	478d                	li	a5,3
    4b12:	f2f402e3          	beq	s0,a5,4a36 <__ieee754_atan2+0x66>
    4b16:	4785                	li	a5,1
    4b18:	06f40263          	beq	s0,a5,4b7c <__ieee754_atan2+0x1ac>
    4b1c:	4501                	li	a0,0
    4b1e:	4581                	li	a1,0
    4b20:	bf05                	j	4a50 <__ieee754_atan2+0x80>
    4b22:	00006797          	auipc	a5,0x6
    4b26:	cbe78793          	addi	a5,a5,-834 # a7e0 <_read+0x1fc>
    4b2a:	4388                	lw	a0,0(a5)
    4b2c:	43cc                	lw	a1,4(a5)
    4b2e:	b70d                	j	4a50 <__ieee754_atan2+0x80>
    4b30:	00006797          	auipc	a5,0x6
    4b34:	db878793          	addi	a5,a5,-584 # a8e8 <atanlo+0x60>
    4b38:	4390                	lw	a2,0(a5)
    4b3a:	43d4                	lw	a3,4(a5)
    4b3c:	63d020ef          	jal	ra,7978 <__subdf3>
    4b40:	00006797          	auipc	a5,0x6
    4b44:	d7078793          	addi	a5,a5,-656 # a8b0 <atanlo+0x28>
    4b48:	862a                	mv	a2,a0
    4b4a:	86ae                	mv	a3,a1
    4b4c:	4388                	lw	a0,0(a5)
    4b4e:	43cc                	lw	a1,4(a5)
    4b50:	629020ef          	jal	ra,7978 <__subdf3>
    4b54:	bdf5                	j	4a50 <__ieee754_atan2+0x80>
    4b56:	800007b7          	lui	a5,0x80000
    4b5a:	8dbd                	xor	a1,a1,a5
    4b5c:	bdd5                	j	4a50 <__ieee754_atan2+0x80>
    4b5e:	04f40463          	beq	s0,a5,4ba6 <__ieee754_atan2+0x1d6>
    4b62:	478d                	li	a5,3
    4b64:	02f40a63          	beq	s0,a5,4b98 <__ieee754_atan2+0x1c8>
    4b68:	4785                	li	a5,1
    4b6a:	02f40063          	beq	s0,a5,4b8a <__ieee754_atan2+0x1ba>
    4b6e:	00006797          	auipc	a5,0x6
    4b72:	d6a78793          	addi	a5,a5,-662 # a8d8 <atanlo+0x50>
    4b76:	4388                	lw	a0,0(a5)
    4b78:	43cc                	lw	a1,4(a5)
    4b7a:	bdd9                	j	4a50 <__ieee754_atan2+0x80>
    4b7c:	00006797          	auipc	a5,0x6
    4b80:	d4478793          	addi	a5,a5,-700 # a8c0 <atanlo+0x38>
    4b84:	4388                	lw	a0,0(a5)
    4b86:	43cc                	lw	a1,4(a5)
    4b88:	b5e1                	j	4a50 <__ieee754_atan2+0x80>
    4b8a:	00006797          	auipc	a5,0x6
    4b8e:	d5678793          	addi	a5,a5,-682 # a8e0 <atanlo+0x58>
    4b92:	4388                	lw	a0,0(a5)
    4b94:	43cc                	lw	a1,4(a5)
    4b96:	bd6d                	j	4a50 <__ieee754_atan2+0x80>
    4b98:	00006797          	auipc	a5,0x6
    4b9c:	d3878793          	addi	a5,a5,-712 # a8d0 <atanlo+0x48>
    4ba0:	4388                	lw	a0,0(a5)
    4ba2:	43cc                	lw	a1,4(a5)
    4ba4:	b575                	j	4a50 <__ieee754_atan2+0x80>
    4ba6:	00006797          	auipc	a5,0x6
    4baa:	d2278793          	addi	a5,a5,-734 # a8c8 <atanlo+0x40>
    4bae:	4388                	lw	a0,0(a5)
    4bb0:	43cc                	lw	a1,4(a5)
    4bb2:	bd79                	j	4a50 <__ieee754_atan2+0x80>

00004bb4 <__ieee754_rem_pio2>:
    4bb4:	7159                	addi	sp,sp,-112
    4bb6:	d4a2                	sw	s0,104(sp)
    4bb8:	3fe92737          	lui	a4,0x3fe92
    4bbc:	00159413          	slli	s0,a1,0x1
    4bc0:	d686                	sw	ra,108(sp)
    4bc2:	d2a6                	sw	s1,100(sp)
    4bc4:	d0ca                	sw	s2,96(sp)
    4bc6:	cece                	sw	s3,92(sp)
    4bc8:	ccd2                	sw	s4,88(sp)
    4bca:	cad6                	sw	s5,84(sp)
    4bcc:	c8da                	sw	s6,80(sp)
    4bce:	c6de                	sw	s7,76(sp)
    4bd0:	c4e2                	sw	s8,72(sp)
    4bd2:	c2e6                	sw	s9,68(sp)
    4bd4:	c0ea                	sw	s10,64(sp)
    4bd6:	de6e                	sw	s11,60(sp)
    4bd8:	8005                	srli	s0,s0,0x1
    4bda:	1fb70713          	addi	a4,a4,507 # 3fe921fb <__freertos_irq_stack_top+0x1fe8d1fb>
    4bde:	14875c63          	bge	a4,s0,4d36 <__ieee754_rem_pio2+0x182>
    4be2:	4002e737          	lui	a4,0x4002e
    4be6:	97b70713          	addi	a4,a4,-1669 # 4002d97b <__freertos_irq_stack_top+0x2002897b>
    4bea:	89b2                	mv	s3,a2
    4bec:	06874f63          	blt	a4,s0,4c6a <__ieee754_rem_pio2+0xb6>
    4bf0:	00006797          	auipc	a5,0x6
    4bf4:	d0078793          	addi	a5,a5,-768 # a8f0 <atanlo+0x68>
    4bf8:	4390                	lw	a2,0(a5)
    4bfa:	43d4                	lw	a3,4(a5)
    4bfc:	3ab05763          	blez	a1,4faa <__ieee754_rem_pio2+0x3f6>
    4c00:	579020ef          	jal	ra,7978 <__subdf3>
    4c04:	3ff927b7          	lui	a5,0x3ff92
    4c08:	1fb78793          	addi	a5,a5,507 # 3ff921fb <__freertos_irq_stack_top+0x1ff8d1fb>
    4c0c:	8a2a                	mv	s4,a0
    4c0e:	8aae                	mv	s5,a1
    4c10:	14f40963          	beq	s0,a5,4d62 <__ieee754_rem_pio2+0x1ae>
    4c14:	00006417          	auipc	s0,0x6
    4c18:	ce440413          	addi	s0,s0,-796 # a8f8 <atanlo+0x70>
    4c1c:	4010                	lw	a2,0(s0)
    4c1e:	4054                	lw	a3,4(s0)
    4c20:	4485                	li	s1,1
    4c22:	557020ef          	jal	ra,7978 <__subdf3>
    4c26:	862a                	mv	a2,a0
    4c28:	86ae                	mv	a3,a1
    4c2a:	00a9a023          	sw	a0,0(s3)
    4c2e:	00b9a223          	sw	a1,4(s3)
    4c32:	8552                	mv	a0,s4
    4c34:	85d6                	mv	a1,s5
    4c36:	543020ef          	jal	ra,7978 <__subdf3>
    4c3a:	4010                	lw	a2,0(s0)
    4c3c:	4054                	lw	a3,4(s0)
    4c3e:	53b020ef          	jal	ra,7978 <__subdf3>
    4c42:	00a9a423          	sw	a0,8(s3)
    4c46:	00b9a623          	sw	a1,12(s3)
    4c4a:	50b6                	lw	ra,108(sp)
    4c4c:	5426                	lw	s0,104(sp)
    4c4e:	8526                	mv	a0,s1
    4c50:	5906                	lw	s2,96(sp)
    4c52:	5496                	lw	s1,100(sp)
    4c54:	49f6                	lw	s3,92(sp)
    4c56:	4a66                	lw	s4,88(sp)
    4c58:	4ad6                	lw	s5,84(sp)
    4c5a:	4b46                	lw	s6,80(sp)
    4c5c:	4bb6                	lw	s7,76(sp)
    4c5e:	4c26                	lw	s8,72(sp)
    4c60:	4c96                	lw	s9,68(sp)
    4c62:	4d06                	lw	s10,64(sp)
    4c64:	5df2                	lw	s11,60(sp)
    4c66:	6165                	addi	sp,sp,112
    4c68:	8082                	ret
    4c6a:	41392737          	lui	a4,0x41392
    4c6e:	1fb70713          	addi	a4,a4,507 # 413921fb <__freertos_irq_stack_top+0x2138d1fb>
    4c72:	892e                	mv	s2,a1
    4c74:	10875963          	bge	a4,s0,4d86 <__ieee754_rem_pio2+0x1d2>
    4c78:	7ff00737          	lui	a4,0x7ff00
    4c7c:	0ce45563          	bge	s0,a4,4d46 <__ieee754_rem_pio2+0x192>
    4c80:	41445a13          	srai	s4,s0,0x14
    4c84:	beaa0a13          	addi	s4,s4,-1046
    4c88:	014a1793          	slli	a5,s4,0x14
    4c8c:	8c1d                	sub	s0,s0,a5
    4c8e:	85a2                	mv	a1,s0
    4c90:	84aa                	mv	s1,a0
    4c92:	460030ef          	jal	ra,80f2 <__fixdfsi>
    4c96:	4c4030ef          	jal	ra,815a <__floatsidf>
    4c9a:	872a                	mv	a4,a0
    4c9c:	87ae                	mv	a5,a1
    4c9e:	863a                	mv	a2,a4
    4ca0:	86be                	mv	a3,a5
    4ca2:	8526                	mv	a0,s1
    4ca4:	85a2                	mv	a1,s0
    4ca6:	cc3a                	sw	a4,24(sp)
    4ca8:	ce3e                	sw	a5,28(sp)
    4caa:	00006497          	auipc	s1,0x6
    4cae:	c8648493          	addi	s1,s1,-890 # a930 <atanlo+0xa8>
    4cb2:	4c7020ef          	jal	ra,7978 <__subdf3>
    4cb6:	4090                	lw	a2,0(s1)
    4cb8:	40d4                	lw	a3,4(s1)
    4cba:	007020ef          	jal	ra,74c0 <__muldf3>
    4cbe:	8bae                	mv	s7,a1
    4cc0:	8b2a                	mv	s6,a0
    4cc2:	430030ef          	jal	ra,80f2 <__fixdfsi>
    4cc6:	842a                	mv	s0,a0
    4cc8:	492030ef          	jal	ra,815a <__floatsidf>
    4ccc:	872a                	mv	a4,a0
    4cce:	87ae                	mv	a5,a1
    4cd0:	862a                	mv	a2,a0
    4cd2:	86ae                	mv	a3,a1
    4cd4:	855a                	mv	a0,s6
    4cd6:	85de                	mv	a1,s7
    4cd8:	d03a                	sw	a4,32(sp)
    4cda:	d23e                	sw	a5,36(sp)
    4cdc:	49d020ef          	jal	ra,7978 <__subdf3>
    4ce0:	4090                	lw	a2,0(s1)
    4ce2:	40d4                	lw	a3,4(s1)
    4ce4:	7dc020ef          	jal	ra,74c0 <__muldf3>
    4ce8:	4681                	li	a3,0
    4cea:	4601                	li	a2,0
    4cec:	d42a                	sw	a0,40(sp)
    4cee:	d62e                	sw	a1,44(sp)
    4cf0:	602020ef          	jal	ra,72f2 <__eqdf2>
    4cf4:	008036b3          	snez	a3,s0
    4cf8:	0685                	addi	a3,a3,1
    4cfa:	22051863          	bnez	a0,4f2a <__ieee754_rem_pio2+0x376>
    4cfe:	00006797          	auipc	a5,0x6
    4d02:	cba78793          	addi	a5,a5,-838 # a9b8 <two_over_pi>
    4d06:	4709                	li	a4,2
    4d08:	8652                	mv	a2,s4
    4d0a:	85ce                	mv	a1,s3
    4d0c:	0828                	addi	a0,sp,24
    4d0e:	79a000ef          	jal	ra,54a8 <__kernel_rem_pio2>
    4d12:	84aa                	mv	s1,a0
    4d14:	f2095be3          	bgez	s2,4c4a <__ieee754_rem_pio2+0x96>
    4d18:	0049a703          	lw	a4,4(s3)
    4d1c:	00c9a783          	lw	a5,12(s3)
    4d20:	800006b7          	lui	a3,0x80000
    4d24:	8f35                	xor	a4,a4,a3
    4d26:	8fb5                	xor	a5,a5,a3
    4d28:	00e9a223          	sw	a4,4(s3)
    4d2c:	00f9a623          	sw	a5,12(s3)
    4d30:	40a004b3          	neg	s1,a0
    4d34:	bf19                	j	4c4a <__ieee754_rem_pio2+0x96>
    4d36:	c208                	sw	a0,0(a2)
    4d38:	c24c                	sw	a1,4(a2)
    4d3a:	00062423          	sw	zero,8(a2)
    4d3e:	00062623          	sw	zero,12(a2)
    4d42:	4481                	li	s1,0
    4d44:	b719                	j	4c4a <__ieee754_rem_pio2+0x96>
    4d46:	862a                	mv	a2,a0
    4d48:	86ae                	mv	a3,a1
    4d4a:	42f020ef          	jal	ra,7978 <__subdf3>
    4d4e:	00a9a423          	sw	a0,8(s3)
    4d52:	00b9a623          	sw	a1,12(s3)
    4d56:	00a9a023          	sw	a0,0(s3)
    4d5a:	00b9a223          	sw	a1,4(s3)
    4d5e:	4481                	li	s1,0
    4d60:	b5ed                	j	4c4a <__ieee754_rem_pio2+0x96>
    4d62:	00006797          	auipc	a5,0x6
    4d66:	b9e78793          	addi	a5,a5,-1122 # a900 <atanlo+0x78>
    4d6a:	4390                	lw	a2,0(a5)
    4d6c:	43d4                	lw	a3,4(a5)
    4d6e:	00006417          	auipc	s0,0x6
    4d72:	b9a40413          	addi	s0,s0,-1126 # a908 <atanlo+0x80>
    4d76:	4485                	li	s1,1
    4d78:	401020ef          	jal	ra,7978 <__subdf3>
    4d7c:	8a2a                	mv	s4,a0
    4d7e:	8aae                	mv	s5,a1
    4d80:	4010                	lw	a2,0(s0)
    4d82:	4054                	lw	a3,4(s0)
    4d84:	bd79                	j	4c22 <__ieee754_rem_pio2+0x6e>
    4d86:	af9ff0ef          	jal	ra,487e <fabs>
    4d8a:	00006797          	auipc	a5,0x6
    4d8e:	b8678793          	addi	a5,a5,-1146 # a910 <atanlo+0x88>
    4d92:	4390                	lw	a2,0(a5)
    4d94:	43d4                	lw	a3,4(a5)
    4d96:	8a2a                	mv	s4,a0
    4d98:	8aae                	mv	s5,a1
    4d9a:	726020ef          	jal	ra,74c0 <__muldf3>
    4d9e:	00006797          	auipc	a5,0x6
    4da2:	b7a78793          	addi	a5,a5,-1158 # a918 <atanlo+0x90>
    4da6:	4390                	lw	a2,0(a5)
    4da8:	43d4                	lw	a3,4(a5)
    4daa:	065010ef          	jal	ra,660e <__adddf3>
    4dae:	344030ef          	jal	ra,80f2 <__fixdfsi>
    4db2:	84aa                	mv	s1,a0
    4db4:	3a6030ef          	jal	ra,815a <__floatsidf>
    4db8:	00006797          	auipc	a5,0x6
    4dbc:	b3878793          	addi	a5,a5,-1224 # a8f0 <atanlo+0x68>
    4dc0:	4390                	lw	a2,0(a5)
    4dc2:	43d4                	lw	a3,4(a5)
    4dc4:	8b2a                	mv	s6,a0
    4dc6:	8bae                	mv	s7,a1
    4dc8:	6f8020ef          	jal	ra,74c0 <__muldf3>
    4dcc:	862a                	mv	a2,a0
    4dce:	86ae                	mv	a3,a1
    4dd0:	8552                	mv	a0,s4
    4dd2:	85d6                	mv	a1,s5
    4dd4:	3a5020ef          	jal	ra,7978 <__subdf3>
    4dd8:	00006797          	auipc	a5,0x6
    4ddc:	b2078793          	addi	a5,a5,-1248 # a8f8 <atanlo+0x70>
    4de0:	4390                	lw	a2,0(a5)
    4de2:	43d4                	lw	a3,4(a5)
    4de4:	8d2a                	mv	s10,a0
    4de6:	8cae                	mv	s9,a1
    4de8:	855a                	mv	a0,s6
    4dea:	85de                	mv	a1,s7
    4dec:	6d4020ef          	jal	ra,74c0 <__muldf3>
    4df0:	8a2a                	mv	s4,a0
    4df2:	8aae                	mv	s5,a1
    4df4:	47fd                	li	a5,31
    4df6:	856a                	mv	a0,s10
    4df8:	85e6                	mv	a1,s9
    4dfa:	8652                	mv	a2,s4
    4dfc:	86d6                	mv	a3,s5
    4dfe:	0297c763          	blt	a5,s1,4e2c <__ieee754_rem_pio2+0x278>
    4e02:	377020ef          	jal	ra,7978 <__subdf3>
    4e06:	fff48793          	addi	a5,s1,-1
    4e0a:	00279713          	slli	a4,a5,0x2
    4e0e:	00006797          	auipc	a5,0x6
    4e12:	b2a78793          	addi	a5,a5,-1238 # a938 <npio2_hw>
    4e16:	97ba                	add	a5,a5,a4
    4e18:	439c                	lw	a5,0(a5)
    4e1a:	8daa                	mv	s11,a0
    4e1c:	8c2e                	mv	s8,a1
    4e1e:	00878b63          	beq	a5,s0,4e34 <__ieee754_rem_pio2+0x280>
    4e22:	00a9a023          	sw	a0,0(s3)
    4e26:	00b9a223          	sw	a1,4(s3)
    4e2a:	a025                	j	4e52 <__ieee754_rem_pio2+0x29e>
    4e2c:	34d020ef          	jal	ra,7978 <__subdf3>
    4e30:	8daa                	mv	s11,a0
    4e32:	8c2e                	mv	s8,a1
    4e34:	014c5793          	srli	a5,s8,0x14
    4e38:	41445813          	srai	a6,s0,0x14
    4e3c:	7ff7f793          	andi	a5,a5,2047
    4e40:	40f807b3          	sub	a5,a6,a5
    4e44:	46c1                	li	a3,16
    4e46:	04f6c663          	blt	a3,a5,4e92 <__ieee754_rem_pio2+0x2de>
    4e4a:	01b9a023          	sw	s11,0(s3)
    4e4e:	0189a223          	sw	s8,4(s3)
    4e52:	866e                	mv	a2,s11
    4e54:	86e2                	mv	a3,s8
    4e56:	856a                	mv	a0,s10
    4e58:	85e6                	mv	a1,s9
    4e5a:	31f020ef          	jal	ra,7978 <__subdf3>
    4e5e:	8652                	mv	a2,s4
    4e60:	86d6                	mv	a3,s5
    4e62:	317020ef          	jal	ra,7978 <__subdf3>
    4e66:	00a9a423          	sw	a0,8(s3)
    4e6a:	00b9a623          	sw	a1,12(s3)
    4e6e:	dc095ee3          	bgez	s2,4c4a <__ieee754_rem_pio2+0x96>
    4e72:	800007b7          	lui	a5,0x80000
    4e76:	0187cc33          	xor	s8,a5,s8
    4e7a:	8dbd                	xor	a1,a1,a5
    4e7c:	01b9a023          	sw	s11,0(s3)
    4e80:	0189a223          	sw	s8,4(s3)
    4e84:	00a9a423          	sw	a0,8(s3)
    4e88:	00b9a623          	sw	a1,12(s3)
    4e8c:	409004b3          	neg	s1,s1
    4e90:	bb6d                	j	4c4a <__ieee754_rem_pio2+0x96>
    4e92:	00006797          	auipc	a5,0x6
    4e96:	a6e78793          	addi	a5,a5,-1426 # a900 <atanlo+0x78>
    4e9a:	4390                	lw	a2,0(a5)
    4e9c:	43d4                	lw	a3,4(a5)
    4e9e:	855a                	mv	a0,s6
    4ea0:	85de                	mv	a1,s7
    4ea2:	c442                	sw	a6,8(sp)
    4ea4:	61c020ef          	jal	ra,74c0 <__muldf3>
    4ea8:	8a2a                	mv	s4,a0
    4eaa:	8aae                	mv	s5,a1
    4eac:	862a                	mv	a2,a0
    4eae:	86ae                	mv	a3,a1
    4eb0:	856a                	mv	a0,s10
    4eb2:	85e6                	mv	a1,s9
    4eb4:	2c5020ef          	jal	ra,7978 <__subdf3>
    4eb8:	8c2e                	mv	s8,a1
    4eba:	862a                	mv	a2,a0
    4ebc:	86ae                	mv	a3,a1
    4ebe:	842a                	mv	s0,a0
    4ec0:	c62e                	sw	a1,12(sp)
    4ec2:	856a                	mv	a0,s10
    4ec4:	85e6                	mv	a1,s9
    4ec6:	2b3020ef          	jal	ra,7978 <__subdf3>
    4eca:	8652                	mv	a2,s4
    4ecc:	86d6                	mv	a3,s5
    4ece:	2ab020ef          	jal	ra,7978 <__subdf3>
    4ed2:	00006797          	auipc	a5,0x6
    4ed6:	a3678793          	addi	a5,a5,-1482 # a908 <atanlo+0x80>
    4eda:	4390                	lw	a2,0(a5)
    4edc:	43d4                	lw	a3,4(a5)
    4ede:	8a2a                	mv	s4,a0
    4ee0:	8aae                	mv	s5,a1
    4ee2:	855a                	mv	a0,s6
    4ee4:	85de                	mv	a1,s7
    4ee6:	5da020ef          	jal	ra,74c0 <__muldf3>
    4eea:	8652                	mv	a2,s4
    4eec:	86d6                	mv	a3,s5
    4eee:	28b020ef          	jal	ra,7978 <__subdf3>
    4ef2:	862a                	mv	a2,a0
    4ef4:	86ae                	mv	a3,a1
    4ef6:	8a2a                	mv	s4,a0
    4ef8:	8aae                	mv	s5,a1
    4efa:	8522                	mv	a0,s0
    4efc:	85e2                	mv	a1,s8
    4efe:	27b020ef          	jal	ra,7978 <__subdf3>
    4f02:	4822                	lw	a6,8(sp)
    4f04:	0145d793          	srli	a5,a1,0x14
    4f08:	7ff7f793          	andi	a5,a5,2047
    4f0c:	40f80833          	sub	a6,a6,a5
    4f10:	03100793          	li	a5,49
    4f14:	8ce2                	mv	s9,s8
    4f16:	8daa                	mv	s11,a0
    4f18:	8c2e                	mv	s8,a1
    4f1a:	0107ca63          	blt	a5,a6,4f2e <__ieee754_rem_pio2+0x37a>
    4f1e:	00a9a023          	sw	a0,0(s3)
    4f22:	00b9a223          	sw	a1,4(s3)
    4f26:	8d22                	mv	s10,s0
    4f28:	b72d                	j	4e52 <__ieee754_rem_pio2+0x29e>
    4f2a:	468d                	li	a3,3
    4f2c:	bbc9                	j	4cfe <__ieee754_rem_pio2+0x14a>
    4f2e:	00006797          	auipc	a5,0x6
    4f32:	9f278793          	addi	a5,a5,-1550 # a920 <atanlo+0x98>
    4f36:	4390                	lw	a2,0(a5)
    4f38:	43d4                	lw	a3,4(a5)
    4f3a:	855a                	mv	a0,s6
    4f3c:	85de                	mv	a1,s7
    4f3e:	582020ef          	jal	ra,74c0 <__muldf3>
    4f42:	4c32                	lw	s8,12(sp)
    4f44:	8a2a                	mv	s4,a0
    4f46:	8aae                	mv	s5,a1
    4f48:	862a                	mv	a2,a0
    4f4a:	86ae                	mv	a3,a1
    4f4c:	8522                	mv	a0,s0
    4f4e:	85e2                	mv	a1,s8
    4f50:	229020ef          	jal	ra,7978 <__subdf3>
    4f54:	862a                	mv	a2,a0
    4f56:	86ae                	mv	a3,a1
    4f58:	8d2a                	mv	s10,a0
    4f5a:	8cae                	mv	s9,a1
    4f5c:	8522                	mv	a0,s0
    4f5e:	85e2                	mv	a1,s8
    4f60:	219020ef          	jal	ra,7978 <__subdf3>
    4f64:	8652                	mv	a2,s4
    4f66:	86d6                	mv	a3,s5
    4f68:	211020ef          	jal	ra,7978 <__subdf3>
    4f6c:	00006797          	auipc	a5,0x6
    4f70:	9bc78793          	addi	a5,a5,-1604 # a928 <atanlo+0xa0>
    4f74:	4390                	lw	a2,0(a5)
    4f76:	43d4                	lw	a3,4(a5)
    4f78:	8a2a                	mv	s4,a0
    4f7a:	8aae                	mv	s5,a1
    4f7c:	855a                	mv	a0,s6
    4f7e:	85de                	mv	a1,s7
    4f80:	540020ef          	jal	ra,74c0 <__muldf3>
    4f84:	8652                	mv	a2,s4
    4f86:	86d6                	mv	a3,s5
    4f88:	1f1020ef          	jal	ra,7978 <__subdf3>
    4f8c:	862a                	mv	a2,a0
    4f8e:	86ae                	mv	a3,a1
    4f90:	8a2a                	mv	s4,a0
    4f92:	8aae                	mv	s5,a1
    4f94:	856a                	mv	a0,s10
    4f96:	85e6                	mv	a1,s9
    4f98:	1e1020ef          	jal	ra,7978 <__subdf3>
    4f9c:	8daa                	mv	s11,a0
    4f9e:	8c2e                	mv	s8,a1
    4fa0:	00a9a023          	sw	a0,0(s3)
    4fa4:	00b9a223          	sw	a1,4(s3)
    4fa8:	b56d                	j	4e52 <__ieee754_rem_pio2+0x29e>
    4faa:	664010ef          	jal	ra,660e <__adddf3>
    4fae:	3ff927b7          	lui	a5,0x3ff92
    4fb2:	1fb78793          	addi	a5,a5,507 # 3ff921fb <__freertos_irq_stack_top+0x1ff8d1fb>
    4fb6:	8a2a                	mv	s4,a0
    4fb8:	8aae                	mv	s5,a1
    4fba:	02f40e63          	beq	s0,a5,4ff6 <__ieee754_rem_pio2+0x442>
    4fbe:	00006417          	auipc	s0,0x6
    4fc2:	93a40413          	addi	s0,s0,-1734 # a8f8 <atanlo+0x70>
    4fc6:	4010                	lw	a2,0(s0)
    4fc8:	4054                	lw	a3,4(s0)
    4fca:	54fd                	li	s1,-1
    4fcc:	642010ef          	jal	ra,660e <__adddf3>
    4fd0:	862a                	mv	a2,a0
    4fd2:	86ae                	mv	a3,a1
    4fd4:	00a9a023          	sw	a0,0(s3)
    4fd8:	00b9a223          	sw	a1,4(s3)
    4fdc:	8552                	mv	a0,s4
    4fde:	85d6                	mv	a1,s5
    4fe0:	199020ef          	jal	ra,7978 <__subdf3>
    4fe4:	4010                	lw	a2,0(s0)
    4fe6:	4054                	lw	a3,4(s0)
    4fe8:	626010ef          	jal	ra,660e <__adddf3>
    4fec:	00a9a423          	sw	a0,8(s3)
    4ff0:	00b9a623          	sw	a1,12(s3)
    4ff4:	b999                	j	4c4a <__ieee754_rem_pio2+0x96>
    4ff6:	00006797          	auipc	a5,0x6
    4ffa:	90a78793          	addi	a5,a5,-1782 # a900 <atanlo+0x78>
    4ffe:	4390                	lw	a2,0(a5)
    5000:	43d4                	lw	a3,4(a5)
    5002:	00006417          	auipc	s0,0x6
    5006:	90640413          	addi	s0,s0,-1786 # a908 <atanlo+0x80>
    500a:	54fd                	li	s1,-1
    500c:	602010ef          	jal	ra,660e <__adddf3>
    5010:	8a2a                	mv	s4,a0
    5012:	8aae                	mv	s5,a1
    5014:	4010                	lw	a2,0(s0)
    5016:	4054                	lw	a3,4(s0)
    5018:	bf55                	j	4fcc <__ieee754_rem_pio2+0x418>

0000501a <__ieee754_sqrt>:
    501a:	1141                	addi	sp,sp,-16
    501c:	7ff00737          	lui	a4,0x7ff00
    5020:	c422                	sw	s0,8(sp)
    5022:	c226                	sw	s1,4(sp)
    5024:	c606                	sw	ra,12(sp)
    5026:	00b77833          	and	a6,a4,a1
    502a:	842e                	mv	s0,a1
    502c:	84aa                	mv	s1,a0
    502e:	16e80d63          	beq	a6,a4,51a8 <__ieee754_sqrt+0x18e>
    5032:	87ae                	mv	a5,a1
    5034:	86aa                	mv	a3,a0
    5036:	0eb05f63          	blez	a1,5134 <__ieee754_sqrt+0x11a>
    503a:	4145de13          	srai	t3,a1,0x14
    503e:	1a0e0163          	beqz	t3,51e0 <__ieee754_sqrt+0x1c6>
    5042:	00100737          	lui	a4,0x100
    5046:	fff70613          	addi	a2,a4,-1 # fffff <_data_lma+0xf516b>
    504a:	8ff1                	and	a5,a5,a2
    504c:	8fd9                	or	a5,a5,a4
    504e:	c01e0e13          	addi	t3,t3,-1023
    5052:	00179713          	slli	a4,a5,0x1
    5056:	001e7613          	andi	a2,t3,1
    505a:	01f6d793          	srli	a5,a3,0x1f
    505e:	97ba                	add	a5,a5,a4
    5060:	00169713          	slli	a4,a3,0x1
    5064:	c611                	beqz	a2,5070 <__ieee754_sqrt+0x56>
    5066:	837d                	srli	a4,a4,0x1f
    5068:	0786                	slli	a5,a5,0x1
    506a:	97ba                	add	a5,a5,a4
    506c:	00269713          	slli	a4,a3,0x2
    5070:	401e5e13          	srai	t3,t3,0x1
    5074:	45d9                	li	a1,22
    5076:	4e81                	li	t4,0
    5078:	4681                	li	a3,0
    507a:	00200637          	lui	a2,0x200
    507e:	00c68533          	add	a0,a3,a2
    5082:	01f75813          	srli	a6,a4,0x1f
    5086:	15fd                	addi	a1,a1,-1
    5088:	00a7c663          	blt	a5,a0,5094 <__ieee754_sqrt+0x7a>
    508c:	8f89                	sub	a5,a5,a0
    508e:	00c506b3          	add	a3,a0,a2
    5092:	9eb2                	add	t4,t4,a2
    5094:	0786                	slli	a5,a5,0x1
    5096:	97c2                	add	a5,a5,a6
    5098:	0706                	slli	a4,a4,0x1
    509a:	8205                	srli	a2,a2,0x1
    509c:	f1ed                	bnez	a1,507e <__ieee754_sqrt+0x64>
    509e:	02000513          	li	a0,32
    50a2:	4301                	li	t1,0
    50a4:	4881                	li	a7,0
    50a6:	80000637          	lui	a2,0x80000
    50aa:	a819                	j	50c0 <__ieee754_sqrt+0xa6>
    50ac:	0ed78563          	beq	a5,a3,5196 <__ieee754_sqrt+0x17c>
    50b0:	01f75593          	srli	a1,a4,0x1f
    50b4:	0786                	slli	a5,a5,0x1
    50b6:	157d                	addi	a0,a0,-1
    50b8:	97ae                	add	a5,a5,a1
    50ba:	0706                	slli	a4,a4,0x1
    50bc:	8205                	srli	a2,a2,0x1
    50be:	c90d                	beqz	a0,50f0 <__ieee754_sqrt+0xd6>
    50c0:	011605b3          	add	a1,a2,a7
    50c4:	fef6d4e3          	bge	a3,a5,50ac <__ieee754_sqrt+0x92>
    50c8:	00c588b3          	add	a7,a1,a2
    50cc:	8836                	mv	a6,a3
    50ce:	0a05ce63          	bltz	a1,518a <__ieee754_sqrt+0x170>
    50d2:	8f95                	sub	a5,a5,a3
    50d4:	00b736b3          	sltu	a3,a4,a1
    50d8:	8f95                	sub	a5,a5,a3
    50da:	8f0d                	sub	a4,a4,a1
    50dc:	01f75593          	srli	a1,a4,0x1f
    50e0:	0786                	slli	a5,a5,0x1
    50e2:	157d                	addi	a0,a0,-1
    50e4:	9332                	add	t1,t1,a2
    50e6:	86c2                	mv	a3,a6
    50e8:	97ae                	add	a5,a5,a1
    50ea:	0706                	slli	a4,a4,0x1
    50ec:	8205                	srli	a2,a2,0x1
    50ee:	f969                	bnez	a0,50c0 <__ieee754_sqrt+0xa6>
    50f0:	8fd9                	or	a5,a5,a4
    50f2:	00135493          	srli	s1,t1,0x1
    50f6:	cb89                	beqz	a5,5108 <__ieee754_sqrt+0xee>
    50f8:	00130493          	addi	s1,t1,1 # 7ff00001 <__freertos_irq_stack_top+0x5fefb001>
    50fc:	57fd                	li	a5,-1
    50fe:	8085                	srli	s1,s1,0x1
    5100:	00f31463          	bne	t1,a5,5108 <__ieee754_sqrt+0xee>
    5104:	0e85                	addi	t4,t4,1
    5106:	4481                	li	s1,0
    5108:	401ed713          	srai	a4,t4,0x1
    510c:	3fe00437          	lui	s0,0x3fe00
    5110:	001efe93          	andi	t4,t4,1
    5114:	943a                	add	s0,s0,a4
    5116:	000e8563          	beqz	t4,5120 <__ieee754_sqrt+0x106>
    511a:	800007b7          	lui	a5,0x80000
    511e:	8cdd                	or	s1,s1,a5
    5120:	014e1713          	slli	a4,t3,0x14
    5124:	9722                	add	a4,a4,s0
    5126:	40b2                	lw	ra,12(sp)
    5128:	4422                	lw	s0,8(sp)
    512a:	8526                	mv	a0,s1
    512c:	85ba                	mv	a1,a4
    512e:	4492                	lw	s1,4(sp)
    5130:	0141                	addi	sp,sp,16
    5132:	8082                	ret
    5134:	00159713          	slli	a4,a1,0x1
    5138:	8305                	srli	a4,a4,0x1
    513a:	00a76833          	or	a6,a4,a0
    513e:	872e                	mv	a4,a1
    5140:	fe0803e3          	beqz	a6,5126 <__ieee754_sqrt+0x10c>
    5144:	e1d9                	bnez	a1,51ca <__ieee754_sqrt+0x1b0>
    5146:	00b6d593          	srli	a1,a3,0xb
    514a:	17ad                	addi	a5,a5,-21
    514c:	872e                	mv	a4,a1
    514e:	06d6                	slli	a3,a3,0x15
    5150:	d9fd                	beqz	a1,5146 <__ieee754_sqrt+0x12c>
    5152:	0145d613          	srli	a2,a1,0x14
    5156:	ea41                	bnez	a2,51e6 <__ieee754_sqrt+0x1cc>
    5158:	4601                	li	a2,0
    515a:	a011                	j	515e <__ieee754_sqrt+0x144>
    515c:	862a                	mv	a2,a0
    515e:	0706                	slli	a4,a4,0x1
    5160:	00b71593          	slli	a1,a4,0xb
    5164:	00160513          	addi	a0,a2,1 # 80000001 <__freertos_irq_stack_top+0x5fffb001>
    5168:	fe05dae3          	bgez	a1,515c <__ieee754_sqrt+0x142>
    516c:	02000893          	li	a7,32
    5170:	8836                	mv	a6,a3
    5172:	40a888b3          	sub	a7,a7,a0
    5176:	85ba                	mv	a1,a4
    5178:	00a696b3          	sll	a3,a3,a0
    517c:	01185733          	srl	a4,a6,a7
    5180:	40c78e33          	sub	t3,a5,a2
    5184:	00b767b3          	or	a5,a4,a1
    5188:	bd6d                	j	5042 <__ieee754_sqrt+0x28>
    518a:	fff8c813          	not	a6,a7
    518e:	01f85813          	srli	a6,a6,0x1f
    5192:	9836                	add	a6,a6,a3
    5194:	bf3d                	j	50d2 <__ieee754_sqrt+0xb8>
    5196:	f0b76de3          	bltu	a4,a1,50b0 <__ieee754_sqrt+0x96>
    519a:	00c588b3          	add	a7,a1,a2
    519e:	fe05c6e3          	bltz	a1,518a <__ieee754_sqrt+0x170>
    51a2:	883e                	mv	a6,a5
    51a4:	4781                	li	a5,0
    51a6:	bf15                	j	50da <__ieee754_sqrt+0xc0>
    51a8:	862a                	mv	a2,a0
    51aa:	86ae                	mv	a3,a1
    51ac:	314020ef          	jal	ra,74c0 <__muldf3>
    51b0:	8626                	mv	a2,s1
    51b2:	86a2                	mv	a3,s0
    51b4:	45a010ef          	jal	ra,660e <__adddf3>
    51b8:	40b2                	lw	ra,12(sp)
    51ba:	4422                	lw	s0,8(sp)
    51bc:	84aa                	mv	s1,a0
    51be:	872e                	mv	a4,a1
    51c0:	8526                	mv	a0,s1
    51c2:	85ba                	mv	a1,a4
    51c4:	4492                	lw	s1,4(sp)
    51c6:	0141                	addi	sp,sp,16
    51c8:	8082                	ret
    51ca:	862a                	mv	a2,a0
    51cc:	86ae                	mv	a3,a1
    51ce:	7aa020ef          	jal	ra,7978 <__subdf3>
    51d2:	862a                	mv	a2,a0
    51d4:	86ae                	mv	a3,a1
    51d6:	369010ef          	jal	ra,6d3e <__divdf3>
    51da:	84aa                	mv	s1,a0
    51dc:	872e                	mv	a4,a1
    51de:	b7a1                	j	5126 <__ieee754_sqrt+0x10c>
    51e0:	872e                	mv	a4,a1
    51e2:	4781                	li	a5,0
    51e4:	bf95                	j	5158 <__ieee754_sqrt+0x13e>
    51e6:	8836                	mv	a6,a3
    51e8:	02000893          	li	a7,32
    51ec:	567d                	li	a2,-1
    51ee:	b779                	j	517c <__ieee754_sqrt+0x162>

000051f0 <__kernel_cos>:
    51f0:	7139                	addi	sp,sp,-64
    51f2:	d05a                	sw	s6,32(sp)
    51f4:	00159b13          	slli	s6,a1,0x1
    51f8:	d84a                	sw	s2,48(sp)
    51fa:	d64e                	sw	s3,44(sp)
    51fc:	cc62                	sw	s8,24(sp)
    51fe:	ca66                	sw	s9,20(sp)
    5200:	de06                	sw	ra,60(sp)
    5202:	dc22                	sw	s0,56(sp)
    5204:	da26                	sw	s1,52(sp)
    5206:	d452                	sw	s4,40(sp)
    5208:	d256                	sw	s5,36(sp)
    520a:	ce5e                	sw	s7,28(sp)
    520c:	c86a                	sw	s10,16(sp)
    520e:	c66e                	sw	s11,12(sp)
    5210:	001b5b13          	srli	s6,s6,0x1
    5214:	3e4007b7          	lui	a5,0x3e400
    5218:	8c2e                	mv	s8,a1
    521a:	8caa                	mv	s9,a0
    521c:	8932                	mv	s2,a2
    521e:	89b6                	mv	s3,a3
    5220:	10fb5563          	bge	s6,a5,532a <__kernel_cos+0x13a>
    5224:	6cf020ef          	jal	ra,80f2 <__fixdfsi>
    5228:	26050963          	beqz	a0,549a <__kernel_cos+0x2aa>
    522c:	8666                	mv	a2,s9
    522e:	86e2                	mv	a3,s8
    5230:	8566                	mv	a0,s9
    5232:	85e2                	mv	a1,s8
    5234:	28c020ef          	jal	ra,74c0 <__muldf3>
    5238:	00006797          	auipc	a5,0x6
    523c:	89878793          	addi	a5,a5,-1896 # aad0 <two_over_pi+0x118>
    5240:	4390                	lw	a2,0(a5)
    5242:	43d4                	lw	a3,4(a5)
    5244:	842a                	mv	s0,a0
    5246:	84ae                	mv	s1,a1
    5248:	278020ef          	jal	ra,74c0 <__muldf3>
    524c:	00006797          	auipc	a5,0x6
    5250:	88c78793          	addi	a5,a5,-1908 # aad8 <two_over_pi+0x120>
    5254:	4390                	lw	a2,0(a5)
    5256:	43d4                	lw	a3,4(a5)
    5258:	3b6010ef          	jal	ra,660e <__adddf3>
    525c:	8622                	mv	a2,s0
    525e:	86a6                	mv	a3,s1
    5260:	260020ef          	jal	ra,74c0 <__muldf3>
    5264:	00006797          	auipc	a5,0x6
    5268:	87c78793          	addi	a5,a5,-1924 # aae0 <two_over_pi+0x128>
    526c:	4390                	lw	a2,0(a5)
    526e:	43d4                	lw	a3,4(a5)
    5270:	708020ef          	jal	ra,7978 <__subdf3>
    5274:	8622                	mv	a2,s0
    5276:	86a6                	mv	a3,s1
    5278:	248020ef          	jal	ra,74c0 <__muldf3>
    527c:	00006797          	auipc	a5,0x6
    5280:	86c78793          	addi	a5,a5,-1940 # aae8 <two_over_pi+0x130>
    5284:	4390                	lw	a2,0(a5)
    5286:	43d4                	lw	a3,4(a5)
    5288:	386010ef          	jal	ra,660e <__adddf3>
    528c:	8622                	mv	a2,s0
    528e:	86a6                	mv	a3,s1
    5290:	230020ef          	jal	ra,74c0 <__muldf3>
    5294:	00006797          	auipc	a5,0x6
    5298:	85c78793          	addi	a5,a5,-1956 # aaf0 <two_over_pi+0x138>
    529c:	4390                	lw	a2,0(a5)
    529e:	43d4                	lw	a3,4(a5)
    52a0:	6d8020ef          	jal	ra,7978 <__subdf3>
    52a4:	8622                	mv	a2,s0
    52a6:	86a6                	mv	a3,s1
    52a8:	218020ef          	jal	ra,74c0 <__muldf3>
    52ac:	00006797          	auipc	a5,0x6
    52b0:	84c78793          	addi	a5,a5,-1972 # aaf8 <two_over_pi+0x140>
    52b4:	4390                	lw	a2,0(a5)
    52b6:	43d4                	lw	a3,4(a5)
    52b8:	356010ef          	jal	ra,660e <__adddf3>
    52bc:	8622                	mv	a2,s0
    52be:	86a6                	mv	a3,s1
    52c0:	200020ef          	jal	ra,74c0 <__muldf3>
    52c4:	8a2a                	mv	s4,a0
    52c6:	8aae                	mv	s5,a1
    52c8:	00005797          	auipc	a5,0x5
    52cc:	65078793          	addi	a5,a5,1616 # a918 <atanlo+0x90>
    52d0:	4390                	lw	a2,0(a5)
    52d2:	43d4                	lw	a3,4(a5)
    52d4:	8522                	mv	a0,s0
    52d6:	85a6                	mv	a1,s1
    52d8:	1e8020ef          	jal	ra,74c0 <__muldf3>
    52dc:	8b2a                	mv	s6,a0
    52de:	8bae                	mv	s7,a1
    52e0:	8652                	mv	a2,s4
    52e2:	86d6                	mv	a3,s5
    52e4:	8522                	mv	a0,s0
    52e6:	85a6                	mv	a1,s1
    52e8:	1d8020ef          	jal	ra,74c0 <__muldf3>
    52ec:	842a                	mv	s0,a0
    52ee:	84ae                	mv	s1,a1
    52f0:	864a                	mv	a2,s2
    52f2:	86ce                	mv	a3,s3
    52f4:	8566                	mv	a0,s9
    52f6:	85e2                	mv	a1,s8
    52f8:	1c8020ef          	jal	ra,74c0 <__muldf3>
    52fc:	862a                	mv	a2,a0
    52fe:	86ae                	mv	a3,a1
    5300:	8522                	mv	a0,s0
    5302:	85a6                	mv	a1,s1
    5304:	674020ef          	jal	ra,7978 <__subdf3>
    5308:	862a                	mv	a2,a0
    530a:	86ae                	mv	a3,a1
    530c:	855a                	mv	a0,s6
    530e:	85de                	mv	a1,s7
    5310:	668020ef          	jal	ra,7978 <__subdf3>
    5314:	00005797          	auipc	a5,0x5
    5318:	4dc78793          	addi	a5,a5,1244 # a7f0 <_read+0x20c>
    531c:	862a                	mv	a2,a0
    531e:	86ae                	mv	a3,a1
    5320:	4388                	lw	a0,0(a5)
    5322:	43cc                	lw	a1,4(a5)
    5324:	654020ef          	jal	ra,7978 <__subdf3>
    5328:	aa0d                	j	545a <__kernel_cos+0x26a>
    532a:	862a                	mv	a2,a0
    532c:	86ae                	mv	a3,a1
    532e:	192020ef          	jal	ra,74c0 <__muldf3>
    5332:	00005797          	auipc	a5,0x5
    5336:	79e78793          	addi	a5,a5,1950 # aad0 <two_over_pi+0x118>
    533a:	4390                	lw	a2,0(a5)
    533c:	43d4                	lw	a3,4(a5)
    533e:	842a                	mv	s0,a0
    5340:	84ae                	mv	s1,a1
    5342:	17e020ef          	jal	ra,74c0 <__muldf3>
    5346:	00005797          	auipc	a5,0x5
    534a:	79278793          	addi	a5,a5,1938 # aad8 <two_over_pi+0x120>
    534e:	4390                	lw	a2,0(a5)
    5350:	43d4                	lw	a3,4(a5)
    5352:	2bc010ef          	jal	ra,660e <__adddf3>
    5356:	8622                	mv	a2,s0
    5358:	86a6                	mv	a3,s1
    535a:	166020ef          	jal	ra,74c0 <__muldf3>
    535e:	00005797          	auipc	a5,0x5
    5362:	78278793          	addi	a5,a5,1922 # aae0 <two_over_pi+0x128>
    5366:	4390                	lw	a2,0(a5)
    5368:	43d4                	lw	a3,4(a5)
    536a:	60e020ef          	jal	ra,7978 <__subdf3>
    536e:	8622                	mv	a2,s0
    5370:	86a6                	mv	a3,s1
    5372:	14e020ef          	jal	ra,74c0 <__muldf3>
    5376:	00005797          	auipc	a5,0x5
    537a:	77278793          	addi	a5,a5,1906 # aae8 <two_over_pi+0x130>
    537e:	4390                	lw	a2,0(a5)
    5380:	43d4                	lw	a3,4(a5)
    5382:	28c010ef          	jal	ra,660e <__adddf3>
    5386:	8622                	mv	a2,s0
    5388:	86a6                	mv	a3,s1
    538a:	136020ef          	jal	ra,74c0 <__muldf3>
    538e:	00005797          	auipc	a5,0x5
    5392:	76278793          	addi	a5,a5,1890 # aaf0 <two_over_pi+0x138>
    5396:	4390                	lw	a2,0(a5)
    5398:	43d4                	lw	a3,4(a5)
    539a:	5de020ef          	jal	ra,7978 <__subdf3>
    539e:	8622                	mv	a2,s0
    53a0:	86a6                	mv	a3,s1
    53a2:	11e020ef          	jal	ra,74c0 <__muldf3>
    53a6:	00005797          	auipc	a5,0x5
    53aa:	75278793          	addi	a5,a5,1874 # aaf8 <two_over_pi+0x140>
    53ae:	4390                	lw	a2,0(a5)
    53b0:	43d4                	lw	a3,4(a5)
    53b2:	25c010ef          	jal	ra,660e <__adddf3>
    53b6:	8622                	mv	a2,s0
    53b8:	86a6                	mv	a3,s1
    53ba:	106020ef          	jal	ra,74c0 <__muldf3>
    53be:	3fd337b7          	lui	a5,0x3fd33
    53c2:	33278793          	addi	a5,a5,818 # 3fd33332 <__freertos_irq_stack_top+0x1fd2e332>
    53c6:	8a2a                	mv	s4,a0
    53c8:	8aae                	mv	s5,a1
    53ca:	ef67dfe3          	bge	a5,s6,52c8 <__kernel_cos+0xd8>
    53ce:	3fe907b7          	lui	a5,0x3fe90
    53d2:	0b67c363          	blt	a5,s6,5478 <__kernel_cos+0x288>
    53d6:	00005717          	auipc	a4,0x5
    53da:	41a70713          	addi	a4,a4,1050 # a7f0 <_read+0x20c>
    53de:	ffe007b7          	lui	a5,0xffe00
    53e2:	4308                	lw	a0,0(a4)
    53e4:	434c                	lw	a1,4(a4)
    53e6:	9b3e                	add	s6,s6,a5
    53e8:	4781                	li	a5,0
    53ea:	86da                	mv	a3,s6
    53ec:	863e                	mv	a2,a5
    53ee:	8d3e                	mv	s10,a5
    53f0:	588020ef          	jal	ra,7978 <__subdf3>
    53f4:	8dda                	mv	s11,s6
    53f6:	8bae                	mv	s7,a1
    53f8:	8b2a                	mv	s6,a0
    53fa:	00005797          	auipc	a5,0x5
    53fe:	51e78793          	addi	a5,a5,1310 # a918 <atanlo+0x90>
    5402:	4390                	lw	a2,0(a5)
    5404:	43d4                	lw	a3,4(a5)
    5406:	8522                	mv	a0,s0
    5408:	85a6                	mv	a1,s1
    540a:	0b6020ef          	jal	ra,74c0 <__muldf3>
    540e:	866a                	mv	a2,s10
    5410:	86ee                	mv	a3,s11
    5412:	566020ef          	jal	ra,7978 <__subdf3>
    5416:	8d2a                	mv	s10,a0
    5418:	8dae                	mv	s11,a1
    541a:	8652                	mv	a2,s4
    541c:	86d6                	mv	a3,s5
    541e:	8522                	mv	a0,s0
    5420:	85a6                	mv	a1,s1
    5422:	09e020ef          	jal	ra,74c0 <__muldf3>
    5426:	842a                	mv	s0,a0
    5428:	84ae                	mv	s1,a1
    542a:	864a                	mv	a2,s2
    542c:	86ce                	mv	a3,s3
    542e:	8566                	mv	a0,s9
    5430:	85e2                	mv	a1,s8
    5432:	08e020ef          	jal	ra,74c0 <__muldf3>
    5436:	862a                	mv	a2,a0
    5438:	86ae                	mv	a3,a1
    543a:	8522                	mv	a0,s0
    543c:	85a6                	mv	a1,s1
    543e:	53a020ef          	jal	ra,7978 <__subdf3>
    5442:	862a                	mv	a2,a0
    5444:	86ae                	mv	a3,a1
    5446:	856a                	mv	a0,s10
    5448:	85ee                	mv	a1,s11
    544a:	52e020ef          	jal	ra,7978 <__subdf3>
    544e:	862a                	mv	a2,a0
    5450:	86ae                	mv	a3,a1
    5452:	855a                	mv	a0,s6
    5454:	85de                	mv	a1,s7
    5456:	522020ef          	jal	ra,7978 <__subdf3>
    545a:	50f2                	lw	ra,60(sp)
    545c:	5462                	lw	s0,56(sp)
    545e:	54d2                	lw	s1,52(sp)
    5460:	5942                	lw	s2,48(sp)
    5462:	59b2                	lw	s3,44(sp)
    5464:	5a22                	lw	s4,40(sp)
    5466:	5a92                	lw	s5,36(sp)
    5468:	5b02                	lw	s6,32(sp)
    546a:	4bf2                	lw	s7,28(sp)
    546c:	4c62                	lw	s8,24(sp)
    546e:	4cd2                	lw	s9,20(sp)
    5470:	4d42                	lw	s10,16(sp)
    5472:	4db2                	lw	s11,12(sp)
    5474:	6121                	addi	sp,sp,64
    5476:	8082                	ret
    5478:	00005797          	auipc	a5,0x5
    547c:	64878793          	addi	a5,a5,1608 # aac0 <two_over_pi+0x108>
    5480:	0007ab03          	lw	s6,0(a5)
    5484:	0047ab83          	lw	s7,4(a5)
    5488:	00005797          	auipc	a5,0x5
    548c:	64078793          	addi	a5,a5,1600 # aac8 <two_over_pi+0x110>
    5490:	0007ad03          	lw	s10,0(a5)
    5494:	0047ad83          	lw	s11,4(a5)
    5498:	b78d                	j	53fa <__kernel_cos+0x20a>
    549a:	00005797          	auipc	a5,0x5
    549e:	35678793          	addi	a5,a5,854 # a7f0 <_read+0x20c>
    54a2:	4388                	lw	a0,0(a5)
    54a4:	43cc                	lw	a1,4(a5)
    54a6:	bf55                	j	545a <__kernel_cos+0x26a>

000054a8 <__kernel_rem_pio2>:
    54a8:	d5010113          	addi	sp,sp,-688
    54ac:	29312e23          	sw	s3,668(sp)
    54b0:	89b6                	mv	s3,a3
    54b2:	00271813          	slli	a6,a4,0x2
    54b6:	dc3a                	sw	a4,56(sp)
    54b8:	d43e                	sw	a5,40(sp)
    54ba:	00005717          	auipc	a4,0x5
    54be:	6a670713          	addi	a4,a4,1702 # ab60 <init_jk>
    54c2:	fff98793          	addi	a5,s3,-1
    54c6:	27b12e23          	sw	s11,636(sp)
    54ca:	9742                	add	a4,a4,a6
    54cc:	2a112623          	sw	ra,684(sp)
    54d0:	2a812423          	sw	s0,680(sp)
    54d4:	2a912223          	sw	s1,676(sp)
    54d8:	2b212023          	sw	s2,672(sp)
    54dc:	29412c23          	sw	s4,664(sp)
    54e0:	29512a23          	sw	s5,660(sp)
    54e4:	29612823          	sw	s6,656(sp)
    54e8:	29712623          	sw	s7,652(sp)
    54ec:	29812423          	sw	s8,648(sp)
    54f0:	29912223          	sw	s9,644(sp)
    54f4:	29a12023          	sw	s10,640(sp)
    54f8:	56b1                	li	a3,-20
    54fa:	d22a                	sw	a0,36(sp)
    54fc:	da2e                	sw	a1,52(sp)
    54fe:	c83e                	sw	a5,16(sp)
    5500:	00072d83          	lw	s11,0(a4)
    5504:	00d644e3          	blt	a2,a3,5d0c <__kernel_rem_pio2+0x864>
    5508:	ffd60713          	addi	a4,a2,-3
    550c:	47e1                	li	a5,24
    550e:	02f747b3          	div	a5,a4,a5
    5512:	d03e                	sw	a5,32(sp)
    5514:	0785                	addi	a5,a5,1
    5516:	00279713          	slli	a4,a5,0x2
    551a:	8f99                	sub	a5,a5,a4
    551c:	078e                	slli	a5,a5,0x3
    551e:	5582                	lw	a1,32(sp)
    5520:	fff98693          	addi	a3,s3,-1
    5524:	00dd8733          	add	a4,s11,a3
    5528:	97b2                	add	a5,a5,a2
    552a:	40d58433          	sub	s0,a1,a3
    552e:	00170913          	addi	s2,a4,1
    5532:	ca3e                	sw	a5,20(sp)
    5534:	0904                	addi	s1,sp,144
    5536:	9922                	add	s2,s2,s0
    5538:	02074363          	bltz	a4,555e <__kernel_rem_pio2+0xb6>
    553c:	5a22                	lw	s4,40(sp)
    553e:	00241793          	slli	a5,s0,0x2
    5542:	97d2                	add	a5,a5,s4
    5544:	4501                	li	a0,0
    5546:	4581                	li	a1,0
    5548:	00044563          	bltz	s0,5552 <__kernel_rem_pio2+0xaa>
    554c:	4388                	lw	a0,0(a5)
    554e:	40d020ef          	jal	ra,815a <__floatsidf>
    5552:	c088                	sw	a0,0(s1)
    5554:	c0cc                	sw	a1,4(s1)
    5556:	0405                	addi	s0,s0,1
    5558:	04a1                	addi	s1,s1,8
    555a:	ff2412e3          	bne	s0,s2,553e <__kernel_rem_pio2+0x96>
    555e:	060dc463          	bltz	s11,55c6 <__kernel_rem_pio2+0x11e>
    5562:	4bc2                	lw	s7,16(sp)
    5564:	5d12                	lw	s10,36(sp)
    5566:	091c                	addi	a5,sp,144
    5568:	003b9913          	slli	s2,s7,0x3
    556c:	00890413          	addi	s0,s2,8
    5570:	003d9a13          	slli	s4,s11,0x3
    5574:	993e                	add	s2,s2,a5
    5576:	0bbc                	addi	a5,sp,472
    5578:	0b84                	addi	s1,sp,464
    557a:	9a3e                	add	s4,s4,a5
    557c:	946a                	add	s0,s0,s10
    557e:	8b4a                	mv	s6,s2
    5580:	8aea                	mv	s5,s10
    5582:	4c01                	li	s8,0
    5584:	4c81                	li	s9,0
    5586:	020bc863          	bltz	s7,55b6 <__kernel_rem_pio2+0x10e>
    558a:	000b2603          	lw	a2,0(s6)
    558e:	004b2683          	lw	a3,4(s6)
    5592:	000aa503          	lw	a0,0(s5)
    5596:	004aa583          	lw	a1,4(s5)
    559a:	0aa1                	addi	s5,s5,8
    559c:	1b61                	addi	s6,s6,-8
    559e:	723010ef          	jal	ra,74c0 <__muldf3>
    55a2:	862a                	mv	a2,a0
    55a4:	86ae                	mv	a3,a1
    55a6:	8562                	mv	a0,s8
    55a8:	85e6                	mv	a1,s9
    55aa:	064010ef          	jal	ra,660e <__adddf3>
    55ae:	8c2a                	mv	s8,a0
    55b0:	8cae                	mv	s9,a1
    55b2:	fc8a9ce3          	bne	s5,s0,558a <__kernel_rem_pio2+0xe2>
    55b6:	0184a023          	sw	s8,0(s1)
    55ba:	0194a223          	sw	s9,4(s1)
    55be:	04a1                	addi	s1,s1,8
    55c0:	0921                	addi	s2,s2,8
    55c2:	fb449ee3          	bne	s1,s4,557e <__kernel_rem_pio2+0xd6>
    55c6:	002d9713          	slli	a4,s11,0x2
    55ca:	1870                	addi	a2,sp,60
    55cc:	ff870693          	addi	a3,a4,-8
    55d0:	00e60c33          	add	s8,a2,a4
    55d4:	0098                	addi	a4,sp,64
    55d6:	9736                	add	a4,a4,a3
    55d8:	d83a                	sw	a4,48(sp)
    55da:	5712                	lw	a4,36(sp)
    55dc:	00399413          	slli	s0,s3,0x3
    55e0:	fffd8793          	addi	a5,s11,-1
    55e4:	943a                	add	s0,s0,a4
    55e6:	20000737          	lui	a4,0x20000
    55ea:	177d                	addi	a4,a4,-1
    55ec:	cc3a                	sw	a4,24(sp)
    55ee:	00800737          	lui	a4,0x800
    55f2:	177d                	addi	a4,a4,-1
    55f4:	078a                	slli	a5,a5,0x2
    55f6:	de3a                	sw	a4,60(sp)
    55f8:	1c98                	addi	a4,sp,624
    55fa:	97ba                	add	a5,a5,a4
    55fc:	84ee                	mv	s1,s11
    55fe:	1d010d13          	addi	s10,sp,464
    5602:	d63e                	sw	a5,44(sp)
    5604:	ce6e                	sw	s11,28(sp)
    5606:	00349793          	slli	a5,s1,0x3
    560a:	1c98                	addi	a4,sp,624
    560c:	97ba                	add	a5,a5,a4
    560e:	f607aa03          	lw	s4,-160(a5)
    5612:	f647aa83          	lw	s5,-156(a5)
    5616:	08905663          	blez	s1,56a2 <__kernel_rem_pio2+0x1fa>
    561a:	47e2                	lw	a5,24(sp)
    561c:	04010993          	addi	s3,sp,64
    5620:	00f48933          	add	s2,s1,a5
    5624:	00005797          	auipc	a5,0x5
    5628:	52478793          	addi	a5,a5,1316 # ab48 <PIo2+0x48>
    562c:	0047a803          	lw	a6,4(a5)
    5630:	439c                	lw	a5,0(a5)
    5632:	090e                	slli	s2,s2,0x3
    5634:	c242                	sw	a6,4(sp)
    5636:	c03e                	sw	a5,0(sp)
    5638:	00005797          	auipc	a5,0x5
    563c:	2f878793          	addi	a5,a5,760 # a930 <atanlo+0xa8>
    5640:	0047a803          	lw	a6,4(a5)
    5644:	439c                	lw	a5,0(a5)
    5646:	996a                	add	s2,s2,s10
    5648:	c642                	sw	a6,12(sp)
    564a:	c43e                	sw	a5,8(sp)
    564c:	a011                	j	5650 <__kernel_rem_pio2+0x1a8>
    564e:	893e                	mv	s2,a5
    5650:	4602                	lw	a2,0(sp)
    5652:	4692                	lw	a3,4(sp)
    5654:	8552                	mv	a0,s4
    5656:	85d6                	mv	a1,s5
    5658:	669010ef          	jal	ra,74c0 <__muldf3>
    565c:	297020ef          	jal	ra,80f2 <__fixdfsi>
    5660:	2fb020ef          	jal	ra,815a <__floatsidf>
    5664:	4622                	lw	a2,8(sp)
    5666:	46b2                	lw	a3,12(sp)
    5668:	8b2a                	mv	s6,a0
    566a:	8bae                	mv	s7,a1
    566c:	655010ef          	jal	ra,74c0 <__muldf3>
    5670:	862a                	mv	a2,a0
    5672:	86ae                	mv	a3,a1
    5674:	8552                	mv	a0,s4
    5676:	85d6                	mv	a1,s5
    5678:	300020ef          	jal	ra,7978 <__subdf3>
    567c:	277020ef          	jal	ra,80f2 <__fixdfsi>
    5680:	00092603          	lw	a2,0(s2)
    5684:	00492683          	lw	a3,4(s2)
    5688:	00a9a023          	sw	a0,0(s3)
    568c:	85de                	mv	a1,s7
    568e:	855a                	mv	a0,s6
    5690:	77f000ef          	jal	ra,660e <__adddf3>
    5694:	8a2a                	mv	s4,a0
    5696:	8aae                	mv	s5,a1
    5698:	ff890793          	addi	a5,s2,-8
    569c:	0991                	addi	s3,s3,4
    569e:	fb2d18e3          	bne	s10,s2,564e <__kernel_rem_pio2+0x1a6>
    56a2:	4b52                	lw	s6,20(sp)
    56a4:	85d6                	mv	a1,s5
    56a6:	8552                	mv	a0,s4
    56a8:	865a                	mv	a2,s6
    56aa:	239000ef          	jal	ra,60e2 <scalbn>
    56ae:	00005797          	auipc	a5,0x5
    56b2:	4a278793          	addi	a5,a5,1186 # ab50 <PIo2+0x50>
    56b6:	4390                	lw	a2,0(a5)
    56b8:	43d4                	lw	a3,4(a5)
    56ba:	892a                	mv	s2,a0
    56bc:	89ae                	mv	s3,a1
    56be:	603010ef          	jal	ra,74c0 <__muldf3>
    56c2:	0cd000ef          	jal	ra,5f8e <floor>
    56c6:	00005797          	auipc	a5,0x5
    56ca:	49278793          	addi	a5,a5,1170 # ab58 <PIo2+0x58>
    56ce:	4390                	lw	a2,0(a5)
    56d0:	43d4                	lw	a3,4(a5)
    56d2:	5ef010ef          	jal	ra,74c0 <__muldf3>
    56d6:	862a                	mv	a2,a0
    56d8:	86ae                	mv	a3,a1
    56da:	854a                	mv	a0,s2
    56dc:	85ce                	mv	a1,s3
    56de:	29a020ef          	jal	ra,7978 <__subdf3>
    56e2:	89ae                	mv	s3,a1
    56e4:	892a                	mv	s2,a0
    56e6:	20d020ef          	jal	ra,80f2 <__fixdfsi>
    56ea:	8aaa                	mv	s5,a0
    56ec:	26f020ef          	jal	ra,815a <__floatsidf>
    56f0:	862a                	mv	a2,a0
    56f2:	86ae                	mv	a3,a1
    56f4:	854a                	mv	a0,s2
    56f6:	85ce                	mv	a1,s3
    56f8:	280020ef          	jal	ra,7978 <__subdf3>
    56fc:	892a                	mv	s2,a0
    56fe:	89ae                	mv	s3,a1
    5700:	13605763          	blez	s6,582e <__kernel_rem_pio2+0x386>
    5704:	fff48793          	addi	a5,s1,-1
    5708:	1c98                	addi	a4,sp,624
    570a:	078a                	slli	a5,a5,0x2
    570c:	97ba                	add	a5,a5,a4
    570e:	dd07aa03          	lw	s4,-560(a5)
    5712:	4761                	li	a4,24
    5714:	41670733          	sub	a4,a4,s6
    5718:	40ea56b3          	sra	a3,s4,a4
    571c:	00e69733          	sll	a4,a3,a4
    5720:	40ea0733          	sub	a4,s4,a4
    5724:	4a5d                	li	s4,23
    5726:	416a0a33          	sub	s4,s4,s6
    572a:	dce7a823          	sw	a4,-560(a5)
    572e:	41475a33          	sra	s4,a4,s4
    5732:	9ab6                	add	s5,s5,a3
    5734:	11404b63          	bgtz	s4,584a <__kernel_rem_pio2+0x3a2>
    5738:	4601                	li	a2,0
    573a:	4681                	li	a3,0
    573c:	854a                	mv	a0,s2
    573e:	85ce                	mv	a1,s3
    5740:	3b3010ef          	jal	ra,72f2 <__eqdf2>
    5744:	1a051863          	bnez	a0,58f4 <__kernel_rem_pio2+0x44c>
    5748:	47f2                	lw	a5,28(sp)
    574a:	fff48613          	addi	a2,s1,-1
    574e:	00f64f63          	blt	a2,a5,576c <__kernel_rem_pio2+0x2c4>
    5752:	00249793          	slli	a5,s1,0x2
    5756:	0098                	addi	a4,sp,64
    5758:	17f1                	addi	a5,a5,-4
    575a:	97ba                	add	a5,a5,a4
    575c:	4701                	li	a4,0
    575e:	4394                	lw	a3,0(a5)
    5760:	17f1                	addi	a5,a5,-4
    5762:	8f55                	or	a4,a4,a3
    5764:	ff879de3          	bne	a5,s8,575e <__kernel_rem_pio2+0x2b6>
    5768:	28071d63          	bnez	a4,5a02 <__kernel_rem_pio2+0x55a>
    576c:	57b2                	lw	a5,44(sp)
    576e:	dd07a783          	lw	a5,-560(a5)
    5772:	28079363          	bnez	a5,59f8 <__kernel_rem_pio2+0x550>
    5776:	57c2                	lw	a5,48(sp)
    5778:	4705                	li	a4,1
    577a:	17f1                	addi	a5,a5,-4
    577c:	43d4                	lw	a3,4(a5)
    577e:	0705                	addi	a4,a4,1
    5780:	deed                	beqz	a3,577a <__kernel_rem_pio2+0x2d2>
    5782:	00148793          	addi	a5,s1,1
    5786:	8abe                	mv	s5,a5
    5788:	94ba                	add	s1,s1,a4
    578a:	4742                	lw	a4,16(sp)
    578c:	5d92                	lw	s11,36(sp)
    578e:	c062                	sw	s8,0(sp)
    5790:	00f70933          	add	s2,a4,a5
    5794:	5702                	lw	a4,32(sp)
    5796:	00f70a33          	add	s4,a4,a5
    579a:	4762                	lw	a4,24(sp)
    579c:	078e                	slli	a5,a5,0x3
    579e:	0a0a                	slli	s4,s4,0x2
    57a0:	993a                	add	s2,s2,a4
    57a2:	5722                	lw	a4,40(sp)
    57a4:	090e                	slli	s2,s2,0x3
    57a6:	00fd09b3          	add	s3,s10,a5
    57aa:	091c                	addi	a5,sp,144
    57ac:	9a3a                	add	s4,s4,a4
    57ae:	993e                	add	s2,s2,a5
    57b0:	000a2503          	lw	a0,0(s4)
    57b4:	1a7020ef          	jal	ra,815a <__floatsidf>
    57b8:	47c2                	lw	a5,16(sp)
    57ba:	00a92423          	sw	a0,8(s2)
    57be:	00b92623          	sw	a1,12(s2)
    57c2:	0407c963          	bltz	a5,5814 <__kernel_rem_pio2+0x36c>
    57c6:	8bca                	mv	s7,s2
    57c8:	8b6e                	mv	s6,s11
    57ca:	4c01                	li	s8,0
    57cc:	4c81                	li	s9,0
    57ce:	a031                	j	57da <__kernel_rem_pio2+0x332>
    57d0:	000ba503          	lw	a0,0(s7) # 4000 <BMP280_GetPressureRawData+0x8>
    57d4:	004ba583          	lw	a1,4(s7)
    57d8:	1be1                	addi	s7,s7,-8
    57da:	000b2603          	lw	a2,0(s6)
    57de:	004b2683          	lw	a3,4(s6)
    57e2:	0b21                	addi	s6,s6,8
    57e4:	4dd010ef          	jal	ra,74c0 <__muldf3>
    57e8:	862a                	mv	a2,a0
    57ea:	86ae                	mv	a3,a1
    57ec:	8562                	mv	a0,s8
    57ee:	85e6                	mv	a1,s9
    57f0:	61f000ef          	jal	ra,660e <__adddf3>
    57f4:	8c2a                	mv	s8,a0
    57f6:	8cae                	mv	s9,a1
    57f8:	fc8b1ce3          	bne	s6,s0,57d0 <__kernel_rem_pio2+0x328>
    57fc:	0189a023          	sw	s8,0(s3)
    5800:	0199a223          	sw	s9,4(s3)
    5804:	0a85                	addi	s5,s5,1
    5806:	0a11                	addi	s4,s4,4
    5808:	09a1                	addi	s3,s3,8
    580a:	0921                	addi	s2,s2,8
    580c:	fb54d2e3          	bge	s1,s5,57b0 <__kernel_rem_pio2+0x308>
    5810:	4c02                	lw	s8,0(sp)
    5812:	bbd5                	j	5606 <__kernel_rem_pio2+0x15e>
    5814:	4c01                	li	s8,0
    5816:	4c81                	li	s9,0
    5818:	0189a023          	sw	s8,0(s3)
    581c:	0199a223          	sw	s9,4(s3)
    5820:	0a85                	addi	s5,s5,1
    5822:	0a11                	addi	s4,s4,4
    5824:	09a1                	addi	s3,s3,8
    5826:	0921                	addi	s2,s2,8
    5828:	f954d4e3          	bge	s1,s5,57b0 <__kernel_rem_pio2+0x308>
    582c:	b7d5                	j	5810 <__kernel_rem_pio2+0x368>
    582e:	47d2                	lw	a5,20(sp)
    5830:	18079863          	bnez	a5,59c0 <__kernel_rem_pio2+0x518>
    5834:	fff48793          	addi	a5,s1,-1
    5838:	078a                	slli	a5,a5,0x2
    583a:	1c98                	addi	a4,sp,624
    583c:	97ba                	add	a5,a5,a4
    583e:	dd07aa03          	lw	s4,-560(a5)
    5842:	417a5a13          	srai	s4,s4,0x17
    5846:	ef4059e3          	blez	s4,5738 <__kernel_rem_pio2+0x290>
    584a:	0a85                	addi	s5,s5,1
    584c:	4c905463          	blez	s1,5d14 <__kernel_rem_pio2+0x86c>
    5850:	4806                	lw	a6,64(sp)
    5852:	4785                	li	a5,1
    5854:	12081563          	bnez	a6,597e <__kernel_rem_pio2+0x4d6>
    5858:	00f48e63          	beq	s1,a5,5874 <__kernel_rem_pio2+0x3cc>
    585c:	00d4                	addi	a3,sp,68
    585e:	4705                	li	a4,1
    5860:	0006a803          	lw	a6,0(a3) # 80000000 <__freertos_irq_stack_top+0x5fffb000>
    5864:	00170793          	addi	a5,a4,1 # 800001 <_data_lma+0x7f516d>
    5868:	0691                	addi	a3,a3,4
    586a:	10081b63          	bnez	a6,5980 <__kernel_rem_pio2+0x4d8>
    586e:	873e                	mv	a4,a5
    5870:	fef498e3          	bne	s1,a5,5860 <__kernel_rem_pio2+0x3b8>
    5874:	4752                	lw	a4,20(sp)
    5876:	02e05363          	blez	a4,589c <__kernel_rem_pio2+0x3f4>
    587a:	4785                	li	a5,1
    587c:	46f70c63          	beq	a4,a5,5cf4 <__kernel_rem_pio2+0x84c>
    5880:	4789                	li	a5,2
    5882:	00f71d63          	bne	a4,a5,589c <__kernel_rem_pio2+0x3f4>
    5886:	fff48793          	addi	a5,s1,-1
    588a:	1c98                	addi	a4,sp,624
    588c:	078a                	slli	a5,a5,0x2
    588e:	97ba                	add	a5,a5,a4
    5890:	dd07a703          	lw	a4,-560(a5)
    5894:	072a                	slli	a4,a4,0xa
    5896:	8329                	srli	a4,a4,0xa
    5898:	dce7a823          	sw	a4,-560(a5)
    589c:	4789                	li	a5,2
    589e:	e8fa1de3          	bne	s4,a5,5738 <__kernel_rem_pio2+0x290>
    58a2:	00005797          	auipc	a5,0x5
    58a6:	f4e78793          	addi	a5,a5,-178 # a7f0 <_read+0x20c>
    58aa:	4388                	lw	a0,0(a5)
    58ac:	43cc                	lw	a1,4(a5)
    58ae:	864a                	mv	a2,s2
    58b0:	86ce                	mv	a3,s3
    58b2:	c042                	sw	a6,0(sp)
    58b4:	0c4020ef          	jal	ra,7978 <__subdf3>
    58b8:	4802                	lw	a6,0(sp)
    58ba:	892a                	mv	s2,a0
    58bc:	89ae                	mv	s3,a1
    58be:	e6080de3          	beqz	a6,5738 <__kernel_rem_pio2+0x290>
    58c2:	00005797          	auipc	a5,0x5
    58c6:	f2e78793          	addi	a5,a5,-210 # a7f0 <_read+0x20c>
    58ca:	4388                	lw	a0,0(a5)
    58cc:	43cc                	lw	a1,4(a5)
    58ce:	4652                	lw	a2,20(sp)
    58d0:	013000ef          	jal	ra,60e2 <scalbn>
    58d4:	862a                	mv	a2,a0
    58d6:	86ae                	mv	a3,a1
    58d8:	854a                	mv	a0,s2
    58da:	85ce                	mv	a1,s3
    58dc:	09c020ef          	jal	ra,7978 <__subdf3>
    58e0:	892a                	mv	s2,a0
    58e2:	89ae                	mv	s3,a1
    58e4:	4601                	li	a2,0
    58e6:	4681                	li	a3,0
    58e8:	854a                	mv	a0,s2
    58ea:	85ce                	mv	a1,s3
    58ec:	207010ef          	jal	ra,72f2 <__eqdf2>
    58f0:	e4050ce3          	beqz	a0,5748 <__kernel_rem_pio2+0x2a0>
    58f4:	4d52                	lw	s10,20(sp)
    58f6:	854a                	mv	a0,s2
    58f8:	85ce                	mv	a1,s3
    58fa:	41a00633          	neg	a2,s10
    58fe:	4df2                	lw	s11,28(sp)
    5900:	7e2000ef          	jal	ra,60e2 <scalbn>
    5904:	00005797          	auipc	a5,0x5
    5908:	02c78793          	addi	a5,a5,44 # a930 <atanlo+0xa8>
    590c:	0007a903          	lw	s2,0(a5)
    5910:	0047a983          	lw	s3,4(a5)
    5914:	8c2a                	mv	s8,a0
    5916:	864a                	mv	a2,s2
    5918:	86ce                	mv	a3,s3
    591a:	8cae                	mv	s9,a1
    591c:	241010ef          	jal	ra,735c <__gedf2>
    5920:	46054763          	bltz	a0,5d8e <__kernel_rem_pio2+0x8e6>
    5924:	00005717          	auipc	a4,0x5
    5928:	22470713          	addi	a4,a4,548 # ab48 <PIo2+0x48>
    592c:	4310                	lw	a2,0(a4)
    592e:	4354                	lw	a3,4(a4)
    5930:	8562                	mv	a0,s8
    5932:	85e6                	mv	a1,s9
    5934:	38d010ef          	jal	ra,74c0 <__muldf3>
    5938:	7ba020ef          	jal	ra,80f2 <__fixdfsi>
    593c:	1c9c                	addi	a5,sp,624
    593e:	00249413          	slli	s0,s1,0x2
    5942:	943e                	add	s0,s0,a5
    5944:	8baa                	mv	s7,a0
    5946:	015020ef          	jal	ra,815a <__floatsidf>
    594a:	864a                	mv	a2,s2
    594c:	86ce                	mv	a3,s3
    594e:	373010ef          	jal	ra,74c0 <__muldf3>
    5952:	862a                	mv	a2,a0
    5954:	86ae                	mv	a3,a1
    5956:	8562                	mv	a0,s8
    5958:	85e6                	mv	a1,s9
    595a:	01e020ef          	jal	ra,7978 <__subdf3>
    595e:	794020ef          	jal	ra,80f2 <__fixdfsi>
    5962:	00148b13          	addi	s6,s1,1
    5966:	1c98                	addi	a4,sp,624
    5968:	002b1793          	slli	a5,s6,0x2
    596c:	97ba                	add	a5,a5,a4
    596e:	dca42823          	sw	a0,-560(s0) # 3fdffdd0 <__freertos_irq_stack_top+0x1fdfadd0>
    5972:	018d0713          	addi	a4,s10,24
    5976:	ca3a                	sw	a4,20(sp)
    5978:	dd77a823          	sw	s7,-560(a5)
    597c:	a855                	j	5a30 <__kernel_rem_pio2+0x588>
    597e:	4701                	li	a4,0
    5980:	070a                	slli	a4,a4,0x2
    5982:	01000637          	lui	a2,0x1000
    5986:	1c94                	addi	a3,sp,624
    5988:	9736                	add	a4,a4,a3
    598a:	41060833          	sub	a6,a2,a6
    598e:	dd072823          	sw	a6,-560(a4)
    5992:	0297d563          	bge	a5,s1,59bc <__kernel_rem_pio2+0x514>
    5996:	078a                	slli	a5,a5,0x2
    5998:	00f68733          	add	a4,a3,a5
    599c:	008c                	addi	a1,sp,64
    599e:	00249693          	slli	a3,s1,0x2
    59a2:	dd072703          	lw	a4,-560(a4)
    59a6:	97ae                	add	a5,a5,a1
    59a8:	96ae                	add	a3,a3,a1
    59aa:	167d                	addi	a2,a2,-1
    59ac:	a011                	j	59b0 <__kernel_rem_pio2+0x508>
    59ae:	4398                	lw	a4,0(a5)
    59b0:	40e60733          	sub	a4,a2,a4
    59b4:	c398                	sw	a4,0(a5)
    59b6:	0791                	addi	a5,a5,4
    59b8:	fed79be3          	bne	a5,a3,59ae <__kernel_rem_pio2+0x506>
    59bc:	4805                	li	a6,1
    59be:	bd5d                	j	5874 <__kernel_rem_pio2+0x3cc>
    59c0:	00005797          	auipc	a5,0x5
    59c4:	f5878793          	addi	a5,a5,-168 # a918 <atanlo+0x90>
    59c8:	4390                	lw	a2,0(a5)
    59ca:	43d4                	lw	a3,4(a5)
    59cc:	4a01                	li	s4,0
    59ce:	18f010ef          	jal	ra,735c <__gedf2>
    59d2:	d60543e3          	bltz	a0,5738 <__kernel_rem_pio2+0x290>
    59d6:	0a85                	addi	s5,s5,1
    59d8:	4a09                	li	s4,2
    59da:	e6904be3          	bgtz	s1,5850 <__kernel_rem_pio2+0x3a8>
    59de:	00005797          	auipc	a5,0x5
    59e2:	e1278793          	addi	a5,a5,-494 # a7f0 <_read+0x20c>
    59e6:	4388                	lw	a0,0(a5)
    59e8:	43cc                	lw	a1,4(a5)
    59ea:	864a                	mv	a2,s2
    59ec:	86ce                	mv	a3,s3
    59ee:	78b010ef          	jal	ra,7978 <__subdf3>
    59f2:	892a                	mv	s2,a0
    59f4:	89ae                	mv	s3,a1
    59f6:	b389                	j	5738 <__kernel_rem_pio2+0x290>
    59f8:	00148793          	addi	a5,s1,1
    59fc:	8abe                	mv	s5,a5
    59fe:	84be                	mv	s1,a5
    5a00:	b369                	j	578a <__kernel_rem_pio2+0x2e2>
    5a02:	1c98                	addi	a4,sp,624
    5a04:	00261793          	slli	a5,a2,0x2
    5a08:	97ba                	add	a5,a5,a4
    5a0a:	4752                	lw	a4,20(sp)
    5a0c:	dd07a783          	lw	a5,-560(a5)
    5a10:	4df2                	lw	s11,28(sp)
    5a12:	1721                	addi	a4,a4,-24
    5a14:	ca3a                	sw	a4,20(sp)
    5a16:	8b32                	mv	s6,a2
    5a18:	ef81                	bnez	a5,5a30 <__kernel_rem_pio2+0x588>
    5a1a:	00249793          	slli	a5,s1,0x2
    5a1e:	17e1                	addi	a5,a5,-8
    5a20:	0094                	addi	a3,sp,64
    5a22:	97b6                	add	a5,a5,a3
    5a24:	17f1                	addi	a5,a5,-4
    5a26:	43d4                	lw	a3,4(a5)
    5a28:	1b7d                	addi	s6,s6,-1
    5a2a:	1721                	addi	a4,a4,-24
    5a2c:	dee5                	beqz	a3,5a24 <__kernel_rem_pio2+0x57c>
    5a2e:	ca3a                	sw	a4,20(sp)
    5a30:	00005797          	auipc	a5,0x5
    5a34:	dc078793          	addi	a5,a5,-576 # a7f0 <_read+0x20c>
    5a38:	4388                	lw	a0,0(a5)
    5a3a:	43cc                	lw	a1,4(a5)
    5a3c:	4652                	lw	a2,20(sp)
    5a3e:	6a4000ef          	jal	ra,60e2 <scalbn>
    5a42:	842a                	mv	s0,a0
    5a44:	84ae                	mv	s1,a1
    5a46:	380b4763          	bltz	s6,5dd4 <__kernel_rem_pio2+0x92c>
    5a4a:	003b1793          	slli	a5,s6,0x3
    5a4e:	873e                	mv	a4,a5
    5a50:	0b94                	addi	a3,sp,464
    5a52:	00e68bb3          	add	s7,a3,a4
    5a56:	c43e                	sw	a5,8(sp)
    5a58:	00005717          	auipc	a4,0x5
    5a5c:	0f070713          	addi	a4,a4,240 # ab48 <PIo2+0x48>
    5a60:	002b1793          	slli	a5,s6,0x2
    5a64:	0094                	addi	a3,sp,64
    5a66:	00f68cb3          	add	s9,a3,a5
    5a6a:	8c5e                	mv	s8,s7
    5a6c:	00072903          	lw	s2,0(a4)
    5a70:	00472983          	lw	s3,4(a4)
    5a74:	a011                	j	5a78 <__kernel_rem_pio2+0x5d0>
    5a76:	8cbe                	mv	s9,a5
    5a78:	000ca503          	lw	a0,0(s9)
    5a7c:	1c61                	addi	s8,s8,-8
    5a7e:	6dc020ef          	jal	ra,815a <__floatsidf>
    5a82:	8622                	mv	a2,s0
    5a84:	86a6                	mv	a3,s1
    5a86:	23b010ef          	jal	ra,74c0 <__muldf3>
    5a8a:	00ac2423          	sw	a0,8(s8) # 2008 <prvTimerTask+0x12a>
    5a8e:	00bc2623          	sw	a1,12(s8)
    5a92:	8522                	mv	a0,s0
    5a94:	85a6                	mv	a1,s1
    5a96:	864a                	mv	a2,s2
    5a98:	86ce                	mv	a3,s3
    5a9a:	227010ef          	jal	ra,74c0 <__muldf3>
    5a9e:	0098                	addi	a4,sp,64
    5aa0:	842a                	mv	s0,a0
    5aa2:	84ae                	mv	s1,a1
    5aa4:	ffcc8793          	addi	a5,s9,-4
    5aa8:	fd9717e3          	bne	a4,s9,5a76 <__kernel_rem_pio2+0x5ce>
    5aac:	1a1c                	addi	a5,sp,304
    5aae:	c03e                	sw	a5,0(sp)
    5ab0:	8cee                	mv	s9,s11
    5ab2:	84be                	mv	s1,a5
    5ab4:	4401                	li	s0,0
    5ab6:	060cc863          	bltz	s9,5b26 <__kernel_rem_pio2+0x67e>
    5aba:	00005797          	auipc	a5,0x5
    5abe:	08678793          	addi	a5,a5,134 # ab40 <PIo2+0x40>
    5ac2:	00005c17          	auipc	s8,0x5
    5ac6:	03ec0c13          	addi	s8,s8,62 # ab00 <PIo2>
    5aca:	89de                	mv	s3,s7
    5acc:	4388                	lw	a0,0(a5)
    5ace:	43cc                	lw	a1,4(a5)
    5ad0:	4d01                	li	s10,0
    5ad2:	4d81                	li	s11,0
    5ad4:	4901                	li	s2,0
    5ad6:	a809                	j	5ae8 <__kernel_rem_pio2+0x640>
    5ad8:	0c21                	addi	s8,s8,8
    5ada:	09a1                	addi	s3,s3,8
    5adc:	03244763          	blt	s0,s2,5b0a <__kernel_rem_pio2+0x662>
    5ae0:	000c2503          	lw	a0,0(s8)
    5ae4:	004c2583          	lw	a1,4(s8)
    5ae8:	0009a603          	lw	a2,0(s3)
    5aec:	0049a683          	lw	a3,4(s3)
    5af0:	0905                	addi	s2,s2,1
    5af2:	1cf010ef          	jal	ra,74c0 <__muldf3>
    5af6:	862a                	mv	a2,a0
    5af8:	86ae                	mv	a3,a1
    5afa:	856a                	mv	a0,s10
    5afc:	85ee                	mv	a1,s11
    5afe:	311000ef          	jal	ra,660e <__adddf3>
    5b02:	8d2a                	mv	s10,a0
    5b04:	8dae                	mv	s11,a1
    5b06:	fd2cd9e3          	bge	s9,s2,5ad8 <__kernel_rem_pio2+0x630>
    5b0a:	01a4a023          	sw	s10,0(s1)
    5b0e:	01b4a223          	sw	s11,4(s1)
    5b12:	0b98                	addi	a4,sp,464
    5b14:	0405                	addi	s0,s0,1
    5b16:	04a1                	addi	s1,s1,8
    5b18:	ff8b8793          	addi	a5,s7,-8
    5b1c:	03770263          	beq	a4,s7,5b40 <__kernel_rem_pio2+0x698>
    5b20:	8bbe                	mv	s7,a5
    5b22:	f80cdce3          	bgez	s9,5aba <__kernel_rem_pio2+0x612>
    5b26:	4d01                	li	s10,0
    5b28:	4d81                	li	s11,0
    5b2a:	01a4a023          	sw	s10,0(s1)
    5b2e:	01b4a223          	sw	s11,4(s1)
    5b32:	0b98                	addi	a4,sp,464
    5b34:	0405                	addi	s0,s0,1
    5b36:	04a1                	addi	s1,s1,8
    5b38:	ff8b8793          	addi	a5,s7,-8
    5b3c:	ff7712e3          	bne	a4,s7,5b20 <__kernel_rem_pio2+0x678>
    5b40:	5762                	lw	a4,56(sp)
    5b42:	4789                	li	a5,2
    5b44:	08e7c763          	blt	a5,a4,5bd2 <__kernel_rem_pio2+0x72a>
    5b48:	1ce04863          	bgtz	a4,5d18 <__kernel_rem_pio2+0x870>
    5b4c:	e721                	bnez	a4,5b94 <__kernel_rem_pio2+0x6ec>
    5b4e:	47a2                	lw	a5,8(sp)
    5b50:	4402                	lw	s0,0(sp)
    5b52:	4501                	li	a0,0
    5b54:	4581                	li	a1,0
    5b56:	00f40cb3          	add	s9,s0,a5
    5b5a:	000ca603          	lw	a2,0(s9)
    5b5e:	004ca683          	lw	a3,4(s9)
    5b62:	2ad000ef          	jal	ra,660e <__adddf3>
    5b66:	ff8c8793          	addi	a5,s9,-8
    5b6a:	01940d63          	beq	s0,s9,5b84 <__kernel_rem_pio2+0x6dc>
    5b6e:	8cbe                	mv	s9,a5
    5b70:	000ca603          	lw	a2,0(s9)
    5b74:	004ca683          	lw	a3,4(s9)
    5b78:	297000ef          	jal	ra,660e <__adddf3>
    5b7c:	ff8c8793          	addi	a5,s9,-8
    5b80:	ff9417e3          	bne	s0,s9,5b6e <__kernel_rem_pio2+0x6c6>
    5b84:	000a0563          	beqz	s4,5b8e <__kernel_rem_pio2+0x6e6>
    5b88:	800007b7          	lui	a5,0x80000
    5b8c:	8dbd                	xor	a1,a1,a5
    5b8e:	56d2                	lw	a3,52(sp)
    5b90:	c288                	sw	a0,0(a3)
    5b92:	c2cc                	sw	a1,4(a3)
    5b94:	2ac12083          	lw	ra,684(sp)
    5b98:	2a812403          	lw	s0,680(sp)
    5b9c:	007af513          	andi	a0,s5,7
    5ba0:	2a412483          	lw	s1,676(sp)
    5ba4:	2a012903          	lw	s2,672(sp)
    5ba8:	29c12983          	lw	s3,668(sp)
    5bac:	29812a03          	lw	s4,664(sp)
    5bb0:	29412a83          	lw	s5,660(sp)
    5bb4:	29012b03          	lw	s6,656(sp)
    5bb8:	28c12b83          	lw	s7,652(sp)
    5bbc:	28812c03          	lw	s8,648(sp)
    5bc0:	28412c83          	lw	s9,644(sp)
    5bc4:	28012d03          	lw	s10,640(sp)
    5bc8:	27c12d83          	lw	s11,636(sp)
    5bcc:	2b010113          	addi	sp,sp,688
    5bd0:	8082                	ret
    5bd2:	5762                	lw	a4,56(sp)
    5bd4:	478d                	li	a5,3
    5bd6:	faf71fe3          	bne	a4,a5,5b94 <__kernel_rem_pio2+0x6ec>
    5bda:	21605d63          	blez	s6,5df4 <__kernel_rem_pio2+0x94c>
    5bde:	003b1b93          	slli	s7,s6,0x3
    5be2:	1c9c                	addi	a5,sp,624
    5be4:	97de                	add	a5,a5,s7
    5be6:	13010993          	addi	s3,sp,304
    5bea:	ff8b8413          	addi	s0,s7,-8
    5bee:	c04e                	sw	s3,0(sp)
    5bf0:	ec07ad83          	lw	s11,-320(a5) # 7ffffec0 <__freertos_irq_stack_top+0x5fffaec0>
    5bf4:	ec47ad03          	lw	s10,-316(a5)
    5bf8:	944e                	add	s0,s0,s3
    5bfa:	a011                	j	5bfe <__kernel_rem_pio2+0x756>
    5bfc:	843e                	mv	s0,a5
    5bfe:	00042c03          	lw	s8,0(s0)
    5c02:	00442c83          	lw	s9,4(s0)
    5c06:	866e                	mv	a2,s11
    5c08:	86ea                	mv	a3,s10
    5c0a:	8562                	mv	a0,s8
    5c0c:	85e6                	mv	a1,s9
    5c0e:	201000ef          	jal	ra,660e <__adddf3>
    5c12:	892a                	mv	s2,a0
    5c14:	84ae                	mv	s1,a1
    5c16:	862a                	mv	a2,a0
    5c18:	86ae                	mv	a3,a1
    5c1a:	8562                	mv	a0,s8
    5c1c:	85e6                	mv	a1,s9
    5c1e:	55b010ef          	jal	ra,7978 <__subdf3>
    5c22:	866e                	mv	a2,s11
    5c24:	86ea                	mv	a3,s10
    5c26:	1e9000ef          	jal	ra,660e <__adddf3>
    5c2a:	c408                	sw	a0,8(s0)
    5c2c:	c44c                	sw	a1,12(s0)
    5c2e:	01242023          	sw	s2,0(s0)
    5c32:	c044                	sw	s1,4(s0)
    5c34:	ff840793          	addi	a5,s0,-8
    5c38:	8dca                	mv	s11,s2
    5c3a:	8d26                	mv	s10,s1
    5c3c:	fc8990e3          	bne	s3,s0,5bfc <__kernel_rem_pio2+0x754>
    5c40:	4785                	li	a5,1
    5c42:	1b67d963          	bge	a5,s6,5df4 <__kernel_rem_pio2+0x94c>
    5c46:	003b1413          	slli	s0,s6,0x3
    5c4a:	4b02                	lw	s6,0(sp)
    5c4c:	1c9c                	addi	a5,sp,624
    5c4e:	9bbe                	add	s7,s7,a5
    5c50:	1461                	addi	s0,s0,-8
    5c52:	ec0bad03          	lw	s10,-320(s7)
    5c56:	008b04b3          	add	s1,s6,s0
    5c5a:	ec4bab83          	lw	s7,-316(s7)
    5c5e:	a011                	j	5c62 <__kernel_rem_pio2+0x7ba>
    5c60:	84be                	mv	s1,a5
    5c62:	0004ac03          	lw	s8,0(s1)
    5c66:	0044ac83          	lw	s9,4(s1)
    5c6a:	866a                	mv	a2,s10
    5c6c:	86de                	mv	a3,s7
    5c6e:	8562                	mv	a0,s8
    5c70:	85e6                	mv	a1,s9
    5c72:	19d000ef          	jal	ra,660e <__adddf3>
    5c76:	89aa                	mv	s3,a0
    5c78:	892e                	mv	s2,a1
    5c7a:	862a                	mv	a2,a0
    5c7c:	86ae                	mv	a3,a1
    5c7e:	8562                	mv	a0,s8
    5c80:	85e6                	mv	a1,s9
    5c82:	4f7010ef          	jal	ra,7978 <__subdf3>
    5c86:	866a                	mv	a2,s10
    5c88:	86de                	mv	a3,s7
    5c8a:	185000ef          	jal	ra,660e <__adddf3>
    5c8e:	c488                	sw	a0,8(s1)
    5c90:	c4cc                	sw	a1,12(s1)
    5c92:	0134a023          	sw	s3,0(s1)
    5c96:	0124a223          	sw	s2,4(s1)
    5c9a:	ff848793          	addi	a5,s1,-8
    5c9e:	8d4e                	mv	s10,s3
    5ca0:	8bca                	mv	s7,s2
    5ca2:	fafb1fe3          	bne	s6,a5,5c60 <__kernel_rem_pio2+0x7b8>
    5ca6:	4782                	lw	a5,0(sp)
    5ca8:	0421                	addi	s0,s0,8
    5caa:	4501                	li	a0,0
    5cac:	00878933          	add	s2,a5,s0
    5cb0:	4581                	li	a1,0
    5cb2:	00092603          	lw	a2,0(s2)
    5cb6:	00492683          	lw	a3,4(s2)
    5cba:	1961                	addi	s2,s2,-8
    5cbc:	153000ef          	jal	ra,660e <__adddf3>
    5cc0:	ff2499e3          	bne	s1,s2,5cb2 <__kernel_rem_pio2+0x80a>
    5cc4:	13012803          	lw	a6,304(sp)
    5cc8:	13412703          	lw	a4,308(sp)
    5ccc:	13812603          	lw	a2,312(sp)
    5cd0:	13c12783          	lw	a5,316(sp)
    5cd4:	0c0a1963          	bnez	s4,5da6 <__kernel_rem_pio2+0x8fe>
    5cd8:	88be                	mv	a7,a5
    5cda:	57d2                	lw	a5,52(sp)
    5cdc:	8342                	mv	t1,a6
    5cde:	8832                	mv	a6,a2
    5ce0:	0067a023          	sw	t1,0(a5)
    5ce4:	c3d8                	sw	a4,4(a5)
    5ce6:	0107a423          	sw	a6,8(a5)
    5cea:	0117a623          	sw	a7,12(a5)
    5cee:	cb88                	sw	a0,16(a5)
    5cf0:	cbcc                	sw	a1,20(a5)
    5cf2:	b54d                	j	5b94 <__kernel_rem_pio2+0x6ec>
    5cf4:	fff48793          	addi	a5,s1,-1
    5cf8:	1c98                	addi	a4,sp,624
    5cfa:	078a                	slli	a5,a5,0x2
    5cfc:	97ba                	add	a5,a5,a4
    5cfe:	dd07a703          	lw	a4,-560(a5)
    5d02:	56f2                	lw	a3,60(sp)
    5d04:	8f75                	and	a4,a4,a3
    5d06:	dce7a823          	sw	a4,-560(a5)
    5d0a:	be49                	j	589c <__kernel_rem_pio2+0x3f4>
    5d0c:	57a1                	li	a5,-24
    5d0e:	d002                	sw	zero,32(sp)
    5d10:	80fff06f          	j	551e <__kernel_rem_pio2+0x76>
    5d14:	4801                	li	a6,0
    5d16:	beb9                	j	5874 <__kernel_rem_pio2+0x3cc>
    5d18:	4702                	lw	a4,0(sp)
    5d1a:	47a2                	lw	a5,8(sp)
    5d1c:	4401                	li	s0,0
    5d1e:	4481                	li	s1,0
    5d20:	00f70cb3          	add	s9,a4,a5
    5d24:	87a2                	mv	a5,s0
    5d26:	843a                	mv	s0,a4
    5d28:	a011                	j	5d2c <__kernel_rem_pio2+0x884>
    5d2a:	8cba                	mv	s9,a4
    5d2c:	000ca603          	lw	a2,0(s9)
    5d30:	004ca683          	lw	a3,4(s9)
    5d34:	8526                	mv	a0,s1
    5d36:	85be                	mv	a1,a5
    5d38:	0d7000ef          	jal	ra,660e <__adddf3>
    5d3c:	ff8c8713          	addi	a4,s9,-8
    5d40:	84aa                	mv	s1,a0
    5d42:	87ae                	mv	a5,a1
    5d44:	ff9413e3          	bne	s0,s9,5d2a <__kernel_rem_pio2+0x882>
    5d48:	842e                	mv	s0,a1
    5d4a:	13012503          	lw	a0,304(sp)
    5d4e:	13412583          	lw	a1,308(sp)
    5d52:	8626                	mv	a2,s1
    5d54:	86a2                	mv	a3,s0
    5d56:	423010ef          	jal	ra,7978 <__subdf3>
    5d5a:	060a1463          	bnez	s4,5dc2 <__kernel_rem_pio2+0x91a>
    5d5e:	56d2                	lw	a3,52(sp)
    5d60:	c284                	sw	s1,0(a3)
    5d62:	c2c0                	sw	s0,4(a3)
    5d64:	03605163          	blez	s6,5d86 <__kernel_rem_pio2+0x8de>
    5d68:	1a24                	addi	s1,sp,312
    5d6a:	4405                	li	s0,1
    5d6c:	4090                	lw	a2,0(s1)
    5d6e:	40d4                	lw	a3,4(s1)
    5d70:	0405                	addi	s0,s0,1
    5d72:	04a1                	addi	s1,s1,8
    5d74:	09b000ef          	jal	ra,660e <__adddf3>
    5d78:	fe8b5ae3          	bge	s6,s0,5d6c <__kernel_rem_pio2+0x8c4>
    5d7c:	000a0563          	beqz	s4,5d86 <__kernel_rem_pio2+0x8de>
    5d80:	800007b7          	lui	a5,0x80000
    5d84:	8dbd                	xor	a1,a1,a5
    5d86:	56d2                	lw	a3,52(sp)
    5d88:	c688                	sw	a0,8(a3)
    5d8a:	c6cc                	sw	a1,12(a3)
    5d8c:	b521                	j	5b94 <__kernel_rem_pio2+0x6ec>
    5d8e:	1c9c                	addi	a5,sp,624
    5d90:	00249413          	slli	s0,s1,0x2
    5d94:	8562                	mv	a0,s8
    5d96:	85e6                	mv	a1,s9
    5d98:	943e                	add	s0,s0,a5
    5d9a:	358020ef          	jal	ra,80f2 <__fixdfsi>
    5d9e:	dca42823          	sw	a0,-560(s0)
    5da2:	8b26                	mv	s6,s1
    5da4:	b171                	j	5a30 <__kernel_rem_pio2+0x588>
    5da6:	800006b7          	lui	a3,0x80000
    5daa:	8f35                	xor	a4,a4,a3
    5dac:	8fb5                	xor	a5,a5,a3
    5dae:	8ead                	xor	a3,a3,a1
    5db0:	55d2                	lw	a1,52(sp)
    5db2:	0105a023          	sw	a6,0(a1)
    5db6:	c1d8                	sw	a4,4(a1)
    5db8:	c590                	sw	a2,8(a1)
    5dba:	c5dc                	sw	a5,12(a1)
    5dbc:	c988                	sw	a0,16(a1)
    5dbe:	c9d4                	sw	a3,20(a1)
    5dc0:	bbd1                	j	5b94 <__kernel_rem_pio2+0x6ec>
    5dc2:	800007b7          	lui	a5,0x80000
    5dc6:	8c3d                	xor	s0,s0,a5
    5dc8:	57d2                	lw	a5,52(sp)
    5dca:	c384                	sw	s1,0(a5)
    5dcc:	c3c0                	sw	s0,4(a5)
    5dce:	f9604de3          	bgtz	s6,5d68 <__kernel_rem_pio2+0x8c0>
    5dd2:	b77d                	j	5d80 <__kernel_rem_pio2+0x8d8>
    5dd4:	5762                	lw	a4,56(sp)
    5dd6:	4789                	li	a5,2
    5dd8:	dee7cde3          	blt	a5,a4,5bd2 <__kernel_rem_pio2+0x72a>
    5ddc:	00e04963          	bgtz	a4,5dee <__kernel_rem_pio2+0x946>
    5de0:	4501                	li	a0,0
    5de2:	4581                	li	a1,0
    5de4:	da0718e3          	bnez	a4,5b94 <__kernel_rem_pio2+0x6ec>
    5de8:	da0a03e3          	beqz	s4,5b8e <__kernel_rem_pio2+0x6e6>
    5dec:	bb71                	j	5b88 <__kernel_rem_pio2+0x6e0>
    5dee:	4481                	li	s1,0
    5df0:	4401                	li	s0,0
    5df2:	bfa1                	j	5d4a <__kernel_rem_pio2+0x8a2>
    5df4:	4501                	li	a0,0
    5df6:	4581                	li	a1,0
    5df8:	b5f1                	j	5cc4 <__kernel_rem_pio2+0x81c>

00005dfa <__kernel_sin>:
    5dfa:	7139                	addi	sp,sp,-64
    5dfc:	00159793          	slli	a5,a1,0x1
    5e00:	dc22                	sw	s0,56(sp)
    5e02:	da26                	sw	s1,52(sp)
    5e04:	d452                	sw	s4,40(sp)
    5e06:	d256                	sw	s5,36(sp)
    5e08:	cc62                	sw	s8,24(sp)
    5e0a:	de06                	sw	ra,60(sp)
    5e0c:	d84a                	sw	s2,48(sp)
    5e0e:	d64e                	sw	s3,44(sp)
    5e10:	d05a                	sw	s6,32(sp)
    5e12:	ce5e                	sw	s7,28(sp)
    5e14:	ca66                	sw	s9,20(sp)
    5e16:	c86a                	sw	s10,16(sp)
    5e18:	c66e                	sw	s11,12(sp)
    5e1a:	8385                	srli	a5,a5,0x1
    5e1c:	3e400837          	lui	a6,0x3e400
    5e20:	842e                	mv	s0,a1
    5e22:	84aa                	mv	s1,a0
    5e24:	8a32                	mv	s4,a2
    5e26:	8ab6                	mv	s5,a3
    5e28:	8c3a                	mv	s8,a4
    5e2a:	0107d763          	bge	a5,a6,5e38 <__kernel_sin+0x3e>
    5e2e:	2c4020ef          	jal	ra,80f2 <__fixdfsi>
    5e32:	8726                	mv	a4,s1
    5e34:	87a2                	mv	a5,s0
    5e36:	c169                	beqz	a0,5ef8 <__kernel_sin+0xfe>
    5e38:	8626                	mv	a2,s1
    5e3a:	86a2                	mv	a3,s0
    5e3c:	8526                	mv	a0,s1
    5e3e:	85a2                	mv	a1,s0
    5e40:	680010ef          	jal	ra,74c0 <__muldf3>
    5e44:	892a                	mv	s2,a0
    5e46:	89ae                	mv	s3,a1
    5e48:	862a                	mv	a2,a0
    5e4a:	86ae                	mv	a3,a1
    5e4c:	8526                	mv	a0,s1
    5e4e:	85a2                	mv	a1,s0
    5e50:	670010ef          	jal	ra,74c0 <__muldf3>
    5e54:	00005797          	auipc	a5,0x5
    5e58:	d1c78793          	addi	a5,a5,-740 # ab70 <init_jk+0x10>
    5e5c:	4390                	lw	a2,0(a5)
    5e5e:	43d4                	lw	a3,4(a5)
    5e60:	8b2a                	mv	s6,a0
    5e62:	8bae                	mv	s7,a1
    5e64:	854a                	mv	a0,s2
    5e66:	85ce                	mv	a1,s3
    5e68:	658010ef          	jal	ra,74c0 <__muldf3>
    5e6c:	00005797          	auipc	a5,0x5
    5e70:	d0c78793          	addi	a5,a5,-756 # ab78 <init_jk+0x18>
    5e74:	4390                	lw	a2,0(a5)
    5e76:	43d4                	lw	a3,4(a5)
    5e78:	301010ef          	jal	ra,7978 <__subdf3>
    5e7c:	864a                	mv	a2,s2
    5e7e:	86ce                	mv	a3,s3
    5e80:	640010ef          	jal	ra,74c0 <__muldf3>
    5e84:	00005797          	auipc	a5,0x5
    5e88:	cfc78793          	addi	a5,a5,-772 # ab80 <init_jk+0x20>
    5e8c:	4390                	lw	a2,0(a5)
    5e8e:	43d4                	lw	a3,4(a5)
    5e90:	77e000ef          	jal	ra,660e <__adddf3>
    5e94:	864a                	mv	a2,s2
    5e96:	86ce                	mv	a3,s3
    5e98:	628010ef          	jal	ra,74c0 <__muldf3>
    5e9c:	00005797          	auipc	a5,0x5
    5ea0:	cec78793          	addi	a5,a5,-788 # ab88 <init_jk+0x28>
    5ea4:	4390                	lw	a2,0(a5)
    5ea6:	43d4                	lw	a3,4(a5)
    5ea8:	2d1010ef          	jal	ra,7978 <__subdf3>
    5eac:	864a                	mv	a2,s2
    5eae:	86ce                	mv	a3,s3
    5eb0:	610010ef          	jal	ra,74c0 <__muldf3>
    5eb4:	00005797          	auipc	a5,0x5
    5eb8:	cdc78793          	addi	a5,a5,-804 # ab90 <init_jk+0x30>
    5ebc:	4390                	lw	a2,0(a5)
    5ebe:	43d4                	lw	a3,4(a5)
    5ec0:	27b9                	jal	660e <__adddf3>
    5ec2:	8d2a                	mv	s10,a0
    5ec4:	8dae                	mv	s11,a1
    5ec6:	040c1a63          	bnez	s8,5f1a <__kernel_sin+0x120>
    5eca:	862a                	mv	a2,a0
    5ecc:	86ae                	mv	a3,a1
    5ece:	854a                	mv	a0,s2
    5ed0:	85ce                	mv	a1,s3
    5ed2:	5ee010ef          	jal	ra,74c0 <__muldf3>
    5ed6:	00005797          	auipc	a5,0x5
    5eda:	cc278793          	addi	a5,a5,-830 # ab98 <init_jk+0x38>
    5ede:	4390                	lw	a2,0(a5)
    5ee0:	43d4                	lw	a3,4(a5)
    5ee2:	297010ef          	jal	ra,7978 <__subdf3>
    5ee6:	865a                	mv	a2,s6
    5ee8:	86de                	mv	a3,s7
    5eea:	5d6010ef          	jal	ra,74c0 <__muldf3>
    5eee:	8626                	mv	a2,s1
    5ef0:	86a2                	mv	a3,s0
    5ef2:	2f31                	jal	660e <__adddf3>
    5ef4:	872a                	mv	a4,a0
    5ef6:	87ae                	mv	a5,a1
    5ef8:	50f2                	lw	ra,60(sp)
    5efa:	5462                	lw	s0,56(sp)
    5efc:	54d2                	lw	s1,52(sp)
    5efe:	5942                	lw	s2,48(sp)
    5f00:	59b2                	lw	s3,44(sp)
    5f02:	5a22                	lw	s4,40(sp)
    5f04:	5a92                	lw	s5,36(sp)
    5f06:	5b02                	lw	s6,32(sp)
    5f08:	4bf2                	lw	s7,28(sp)
    5f0a:	4c62                	lw	s8,24(sp)
    5f0c:	4cd2                	lw	s9,20(sp)
    5f0e:	4d42                	lw	s10,16(sp)
    5f10:	4db2                	lw	s11,12(sp)
    5f12:	853a                	mv	a0,a4
    5f14:	85be                	mv	a1,a5
    5f16:	6121                	addi	sp,sp,64
    5f18:	8082                	ret
    5f1a:	00005797          	auipc	a5,0x5
    5f1e:	9fe78793          	addi	a5,a5,-1538 # a918 <atanlo+0x90>
    5f22:	4390                	lw	a2,0(a5)
    5f24:	43d4                	lw	a3,4(a5)
    5f26:	8552                	mv	a0,s4
    5f28:	85d6                	mv	a1,s5
    5f2a:	596010ef          	jal	ra,74c0 <__muldf3>
    5f2e:	8c2a                	mv	s8,a0
    5f30:	8cae                	mv	s9,a1
    5f32:	866a                	mv	a2,s10
    5f34:	86ee                	mv	a3,s11
    5f36:	855a                	mv	a0,s6
    5f38:	85de                	mv	a1,s7
    5f3a:	586010ef          	jal	ra,74c0 <__muldf3>
    5f3e:	862a                	mv	a2,a0
    5f40:	86ae                	mv	a3,a1
    5f42:	8562                	mv	a0,s8
    5f44:	85e6                	mv	a1,s9
    5f46:	233010ef          	jal	ra,7978 <__subdf3>
    5f4a:	864a                	mv	a2,s2
    5f4c:	86ce                	mv	a3,s3
    5f4e:	572010ef          	jal	ra,74c0 <__muldf3>
    5f52:	8652                	mv	a2,s4
    5f54:	86d6                	mv	a3,s5
    5f56:	223010ef          	jal	ra,7978 <__subdf3>
    5f5a:	00005797          	auipc	a5,0x5
    5f5e:	c3e78793          	addi	a5,a5,-962 # ab98 <init_jk+0x38>
    5f62:	4390                	lw	a2,0(a5)
    5f64:	43d4                	lw	a3,4(a5)
    5f66:	892a                	mv	s2,a0
    5f68:	89ae                	mv	s3,a1
    5f6a:	855a                	mv	a0,s6
    5f6c:	85de                	mv	a1,s7
    5f6e:	552010ef          	jal	ra,74c0 <__muldf3>
    5f72:	862a                	mv	a2,a0
    5f74:	86ae                	mv	a3,a1
    5f76:	854a                	mv	a0,s2
    5f78:	85ce                	mv	a1,s3
    5f7a:	2d51                	jal	660e <__adddf3>
    5f7c:	862a                	mv	a2,a0
    5f7e:	86ae                	mv	a3,a1
    5f80:	8526                	mv	a0,s1
    5f82:	85a2                	mv	a1,s0
    5f84:	1f5010ef          	jal	ra,7978 <__subdf3>
    5f88:	872a                	mv	a4,a0
    5f8a:	87ae                	mv	a5,a1
    5f8c:	b7b5                	j	5ef8 <__kernel_sin+0xfe>

00005f8e <floor>:
    5f8e:	4145d793          	srai	a5,a1,0x14
    5f92:	1101                	addi	sp,sp,-32
    5f94:	7ff7f793          	andi	a5,a5,2047
    5f98:	cc22                	sw	s0,24(sp)
    5f9a:	ca26                	sw	s1,20(sp)
    5f9c:	c84a                	sw	s2,16(sp)
    5f9e:	c64e                	sw	s3,12(sp)
    5fa0:	c452                	sw	s4,8(sp)
    5fa2:	ce06                	sw	ra,28(sp)
    5fa4:	c256                	sw	s5,4(sp)
    5fa6:	c05a                	sw	s6,0(sp)
    5fa8:	c0178493          	addi	s1,a5,-1023
    5fac:	474d                	li	a4,19
    5fae:	842e                	mv	s0,a1
    5fb0:	89aa                	mv	s3,a0
    5fb2:	892e                	mv	s2,a1
    5fb4:	8a2a                	mv	s4,a0
    5fb6:	08974863          	blt	a4,s1,6046 <floor+0xb8>
    5fba:	0604c463          	bltz	s1,6022 <floor+0x94>
    5fbe:	00100b37          	lui	s6,0x100
    5fc2:	fffb0a93          	addi	s5,s6,-1 # fffff <_data_lma+0xf516b>
    5fc6:	409adab3          	sra	s5,s5,s1
    5fca:	00baf7b3          	and	a5,s5,a1
    5fce:	8fc9                	or	a5,a5,a0
    5fd0:	86aa                	mv	a3,a0
    5fd2:	872e                	mv	a4,a1
    5fd4:	cb9d                	beqz	a5,600a <floor+0x7c>
    5fd6:	00005797          	auipc	a5,0x5
    5fda:	81278793          	addi	a5,a5,-2030 # a7e8 <_read+0x204>
    5fde:	4390                	lw	a2,0(a5)
    5fe0:	43d4                	lw	a3,4(a5)
    5fe2:	2535                	jal	660e <__adddf3>
    5fe4:	4601                	li	a2,0
    5fe6:	4681                	li	a3,0
    5fe8:	374010ef          	jal	ra,735c <__gedf2>
    5fec:	00a05d63          	blez	a0,6006 <floor+0x78>
    5ff0:	00045663          	bgez	s0,5ffc <floor+0x6e>
    5ff4:	409b54b3          	sra	s1,s6,s1
    5ff8:	00848933          	add	s2,s1,s0
    5ffc:	fffaca93          	not	s5,s5
    6000:	01597933          	and	s2,s2,s5
    6004:	4a01                	li	s4,0
    6006:	86d2                	mv	a3,s4
    6008:	874a                	mv	a4,s2
    600a:	40f2                	lw	ra,28(sp)
    600c:	4462                	lw	s0,24(sp)
    600e:	44d2                	lw	s1,20(sp)
    6010:	4942                	lw	s2,16(sp)
    6012:	49b2                	lw	s3,12(sp)
    6014:	4a22                	lw	s4,8(sp)
    6016:	4a92                	lw	s5,4(sp)
    6018:	4b02                	lw	s6,0(sp)
    601a:	8536                	mv	a0,a3
    601c:	85ba                	mv	a1,a4
    601e:	6105                	addi	sp,sp,32
    6020:	8082                	ret
    6022:	00004797          	auipc	a5,0x4
    6026:	7c678793          	addi	a5,a5,1990 # a7e8 <_read+0x204>
    602a:	4390                	lw	a2,0(a5)
    602c:	43d4                	lw	a3,4(a5)
    602e:	23c5                	jal	660e <__adddf3>
    6030:	4601                	li	a2,0
    6032:	4681                	li	a3,0
    6034:	328010ef          	jal	ra,735c <__gedf2>
    6038:	fca057e3          	blez	a0,6006 <floor+0x78>
    603c:	06044363          	bltz	s0,60a2 <floor+0x114>
    6040:	4a01                	li	s4,0
    6042:	4901                	li	s2,0
    6044:	b7c9                	j	6006 <floor+0x78>
    6046:	03300713          	li	a4,51
    604a:	00975e63          	bge	a4,s1,6066 <floor+0xd8>
    604e:	40000793          	li	a5,1024
    6052:	86aa                	mv	a3,a0
    6054:	872e                	mv	a4,a1
    6056:	faf49ae3          	bne	s1,a5,600a <floor+0x7c>
    605a:	86ae                	mv	a3,a1
    605c:	862a                	mv	a2,a0
    605e:	2b45                	jal	660e <__adddf3>
    6060:	86aa                	mv	a3,a0
    6062:	872e                	mv	a4,a1
    6064:	b75d                	j	600a <floor+0x7c>
    6066:	bed78793          	addi	a5,a5,-1043
    606a:	5afd                	li	s5,-1
    606c:	00fadab3          	srl	s5,s5,a5
    6070:	00aaf7b3          	and	a5,s5,a0
    6074:	86aa                	mv	a3,a0
    6076:	872e                	mv	a4,a1
    6078:	dbc9                	beqz	a5,600a <floor+0x7c>
    607a:	00004797          	auipc	a5,0x4
    607e:	76e78793          	addi	a5,a5,1902 # a7e8 <_read+0x204>
    6082:	4390                	lw	a2,0(a5)
    6084:	43d4                	lw	a3,4(a5)
    6086:	2361                	jal	660e <__adddf3>
    6088:	4601                	li	a2,0
    608a:	4681                	li	a3,0
    608c:	2d0010ef          	jal	ra,735c <__gedf2>
    6090:	f6a05be3          	blez	a0,6006 <floor+0x78>
    6094:	02044063          	bltz	s0,60b4 <floor+0x126>
    6098:	fffac793          	not	a5,s5
    609c:	00fa7a33          	and	s4,s4,a5
    60a0:	b79d                	j	6006 <floor+0x78>
    60a2:	0406                	slli	s0,s0,0x1
    60a4:	8005                	srli	s0,s0,0x1
    60a6:	01346433          	or	s0,s0,s3
    60aa:	4a01                	li	s4,0
    60ac:	dc29                	beqz	s0,6006 <floor+0x78>
    60ae:	bff00937          	lui	s2,0xbff00
    60b2:	bf91                	j	6006 <floor+0x78>
    60b4:	47d1                	li	a5,20
    60b6:	00f48f63          	beq	s1,a5,60d4 <floor+0x146>
    60ba:	03400793          	li	a5,52
    60be:	8f85                	sub	a5,a5,s1
    60c0:	4485                	li	s1,1
    60c2:	00f494b3          	sll	s1,s1,a5
    60c6:	99a6                	add	s3,s3,s1
    60c8:	0149f963          	bgeu	s3,s4,60da <floor+0x14c>
    60cc:	00140913          	addi	s2,s0,1
    60d0:	8a4e                	mv	s4,s3
    60d2:	b7d9                	j	6098 <floor+0x10a>
    60d4:	00140913          	addi	s2,s0,1
    60d8:	b7c1                	j	6098 <floor+0x10a>
    60da:	8a4e                	mv	s4,s3
    60dc:	bf75                	j	6098 <floor+0x10a>

000060de <matherr>:
    60de:	4501                	li	a0,0
    60e0:	8082                	ret

000060e2 <scalbn>:
    60e2:	1141                	addi	sp,sp,-16
    60e4:	4145d793          	srai	a5,a1,0x14
    60e8:	c422                	sw	s0,8(sp)
    60ea:	c606                	sw	ra,12(sp)
    60ec:	c226                	sw	s1,4(sp)
    60ee:	7ff7f793          	andi	a5,a5,2047
    60f2:	872e                	mv	a4,a1
    60f4:	86aa                	mv	a3,a0
    60f6:	8432                	mv	s0,a2
    60f8:	e7c1                	bnez	a5,6180 <scalbn+0x9e>
    60fa:	00159793          	slli	a5,a1,0x1
    60fe:	8385                	srli	a5,a5,0x1
    6100:	8fc9                	or	a5,a5,a0
    6102:	cba5                	beqz	a5,6172 <scalbn+0x90>
    6104:	00005797          	auipc	a5,0x5
    6108:	a9c78793          	addi	a5,a5,-1380 # aba0 <init_jk+0x40>
    610c:	43d4                	lw	a3,4(a5)
    610e:	4390                	lw	a2,0(a5)
    6110:	3b0010ef          	jal	ra,74c0 <__muldf3>
    6114:	77d1                	lui	a5,0xffff4
    6116:	cb078793          	addi	a5,a5,-848 # ffff3cb0 <__freertos_irq_stack_top+0xdffeecb0>
    611a:	86aa                	mv	a3,a0
    611c:	872e                	mv	a4,a1
    611e:	0ef44063          	blt	s0,a5,61fe <scalbn+0x11c>
    6122:	4145d793          	srai	a5,a1,0x14
    6126:	7ff7f793          	andi	a5,a5,2047
    612a:	862e                	mv	a2,a1
    612c:	fca78793          	addi	a5,a5,-54
    6130:	97a2                	add	a5,a5,s0
    6132:	7fe00593          	li	a1,2046
    6136:	0af5c263          	blt	a1,a5,61da <scalbn+0xf8>
    613a:	0af04563          	bgtz	a5,61e4 <scalbn+0x102>
    613e:	fcb00593          	li	a1,-53
    6142:	06b7d063          	bge	a5,a1,61a2 <scalbn+0xc0>
    6146:	67b1                	lui	a5,0xc
    6148:	35078793          	addi	a5,a5,848 # c350 <_data_lma+0x14bc>
    614c:	0887c763          	blt	a5,s0,61da <scalbn+0xf8>
    6150:	00005797          	auipc	a5,0x5
    6154:	a5878793          	addi	a5,a5,-1448 # aba8 <init_jk+0x48>
    6158:	4380                	lw	s0,0(a5)
    615a:	43c4                	lw	s1,4(a5)
    615c:	8636                	mv	a2,a3
    615e:	8522                	mv	a0,s0
    6160:	86ba                	mv	a3,a4
    6162:	85a6                	mv	a1,s1
    6164:	2875                	jal	6220 <copysign>
    6166:	86a6                	mv	a3,s1
    6168:	8622                	mv	a2,s0
    616a:	356010ef          	jal	ra,74c0 <__muldf3>
    616e:	86aa                	mv	a3,a0
    6170:	872e                	mv	a4,a1
    6172:	40b2                	lw	ra,12(sp)
    6174:	4422                	lw	s0,8(sp)
    6176:	4492                	lw	s1,4(sp)
    6178:	8536                	mv	a0,a3
    617a:	85ba                	mv	a1,a4
    617c:	0141                	addi	sp,sp,16
    617e:	8082                	ret
    6180:	7ff00813          	li	a6,2047
    6184:	862e                	mv	a2,a1
    6186:	fb0795e3          	bne	a5,a6,6130 <scalbn+0x4e>
    618a:	86ae                	mv	a3,a1
    618c:	862a                	mv	a2,a0
    618e:	2141                	jal	660e <__adddf3>
    6190:	40b2                	lw	ra,12(sp)
    6192:	4422                	lw	s0,8(sp)
    6194:	86aa                	mv	a3,a0
    6196:	872e                	mv	a4,a1
    6198:	4492                	lw	s1,4(sp)
    619a:	8536                	mv	a0,a3
    619c:	85ba                	mv	a1,a4
    619e:	0141                	addi	sp,sp,16
    61a0:	8082                	ret
    61a2:	80100737          	lui	a4,0x80100
    61a6:	177d                	addi	a4,a4,-1
    61a8:	03678793          	addi	a5,a5,54
    61ac:	8e79                	and	a2,a2,a4
    61ae:	07d2                	slli	a5,a5,0x14
    61b0:	00005717          	auipc	a4,0x5
    61b4:	a0070713          	addi	a4,a4,-1536 # abb0 <init_jk+0x50>
    61b8:	85b6                	mv	a1,a3
    61ba:	8fd1                	or	a5,a5,a2
    61bc:	4354                	lw	a3,4(a4)
    61be:	4310                	lw	a2,0(a4)
    61c0:	852e                	mv	a0,a1
    61c2:	85be                	mv	a1,a5
    61c4:	2fc010ef          	jal	ra,74c0 <__muldf3>
    61c8:	40b2                	lw	ra,12(sp)
    61ca:	4422                	lw	s0,8(sp)
    61cc:	86aa                	mv	a3,a0
    61ce:	872e                	mv	a4,a1
    61d0:	4492                	lw	s1,4(sp)
    61d2:	8536                	mv	a0,a3
    61d4:	85ba                	mv	a1,a4
    61d6:	0141                	addi	sp,sp,16
    61d8:	8082                	ret
    61da:	00004797          	auipc	a5,0x4
    61de:	60e78793          	addi	a5,a5,1550 # a7e8 <_read+0x204>
    61e2:	bf9d                	j	6158 <scalbn+0x76>
    61e4:	80100737          	lui	a4,0x80100
    61e8:	40b2                	lw	ra,12(sp)
    61ea:	4422                	lw	s0,8(sp)
    61ec:	177d                	addi	a4,a4,-1
    61ee:	8f71                	and	a4,a4,a2
    61f0:	07d2                	slli	a5,a5,0x14
    61f2:	8f5d                	or	a4,a4,a5
    61f4:	4492                	lw	s1,4(sp)
    61f6:	8536                	mv	a0,a3
    61f8:	85ba                	mv	a1,a4
    61fa:	0141                	addi	sp,sp,16
    61fc:	8082                	ret
    61fe:	00005797          	auipc	a5,0x5
    6202:	9aa78793          	addi	a5,a5,-1622 # aba8 <init_jk+0x48>
    6206:	43d4                	lw	a3,4(a5)
    6208:	4390                	lw	a2,0(a5)
    620a:	2b6010ef          	jal	ra,74c0 <__muldf3>
    620e:	40b2                	lw	ra,12(sp)
    6210:	4422                	lw	s0,8(sp)
    6212:	86aa                	mv	a3,a0
    6214:	872e                	mv	a4,a1
    6216:	4492                	lw	s1,4(sp)
    6218:	8536                	mv	a0,a3
    621a:	85ba                	mv	a1,a4
    621c:	0141                	addi	sp,sp,16
    621e:	8082                	ret

00006220 <copysign>:
    6220:	80000737          	lui	a4,0x80000
    6224:	fff74793          	not	a5,a4
    6228:	8ef9                	and	a3,a3,a4
    622a:	8fed                	and	a5,a5,a1
    622c:	872a                	mv	a4,a0
    622e:	8fd5                	or	a5,a5,a3
    6230:	853a                	mv	a0,a4
    6232:	85be                	mv	a1,a5
    6234:	8082                	ret

00006236 <__divdi3>:
    6236:	4801                	li	a6,0
    6238:	0e05c663          	bltz	a1,6324 <__divdi3+0xee>
    623c:	0006db63          	bgez	a3,6252 <__divdi3+0x1c>
    6240:	40c00633          	neg	a2,a2
    6244:	00c037b3          	snez	a5,a2
    6248:	40d006b3          	neg	a3,a3
    624c:	fff84813          	not	a6,a6
    6250:	8e9d                	sub	a3,a3,a5
    6252:	87b6                	mv	a5,a3
    6254:	8332                	mv	t1,a2
    6256:	8eaa                	mv	t4,a0
    6258:	88ae                	mv	a7,a1
    625a:	18069163          	bnez	a3,63dc <__divdi3+0x1a6>
    625e:	0cc5fc63          	bgeu	a1,a2,6336 <__divdi3+0x100>
    6262:	6741                	lui	a4,0x10
    6264:	1ee66163          	bltu	a2,a4,6446 <__divdi3+0x210>
    6268:	010007b7          	lui	a5,0x1000
    626c:	36f66563          	bltu	a2,a5,65d6 <__divdi3+0x3a0>
    6270:	01865693          	srli	a3,a2,0x18
    6274:	47e1                	li	a5,24
    6276:	00005717          	auipc	a4,0x5
    627a:	a8270713          	addi	a4,a4,-1406 # acf8 <__clz_tab>
    627e:	9736                	add	a4,a4,a3
    6280:	00074703          	lbu	a4,0(a4)
    6284:	97ba                	add	a5,a5,a4
    6286:	02000713          	li	a4,32
    628a:	8f1d                	sub	a4,a4,a5
    628c:	cb19                	beqz	a4,62a2 <__divdi3+0x6c>
    628e:	00e595b3          	sll	a1,a1,a4
    6292:	00f557b3          	srl	a5,a0,a5
    6296:	00e61333          	sll	t1,a2,a4
    629a:	00b7e8b3          	or	a7,a5,a1
    629e:	00e51eb3          	sll	t4,a0,a4
    62a2:	01035613          	srli	a2,t1,0x10
    62a6:	02c8d7b3          	divu	a5,a7,a2
    62aa:	01031693          	slli	a3,t1,0x10
    62ae:	82c1                	srli	a3,a3,0x10
    62b0:	010ed713          	srli	a4,t4,0x10
    62b4:	02c8f5b3          	remu	a1,a7,a2
    62b8:	02f68533          	mul	a0,a3,a5
    62bc:	05c2                	slli	a1,a1,0x10
    62be:	00e5e8b3          	or	a7,a1,a4
    62c2:	00a8fa63          	bgeu	a7,a0,62d6 <__divdi3+0xa0>
    62c6:	989a                	add	a7,a7,t1
    62c8:	fff78713          	addi	a4,a5,-1 # ffffff <_data_lma+0xff516b>
    62cc:	0068e463          	bltu	a7,t1,62d4 <__divdi3+0x9e>
    62d0:	32a8e963          	bltu	a7,a0,6602 <__divdi3+0x3cc>
    62d4:	87ba                	mv	a5,a4
    62d6:	40a888b3          	sub	a7,a7,a0
    62da:	02c8d5b3          	divu	a1,a7,a2
    62de:	0ec2                	slli	t4,t4,0x10
    62e0:	010ede93          	srli	t4,t4,0x10
    62e4:	02c8f8b3          	remu	a7,a7,a2
    62e8:	02b686b3          	mul	a3,a3,a1
    62ec:	08c2                	slli	a7,a7,0x10
    62ee:	01d8e8b3          	or	a7,a7,t4
    62f2:	00d8fb63          	bgeu	a7,a3,6308 <__divdi3+0xd2>
    62f6:	989a                	add	a7,a7,t1
    62f8:	fff58713          	addi	a4,a1,-1
    62fc:	0068e563          	bltu	a7,t1,6306 <__divdi3+0xd0>
    6300:	15f9                	addi	a1,a1,-2
    6302:	00d8e363          	bltu	a7,a3,6308 <__divdi3+0xd2>
    6306:	85ba                	mv	a1,a4
    6308:	01079513          	slli	a0,a5,0x10
    630c:	8d4d                	or	a0,a0,a1
    630e:	4581                	li	a1,0
    6310:	00080963          	beqz	a6,6322 <__divdi3+0xec>
    6314:	40a00533          	neg	a0,a0
    6318:	00a037b3          	snez	a5,a0
    631c:	40b005b3          	neg	a1,a1
    6320:	8d9d                	sub	a1,a1,a5
    6322:	8082                	ret
    6324:	40a00533          	neg	a0,a0
    6328:	00a037b3          	snez	a5,a0
    632c:	40b005b3          	neg	a1,a1
    6330:	8d9d                	sub	a1,a1,a5
    6332:	587d                	li	a6,-1
    6334:	b721                	j	623c <__divdi3+0x6>
    6336:	e601                	bnez	a2,633e <__divdi3+0x108>
    6338:	4305                	li	t1,1
    633a:	02d35333          	divu	t1,t1,a3
    633e:	6741                	lui	a4,0x10
    6340:	0ee36a63          	bltu	t1,a4,6434 <__divdi3+0x1fe>
    6344:	010007b7          	lui	a5,0x1000
    6348:	28f36b63          	bltu	t1,a5,65de <__divdi3+0x3a8>
    634c:	01835693          	srli	a3,t1,0x18
    6350:	47e1                	li	a5,24
    6352:	00005717          	auipc	a4,0x5
    6356:	9a670713          	addi	a4,a4,-1626 # acf8 <__clz_tab>
    635a:	9736                	add	a4,a4,a3
    635c:	00074703          	lbu	a4,0(a4)
    6360:	97ba                	add	a5,a5,a4
    6362:	02000713          	li	a4,32
    6366:	8f1d                	sub	a4,a4,a5
    6368:	eb65                	bnez	a4,6458 <__divdi3+0x222>
    636a:	01031893          	slli	a7,t1,0x10
    636e:	406586b3          	sub	a3,a1,t1
    6372:	01035f13          	srli	t5,t1,0x10
    6376:	0108d893          	srli	a7,a7,0x10
    637a:	4585                	li	a1,1
    637c:	010ed713          	srli	a4,t4,0x10
    6380:	03e6d7b3          	divu	a5,a3,t5
    6384:	03e6f6b3          	remu	a3,a3,t5
    6388:	03178633          	mul	a2,a5,a7
    638c:	06c2                	slli	a3,a3,0x10
    638e:	8f55                	or	a4,a4,a3
    6390:	00c77a63          	bgeu	a4,a2,63a4 <__divdi3+0x16e>
    6394:	971a                	add	a4,a4,t1
    6396:	fff78693          	addi	a3,a5,-1 # ffffff <_data_lma+0xff516b>
    639a:	00676463          	bltu	a4,t1,63a2 <__divdi3+0x16c>
    639e:	26c76563          	bltu	a4,a2,6608 <__divdi3+0x3d2>
    63a2:	87b6                	mv	a5,a3
    63a4:	8f11                	sub	a4,a4,a2
    63a6:	03e756b3          	divu	a3,a4,t5
    63aa:	0ec2                	slli	t4,t4,0x10
    63ac:	010ede93          	srli	t4,t4,0x10
    63b0:	03e77733          	remu	a4,a4,t5
    63b4:	031688b3          	mul	a7,a3,a7
    63b8:	0742                	slli	a4,a4,0x10
    63ba:	01d76733          	or	a4,a4,t4
    63be:	01177b63          	bgeu	a4,a7,63d4 <__divdi3+0x19e>
    63c2:	971a                	add	a4,a4,t1
    63c4:	fff68613          	addi	a2,a3,-1 # 7fffffff <__freertos_irq_stack_top+0x5fffafff>
    63c8:	00676563          	bltu	a4,t1,63d2 <__divdi3+0x19c>
    63cc:	16f9                	addi	a3,a3,-2
    63ce:	01176363          	bltu	a4,a7,63d4 <__divdi3+0x19e>
    63d2:	86b2                	mv	a3,a2
    63d4:	01079513          	slli	a0,a5,0x10
    63d8:	8d55                	or	a0,a0,a3
    63da:	bf1d                	j	6310 <__divdi3+0xda>
    63dc:	04d5e163          	bltu	a1,a3,641e <__divdi3+0x1e8>
    63e0:	67c1                	lui	a5,0x10
    63e2:	04f6e163          	bltu	a3,a5,6424 <__divdi3+0x1ee>
    63e6:	010007b7          	lui	a5,0x1000
    63ea:	1ef6e263          	bltu	a3,a5,65ce <__divdi3+0x398>
    63ee:	0186d893          	srli	a7,a3,0x18
    63f2:	4761                	li	a4,24
    63f4:	00005797          	auipc	a5,0x5
    63f8:	90478793          	addi	a5,a5,-1788 # acf8 <__clz_tab>
    63fc:	97c6                	add	a5,a5,a7
    63fe:	0007c303          	lbu	t1,0(a5)
    6402:	02000793          	li	a5,32
    6406:	933a                	add	t1,t1,a4
    6408:	406787b3          	sub	a5,a5,t1
    640c:	ebe9                	bnez	a5,64de <__divdi3+0x2a8>
    640e:	1cb6ec63          	bltu	a3,a1,65e6 <__divdi3+0x3b0>
    6412:	00c53533          	sltu	a0,a0,a2
    6416:	00154513          	xori	a0,a0,1
    641a:	4581                	li	a1,0
    641c:	bdd5                	j	6310 <__divdi3+0xda>
    641e:	4581                	li	a1,0
    6420:	4501                	li	a0,0
    6422:	b5fd                	j	6310 <__divdi3+0xda>
    6424:	0ff00793          	li	a5,255
    6428:	1cd7f263          	bgeu	a5,a3,65ec <__divdi3+0x3b6>
    642c:	0086d893          	srli	a7,a3,0x8
    6430:	4721                	li	a4,8
    6432:	b7c9                	j	63f4 <__divdi3+0x1be>
    6434:	0ff00713          	li	a4,255
    6438:	869a                	mv	a3,t1
    643a:	f0677ce3          	bgeu	a4,t1,6352 <__divdi3+0x11c>
    643e:	00835693          	srli	a3,t1,0x8
    6442:	47a1                	li	a5,8
    6444:	b739                	j	6352 <__divdi3+0x11c>
    6446:	0ff00713          	li	a4,255
    644a:	86b2                	mv	a3,a2
    644c:	e2c775e3          	bgeu	a4,a2,6276 <__divdi3+0x40>
    6450:	00865693          	srli	a3,a2,0x8
    6454:	47a1                	li	a5,8
    6456:	b505                	j	6276 <__divdi3+0x40>
    6458:	00e31333          	sll	t1,t1,a4
    645c:	00f5d633          	srl	a2,a1,a5
    6460:	01035f13          	srli	t5,t1,0x10
    6464:	03e65e33          	divu	t3,a2,t5
    6468:	00e596b3          	sll	a3,a1,a4
    646c:	00f557b3          	srl	a5,a0,a5
    6470:	8edd                	or	a3,a3,a5
    6472:	01031893          	slli	a7,t1,0x10
    6476:	0108d893          	srli	a7,a7,0x10
    647a:	00e51eb3          	sll	t4,a0,a4
    647e:	0106d593          	srli	a1,a3,0x10
    6482:	03e677b3          	remu	a5,a2,t5
    6486:	03c88733          	mul	a4,a7,t3
    648a:	07c2                	slli	a5,a5,0x10
    648c:	8fcd                	or	a5,a5,a1
    648e:	00e7fb63          	bgeu	a5,a4,64a4 <__divdi3+0x26e>
    6492:	979a                	add	a5,a5,t1
    6494:	fffe0613          	addi	a2,t3,-1
    6498:	1667e363          	bltu	a5,t1,65fe <__divdi3+0x3c8>
    649c:	16e7f163          	bgeu	a5,a4,65fe <__divdi3+0x3c8>
    64a0:	1e79                	addi	t3,t3,-2
    64a2:	979a                	add	a5,a5,t1
    64a4:	8f99                	sub	a5,a5,a4
    64a6:	03e7d633          	divu	a2,a5,t5
    64aa:	01069713          	slli	a4,a3,0x10
    64ae:	8341                	srli	a4,a4,0x10
    64b0:	03e7f7b3          	remu	a5,a5,t5
    64b4:	02c88533          	mul	a0,a7,a2
    64b8:	01079693          	slli	a3,a5,0x10
    64bc:	8ed9                	or	a3,a3,a4
    64be:	00a6fb63          	bgeu	a3,a0,64d4 <__divdi3+0x29e>
    64c2:	969a                	add	a3,a3,t1
    64c4:	fff60793          	addi	a5,a2,-1 # ffffff <_data_lma+0xff516b>
    64c8:	1266e763          	bltu	a3,t1,65f6 <__divdi3+0x3c0>
    64cc:	12a6f563          	bgeu	a3,a0,65f6 <__divdi3+0x3c0>
    64d0:	1679                	addi	a2,a2,-2
    64d2:	969a                	add	a3,a3,t1
    64d4:	010e1593          	slli	a1,t3,0x10
    64d8:	8e89                	sub	a3,a3,a0
    64da:	8dd1                	or	a1,a1,a2
    64dc:	b545                	j	637c <__divdi3+0x146>
    64de:	00665733          	srl	a4,a2,t1
    64e2:	00f696b3          	sll	a3,a3,a5
    64e6:	8ed9                	or	a3,a3,a4
    64e8:	0065d8b3          	srl	a7,a1,t1
    64ec:	0106df13          	srli	t5,a3,0x10
    64f0:	03e8deb3          	divu	t4,a7,t5
    64f4:	01069e13          	slli	t3,a3,0x10
    64f8:	00655333          	srl	t1,a0,t1
    64fc:	010e5e13          	srli	t3,t3,0x10
    6500:	00f595b3          	sll	a1,a1,a5
    6504:	00b365b3          	or	a1,t1,a1
    6508:	0105d713          	srli	a4,a1,0x10
    650c:	00f61633          	sll	a2,a2,a5
    6510:	03e8f8b3          	remu	a7,a7,t5
    6514:	03de0333          	mul	t1,t3,t4
    6518:	08c2                	slli	a7,a7,0x10
    651a:	00e8e733          	or	a4,a7,a4
    651e:	00677b63          	bgeu	a4,t1,6534 <__divdi3+0x2fe>
    6522:	9736                	add	a4,a4,a3
    6524:	fffe8893          	addi	a7,t4,-1
    6528:	0cd76963          	bltu	a4,a3,65fa <__divdi3+0x3c4>
    652c:	0c677763          	bgeu	a4,t1,65fa <__divdi3+0x3c4>
    6530:	1ef9                	addi	t4,t4,-2
    6532:	9736                	add	a4,a4,a3
    6534:	40670733          	sub	a4,a4,t1
    6538:	03e75333          	divu	t1,a4,t5
    653c:	05c2                	slli	a1,a1,0x10
    653e:	81c1                	srli	a1,a1,0x10
    6540:	03e77733          	remu	a4,a4,t5
    6544:	026e08b3          	mul	a7,t3,t1
    6548:	0742                	slli	a4,a4,0x10
    654a:	8dd9                	or	a1,a1,a4
    654c:	0115fb63          	bgeu	a1,a7,6562 <__divdi3+0x32c>
    6550:	95b6                	add	a1,a1,a3
    6552:	fff30713          	addi	a4,t1,-1
    6556:	08d5ee63          	bltu	a1,a3,65f2 <__divdi3+0x3bc>
    655a:	0915fc63          	bgeu	a1,a7,65f2 <__divdi3+0x3bc>
    655e:	1379                	addi	t1,t1,-2
    6560:	95b6                	add	a1,a1,a3
    6562:	0ec2                	slli	t4,t4,0x10
    6564:	6f41                	lui	t5,0x10
    6566:	006eeeb3          	or	t4,t4,t1
    656a:	ffff0713          	addi	a4,t5,-1 # ffff <_data_lma+0x516b>
    656e:	00eef6b3          	and	a3,t4,a4
    6572:	010ed313          	srli	t1,t4,0x10
    6576:	8f71                	and	a4,a4,a2
    6578:	8241                	srli	a2,a2,0x10
    657a:	02e68e33          	mul	t3,a3,a4
    657e:	411585b3          	sub	a1,a1,a7
    6582:	02c686b3          	mul	a3,a3,a2
    6586:	010e5893          	srli	a7,t3,0x10
    658a:	02e30733          	mul	a4,t1,a4
    658e:	96ba                	add	a3,a3,a4
    6590:	96c6                	add	a3,a3,a7
    6592:	02c30633          	mul	a2,t1,a2
    6596:	00e6f363          	bgeu	a3,a4,659c <__divdi3+0x366>
    659a:	967a                	add	a2,a2,t5
    659c:	0106d313          	srli	t1,a3,0x10
    65a0:	961a                	add	a2,a2,t1
    65a2:	02c5e263          	bltu	a1,a2,65c6 <__divdi3+0x390>
    65a6:	00c58563          	beq	a1,a2,65b0 <__divdi3+0x37a>
    65aa:	8576                	mv	a0,t4
    65ac:	4581                	li	a1,0
    65ae:	b38d                	j	6310 <__divdi3+0xda>
    65b0:	6741                	lui	a4,0x10
    65b2:	177d                	addi	a4,a4,-1
    65b4:	8ef9                	and	a3,a3,a4
    65b6:	06c2                	slli	a3,a3,0x10
    65b8:	00ee7e33          	and	t3,t3,a4
    65bc:	00f517b3          	sll	a5,a0,a5
    65c0:	96f2                	add	a3,a3,t3
    65c2:	fed7f4e3          	bgeu	a5,a3,65aa <__divdi3+0x374>
    65c6:	fffe8513          	addi	a0,t4,-1
    65ca:	4581                	li	a1,0
    65cc:	b391                	j	6310 <__divdi3+0xda>
    65ce:	0106d893          	srli	a7,a3,0x10
    65d2:	4741                	li	a4,16
    65d4:	b505                	j	63f4 <__divdi3+0x1be>
    65d6:	01065693          	srli	a3,a2,0x10
    65da:	47c1                	li	a5,16
    65dc:	b969                	j	6276 <__divdi3+0x40>
    65de:	01035693          	srli	a3,t1,0x10
    65e2:	47c1                	li	a5,16
    65e4:	b3bd                	j	6352 <__divdi3+0x11c>
    65e6:	4581                	li	a1,0
    65e8:	4505                	li	a0,1
    65ea:	b31d                	j	6310 <__divdi3+0xda>
    65ec:	88b6                	mv	a7,a3
    65ee:	4701                	li	a4,0
    65f0:	b511                	j	63f4 <__divdi3+0x1be>
    65f2:	833a                	mv	t1,a4
    65f4:	b7bd                	j	6562 <__divdi3+0x32c>
    65f6:	863e                	mv	a2,a5
    65f8:	bdf1                	j	64d4 <__divdi3+0x29e>
    65fa:	8ec6                	mv	t4,a7
    65fc:	bf25                	j	6534 <__divdi3+0x2fe>
    65fe:	8e32                	mv	t3,a2
    6600:	b555                	j	64a4 <__divdi3+0x26e>
    6602:	17f9                	addi	a5,a5,-2
    6604:	989a                	add	a7,a7,t1
    6606:	b9c1                	j	62d6 <__divdi3+0xa0>
    6608:	17f9                	addi	a5,a5,-2
    660a:	971a                	add	a4,a4,t1
    660c:	bb61                	j	63a4 <__divdi3+0x16e>

0000660e <__adddf3>:
    660e:	00100837          	lui	a6,0x100
    6612:	1101                	addi	sp,sp,-32
    6614:	187d                	addi	a6,a6,-1
    6616:	00b87733          	and	a4,a6,a1
    661a:	ca26                	sw	s1,20(sp)
    661c:	00d87833          	and	a6,a6,a3
    6620:	0145d493          	srli	s1,a1,0x14
    6624:	0146d313          	srli	t1,a3,0x14
    6628:	00371e13          	slli	t3,a4,0x3
    662c:	c64e                	sw	s3,12(sp)
    662e:	01d55713          	srli	a4,a0,0x1d
    6632:	080e                	slli	a6,a6,0x3
    6634:	01d65793          	srli	a5,a2,0x1d
    6638:	7ff4f493          	andi	s1,s1,2047
    663c:	7ff37313          	andi	t1,t1,2047
    6640:	ce06                	sw	ra,28(sp)
    6642:	cc22                	sw	s0,24(sp)
    6644:	c84a                	sw	s2,16(sp)
    6646:	01f5d993          	srli	s3,a1,0x1f
    664a:	01f6de93          	srli	t4,a3,0x1f
    664e:	01c76733          	or	a4,a4,t3
    6652:	00351f13          	slli	t5,a0,0x3
    6656:	0107e833          	or	a6,a5,a6
    665a:	00361f93          	slli	t6,a2,0x3
    665e:	40648e33          	sub	t3,s1,t1
    6662:	19d98063          	beq	s3,t4,67e2 <__adddf3+0x1d4>
    6666:	13c05663          	blez	t3,6792 <__adddf3+0x184>
    666a:	1c030463          	beqz	t1,6832 <__adddf3+0x224>
    666e:	008006b7          	lui	a3,0x800
    6672:	7ff00793          	li	a5,2047
    6676:	00d86833          	or	a6,a6,a3
    667a:	36f48f63          	beq	s1,a5,69f8 <__adddf3+0x3ea>
    667e:	03800793          	li	a5,56
    6682:	35c7c063          	blt	a5,t3,69c2 <__adddf3+0x3b4>
    6686:	47fd                	li	a5,31
    6688:	47c7cd63          	blt	a5,t3,6b02 <__adddf3+0x4f4>
    668c:	02000513          	li	a0,32
    6690:	41c50533          	sub	a0,a0,t3
    6694:	01cfd7b3          	srl	a5,t6,t3
    6698:	00a816b3          	sll	a3,a6,a0
    669c:	00af9933          	sll	s2,t6,a0
    66a0:	8edd                	or	a3,a3,a5
    66a2:	01203933          	snez	s2,s2
    66a6:	01c857b3          	srl	a5,a6,t3
    66aa:	0126e933          	or	s2,a3,s2
    66ae:	8f1d                	sub	a4,a4,a5
    66b0:	412f0933          	sub	s2,t5,s2
    66b4:	012f37b3          	sltu	a5,t5,s2
    66b8:	40f70633          	sub	a2,a4,a5
    66bc:	00861793          	slli	a5,a2,0x8
    66c0:	2407d463          	bgez	a5,6908 <__adddf3+0x2fa>
    66c4:	00800737          	lui	a4,0x800
    66c8:	177d                	addi	a4,a4,-1
    66ca:	00e67433          	and	s0,a2,a4
    66ce:	2c040c63          	beqz	s0,69a6 <__adddf3+0x398>
    66d2:	8522                	mv	a0,s0
    66d4:	34f020ef          	jal	ra,9222 <__clzsi2>
    66d8:	ff850713          	addi	a4,a0,-8
    66dc:	02000793          	li	a5,32
    66e0:	8f99                	sub	a5,a5,a4
    66e2:	00f957b3          	srl	a5,s2,a5
    66e6:	00e41633          	sll	a2,s0,a4
    66ea:	8fd1                	or	a5,a5,a2
    66ec:	00e91933          	sll	s2,s2,a4
    66f0:	2a974163          	blt	a4,s1,6992 <__adddf3+0x384>
    66f4:	40970533          	sub	a0,a4,s1
    66f8:	00150613          	addi	a2,a0,1
    66fc:	477d                	li	a4,31
    66fe:	38c74d63          	blt	a4,a2,6a98 <__adddf3+0x48a>
    6702:	02000713          	li	a4,32
    6706:	8f11                	sub	a4,a4,a2
    6708:	00c956b3          	srl	a3,s2,a2
    670c:	00e91933          	sll	s2,s2,a4
    6710:	00e79733          	sll	a4,a5,a4
    6714:	8f55                	or	a4,a4,a3
    6716:	01203933          	snez	s2,s2
    671a:	01276933          	or	s2,a4,s2
    671e:	00c7d633          	srl	a2,a5,a2
    6722:	4481                	li	s1,0
    6724:	00797793          	andi	a5,s2,7
    6728:	cf81                	beqz	a5,6740 <__adddf3+0x132>
    672a:	00f97713          	andi	a4,s2,15
    672e:	4791                	li	a5,4
    6730:	00f70863          	beq	a4,a5,6740 <__adddf3+0x132>
    6734:	00490713          	addi	a4,s2,4 # bff00004 <__freertos_irq_stack_top+0x9fefb004>
    6738:	01273933          	sltu	s2,a4,s2
    673c:	964a                	add	a2,a2,s2
    673e:	893a                	mv	s2,a4
    6740:	00861793          	slli	a5,a2,0x8
    6744:	1c07d663          	bgez	a5,6910 <__adddf3+0x302>
    6748:	00148513          	addi	a0,s1,1
    674c:	7ff00793          	li	a5,2047
    6750:	85ce                	mv	a1,s3
    6752:	20f50463          	beq	a0,a5,695a <__adddf3+0x34c>
    6756:	ff8007b7          	lui	a5,0xff800
    675a:	17fd                	addi	a5,a5,-1
    675c:	8ff1                	and	a5,a5,a2
    675e:	01d79893          	slli	a7,a5,0x1d
    6762:	00395913          	srli	s2,s2,0x3
    6766:	07a6                	slli	a5,a5,0x9
    6768:	0128e8b3          	or	a7,a7,s2
    676c:	83b1                	srli	a5,a5,0xc
    676e:	7ff57513          	andi	a0,a0,2047
    6772:	00c79693          	slli	a3,a5,0xc
    6776:	0552                	slli	a0,a0,0x14
    6778:	40f2                	lw	ra,28(sp)
    677a:	4462                	lw	s0,24(sp)
    677c:	82b1                	srli	a3,a3,0xc
    677e:	05fe                	slli	a1,a1,0x1f
    6780:	8ec9                	or	a3,a3,a0
    6782:	8ecd                	or	a3,a3,a1
    6784:	44d2                	lw	s1,20(sp)
    6786:	4942                	lw	s2,16(sp)
    6788:	49b2                	lw	s3,12(sp)
    678a:	8546                	mv	a0,a7
    678c:	85b6                	mv	a1,a3
    678e:	6105                	addi	sp,sp,32
    6790:	8082                	ret
    6792:	0a0e1e63          	bnez	t3,684e <__adddf3+0x240>
    6796:	00148313          	addi	t1,s1,1
    679a:	7fe37313          	andi	t1,t1,2046
    679e:	22031763          	bnez	t1,69cc <__adddf3+0x3be>
    67a2:	01e767b3          	or	a5,a4,t5
    67a6:	01f868b3          	or	a7,a6,t6
    67aa:	1a049d63          	bnez	s1,6964 <__adddf3+0x356>
    67ae:	40078763          	beqz	a5,6bbc <__adddf3+0x5ae>
    67b2:	44088663          	beqz	a7,6bfe <__adddf3+0x5f0>
    67b6:	41ff0933          	sub	s2,t5,t6
    67ba:	410707b3          	sub	a5,a4,a6
    67be:	012f3633          	sltu	a2,t5,s2
    67c2:	40c78633          	sub	a2,a5,a2
    67c6:	00861793          	slli	a5,a2,0x8
    67ca:	4c07d663          	bgez	a5,6c96 <__adddf3+0x688>
    67ce:	41ef8933          	sub	s2,t6,t5
    67d2:	40e807b3          	sub	a5,a6,a4
    67d6:	012fb633          	sltu	a2,t6,s2
    67da:	40c78633          	sub	a2,a5,a2
    67de:	89f6                	mv	s3,t4
    67e0:	b791                	j	6724 <__adddf3+0x116>
    67e2:	0fc05063          	blez	t3,68c2 <__adddf3+0x2b4>
    67e6:	0c030063          	beqz	t1,68a6 <__adddf3+0x298>
    67ea:	008006b7          	lui	a3,0x800
    67ee:	7ff00793          	li	a5,2047
    67f2:	00d86833          	or	a6,a6,a3
    67f6:	3af48a63          	beq	s1,a5,6baa <__adddf3+0x59c>
    67fa:	03800793          	li	a5,56
    67fe:	13c7cb63          	blt	a5,t3,6934 <__adddf3+0x326>
    6802:	47fd                	li	a5,31
    6804:	35c7df63          	bge	a5,t3,6b62 <__adddf3+0x554>
    6808:	fe0e0913          	addi	s2,t3,-32
    680c:	02000793          	li	a5,32
    6810:	012856b3          	srl	a3,a6,s2
    6814:	00fe0a63          	beq	t3,a5,6828 <__adddf3+0x21a>
    6818:	04000913          	li	s2,64
    681c:	41c90933          	sub	s2,s2,t3
    6820:	01281933          	sll	s2,a6,s2
    6824:	012fefb3          	or	t6,t6,s2
    6828:	01f03933          	snez	s2,t6
    682c:	00d96933          	or	s2,s2,a3
    6830:	a231                	j	693c <__adddf3+0x32e>
    6832:	01f867b3          	or	a5,a6,t6
    6836:	1c078a63          	beqz	a5,6a0a <__adddf3+0x3fc>
    683a:	fffe0793          	addi	a5,t3,-1
    683e:	38078c63          	beqz	a5,6bd6 <__adddf3+0x5c8>
    6842:	7ff00693          	li	a3,2047
    6846:	1ade0963          	beq	t3,a3,69f8 <__adddf3+0x3ea>
    684a:	8e3e                	mv	t3,a5
    684c:	bd0d                	j	667e <__adddf3+0x70>
    684e:	409305b3          	sub	a1,t1,s1
    6852:	22049163          	bnez	s1,6a74 <__adddf3+0x466>
    6856:	01e767b3          	or	a5,a4,t5
    685a:	32078763          	beqz	a5,6b88 <__adddf3+0x57a>
    685e:	fff58793          	addi	a5,a1,-1
    6862:	44078163          	beqz	a5,6ca4 <__adddf3+0x696>
    6866:	7ff00693          	li	a3,2047
    686a:	20d58c63          	beq	a1,a3,6a82 <__adddf3+0x474>
    686e:	85be                	mv	a1,a5
    6870:	03800793          	li	a5,56
    6874:	2ab7cc63          	blt	a5,a1,6b2c <__adddf3+0x51e>
    6878:	47fd                	li	a5,31
    687a:	3cb7cf63          	blt	a5,a1,6c58 <__adddf3+0x64a>
    687e:	02000793          	li	a5,32
    6882:	8f8d                	sub	a5,a5,a1
    6884:	00f71933          	sll	s2,a4,a5
    6888:	00bf56b3          	srl	a3,t5,a1
    688c:	00ff17b3          	sll	a5,t5,a5
    6890:	00d96933          	or	s2,s2,a3
    6894:	00f037b3          	snez	a5,a5
    6898:	00b75733          	srl	a4,a4,a1
    689c:	00f96933          	or	s2,s2,a5
    68a0:	40e80833          	sub	a6,a6,a4
    68a4:	ac41                	j	6b34 <__adddf3+0x526>
    68a6:	01f867b3          	or	a5,a6,t6
    68aa:	34078063          	beqz	a5,6bea <__adddf3+0x5dc>
    68ae:	fffe0793          	addi	a5,t3,-1
    68b2:	20078a63          	beqz	a5,6ac6 <__adddf3+0x4b8>
    68b6:	7ff00693          	li	a3,2047
    68ba:	2ede0863          	beq	t3,a3,6baa <__adddf3+0x59c>
    68be:	8e3e                	mv	t3,a5
    68c0:	bf2d                	j	67fa <__adddf3+0x1ec>
    68c2:	140e1e63          	bnez	t3,6a1e <__adddf3+0x410>
    68c6:	00148693          	addi	a3,s1,1
    68ca:	7fe6f793          	andi	a5,a3,2046
    68ce:	34079163          	bnez	a5,6c10 <__adddf3+0x602>
    68d2:	01e767b3          	or	a5,a4,t5
    68d6:	2c049563          	bnez	s1,6ba0 <__adddf3+0x592>
    68da:	3e078063          	beqz	a5,6cba <__adddf3+0x6ac>
    68de:	01f867b3          	or	a5,a6,t6
    68e2:	30078e63          	beqz	a5,6bfe <__adddf3+0x5f0>
    68e6:	01ff0933          	add	s2,t5,t6
    68ea:	010707b3          	add	a5,a4,a6
    68ee:	01e93f33          	sltu	t5,s2,t5
    68f2:	01e78633          	add	a2,a5,t5
    68f6:	00861793          	slli	a5,a2,0x8
    68fa:	0007d763          	bgez	a5,6908 <__adddf3+0x2fa>
    68fe:	ff8007b7          	lui	a5,0xff800
    6902:	17fd                	addi	a5,a5,-1
    6904:	8e7d                	and	a2,a2,a5
    6906:	4485                	li	s1,1
    6908:	00797793          	andi	a5,s2,7
    690c:	e0079fe3          	bnez	a5,672a <__adddf3+0x11c>
    6910:	01d61793          	slli	a5,a2,0x1d
    6914:	00395893          	srli	a7,s2,0x3
    6918:	00f8e8b3          	or	a7,a7,a5
    691c:	00365793          	srli	a5,a2,0x3
    6920:	7ff00713          	li	a4,2047
    6924:	04e48d63          	beq	s1,a4,697e <__adddf3+0x370>
    6928:	07b2                	slli	a5,a5,0xc
    692a:	83b1                	srli	a5,a5,0xc
    692c:	7ff4f513          	andi	a0,s1,2047
    6930:	85ce                	mv	a1,s3
    6932:	b581                	j	6772 <__adddf3+0x164>
    6934:	01f86933          	or	s2,a6,t6
    6938:	01203933          	snez	s2,s2
    693c:	997a                	add	s2,s2,t5
    693e:	01e937b3          	sltu	a5,s2,t5
    6942:	00e78633          	add	a2,a5,a4
    6946:	00861793          	slli	a5,a2,0x8
    694a:	fa07dfe3          	bgez	a5,6908 <__adddf3+0x2fa>
    694e:	0485                	addi	s1,s1,1
    6950:	7ff00793          	li	a5,2047
    6954:	18f49663          	bne	s1,a5,6ae0 <__adddf3+0x4d2>
    6958:	85ce                	mv	a1,s3
    695a:	7ff00513          	li	a0,2047
    695e:	4781                	li	a5,0
    6960:	4881                	li	a7,0
    6962:	bd01                	j	6772 <__adddf3+0x164>
    6964:	ebc1                	bnez	a5,69f4 <__adddf3+0x3e6>
    6966:	3a088463          	beqz	a7,6d0e <__adddf3+0x700>
    696a:	00361693          	slli	a3,a2,0x3
    696e:	01d81793          	slli	a5,a6,0x1d
    6972:	828d                	srli	a3,a3,0x3
    6974:	00d7e8b3          	or	a7,a5,a3
    6978:	89f6                	mv	s3,t4
    697a:	00385793          	srli	a5,a6,0x3
    697e:	00f8e7b3          	or	a5,a7,a5
    6982:	dbf9                	beqz	a5,6958 <__adddf3+0x34a>
    6984:	4581                	li	a1,0
    6986:	7ff00513          	li	a0,2047
    698a:	000807b7          	lui	a5,0x80
    698e:	4881                	li	a7,0
    6990:	b3cd                	j	6772 <__adddf3+0x164>
    6992:	ff800637          	lui	a2,0xff800
    6996:	167d                	addi	a2,a2,-1
    6998:	8e7d                	and	a2,a2,a5
    699a:	00797793          	andi	a5,s2,7
    699e:	8c99                	sub	s1,s1,a4
    69a0:	d80795e3          	bnez	a5,672a <__adddf3+0x11c>
    69a4:	b7b5                	j	6910 <__adddf3+0x302>
    69a6:	854a                	mv	a0,s2
    69a8:	07b020ef          	jal	ra,9222 <__clzsi2>
    69ac:	01850713          	addi	a4,a0,24
    69b0:	47fd                	li	a5,31
    69b2:	d2e7d5e3          	bge	a5,a4,66dc <__adddf3+0xce>
    69b6:	ff850613          	addi	a2,a0,-8
    69ba:	00c917b3          	sll	a5,s2,a2
    69be:	4901                	li	s2,0
    69c0:	bb05                	j	66f0 <__adddf3+0xe2>
    69c2:	01f86933          	or	s2,a6,t6
    69c6:	01203933          	snez	s2,s2
    69ca:	b1dd                	j	66b0 <__adddf3+0xa2>
    69cc:	41ff0933          	sub	s2,t5,t6
    69d0:	41070633          	sub	a2,a4,a6
    69d4:	012f3433          	sltu	s0,t5,s2
    69d8:	40860433          	sub	s0,a2,s0
    69dc:	00841793          	slli	a5,s0,0x8
    69e0:	2407cd63          	bltz	a5,6c3a <__adddf3+0x62c>
    69e4:	008968b3          	or	a7,s2,s0
    69e8:	ce0893e3          	bnez	a7,66ce <__adddf3+0xc0>
    69ec:	4781                	li	a5,0
    69ee:	4981                	li	s3,0
    69f0:	4481                	li	s1,0
    69f2:	bf1d                	j	6928 <__adddf3+0x31a>
    69f4:	f80898e3          	bnez	a7,6984 <__adddf3+0x376>
    69f8:	050e                	slli	a0,a0,0x3
    69fa:	01d71793          	slli	a5,a4,0x1d
    69fe:	810d                	srli	a0,a0,0x3
    6a00:	00a7e8b3          	or	a7,a5,a0
    6a04:	00375793          	srli	a5,a4,0x3
    6a08:	bf9d                	j	697e <__adddf3+0x370>
    6a0a:	050e                	slli	a0,a0,0x3
    6a0c:	01d71793          	slli	a5,a4,0x1d
    6a10:	810d                	srli	a0,a0,0x3
    6a12:	00a7e8b3          	or	a7,a5,a0
    6a16:	84f2                	mv	s1,t3
    6a18:	00375793          	srli	a5,a4,0x3
    6a1c:	b711                	j	6920 <__adddf3+0x312>
    6a1e:	40930533          	sub	a0,t1,s1
    6a22:	12048263          	beqz	s1,6b46 <__adddf3+0x538>
    6a26:	008006b7          	lui	a3,0x800
    6a2a:	7ff00793          	li	a5,2047
    6a2e:	8f55                	or	a4,a4,a3
    6a30:	2ef30d63          	beq	t1,a5,6d2a <__adddf3+0x71c>
    6a34:	03800793          	li	a5,56
    6a38:	20a7cb63          	blt	a5,a0,6c4e <__adddf3+0x640>
    6a3c:	47fd                	li	a5,31
    6a3e:	2aa7c363          	blt	a5,a0,6ce4 <__adddf3+0x6d6>
    6a42:	02000793          	li	a5,32
    6a46:	8f89                	sub	a5,a5,a0
    6a48:	00f71933          	sll	s2,a4,a5
    6a4c:	00af56b3          	srl	a3,t5,a0
    6a50:	00ff17b3          	sll	a5,t5,a5
    6a54:	00d96933          	or	s2,s2,a3
    6a58:	00f037b3          	snez	a5,a5
    6a5c:	00a75733          	srl	a4,a4,a0
    6a60:	00f96933          	or	s2,s2,a5
    6a64:	983a                	add	a6,a6,a4
    6a66:	997e                	add	s2,s2,t6
    6a68:	01f937b3          	sltu	a5,s2,t6
    6a6c:	01078633          	add	a2,a5,a6
    6a70:	849a                	mv	s1,t1
    6a72:	bdd1                	j	6946 <__adddf3+0x338>
    6a74:	008006b7          	lui	a3,0x800
    6a78:	7ff00793          	li	a5,2047
    6a7c:	8f55                	or	a4,a4,a3
    6a7e:	def319e3          	bne	t1,a5,6870 <__adddf3+0x262>
    6a82:	00361793          	slli	a5,a2,0x3
    6a86:	838d                	srli	a5,a5,0x3
    6a88:	01d81893          	slli	a7,a6,0x1d
    6a8c:	0117e8b3          	or	a7,a5,a7
    6a90:	89f6                	mv	s3,t4
    6a92:	00385793          	srli	a5,a6,0x3
    6a96:	b5e5                	j	697e <__adddf3+0x370>
    6a98:	fe150713          	addi	a4,a0,-31
    6a9c:	02000693          	li	a3,32
    6aa0:	00e7d733          	srl	a4,a5,a4
    6aa4:	00d60a63          	beq	a2,a3,6ab8 <__adddf3+0x4aa>
    6aa8:	04000693          	li	a3,64
    6aac:	40c68633          	sub	a2,a3,a2
    6ab0:	00c79633          	sll	a2,a5,a2
    6ab4:	00c96933          	or	s2,s2,a2
    6ab8:	01203933          	snez	s2,s2
    6abc:	00e96933          	or	s2,s2,a4
    6ac0:	4601                	li	a2,0
    6ac2:	4481                	li	s1,0
    6ac4:	b591                	j	6908 <__adddf3+0x2fa>
    6ac6:	01ff0933          	add	s2,t5,t6
    6aca:	010707b3          	add	a5,a4,a6
    6ace:	01e93633          	sltu	a2,s2,t5
    6ad2:	963e                	add	a2,a2,a5
    6ad4:	00861793          	slli	a5,a2,0x8
    6ad8:	4485                	li	s1,1
    6ada:	e207d7e3          	bgez	a5,6908 <__adddf3+0x2fa>
    6ade:	4489                	li	s1,2
    6ae0:	ff8007b7          	lui	a5,0xff800
    6ae4:	17fd                	addi	a5,a5,-1
    6ae6:	8ff1                	and	a5,a5,a2
    6ae8:	00195713          	srli	a4,s2,0x1
    6aec:	00197913          	andi	s2,s2,1
    6af0:	01276933          	or	s2,a4,s2
    6af4:	01f79893          	slli	a7,a5,0x1f
    6af8:	0128e933          	or	s2,a7,s2
    6afc:	0017d613          	srli	a2,a5,0x1
    6b00:	b115                	j	6724 <__adddf3+0x116>
    6b02:	fe0e0913          	addi	s2,t3,-32
    6b06:	02000793          	li	a5,32
    6b0a:	012856b3          	srl	a3,a6,s2
    6b0e:	00fe0a63          	beq	t3,a5,6b22 <__adddf3+0x514>
    6b12:	04000913          	li	s2,64
    6b16:	41c90933          	sub	s2,s2,t3
    6b1a:	01281933          	sll	s2,a6,s2
    6b1e:	012fefb3          	or	t6,t6,s2
    6b22:	01f03933          	snez	s2,t6
    6b26:	00d96933          	or	s2,s2,a3
    6b2a:	b659                	j	66b0 <__adddf3+0xa2>
    6b2c:	01e76933          	or	s2,a4,t5
    6b30:	01203933          	snez	s2,s2
    6b34:	412f8933          	sub	s2,t6,s2
    6b38:	012fb7b3          	sltu	a5,t6,s2
    6b3c:	40f80633          	sub	a2,a6,a5
    6b40:	849a                	mv	s1,t1
    6b42:	89f6                	mv	s3,t4
    6b44:	bea5                	j	66bc <__adddf3+0xae>
    6b46:	01e767b3          	or	a5,a4,t5
    6b4a:	18078263          	beqz	a5,6cce <__adddf3+0x6c0>
    6b4e:	fff50793          	addi	a5,a0,-1
    6b52:	1c078463          	beqz	a5,6d1a <__adddf3+0x70c>
    6b56:	7ff00693          	li	a3,2047
    6b5a:	12d50463          	beq	a0,a3,6c82 <__adddf3+0x674>
    6b5e:	853e                	mv	a0,a5
    6b60:	bdd1                	j	6a34 <__adddf3+0x426>
    6b62:	02000793          	li	a5,32
    6b66:	41c787b3          	sub	a5,a5,t3
    6b6a:	00f816b3          	sll	a3,a6,a5
    6b6e:	00ff9933          	sll	s2,t6,a5
    6b72:	01cfd633          	srl	a2,t6,t3
    6b76:	8ed1                	or	a3,a3,a2
    6b78:	01203933          	snez	s2,s2
    6b7c:	01c857b3          	srl	a5,a6,t3
    6b80:	0126e933          	or	s2,a3,s2
    6b84:	973e                	add	a4,a4,a5
    6b86:	bb5d                	j	693c <__adddf3+0x32e>
    6b88:	00361793          	slli	a5,a2,0x3
    6b8c:	838d                	srli	a5,a5,0x3
    6b8e:	01d81893          	slli	a7,a6,0x1d
    6b92:	0117e8b3          	or	a7,a5,a7
    6b96:	84ae                	mv	s1,a1
    6b98:	00385793          	srli	a5,a6,0x3
    6b9c:	89f6                	mv	s3,t4
    6b9e:	b349                	j	6920 <__adddf3+0x312>
    6ba0:	c3ed                	beqz	a5,6c82 <__adddf3+0x674>
    6ba2:	01f86933          	or	s2,a6,t6
    6ba6:	dc091fe3          	bnez	s2,6984 <__adddf3+0x376>
    6baa:	050e                	slli	a0,a0,0x3
    6bac:	01d71793          	slli	a5,a4,0x1d
    6bb0:	810d                	srli	a0,a0,0x3
    6bb2:	00f568b3          	or	a7,a0,a5
    6bb6:	00375793          	srli	a5,a4,0x3
    6bba:	b3d1                	j	697e <__adddf3+0x370>
    6bbc:	0e088163          	beqz	a7,6c9e <__adddf3+0x690>
    6bc0:	00361693          	slli	a3,a2,0x3
    6bc4:	01d81793          	slli	a5,a6,0x1d
    6bc8:	828d                	srli	a3,a3,0x3
    6bca:	00d7e8b3          	or	a7,a5,a3
    6bce:	89f6                	mv	s3,t4
    6bd0:	00385793          	srli	a5,a6,0x3
    6bd4:	bb91                	j	6928 <__adddf3+0x31a>
    6bd6:	41ff0933          	sub	s2,t5,t6
    6bda:	410707b3          	sub	a5,a4,a6
    6bde:	012f3f33          	sltu	t5,t5,s2
    6be2:	41e78633          	sub	a2,a5,t5
    6be6:	4485                	li	s1,1
    6be8:	bcd1                	j	66bc <__adddf3+0xae>
    6bea:	050e                	slli	a0,a0,0x3
    6bec:	01d71793          	slli	a5,a4,0x1d
    6bf0:	810d                	srli	a0,a0,0x3
    6bf2:	00f568b3          	or	a7,a0,a5
    6bf6:	84f2                	mv	s1,t3
    6bf8:	00375793          	srli	a5,a4,0x3
    6bfc:	b315                	j	6920 <__adddf3+0x312>
    6bfe:	050e                	slli	a0,a0,0x3
    6c00:	01d71793          	slli	a5,a4,0x1d
    6c04:	810d                	srli	a0,a0,0x3
    6c06:	00a7e8b3          	or	a7,a5,a0
    6c0a:	00375793          	srli	a5,a4,0x3
    6c0e:	bb29                	j	6928 <__adddf3+0x31a>
    6c10:	7ff00793          	li	a5,2047
    6c14:	d4f682e3          	beq	a3,a5,6958 <__adddf3+0x34a>
    6c18:	01ff0933          	add	s2,t5,t6
    6c1c:	01e93633          	sltu	a2,s2,t5
    6c20:	010707b3          	add	a5,a4,a6
    6c24:	97b2                	add	a5,a5,a2
    6c26:	01f79893          	slli	a7,a5,0x1f
    6c2a:	00195913          	srli	s2,s2,0x1
    6c2e:	0128e933          	or	s2,a7,s2
    6c32:	0017d613          	srli	a2,a5,0x1
    6c36:	84b6                	mv	s1,a3
    6c38:	b9c1                	j	6908 <__adddf3+0x2fa>
    6c3a:	41ef8933          	sub	s2,t6,t5
    6c3e:	40e80733          	sub	a4,a6,a4
    6c42:	012fb633          	sltu	a2,t6,s2
    6c46:	40c70433          	sub	s0,a4,a2
    6c4a:	89f6                	mv	s3,t4
    6c4c:	b449                	j	66ce <__adddf3+0xc0>
    6c4e:	01e76933          	or	s2,a4,t5
    6c52:	01203933          	snez	s2,s2
    6c56:	bd01                	j	6a66 <__adddf3+0x458>
    6c58:	fe058793          	addi	a5,a1,-32
    6c5c:	02000693          	li	a3,32
    6c60:	00f757b3          	srl	a5,a4,a5
    6c64:	00d58a63          	beq	a1,a3,6c78 <__adddf3+0x66a>
    6c68:	04000693          	li	a3,64
    6c6c:	40b685b3          	sub	a1,a3,a1
    6c70:	00b71733          	sll	a4,a4,a1
    6c74:	00ef6f33          	or	t5,t5,a4
    6c78:	01e03933          	snez	s2,t5
    6c7c:	00f96933          	or	s2,s2,a5
    6c80:	bd55                	j	6b34 <__adddf3+0x526>
    6c82:	00361793          	slli	a5,a2,0x3
    6c86:	838d                	srli	a5,a5,0x3
    6c88:	01d81893          	slli	a7,a6,0x1d
    6c8c:	0117e8b3          	or	a7,a5,a7
    6c90:	00385793          	srli	a5,a6,0x3
    6c94:	b1ed                	j	697e <__adddf3+0x370>
    6c96:	00c968b3          	or	a7,s2,a2
    6c9a:	c60897e3          	bnez	a7,6908 <__adddf3+0x2fa>
    6c9e:	4781                	li	a5,0
    6ca0:	4981                	li	s3,0
    6ca2:	b159                	j	6928 <__adddf3+0x31a>
    6ca4:	41ef8933          	sub	s2,t6,t5
    6ca8:	40e807b3          	sub	a5,a6,a4
    6cac:	012fb633          	sltu	a2,t6,s2
    6cb0:	40c78633          	sub	a2,a5,a2
    6cb4:	89f6                	mv	s3,t4
    6cb6:	4485                	li	s1,1
    6cb8:	b411                	j	66bc <__adddf3+0xae>
    6cba:	00361693          	slli	a3,a2,0x3
    6cbe:	01d81793          	slli	a5,a6,0x1d
    6cc2:	828d                	srli	a3,a3,0x3
    6cc4:	00d7e8b3          	or	a7,a5,a3
    6cc8:	00385793          	srli	a5,a6,0x3
    6ccc:	b9b1                	j	6928 <__adddf3+0x31a>
    6cce:	00361693          	slli	a3,a2,0x3
    6cd2:	01d81793          	slli	a5,a6,0x1d
    6cd6:	828d                	srli	a3,a3,0x3
    6cd8:	00d7e8b3          	or	a7,a5,a3
    6cdc:	84aa                	mv	s1,a0
    6cde:	00385793          	srli	a5,a6,0x3
    6ce2:	b93d                	j	6920 <__adddf3+0x312>
    6ce4:	fe050793          	addi	a5,a0,-32
    6ce8:	02000693          	li	a3,32
    6cec:	00f757b3          	srl	a5,a4,a5
    6cf0:	00d50a63          	beq	a0,a3,6d04 <__adddf3+0x6f6>
    6cf4:	04000693          	li	a3,64
    6cf8:	40a68533          	sub	a0,a3,a0
    6cfc:	00a71733          	sll	a4,a4,a0
    6d00:	00ef6f33          	or	t5,t5,a4
    6d04:	01e03933          	snez	s2,t5
    6d08:	00f96933          	or	s2,s2,a5
    6d0c:	bba9                	j	6a66 <__adddf3+0x458>
    6d0e:	4581                	li	a1,0
    6d10:	7ff00513          	li	a0,2047
    6d14:	000807b7          	lui	a5,0x80
    6d18:	bca9                	j	6772 <__adddf3+0x164>
    6d1a:	01ff0933          	add	s2,t5,t6
    6d1e:	010707b3          	add	a5,a4,a6
    6d22:	01f93633          	sltu	a2,s2,t6
    6d26:	963e                	add	a2,a2,a5
    6d28:	b375                	j	6ad4 <__adddf3+0x4c6>
    6d2a:	00361693          	slli	a3,a2,0x3
    6d2e:	01d81793          	slli	a5,a6,0x1d
    6d32:	828d                	srli	a3,a3,0x3
    6d34:	00d7e8b3          	or	a7,a5,a3
    6d38:	00385793          	srli	a5,a6,0x3
    6d3c:	b189                	j	697e <__adddf3+0x370>

00006d3e <__divdf3>:
    6d3e:	7139                	addi	sp,sp,-64
    6d40:	0145d793          	srli	a5,a1,0x14
    6d44:	dc22                	sw	s0,56(sp)
    6d46:	d84a                	sw	s2,48(sp)
    6d48:	d256                	sw	s5,36(sp)
    6d4a:	892a                	mv	s2,a0
    6d4c:	00c59413          	slli	s0,a1,0xc
    6d50:	de06                	sw	ra,60(sp)
    6d52:	da26                	sw	s1,52(sp)
    6d54:	d64e                	sw	s3,44(sp)
    6d56:	d452                	sw	s4,40(sp)
    6d58:	d05a                	sw	s6,32(sp)
    6d5a:	ce5e                	sw	s7,28(sp)
    6d5c:	7ff7f513          	andi	a0,a5,2047
    6d60:	8031                	srli	s0,s0,0xc
    6d62:	01f5da93          	srli	s5,a1,0x1f
    6d66:	10050b63          	beqz	a0,6e7c <__divdf3+0x13e>
    6d6a:	7ff00793          	li	a5,2047
    6d6e:	14f50b63          	beq	a0,a5,6ec4 <__divdf3+0x186>
    6d72:	01d95a13          	srli	s4,s2,0x1d
    6d76:	040e                	slli	s0,s0,0x3
    6d78:	008a6433          	or	s0,s4,s0
    6d7c:	00800a37          	lui	s4,0x800
    6d80:	01446a33          	or	s4,s0,s4
    6d84:	00391b13          	slli	s6,s2,0x3
    6d88:	c0150493          	addi	s1,a0,-1023
    6d8c:	4401                	li	s0,0
    6d8e:	4b81                	li	s7,0
    6d90:	0146d813          	srli	a6,a3,0x14
    6d94:	00c69913          	slli	s2,a3,0xc
    6d98:	7ff87813          	andi	a6,a6,2047
    6d9c:	88b2                	mv	a7,a2
    6d9e:	00c95913          	srli	s2,s2,0xc
    6da2:	01f6d993          	srli	s3,a3,0x1f
    6da6:	08080e63          	beqz	a6,6e42 <__divdf3+0x104>
    6daa:	7ff00793          	li	a5,2047
    6dae:	04f80063          	beq	a6,a5,6dee <__divdf3+0xb0>
    6db2:	01d65713          	srli	a4,a2,0x1d
    6db6:	090e                	slli	s2,s2,0x3
    6db8:	01276933          	or	s2,a4,s2
    6dbc:	c0180813          	addi	a6,a6,-1023 # ffc01 <_data_lma+0xf4d6d>
    6dc0:	008007b7          	lui	a5,0x800
    6dc4:	00f96733          	or	a4,s2,a5
    6dc8:	00361893          	slli	a7,a2,0x3
    6dcc:	410484b3          	sub	s1,s1,a6
    6dd0:	4581                	li	a1,0
    6dd2:	47bd                	li	a5,15
    6dd4:	013ac833          	xor	a6,s5,s3
    6dd8:	1a87e463          	bltu	a5,s0,6f80 <__divdf3+0x242>
    6ddc:	00004797          	auipc	a5,0x4
    6de0:	ddc78793          	addi	a5,a5,-548 # abb8 <init_jk+0x58>
    6de4:	040a                	slli	s0,s0,0x2
    6de6:	943e                	add	s0,s0,a5
    6de8:	4010                	lw	a2,0(s0)
    6dea:	963e                	add	a2,a2,a5
    6dec:	8602                	jr	a2
    6dee:	00c96733          	or	a4,s2,a2
    6df2:	80148493          	addi	s1,s1,-2047
    6df6:	10071263          	bnez	a4,6efa <__divdf3+0x1bc>
    6dfa:	00246413          	ori	s0,s0,2
    6dfe:	4881                	li	a7,0
    6e00:	4589                	li	a1,2
    6e02:	bfc1                	j	6dd2 <__divdf3+0x94>
    6e04:	7ff00613          	li	a2,2047
    6e08:	4781                	li	a5,0
    6e0a:	4701                	li	a4,0
    6e0c:	07b2                	slli	a5,a5,0xc
    6e0e:	50f2                	lw	ra,60(sp)
    6e10:	5462                	lw	s0,56(sp)
    6e12:	0652                	slli	a2,a2,0x14
    6e14:	83b1                	srli	a5,a5,0xc
    6e16:	087e                	slli	a6,a6,0x1f
    6e18:	8fd1                	or	a5,a5,a2
    6e1a:	0107e7b3          	or	a5,a5,a6
    6e1e:	54d2                	lw	s1,52(sp)
    6e20:	5942                	lw	s2,48(sp)
    6e22:	59b2                	lw	s3,44(sp)
    6e24:	5a22                	lw	s4,40(sp)
    6e26:	5a92                	lw	s5,36(sp)
    6e28:	5b02                	lw	s6,32(sp)
    6e2a:	4bf2                	lw	s7,28(sp)
    6e2c:	853a                	mv	a0,a4
    6e2e:	85be                	mv	a1,a5
    6e30:	6121                	addi	sp,sp,64
    6e32:	8082                	ret
    6e34:	4801                	li	a6,0
    6e36:	7ff00613          	li	a2,2047
    6e3a:	000807b7          	lui	a5,0x80
    6e3e:	4701                	li	a4,0
    6e40:	b7f1                	j	6e0c <__divdf3+0xce>
    6e42:	00c96733          	or	a4,s2,a2
    6e46:	c74d                	beqz	a4,6ef0 <__divdf3+0x1b2>
    6e48:	30090863          	beqz	s2,7158 <__divdf3+0x41a>
    6e4c:	854a                	mv	a0,s2
    6e4e:	c432                	sw	a2,8(sp)
    6e50:	3d2020ef          	jal	ra,9222 <__clzsi2>
    6e54:	4622                	lw	a2,8(sp)
    6e56:	ff550713          	addi	a4,a0,-11
    6e5a:	47f5                	li	a5,29
    6e5c:	ff850693          	addi	a3,a0,-8
    6e60:	8f99                	sub	a5,a5,a4
    6e62:	00d91933          	sll	s2,s2,a3
    6e66:	00f657b3          	srl	a5,a2,a5
    6e6a:	0127e733          	or	a4,a5,s2
    6e6e:	00d618b3          	sll	a7,a2,a3
    6e72:	9526                	add	a0,a0,s1
    6e74:	3f350493          	addi	s1,a0,1011
    6e78:	4581                	li	a1,0
    6e7a:	bfa1                	j	6dd2 <__divdf3+0x94>
    6e7c:	01246a33          	or	s4,s0,s2
    6e80:	060a0363          	beqz	s4,6ee6 <__divdf3+0x1a8>
    6e84:	c636                	sw	a3,12(sp)
    6e86:	c432                	sw	a2,8(sp)
    6e88:	2a040663          	beqz	s0,7134 <__divdf3+0x3f6>
    6e8c:	8522                	mv	a0,s0
    6e8e:	394020ef          	jal	ra,9222 <__clzsi2>
    6e92:	4622                	lw	a2,8(sp)
    6e94:	46b2                	lw	a3,12(sp)
    6e96:	84aa                	mv	s1,a0
    6e98:	ff550713          	addi	a4,a0,-11
    6e9c:	4a75                	li	s4,29
    6e9e:	ff848b13          	addi	s6,s1,-8
    6ea2:	40ea0a33          	sub	s4,s4,a4
    6ea6:	01641433          	sll	s0,s0,s6
    6eaa:	01495a33          	srl	s4,s2,s4
    6eae:	008a6a33          	or	s4,s4,s0
    6eb2:	01691b33          	sll	s6,s2,s6
    6eb6:	c0d00513          	li	a0,-1011
    6eba:	409504b3          	sub	s1,a0,s1
    6ebe:	4401                	li	s0,0
    6ec0:	4b81                	li	s7,0
    6ec2:	b5f9                	j	6d90 <__divdf3+0x52>
    6ec4:	01246a33          	or	s4,s0,s2
    6ec8:	000a1863          	bnez	s4,6ed8 <__divdf3+0x19a>
    6ecc:	4421                	li	s0,8
    6ece:	4b01                	li	s6,0
    6ed0:	7ff00493          	li	s1,2047
    6ed4:	4b89                	li	s7,2
    6ed6:	bd6d                	j	6d90 <__divdf3+0x52>
    6ed8:	8a22                	mv	s4,s0
    6eda:	8b4a                	mv	s6,s2
    6edc:	4431                	li	s0,12
    6ede:	7ff00493          	li	s1,2047
    6ee2:	4b8d                	li	s7,3
    6ee4:	b575                	j	6d90 <__divdf3+0x52>
    6ee6:	4411                	li	s0,4
    6ee8:	4b01                	li	s6,0
    6eea:	4481                	li	s1,0
    6eec:	4b85                	li	s7,1
    6eee:	b54d                	j	6d90 <__divdf3+0x52>
    6ef0:	00146413          	ori	s0,s0,1
    6ef4:	4881                	li	a7,0
    6ef6:	4585                	li	a1,1
    6ef8:	bde9                	j	6dd2 <__divdf3+0x94>
    6efa:	00346413          	ori	s0,s0,3
    6efe:	874a                	mv	a4,s2
    6f00:	458d                	li	a1,3
    6f02:	bdc1                	j	6dd2 <__divdf3+0x94>
    6f04:	2e050a63          	beqz	a0,71f8 <__divdf3+0x4ba>
    6f08:	4785                	li	a5,1
    6f0a:	8f89                	sub	a5,a5,a0
    6f0c:	03800693          	li	a3,56
    6f10:	32f6dd63          	bge	a3,a5,724a <__divdf3+0x50c>
    6f14:	4601                	li	a2,0
    6f16:	4781                	li	a5,0
    6f18:	4701                	li	a4,0
    6f1a:	bdcd                	j	6e0c <__divdf3+0xce>
    6f1c:	86ce                	mv	a3,s3
    6f1e:	4789                	li	a5,2
    6f20:	3af58d63          	beq	a1,a5,72da <__divdf3+0x59c>
    6f24:	478d                	li	a5,3
    6f26:	f0f587e3          	beq	a1,a5,6e34 <__divdf3+0xf6>
    6f2a:	4785                	li	a5,1
    6f2c:	8836                	mv	a6,a3
    6f2e:	fef583e3          	beq	a1,a5,6f14 <__divdf3+0x1d6>
    6f32:	3ff48513          	addi	a0,s1,1023
    6f36:	fca057e3          	blez	a0,6f04 <__divdf3+0x1c6>
    6f3a:	0078f793          	andi	a5,a7,7
    6f3e:	28079663          	bnez	a5,71ca <__divdf3+0x48c>
    6f42:	0038d693          	srli	a3,a7,0x3
    6f46:	00771793          	slli	a5,a4,0x7
    6f4a:	0007d863          	bgez	a5,6f5a <__divdf3+0x21c>
    6f4e:	ff0007b7          	lui	a5,0xff000
    6f52:	17fd                	addi	a5,a5,-1
    6f54:	8f7d                	and	a4,a4,a5
    6f56:	40048513          	addi	a0,s1,1024
    6f5a:	7fe00793          	li	a5,2046
    6f5e:	eaa7c3e3          	blt	a5,a0,6e04 <__divdf3+0xc6>
    6f62:	01d71613          	slli	a2,a4,0x1d
    6f66:	00971793          	slli	a5,a4,0x9
    6f6a:	83b1                	srli	a5,a5,0xc
    6f6c:	00d66733          	or	a4,a2,a3
    6f70:	7ff57613          	andi	a2,a0,2047
    6f74:	bd61                	j	6e0c <__divdf3+0xce>
    6f76:	86d6                	mv	a3,s5
    6f78:	8752                	mv	a4,s4
    6f7a:	88da                	mv	a7,s6
    6f7c:	85de                	mv	a1,s7
    6f7e:	b745                	j	6f1e <__divdf3+0x1e0>
    6f80:	23476163          	bltu	a4,s4,71a2 <__divdf3+0x464>
    6f84:	20ea0d63          	beq	s4,a4,719e <__divdf3+0x460>
    6f88:	86da                	mv	a3,s6
    6f8a:	14fd                	addi	s1,s1,-1
    6f8c:	8452                	mv	s0,s4
    6f8e:	4b01                	li	s6,0
    6f90:	00871793          	slli	a5,a4,0x8
    6f94:	0188d313          	srli	t1,a7,0x18
    6f98:	00f36333          	or	t1,t1,a5
    6f9c:	01035e93          	srli	t4,t1,0x10
    6fa0:	03d457b3          	divu	a5,s0,t4
    6fa4:	01031f13          	slli	t5,t1,0x10
    6fa8:	010f5f13          	srli	t5,t5,0x10
    6fac:	0106d593          	srli	a1,a3,0x10
    6fb0:	00889e13          	slli	t3,a7,0x8
    6fb4:	03d47433          	remu	s0,s0,t4
    6fb8:	02ff0733          	mul	a4,t5,a5
    6fbc:	0442                	slli	s0,s0,0x10
    6fbe:	8dc1                	or	a1,a1,s0
    6fc0:	00e5fb63          	bgeu	a1,a4,6fd6 <__divdf3+0x298>
    6fc4:	959a                	add	a1,a1,t1
    6fc6:	fff78613          	addi	a2,a5,-1 # feffffff <__freertos_irq_stack_top+0xdeffafff>
    6fca:	2665ee63          	bltu	a1,t1,7246 <__divdf3+0x508>
    6fce:	26e5fc63          	bgeu	a1,a4,7246 <__divdf3+0x508>
    6fd2:	17f9                	addi	a5,a5,-2
    6fd4:	959a                	add	a1,a1,t1
    6fd6:	8d99                	sub	a1,a1,a4
    6fd8:	03d5d733          	divu	a4,a1,t4
    6fdc:	06c2                	slli	a3,a3,0x10
    6fde:	82c1                	srli	a3,a3,0x10
    6fe0:	03d5f5b3          	remu	a1,a1,t4
    6fe4:	02ef0633          	mul	a2,t5,a4
    6fe8:	05c2                	slli	a1,a1,0x10
    6fea:	8dd5                	or	a1,a1,a3
    6fec:	00c5fb63          	bgeu	a1,a2,7002 <__divdf3+0x2c4>
    6ff0:	959a                	add	a1,a1,t1
    6ff2:	fff70693          	addi	a3,a4,-1 # 7fffff <_data_lma+0x7f516b>
    6ff6:	2465e663          	bltu	a1,t1,7242 <__divdf3+0x504>
    6ffa:	24c5f463          	bgeu	a1,a2,7242 <__divdf3+0x504>
    6ffe:	1779                	addi	a4,a4,-2
    7000:	959a                	add	a1,a1,t1
    7002:	07c2                	slli	a5,a5,0x10
    7004:	6441                	lui	s0,0x10
    7006:	8f5d                	or	a4,a4,a5
    7008:	fff40793          	addi	a5,s0,-1 # ffff <_data_lma+0x516b>
    700c:	00f77533          	and	a0,a4,a5
    7010:	01075893          	srli	a7,a4,0x10
    7014:	010e5f93          	srli	t6,t3,0x10
    7018:	00fe77b3          	and	a5,t3,a5
    701c:	02f502b3          	mul	t0,a0,a5
    7020:	40c586b3          	sub	a3,a1,a2
    7024:	02f883b3          	mul	t2,a7,a5
    7028:	0102d593          	srli	a1,t0,0x10
    702c:	02af8633          	mul	a2,t6,a0
    7030:	961e                	add	a2,a2,t2
    7032:	962e                	add	a2,a2,a1
    7034:	03f88533          	mul	a0,a7,t6
    7038:	00767363          	bgeu	a2,t2,703e <__divdf3+0x300>
    703c:	9522                	add	a0,a0,s0
    703e:	68c1                	lui	a7,0x10
    7040:	18fd                	addi	a7,a7,-1
    7042:	01065593          	srli	a1,a2,0x10
    7046:	01167633          	and	a2,a2,a7
    704a:	0642                	slli	a2,a2,0x10
    704c:	0112f8b3          	and	a7,t0,a7
    7050:	95aa                	add	a1,a1,a0
    7052:	9646                	add	a2,a2,a7
    7054:	12b6e663          	bltu	a3,a1,7180 <__divdf3+0x442>
    7058:	12b68263          	beq	a3,a1,717c <__divdf3+0x43e>
    705c:	40cb0633          	sub	a2,s6,a2
    7060:	8e8d                	sub	a3,a3,a1
    7062:	00cb3b33          	sltu	s6,s6,a2
    7066:	41668b33          	sub	s6,a3,s6
    706a:	3ff48513          	addi	a0,s1,1023
    706e:	17630c63          	beq	t1,s6,71e6 <__divdf3+0x4a8>
    7072:	03db58b3          	divu	a7,s6,t4
    7076:	01065593          	srli	a1,a2,0x10
    707a:	03db7b33          	remu	s6,s6,t4
    707e:	031f06b3          	mul	a3,t5,a7
    7082:	0b42                	slli	s6,s6,0x10
    7084:	0165eb33          	or	s6,a1,s6
    7088:	00db7b63          	bgeu	s6,a3,709e <__divdf3+0x360>
    708c:	9b1a                	add	s6,s6,t1
    708e:	fff88593          	addi	a1,a7,-1 # ffff <_data_lma+0x516b>
    7092:	206b6d63          	bltu	s6,t1,72ac <__divdf3+0x56e>
    7096:	20db7b63          	bgeu	s6,a3,72ac <__divdf3+0x56e>
    709a:	18f9                	addi	a7,a7,-2
    709c:	9b1a                	add	s6,s6,t1
    709e:	40db0b33          	sub	s6,s6,a3
    70a2:	03db56b3          	divu	a3,s6,t4
    70a6:	0642                	slli	a2,a2,0x10
    70a8:	8241                	srli	a2,a2,0x10
    70aa:	03db7b33          	remu	s6,s6,t4
    70ae:	02df0f33          	mul	t5,t5,a3
    70b2:	0b42                	slli	s6,s6,0x10
    70b4:	01666633          	or	a2,a2,s6
    70b8:	01e67b63          	bgeu	a2,t5,70ce <__divdf3+0x390>
    70bc:	961a                	add	a2,a2,t1
    70be:	fff68593          	addi	a1,a3,-1 # 7fffff <_data_lma+0x7f516b>
    70c2:	1e666763          	bltu	a2,t1,72b0 <__divdf3+0x572>
    70c6:	1fe67563          	bgeu	a2,t5,72b0 <__divdf3+0x572>
    70ca:	16f9                	addi	a3,a3,-2
    70cc:	961a                	add	a2,a2,t1
    70ce:	08c2                	slli	a7,a7,0x10
    70d0:	00d8e8b3          	or	a7,a7,a3
    70d4:	01089593          	slli	a1,a7,0x10
    70d8:	0108d293          	srli	t0,a7,0x10
    70dc:	81c1                	srli	a1,a1,0x10
    70de:	02f58eb3          	mul	t4,a1,a5
    70e2:	41e60633          	sub	a2,a2,t5
    70e6:	02bf85b3          	mul	a1,t6,a1
    70ea:	010ed693          	srli	a3,t4,0x10
    70ee:	02f287b3          	mul	a5,t0,a5
    70f2:	95be                	add	a1,a1,a5
    70f4:	96ae                	add	a3,a3,a1
    70f6:	025f8fb3          	mul	t6,t6,t0
    70fa:	00f6f463          	bgeu	a3,a5,7102 <__divdf3+0x3c4>
    70fe:	67c1                	lui	a5,0x10
    7100:	9fbe                	add	t6,t6,a5
    7102:	65c1                	lui	a1,0x10
    7104:	15fd                	addi	a1,a1,-1
    7106:	0106d793          	srli	a5,a3,0x10
    710a:	8eed                	and	a3,a3,a1
    710c:	06c2                	slli	a3,a3,0x10
    710e:	00befeb3          	and	t4,t4,a1
    7112:	9fbe                	add	t6,t6,a5
    7114:	96f6                	add	a3,a3,t4
    7116:	09f67f63          	bgeu	a2,t6,71b4 <__divdf3+0x476>
    711a:	961a                	add	a2,a2,t1
    711c:	fff88793          	addi	a5,a7,-1
    7120:	1a666963          	bltu	a2,t1,72d2 <__divdf3+0x594>
    7124:	19f66863          	bltu	a2,t6,72b4 <__divdf3+0x576>
    7128:	1bf60f63          	beq	a2,t6,72e6 <__divdf3+0x5a8>
    712c:	88be                	mv	a7,a5
    712e:	0018e893          	ori	a7,a7,1
    7132:	b511                	j	6f36 <__divdf3+0x1f8>
    7134:	854a                	mv	a0,s2
    7136:	0ec020ef          	jal	ra,9222 <__clzsi2>
    713a:	01550713          	addi	a4,a0,21
    713e:	45f1                	li	a1,28
    7140:	02050493          	addi	s1,a0,32
    7144:	4622                	lw	a2,8(sp)
    7146:	46b2                	lw	a3,12(sp)
    7148:	d4e5dae3          	bge	a1,a4,6e9c <__divdf3+0x15e>
    714c:	ff850413          	addi	s0,a0,-8
    7150:	00891a33          	sll	s4,s2,s0
    7154:	4b01                	li	s6,0
    7156:	b385                	j	6eb6 <__divdf3+0x178>
    7158:	8532                	mv	a0,a2
    715a:	c432                	sw	a2,8(sp)
    715c:	0c6020ef          	jal	ra,9222 <__clzsi2>
    7160:	01550713          	addi	a4,a0,21
    7164:	46f1                	li	a3,28
    7166:	87aa                	mv	a5,a0
    7168:	4622                	lw	a2,8(sp)
    716a:	02050513          	addi	a0,a0,32
    716e:	cee6d6e3          	bge	a3,a4,6e5a <__divdf3+0x11c>
    7172:	17e1                	addi	a5,a5,-8
    7174:	00f61733          	sll	a4,a2,a5
    7178:	4881                	li	a7,0
    717a:	b9e5                	j	6e72 <__divdf3+0x134>
    717c:	eecb70e3          	bgeu	s6,a2,705c <__divdf3+0x31e>
    7180:	9b72                	add	s6,s6,t3
    7182:	01cb3533          	sltu	a0,s6,t3
    7186:	951a                	add	a0,a0,t1
    7188:	96aa                	add	a3,a3,a0
    718a:	fff70513          	addi	a0,a4,-1
    718e:	02d37863          	bgeu	t1,a3,71be <__divdf3+0x480>
    7192:	10b6e663          	bltu	a3,a1,729e <__divdf3+0x560>
    7196:	10d58263          	beq	a1,a3,729a <__divdf3+0x55c>
    719a:	872a                	mv	a4,a0
    719c:	b5c1                	j	705c <__divdf3+0x31e>
    719e:	df1b65e3          	bltu	s6,a7,6f88 <__divdf3+0x24a>
    71a2:	001b5593          	srli	a1,s6,0x1
    71a6:	01fa1693          	slli	a3,s4,0x1f
    71aa:	001a5413          	srli	s0,s4,0x1
    71ae:	8ecd                	or	a3,a3,a1
    71b0:	0b7e                	slli	s6,s6,0x1f
    71b2:	bbf9                	j	6f90 <__divdf3+0x252>
    71b4:	f7f61de3          	bne	a2,t6,712e <__divdf3+0x3f0>
    71b8:	d6068fe3          	beqz	a3,6f36 <__divdf3+0x1f8>
    71bc:	bfb9                	j	711a <__divdf3+0x3dc>
    71be:	fcd31ee3          	bne	t1,a3,719a <__divdf3+0x45c>
    71c2:	fdcb78e3          	bgeu	s6,t3,7192 <__divdf3+0x454>
    71c6:	872a                	mv	a4,a0
    71c8:	bd51                	j	705c <__divdf3+0x31e>
    71ca:	00f8f793          	andi	a5,a7,15
    71ce:	4691                	li	a3,4
    71d0:	d6d789e3          	beq	a5,a3,6f42 <__divdf3+0x204>
    71d4:	ffc8b793          	sltiu	a5,a7,-4
    71d8:	00488693          	addi	a3,a7,4
    71dc:	0017c793          	xori	a5,a5,1
    71e0:	828d                	srli	a3,a3,0x3
    71e2:	973e                	add	a4,a4,a5
    71e4:	b38d                	j	6f46 <__divdf3+0x208>
    71e6:	4681                	li	a3,0
    71e8:	4785                	li	a5,1
    71ea:	fea04ce3          	bgtz	a0,71e2 <__divdf3+0x4a4>
    71ee:	58fd                	li	a7,-1
    71f0:	d0051ce3          	bnez	a0,6f08 <__divdf3+0x1ca>
    71f4:	c0100493          	li	s1,-1023
    71f8:	4785                	li	a5,1
    71fa:	41e48513          	addi	a0,s1,1054
    71fe:	00a716b3          	sll	a3,a4,a0
    7202:	00f8d633          	srl	a2,a7,a5
    7206:	00a89533          	sll	a0,a7,a0
    720a:	8ed1                	or	a3,a3,a2
    720c:	00a03533          	snez	a0,a0
    7210:	8ec9                	or	a3,a3,a0
    7212:	0076f613          	andi	a2,a3,7
    7216:	00f75733          	srl	a4,a4,a5
    721a:	ce01                	beqz	a2,7232 <__divdf3+0x4f4>
    721c:	00f6f793          	andi	a5,a3,15
    7220:	4611                	li	a2,4
    7222:	00c78863          	beq	a5,a2,7232 <__divdf3+0x4f4>
    7226:	00468793          	addi	a5,a3,4
    722a:	00d7b6b3          	sltu	a3,a5,a3
    722e:	9736                	add	a4,a4,a3
    7230:	86be                	mv	a3,a5
    7232:	00871793          	slli	a5,a4,0x8
    7236:	0407d863          	bgez	a5,7286 <__divdf3+0x548>
    723a:	4605                	li	a2,1
    723c:	4781                	li	a5,0
    723e:	4701                	li	a4,0
    7240:	b6f1                	j	6e0c <__divdf3+0xce>
    7242:	8736                	mv	a4,a3
    7244:	bb7d                	j	7002 <__divdf3+0x2c4>
    7246:	87b2                	mv	a5,a2
    7248:	b379                	j	6fd6 <__divdf3+0x298>
    724a:	46fd                	li	a3,31
    724c:	faf6d7e3          	bge	a3,a5,71fa <__divdf3+0x4bc>
    7250:	5605                	li	a2,-31
    7252:	8e09                	sub	a2,a2,a0
    7254:	02000693          	li	a3,32
    7258:	00c75633          	srl	a2,a4,a2
    725c:	00d78863          	beq	a5,a3,726c <__divdf3+0x52e>
    7260:	43e48793          	addi	a5,s1,1086
    7264:	00f717b3          	sll	a5,a4,a5
    7268:	00f8e8b3          	or	a7,a7,a5
    726c:	011036b3          	snez	a3,a7
    7270:	8ed1                	or	a3,a3,a2
    7272:	0076f613          	andi	a2,a3,7
    7276:	4781                	li	a5,0
    7278:	ce01                	beqz	a2,7290 <__divdf3+0x552>
    727a:	00f6f793          	andi	a5,a3,15
    727e:	4611                	li	a2,4
    7280:	4701                	li	a4,0
    7282:	fac792e3          	bne	a5,a2,7226 <__divdf3+0x4e8>
    7286:	00971793          	slli	a5,a4,0x9
    728a:	01d71613          	slli	a2,a4,0x1d
    728e:	83b1                	srli	a5,a5,0xc
    7290:	0036d713          	srli	a4,a3,0x3
    7294:	8f51                	or	a4,a4,a2
    7296:	4601                	li	a2,0
    7298:	be95                	j	6e0c <__divdf3+0xce>
    729a:	f0cb70e3          	bgeu	s6,a2,719a <__divdf3+0x45c>
    729e:	9b72                	add	s6,s6,t3
    72a0:	01cb3533          	sltu	a0,s6,t3
    72a4:	951a                	add	a0,a0,t1
    72a6:	1779                	addi	a4,a4,-2
    72a8:	96aa                	add	a3,a3,a0
    72aa:	bb4d                	j	705c <__divdf3+0x31e>
    72ac:	88ae                	mv	a7,a1
    72ae:	bbc5                	j	709e <__divdf3+0x360>
    72b0:	86ae                	mv	a3,a1
    72b2:	bd31                	j	70ce <__divdf3+0x390>
    72b4:	001e1793          	slli	a5,t3,0x1
    72b8:	01c7be33          	sltu	t3,a5,t3
    72bc:	9372                	add	t1,t1,t3
    72be:	961a                	add	a2,a2,t1
    72c0:	18f9                	addi	a7,a7,-2
    72c2:	8e3e                	mv	t3,a5
    72c4:	e7f615e3          	bne	a2,t6,712e <__divdf3+0x3f0>
    72c8:	c6de07e3          	beq	t3,a3,6f36 <__divdf3+0x1f8>
    72cc:	0018e893          	ori	a7,a7,1
    72d0:	b19d                	j	6f36 <__divdf3+0x1f8>
    72d2:	88be                	mv	a7,a5
    72d4:	fff60ae3          	beq	a2,t6,72c8 <__divdf3+0x58a>
    72d8:	bd99                	j	712e <__divdf3+0x3f0>
    72da:	8836                	mv	a6,a3
    72dc:	7ff00613          	li	a2,2047
    72e0:	4781                	li	a5,0
    72e2:	4701                	li	a4,0
    72e4:	b625                	j	6e0c <__divdf3+0xce>
    72e6:	fcde67e3          	bltu	t3,a3,72b4 <__divdf3+0x576>
    72ea:	88be                	mv	a7,a5
    72ec:	fede10e3          	bne	t3,a3,72cc <__divdf3+0x58e>
    72f0:	b199                	j	6f36 <__divdf3+0x1f8>

000072f2 <__eqdf2>:
    72f2:	0145d713          	srli	a4,a1,0x14
    72f6:	001007b7          	lui	a5,0x100
    72fa:	17fd                	addi	a5,a5,-1
    72fc:	0146d813          	srli	a6,a3,0x14
    7300:	7ff77713          	andi	a4,a4,2047
    7304:	7ff00893          	li	a7,2047
    7308:	00b7fe33          	and	t3,a5,a1
    730c:	8eaa                	mv	t4,a0
    730e:	8ff5                	and	a5,a5,a3
    7310:	81fd                	srli	a1,a1,0x1f
    7312:	8f32                	mv	t5,a2
    7314:	7ff87813          	andi	a6,a6,2047
    7318:	82fd                	srli	a3,a3,0x1f
    731a:	01170b63          	beq	a4,a7,7330 <__eqdf2+0x3e>
    731e:	4305                	li	t1,1
    7320:	01180663          	beq	a6,a7,732c <__eqdf2+0x3a>
    7324:	01071463          	bne	a4,a6,732c <__eqdf2+0x3a>
    7328:	00fe0d63          	beq	t3,a5,7342 <__eqdf2+0x50>
    732c:	851a                	mv	a0,t1
    732e:	8082                	ret
    7330:	00ae68b3          	or	a7,t3,a0
    7334:	4305                	li	t1,1
    7336:	fe089be3          	bnez	a7,732c <__eqdf2+0x3a>
    733a:	fee819e3          	bne	a6,a4,732c <__eqdf2+0x3a>
    733e:	8fd1                	or	a5,a5,a2
    7340:	f7f5                	bnez	a5,732c <__eqdf2+0x3a>
    7342:	4305                	li	t1,1
    7344:	ffee94e3          	bne	t4,t5,732c <__eqdf2+0x3a>
    7348:	4301                	li	t1,0
    734a:	fed581e3          	beq	a1,a3,732c <__eqdf2+0x3a>
    734e:	4305                	li	t1,1
    7350:	ff71                	bnez	a4,732c <__eqdf2+0x3a>
    7352:	00ae6533          	or	a0,t3,a0
    7356:	00a03333          	snez	t1,a0
    735a:	bfc9                	j	732c <__eqdf2+0x3a>

0000735c <__gedf2>:
    735c:	0145d713          	srli	a4,a1,0x14
    7360:	001007b7          	lui	a5,0x100
    7364:	17fd                	addi	a5,a5,-1
    7366:	0146d813          	srli	a6,a3,0x14
    736a:	7ff77713          	andi	a4,a4,2047
    736e:	7ff00893          	li	a7,2047
    7372:	00b7f333          	and	t1,a5,a1
    7376:	8e2a                	mv	t3,a0
    7378:	8ff5                	and	a5,a5,a3
    737a:	81fd                	srli	a1,a1,0x1f
    737c:	8eb2                	mv	t4,a2
    737e:	7ff87813          	andi	a6,a6,2047
    7382:	82fd                	srli	a3,a3,0x1f
    7384:	03170863          	beq	a4,a7,73b4 <__gedf2+0x58>
    7388:	03180063          	beq	a6,a7,73a8 <__gedf2+0x4c>
    738c:	eb0d                	bnez	a4,73be <__gedf2+0x62>
    738e:	00a368b3          	or	a7,t1,a0
    7392:	00081463          	bnez	a6,739a <__gedf2+0x3e>
    7396:	8e5d                	or	a2,a2,a5
    7398:	ca29                	beqz	a2,73ea <__gedf2+0x8e>
    739a:	04088563          	beqz	a7,73e4 <__gedf2+0x88>
    739e:	02d58863          	beq	a1,a3,73ce <__gedf2+0x72>
    73a2:	4505                	li	a0,1
    73a4:	ed95                	bnez	a1,73e0 <__gedf2+0x84>
    73a6:	8082                	ret
    73a8:	00c7e8b3          	or	a7,a5,a2
    73ac:	fe0880e3          	beqz	a7,738c <__gedf2+0x30>
    73b0:	5579                	li	a0,-2
    73b2:	8082                	ret
    73b4:	00a36533          	or	a0,t1,a0
    73b8:	fd65                	bnez	a0,73b0 <__gedf2+0x54>
    73ba:	02e80c63          	beq	a6,a4,73f2 <__gedf2+0x96>
    73be:	00081463          	bnez	a6,73c6 <__gedf2+0x6a>
    73c2:	8e5d                	or	a2,a2,a5
    73c4:	de79                	beqz	a2,73a2 <__gedf2+0x46>
    73c6:	fcd59ee3          	bne	a1,a3,73a2 <__gedf2+0x46>
    73ca:	fce84ce3          	blt	a6,a4,73a2 <__gedf2+0x46>
    73ce:	01074863          	blt	a4,a6,73de <__gedf2+0x82>
    73d2:	fc67e8e3          	bltu	a5,t1,73a2 <__gedf2+0x46>
    73d6:	02f30363          	beq	t1,a5,73fc <__gedf2+0xa0>
    73da:	00f37f63          	bgeu	t1,a5,73f8 <__gedf2+0x9c>
    73de:	e581                	bnez	a1,73e6 <__gedf2+0x8a>
    73e0:	557d                	li	a0,-1
    73e2:	8082                	ret
    73e4:	def5                	beqz	a3,73e0 <__gedf2+0x84>
    73e6:	4505                	li	a0,1
    73e8:	8082                	ret
    73ea:	4501                	li	a0,0
    73ec:	fa089be3          	bnez	a7,73a2 <__gedf2+0x46>
    73f0:	8082                	ret
    73f2:	8e5d                	or	a2,a2,a5
    73f4:	da69                	beqz	a2,73c6 <__gedf2+0x6a>
    73f6:	bf6d                	j	73b0 <__gedf2+0x54>
    73f8:	4501                	li	a0,0
    73fa:	8082                	ret
    73fc:	fbcee3e3          	bltu	t4,t3,73a2 <__gedf2+0x46>
    7400:	4501                	li	a0,0
    7402:	fbde72e3          	bgeu	t3,t4,73a6 <__gedf2+0x4a>
    7406:	f1e5                	bnez	a1,73e6 <__gedf2+0x8a>
    7408:	bfe1                	j	73e0 <__gedf2+0x84>

0000740a <__ledf2>:
    740a:	0145d713          	srli	a4,a1,0x14
    740e:	001007b7          	lui	a5,0x100
    7412:	17fd                	addi	a5,a5,-1
    7414:	0146d813          	srli	a6,a3,0x14
    7418:	7ff77713          	andi	a4,a4,2047
    741c:	7ff00893          	li	a7,2047
    7420:	00b7fe33          	and	t3,a5,a1
    7424:	8eaa                	mv	t4,a0
    7426:	8ff5                	and	a5,a5,a3
    7428:	81fd                	srli	a1,a1,0x1f
    742a:	8f32                	mv	t5,a2
    742c:	7ff87813          	andi	a6,a6,2047
    7430:	82fd                	srli	a3,a3,0x1f
    7432:	03170e63          	beq	a4,a7,746e <__ledf2+0x64>
    7436:	01180d63          	beq	a6,a7,7450 <__ledf2+0x46>
    743a:	e329                	bnez	a4,747c <__ledf2+0x72>
    743c:	00ae68b3          	or	a7,t3,a0
    7440:	00081f63          	bnez	a6,745e <__ledf2+0x54>
    7444:	8e5d                	or	a2,a2,a5
    7446:	ee01                	bnez	a2,745e <__ledf2+0x54>
    7448:	4301                	li	t1,0
    744a:	04088c63          	beqz	a7,74a2 <__ledf2+0x98>
    744e:	a821                	j	7466 <__ledf2+0x5c>
    7450:	00c7e8b3          	or	a7,a5,a2
    7454:	4309                	li	t1,2
    7456:	04089663          	bnez	a7,74a2 <__ledf2+0x98>
    745a:	d36d                	beqz	a4,743c <__ledf2+0x32>
    745c:	a005                	j	747c <__ledf2+0x72>
    745e:	04088463          	beqz	a7,74a6 <__ledf2+0x9c>
    7462:	02d58563          	beq	a1,a3,748c <__ledf2+0x82>
    7466:	4305                	li	t1,1
    7468:	cd8d                	beqz	a1,74a2 <__ledf2+0x98>
    746a:	537d                	li	t1,-1
    746c:	a81d                	j	74a2 <__ledf2+0x98>
    746e:	00ae68b3          	or	a7,t3,a0
    7472:	4309                	li	t1,2
    7474:	02089763          	bnez	a7,74a2 <__ledf2+0x98>
    7478:	02e80a63          	beq	a6,a4,74ac <__ledf2+0xa2>
    747c:	00081463          	bnez	a6,7484 <__ledf2+0x7a>
    7480:	8e5d                	or	a2,a2,a5
    7482:	d275                	beqz	a2,7466 <__ledf2+0x5c>
    7484:	fed591e3          	bne	a1,a3,7466 <__ledf2+0x5c>
    7488:	fce84fe3          	blt	a6,a4,7466 <__ledf2+0x5c>
    748c:	01074963          	blt	a4,a6,749e <__ledf2+0x94>
    7490:	fdc7ebe3          	bltu	a5,t3,7466 <__ledf2+0x5c>
    7494:	00fe0f63          	beq	t3,a5,74b2 <__ledf2+0xa8>
    7498:	4301                	li	t1,0
    749a:	00fe7463          	bgeu	t3,a5,74a2 <__ledf2+0x98>
    749e:	d5f1                	beqz	a1,746a <__ledf2+0x60>
    74a0:	4305                	li	t1,1
    74a2:	851a                	mv	a0,t1
    74a4:	8082                	ret
    74a6:	feed                	bnez	a3,74a0 <__ledf2+0x96>
    74a8:	537d                	li	t1,-1
    74aa:	bfe5                	j	74a2 <__ledf2+0x98>
    74ac:	8e5d                	or	a2,a2,a5
    74ae:	da79                	beqz	a2,7484 <__ledf2+0x7a>
    74b0:	bfcd                	j	74a2 <__ledf2+0x98>
    74b2:	fbdf6ae3          	bltu	t5,t4,7466 <__ledf2+0x5c>
    74b6:	4301                	li	t1,0
    74b8:	ffeef5e3          	bgeu	t4,t5,74a2 <__ledf2+0x98>
    74bc:	f1f5                	bnez	a1,74a0 <__ledf2+0x96>
    74be:	b775                	j	746a <__ledf2+0x60>

000074c0 <__muldf3>:
    74c0:	7139                	addi	sp,sp,-64
    74c2:	d84a                	sw	s2,48(sp)
    74c4:	0145d913          	srli	s2,a1,0x14
    74c8:	d64e                	sw	s3,44(sp)
    74ca:	d452                	sw	s4,40(sp)
    74cc:	d256                	sw	s5,36(sp)
    74ce:	00c59993          	slli	s3,a1,0xc
    74d2:	de06                	sw	ra,60(sp)
    74d4:	dc22                	sw	s0,56(sp)
    74d6:	da26                	sw	s1,52(sp)
    74d8:	d05a                	sw	s6,32(sp)
    74da:	ce5e                	sw	s7,28(sp)
    74dc:	7ff97913          	andi	s2,s2,2047
    74e0:	8a2a                	mv	s4,a0
    74e2:	00c9d993          	srli	s3,s3,0xc
    74e6:	01f5da93          	srli	s5,a1,0x1f
    74ea:	0e090d63          	beqz	s2,75e4 <__muldf3+0x124>
    74ee:	7ff00793          	li	a5,2047
    74f2:	18f90663          	beq	s2,a5,767e <__muldf3+0x1be>
    74f6:	01d55413          	srli	s0,a0,0x1d
    74fa:	098e                	slli	s3,s3,0x3
    74fc:	013469b3          	or	s3,s0,s3
    7500:	00800437          	lui	s0,0x800
    7504:	0089e433          	or	s0,s3,s0
    7508:	00351493          	slli	s1,a0,0x3
    750c:	c0190913          	addi	s2,s2,-1023
    7510:	4981                	li	s3,0
    7512:	4b81                	li	s7,0
    7514:	0146d713          	srli	a4,a3,0x14
    7518:	00c69a13          	slli	s4,a3,0xc
    751c:	7ff77713          	andi	a4,a4,2047
    7520:	85b2                	mv	a1,a2
    7522:	00ca5a13          	srli	s4,s4,0xc
    7526:	01f6db13          	srli	s6,a3,0x1f
    752a:	10070b63          	beqz	a4,7640 <__muldf3+0x180>
    752e:	7ff00793          	li	a5,2047
    7532:	04f70363          	beq	a4,a5,7578 <__muldf3+0xb8>
    7536:	01d65793          	srli	a5,a2,0x1d
    753a:	0a0e                	slli	s4,s4,0x3
    753c:	0147ea33          	or	s4,a5,s4
    7540:	c0170713          	addi	a4,a4,-1023
    7544:	008007b7          	lui	a5,0x800
    7548:	00fa67b3          	or	a5,s4,a5
    754c:	00361593          	slli	a1,a2,0x3
    7550:	993a                	add	s2,s2,a4
    7552:	4881                	li	a7,0
    7554:	016ac733          	xor	a4,s5,s6
    7558:	46bd                	li	a3,15
    755a:	853a                	mv	a0,a4
    755c:	00190813          	addi	a6,s2,1
    7560:	1736e863          	bltu	a3,s3,76d0 <__muldf3+0x210>
    7564:	00003617          	auipc	a2,0x3
    7568:	69460613          	addi	a2,a2,1684 # abf8 <init_jk+0x98>
    756c:	098a                	slli	s3,s3,0x2
    756e:	99b2                	add	s3,s3,a2
    7570:	0009a683          	lw	a3,0(s3)
    7574:	96b2                	add	a3,a3,a2
    7576:	8682                	jr	a3
    7578:	00ca67b3          	or	a5,s4,a2
    757c:	7ff90913          	addi	s2,s2,2047
    7580:	12079963          	bnez	a5,76b2 <__muldf3+0x1f2>
    7584:	0029e993          	ori	s3,s3,2
    7588:	4581                	li	a1,0
    758a:	4889                	li	a7,2
    758c:	b7e1                	j	7554 <__muldf3+0x94>
    758e:	4701                	li	a4,0
    7590:	7ff00793          	li	a5,2047
    7594:	00080437          	lui	s0,0x80
    7598:	4481                	li	s1,0
    759a:	0432                	slli	s0,s0,0xc
    759c:	07d2                	slli	a5,a5,0x14
    759e:	8031                	srli	s0,s0,0xc
    75a0:	077e                	slli	a4,a4,0x1f
    75a2:	8c5d                	or	s0,s0,a5
    75a4:	8c59                	or	s0,s0,a4
    75a6:	85a2                	mv	a1,s0
    75a8:	50f2                	lw	ra,60(sp)
    75aa:	5462                	lw	s0,56(sp)
    75ac:	8526                	mv	a0,s1
    75ae:	5942                	lw	s2,48(sp)
    75b0:	54d2                	lw	s1,52(sp)
    75b2:	59b2                	lw	s3,44(sp)
    75b4:	5a22                	lw	s4,40(sp)
    75b6:	5a92                	lw	s5,36(sp)
    75b8:	5b02                	lw	s6,32(sp)
    75ba:	4bf2                	lw	s7,28(sp)
    75bc:	6121                	addi	sp,sp,64
    75be:	8082                	ret
    75c0:	855a                	mv	a0,s6
    75c2:	843e                	mv	s0,a5
    75c4:	84ae                	mv	s1,a1
    75c6:	8bc6                	mv	s7,a7
    75c8:	4789                	li	a5,2
    75ca:	0efb8d63          	beq	s7,a5,76c4 <__muldf3+0x204>
    75ce:	478d                	li	a5,3
    75d0:	fafb8fe3          	beq	s7,a5,758e <__muldf3+0xce>
    75d4:	4785                	li	a5,1
    75d6:	872a                	mv	a4,a0
    75d8:	38fb9e63          	bne	s7,a5,7974 <__muldf3+0x4b4>
    75dc:	4781                	li	a5,0
    75de:	4401                	li	s0,0
    75e0:	4481                	li	s1,0
    75e2:	bf65                	j	759a <__muldf3+0xda>
    75e4:	00a9e433          	or	s0,s3,a0
    75e8:	c061                	beqz	s0,76a8 <__muldf3+0x1e8>
    75ea:	c636                	sw	a3,12(sp)
    75ec:	c432                	sw	a2,8(sp)
    75ee:	2a098c63          	beqz	s3,78a6 <__muldf3+0x3e6>
    75f2:	854e                	mv	a0,s3
    75f4:	42f010ef          	jal	ra,9222 <__clzsi2>
    75f8:	4622                	lw	a2,8(sp)
    75fa:	46b2                	lw	a3,12(sp)
    75fc:	87aa                	mv	a5,a0
    75fe:	ff550713          	addi	a4,a0,-11
    7602:	4475                	li	s0,29
    7604:	ff878493          	addi	s1,a5,-8 # 7ffff8 <_data_lma+0x7f5164>
    7608:	8c19                	sub	s0,s0,a4
    760a:	009999b3          	sll	s3,s3,s1
    760e:	008a5433          	srl	s0,s4,s0
    7612:	01346433          	or	s0,s0,s3
    7616:	009a14b3          	sll	s1,s4,s1
    761a:	0146d713          	srli	a4,a3,0x14
    761e:	c0d00913          	li	s2,-1011
    7622:	00c69a13          	slli	s4,a3,0xc
    7626:	7ff77713          	andi	a4,a4,2047
    762a:	40f90933          	sub	s2,s2,a5
    762e:	4981                	li	s3,0
    7630:	4b81                	li	s7,0
    7632:	85b2                	mv	a1,a2
    7634:	00ca5a13          	srli	s4,s4,0xc
    7638:	01f6db13          	srli	s6,a3,0x1f
    763c:	ee0719e3          	bnez	a4,752e <__muldf3+0x6e>
    7640:	00ca67b3          	or	a5,s4,a2
    7644:	c7b1                	beqz	a5,7690 <__muldf3+0x1d0>
    7646:	220a0f63          	beqz	s4,7884 <__muldf3+0x3c4>
    764a:	8552                	mv	a0,s4
    764c:	c432                	sw	a2,8(sp)
    764e:	3d5010ef          	jal	ra,9222 <__clzsi2>
    7652:	4622                	lw	a2,8(sp)
    7654:	872a                	mv	a4,a0
    7656:	ff550693          	addi	a3,a0,-11
    765a:	47f5                	li	a5,29
    765c:	ff870593          	addi	a1,a4,-8
    7660:	8f95                	sub	a5,a5,a3
    7662:	00ba1a33          	sll	s4,s4,a1
    7666:	00f657b3          	srl	a5,a2,a5
    766a:	0147e7b3          	or	a5,a5,s4
    766e:	00b615b3          	sll	a1,a2,a1
    7672:	40e90933          	sub	s2,s2,a4
    7676:	c0d90913          	addi	s2,s2,-1011
    767a:	4881                	li	a7,0
    767c:	bde1                	j	7554 <__muldf3+0x94>
    767e:	00a9e433          	or	s0,s3,a0
    7682:	ec01                	bnez	s0,769a <__muldf3+0x1da>
    7684:	49a1                	li	s3,8
    7686:	4481                	li	s1,0
    7688:	7ff00913          	li	s2,2047
    768c:	4b89                	li	s7,2
    768e:	b559                	j	7514 <__muldf3+0x54>
    7690:	0019e993          	ori	s3,s3,1
    7694:	4581                	li	a1,0
    7696:	4885                	li	a7,1
    7698:	bd75                	j	7554 <__muldf3+0x94>
    769a:	844e                	mv	s0,s3
    769c:	84aa                	mv	s1,a0
    769e:	49b1                	li	s3,12
    76a0:	7ff00913          	li	s2,2047
    76a4:	4b8d                	li	s7,3
    76a6:	b5bd                	j	7514 <__muldf3+0x54>
    76a8:	4991                	li	s3,4
    76aa:	4481                	li	s1,0
    76ac:	4901                	li	s2,0
    76ae:	4b85                	li	s7,1
    76b0:	b595                	j	7514 <__muldf3+0x54>
    76b2:	0039e993          	ori	s3,s3,3
    76b6:	87d2                	mv	a5,s4
    76b8:	488d                	li	a7,3
    76ba:	bd69                	j	7554 <__muldf3+0x94>
    76bc:	4789                	li	a5,2
    76be:	8556                	mv	a0,s5
    76c0:	f0fb97e3          	bne	s7,a5,75ce <__muldf3+0x10e>
    76c4:	872a                	mv	a4,a0
    76c6:	7ff00793          	li	a5,2047
    76ca:	4401                	li	s0,0
    76cc:	4481                	li	s1,0
    76ce:	b5f1                	j	759a <__muldf3+0xda>
    76d0:	6ec1                	lui	t4,0x10
    76d2:	fffe8613          	addi	a2,t4,-1 # ffff <_data_lma+0x516b>
    76d6:	0104d693          	srli	a3,s1,0x10
    76da:	0105de13          	srli	t3,a1,0x10
    76de:	8cf1                	and	s1,s1,a2
    76e0:	8df1                	and	a1,a1,a2
    76e2:	02958633          	mul	a2,a1,s1
    76e6:	02b68333          	mul	t1,a3,a1
    76ea:	01065893          	srli	a7,a2,0x10
    76ee:	029e0533          	mul	a0,t3,s1
    76f2:	951a                	add	a0,a0,t1
    76f4:	98aa                	add	a7,a7,a0
    76f6:	03c682b3          	mul	t0,a3,t3
    76fa:	0068f363          	bgeu	a7,t1,7700 <__muldf3+0x240>
    76fe:	92f6                	add	t0,t0,t4
    7700:	6fc1                	lui	t6,0x10
    7702:	ffff8313          	addi	t1,t6,-1 # ffff <_data_lma+0x516b>
    7706:	0067f533          	and	a0,a5,t1
    770a:	0107d393          	srli	t2,a5,0x10
    770e:	0068f7b3          	and	a5,a7,t1
    7712:	07c2                	slli	a5,a5,0x10
    7714:	00667333          	and	t1,a2,t1
    7718:	933e                	add	t1,t1,a5
    771a:	02950633          	mul	a2,a0,s1
    771e:	0108d893          	srli	a7,a7,0x10
    7722:	02a687b3          	mul	a5,a3,a0
    7726:	01065f13          	srli	t5,a2,0x10
    772a:	029384b3          	mul	s1,t2,s1
    772e:	94be                	add	s1,s1,a5
    7730:	94fa                	add	s1,s1,t5
    7732:	02768eb3          	mul	t4,a3,t2
    7736:	00f4f363          	bgeu	s1,a5,773c <__muldf3+0x27c>
    773a:	9efe                	add	t4,t4,t6
    773c:	6a41                	lui	s4,0x10
    773e:	fffa0793          	addi	a5,s4,-1 # ffff <_data_lma+0x516b>
    7742:	01045f93          	srli	t6,s0,0x10
    7746:	00f476b3          	and	a3,s0,a5
    774a:	00f4f9b3          	and	s3,s1,a5
    774e:	8e7d                	and	a2,a2,a5
    7750:	80c1                	srli	s1,s1,0x10
    7752:	02d58433          	mul	s0,a1,a3
    7756:	09c2                	slli	s3,s3,0x10
    7758:	01d48f33          	add	t5,s1,t4
    775c:	99b2                	add	s3,s3,a2
    775e:	98ce                	add	a7,a7,s3
    7760:	02de07b3          	mul	a5,t3,a3
    7764:	01045e93          	srli	t4,s0,0x10
    7768:	02bf85b3          	mul	a1,t6,a1
    776c:	97ae                	add	a5,a5,a1
    776e:	9ebe                	add	t4,t4,a5
    7770:	03fe0e33          	mul	t3,t3,t6
    7774:	00bef363          	bgeu	t4,a1,777a <__muldf3+0x2ba>
    7778:	9e52                	add	t3,t3,s4
    777a:	67c1                	lui	a5,0x10
    777c:	fff78593          	addi	a1,a5,-1 # ffff <_data_lma+0x516b>
    7780:	00bef633          	and	a2,t4,a1
    7784:	8c6d                	and	s0,s0,a1
    7786:	0642                	slli	a2,a2,0x10
    7788:	9622                	add	a2,a2,s0
    778a:	010ede93          	srli	t4,t4,0x10
    778e:	02d505b3          	mul	a1,a0,a3
    7792:	9e76                	add	t3,t3,t4
    7794:	02af8533          	mul	a0,t6,a0
    7798:	0105d413          	srli	s0,a1,0x10
    779c:	02d386b3          	mul	a3,t2,a3
    77a0:	96aa                	add	a3,a3,a0
    77a2:	96a2                	add	a3,a3,s0
    77a4:	03f38fb3          	mul	t6,t2,t6
    77a8:	00a6f363          	bgeu	a3,a0,77ae <__muldf3+0x2ee>
    77ac:	9fbe                	add	t6,t6,a5
    77ae:	6541                	lui	a0,0x10
    77b0:	157d                	addi	a0,a0,-1
    77b2:	00a6f7b3          	and	a5,a3,a0
    77b6:	07c2                	slli	a5,a5,0x10
    77b8:	8d6d                	and	a0,a0,a1
    77ba:	97aa                	add	a5,a5,a0
    77bc:	005885b3          	add	a1,a7,t0
    77c0:	0135b9b3          	sltu	s3,a1,s3
    77c4:	97fa                	add	a5,a5,t5
    77c6:	95b2                	add	a1,a1,a2
    77c8:	01378433          	add	s0,a5,s3
    77cc:	00c5b633          	sltu	a2,a1,a2
    77d0:	01c40eb3          	add	t4,s0,t3
    77d4:	00ce8533          	add	a0,t4,a2
    77d8:	01343433          	sltu	s0,s0,s3
    77dc:	01e7b7b3          	sltu	a5,a5,t5
    77e0:	8fc1                	or	a5,a5,s0
    77e2:	01cebe33          	sltu	t3,t4,t3
    77e6:	0106d413          	srli	s0,a3,0x10
    77ea:	00c53633          	sltu	a2,a0,a2
    77ee:	943e                	add	s0,s0,a5
    77f0:	00ce6633          	or	a2,t3,a2
    77f4:	00959493          	slli	s1,a1,0x9
    77f8:	9432                	add	s0,s0,a2
    77fa:	947e                	add	s0,s0,t6
    77fc:	0064e4b3          	or	s1,s1,t1
    7800:	0426                	slli	s0,s0,0x9
    7802:	01755693          	srli	a3,a0,0x17
    7806:	009034b3          	snez	s1,s1
    780a:	81dd                	srli	a1,a1,0x17
    780c:	00951793          	slli	a5,a0,0x9
    7810:	8ccd                	or	s1,s1,a1
    7812:	8c55                	or	s0,s0,a3
    7814:	8cdd                	or	s1,s1,a5
    7816:	00741793          	slli	a5,s0,0x7
    781a:	0007db63          	bgez	a5,7830 <__muldf3+0x370>
    781e:	0014d793          	srli	a5,s1,0x1
    7822:	8885                	andi	s1,s1,1
    7824:	01f41693          	slli	a3,s0,0x1f
    7828:	8cdd                	or	s1,s1,a5
    782a:	8cd5                	or	s1,s1,a3
    782c:	8005                	srli	s0,s0,0x1
    782e:	8942                	mv	s2,a6
    7830:	3ff90793          	addi	a5,s2,1023
    7834:	08f05963          	blez	a5,78c6 <__muldf3+0x406>
    7838:	0074f693          	andi	a3,s1,7
    783c:	ce81                	beqz	a3,7854 <__muldf3+0x394>
    783e:	00f4f693          	andi	a3,s1,15
    7842:	4611                	li	a2,4
    7844:	00c68863          	beq	a3,a2,7854 <__muldf3+0x394>
    7848:	00448693          	addi	a3,s1,4
    784c:	0096b4b3          	sltu	s1,a3,s1
    7850:	9426                	add	s0,s0,s1
    7852:	84b6                	mv	s1,a3
    7854:	00741693          	slli	a3,s0,0x7
    7858:	0006d863          	bgez	a3,7868 <__muldf3+0x3a8>
    785c:	ff0007b7          	lui	a5,0xff000
    7860:	17fd                	addi	a5,a5,-1
    7862:	8c7d                	and	s0,s0,a5
    7864:	40090793          	addi	a5,s2,1024
    7868:	7fe00693          	li	a3,2046
    786c:	0ef6cf63          	blt	a3,a5,796a <__muldf3+0x4aa>
    7870:	0034d693          	srli	a3,s1,0x3
    7874:	01d41493          	slli	s1,s0,0x1d
    7878:	0426                	slli	s0,s0,0x9
    787a:	8cd5                	or	s1,s1,a3
    787c:	8031                	srli	s0,s0,0xc
    787e:	7ff7f793          	andi	a5,a5,2047
    7882:	bb21                	j	759a <__muldf3+0xda>
    7884:	8532                	mv	a0,a2
    7886:	c432                	sw	a2,8(sp)
    7888:	19b010ef          	jal	ra,9222 <__clzsi2>
    788c:	01550693          	addi	a3,a0,21 # 10015 <_data_lma+0x5181>
    7890:	47f1                	li	a5,28
    7892:	02050713          	addi	a4,a0,32
    7896:	4622                	lw	a2,8(sp)
    7898:	dcd7d1e3          	bge	a5,a3,765a <__muldf3+0x19a>
    789c:	1561                	addi	a0,a0,-8
    789e:	00a617b3          	sll	a5,a2,a0
    78a2:	4581                	li	a1,0
    78a4:	b3f9                	j	7672 <__muldf3+0x1b2>
    78a6:	17d010ef          	jal	ra,9222 <__clzsi2>
    78aa:	01550713          	addi	a4,a0,21
    78ae:	45f1                	li	a1,28
    78b0:	02050793          	addi	a5,a0,32
    78b4:	4622                	lw	a2,8(sp)
    78b6:	46b2                	lw	a3,12(sp)
    78b8:	d4e5d5e3          	bge	a1,a4,7602 <__muldf3+0x142>
    78bc:	1561                	addi	a0,a0,-8
    78be:	00aa1433          	sll	s0,s4,a0
    78c2:	4481                	li	s1,0
    78c4:	bb99                	j	761a <__muldf3+0x15a>
    78c6:	4685                	li	a3,1
    78c8:	8e9d                	sub	a3,a3,a5
    78ca:	e7b1                	bnez	a5,7916 <__muldf3+0x456>
    78cc:	41e90913          	addi	s2,s2,1054
    78d0:	012497b3          	sll	a5,s1,s2
    78d4:	00d4d4b3          	srl	s1,s1,a3
    78d8:	01241933          	sll	s2,s0,s2
    78dc:	00f037b3          	snez	a5,a5
    78e0:	009964b3          	or	s1,s2,s1
    78e4:	8cdd                	or	s1,s1,a5
    78e6:	0074f793          	andi	a5,s1,7
    78ea:	00d456b3          	srl	a3,s0,a3
    78ee:	cf81                	beqz	a5,7906 <__muldf3+0x446>
    78f0:	00f4f793          	andi	a5,s1,15
    78f4:	4611                	li	a2,4
    78f6:	00c78863          	beq	a5,a2,7906 <__muldf3+0x446>
    78fa:	00448793          	addi	a5,s1,4
    78fe:	0097b4b3          	sltu	s1,a5,s1
    7902:	96a6                	add	a3,a3,s1
    7904:	84be                	mv	s1,a5
    7906:	00869793          	slli	a5,a3,0x8
    790a:	0407d863          	bgez	a5,795a <__muldf3+0x49a>
    790e:	4785                	li	a5,1
    7910:	4401                	li	s0,0
    7912:	4481                	li	s1,0
    7914:	b159                	j	759a <__muldf3+0xda>
    7916:	03800613          	li	a2,56
    791a:	ccd641e3          	blt	a2,a3,75dc <__muldf3+0x11c>
    791e:	467d                	li	a2,31
    7920:	fad656e3          	bge	a2,a3,78cc <__muldf3+0x40c>
    7924:	5605                	li	a2,-31
    7926:	40f607b3          	sub	a5,a2,a5
    792a:	02000593          	li	a1,32
    792e:	00f45633          	srl	a2,s0,a5
    7932:	00b68763          	beq	a3,a1,7940 <__muldf3+0x480>
    7936:	43e90913          	addi	s2,s2,1086
    793a:	012417b3          	sll	a5,s0,s2
    793e:	8cdd                	or	s1,s1,a5
    7940:	009034b3          	snez	s1,s1
    7944:	8cd1                	or	s1,s1,a2
    7946:	0074f693          	andi	a3,s1,7
    794a:	4401                	li	s0,0
    794c:	ca99                	beqz	a3,7962 <__muldf3+0x4a2>
    794e:	00f4f793          	andi	a5,s1,15
    7952:	4611                	li	a2,4
    7954:	4681                	li	a3,0
    7956:	fac792e3          	bne	a5,a2,78fa <__muldf3+0x43a>
    795a:	00969413          	slli	s0,a3,0x9
    795e:	8031                	srli	s0,s0,0xc
    7960:	06f6                	slli	a3,a3,0x1d
    7962:	808d                	srli	s1,s1,0x3
    7964:	8cd5                	or	s1,s1,a3
    7966:	4781                	li	a5,0
    7968:	b90d                	j	759a <__muldf3+0xda>
    796a:	7ff00793          	li	a5,2047
    796e:	4401                	li	s0,0
    7970:	4481                	li	s1,0
    7972:	b125                	j	759a <__muldf3+0xda>
    7974:	8942                	mv	s2,a6
    7976:	bd6d                	j	7830 <__muldf3+0x370>

00007978 <__subdf3>:
    7978:	00100737          	lui	a4,0x100
    797c:	177d                	addi	a4,a4,-1
    797e:	1101                	addi	sp,sp,-32
    7980:	00b77333          	and	t1,a4,a1
    7984:	0146d893          	srli	a7,a3,0x14
    7988:	8f75                	and	a4,a4,a3
    798a:	01d65e93          	srli	t4,a2,0x1d
    798e:	cc22                	sw	s0,24(sp)
    7990:	ca26                	sw	s1,20(sp)
    7992:	030e                	slli	t1,t1,0x3
    7994:	0145d493          	srli	s1,a1,0x14
    7998:	01d55793          	srli	a5,a0,0x1d
    799c:	070e                	slli	a4,a4,0x3
    799e:	ce06                	sw	ra,28(sp)
    79a0:	c84a                	sw	s2,16(sp)
    79a2:	c64e                	sw	s3,12(sp)
    79a4:	7ff8f893          	andi	a7,a7,2047
    79a8:	7ff00e13          	li	t3,2047
    79ac:	00eee733          	or	a4,t4,a4
    79b0:	7ff4f493          	andi	s1,s1,2047
    79b4:	01f5d413          	srli	s0,a1,0x1f
    79b8:	0067e333          	or	t1,a5,t1
    79bc:	00351f13          	slli	t5,a0,0x3
    79c0:	82fd                	srli	a3,a3,0x1f
    79c2:	00361e93          	slli	t4,a2,0x3
    79c6:	19c88063          	beq	a7,t3,7b46 <__subdf3+0x1ce>
    79ca:	0016c693          	xori	a3,a3,1
    79ce:	411485b3          	sub	a1,s1,a7
    79d2:	12d40563          	beq	s0,a3,7afc <__subdf3+0x184>
    79d6:	18b05163          	blez	a1,7b58 <__subdf3+0x1e0>
    79da:	1a088b63          	beqz	a7,7b90 <__subdf3+0x218>
    79de:	008007b7          	lui	a5,0x800
    79e2:	8f5d                	or	a4,a4,a5
    79e4:	59c48163          	beq	s1,t3,7f66 <__subdf3+0x5ee>
    79e8:	03800793          	li	a5,56
    79ec:	34b7c463          	blt	a5,a1,7d34 <__subdf3+0x3bc>
    79f0:	47fd                	li	a5,31
    79f2:	48b7c563          	blt	a5,a1,7e7c <__subdf3+0x504>
    79f6:	02000793          	li	a5,32
    79fa:	8f8d                	sub	a5,a5,a1
    79fc:	00bed9b3          	srl	s3,t4,a1
    7a00:	00f71833          	sll	a6,a4,a5
    7a04:	00fe9eb3          	sll	t4,t4,a5
    7a08:	01386833          	or	a6,a6,s3
    7a0c:	00b75733          	srl	a4,a4,a1
    7a10:	01d039b3          	snez	s3,t4
    7a14:	01386833          	or	a6,a6,s3
    7a18:	40e30333          	sub	t1,t1,a4
    7a1c:	410f09b3          	sub	s3,t5,a6
    7a20:	013f37b3          	sltu	a5,t5,s3
    7a24:	40f30633          	sub	a2,t1,a5
    7a28:	00861793          	slli	a5,a2,0x8
    7a2c:	2407d363          	bgez	a5,7c72 <__subdf3+0x2fa>
    7a30:	00800937          	lui	s2,0x800
    7a34:	197d                	addi	s2,s2,-1
    7a36:	01267933          	and	s2,a2,s2
    7a3a:	2c090f63          	beqz	s2,7d18 <__subdf3+0x3a0>
    7a3e:	854a                	mv	a0,s2
    7a40:	7e2010ef          	jal	ra,9222 <__clzsi2>
    7a44:	ff850713          	addi	a4,a0,-8
    7a48:	02000793          	li	a5,32
    7a4c:	8f99                	sub	a5,a5,a4
    7a4e:	00f9d7b3          	srl	a5,s3,a5
    7a52:	00e91633          	sll	a2,s2,a4
    7a56:	8fd1                	or	a5,a5,a2
    7a58:	00e999b3          	sll	s3,s3,a4
    7a5c:	2a974463          	blt	a4,s1,7d04 <__subdf3+0x38c>
    7a60:	8f05                	sub	a4,a4,s1
    7a62:	00170613          	addi	a2,a4,1 # 100001 <_data_lma+0xf516d>
    7a66:	46fd                	li	a3,31
    7a68:	3ac6c563          	blt	a3,a2,7e12 <__subdf3+0x49a>
    7a6c:	02000713          	li	a4,32
    7a70:	8f11                	sub	a4,a4,a2
    7a72:	00c9d6b3          	srl	a3,s3,a2
    7a76:	00e99833          	sll	a6,s3,a4
    7a7a:	00e79733          	sll	a4,a5,a4
    7a7e:	8f55                	or	a4,a4,a3
    7a80:	01003833          	snez	a6,a6
    7a84:	010769b3          	or	s3,a4,a6
    7a88:	00c7d633          	srl	a2,a5,a2
    7a8c:	4481                	li	s1,0
    7a8e:	0079f793          	andi	a5,s3,7
    7a92:	cf81                	beqz	a5,7aaa <__subdf3+0x132>
    7a94:	00f9f693          	andi	a3,s3,15
    7a98:	4791                	li	a5,4
    7a9a:	00f68863          	beq	a3,a5,7aaa <__subdf3+0x132>
    7a9e:	00498693          	addi	a3,s3,4
    7aa2:	0136b833          	sltu	a6,a3,s3
    7aa6:	9642                	add	a2,a2,a6
    7aa8:	89b6                	mv	s3,a3
    7aaa:	00861793          	slli	a5,a2,0x8
    7aae:	1c07d663          	bgez	a5,7c7a <__subdf3+0x302>
    7ab2:	00148713          	addi	a4,s1,1
    7ab6:	7ff00793          	li	a5,2047
    7aba:	8805                	andi	s0,s0,1
    7abc:	20f70663          	beq	a4,a5,7cc8 <__subdf3+0x350>
    7ac0:	ff8007b7          	lui	a5,0xff800
    7ac4:	17fd                	addi	a5,a5,-1
    7ac6:	8ff1                	and	a5,a5,a2
    7ac8:	01d79813          	slli	a6,a5,0x1d
    7acc:	0039d993          	srli	s3,s3,0x3
    7ad0:	07a6                	slli	a5,a5,0x9
    7ad2:	01386833          	or	a6,a6,s3
    7ad6:	83b1                	srli	a5,a5,0xc
    7ad8:	7ff77713          	andi	a4,a4,2047
    7adc:	00c79693          	slli	a3,a5,0xc
    7ae0:	0752                	slli	a4,a4,0x14
    7ae2:	82b1                	srli	a3,a3,0xc
    7ae4:	047e                	slli	s0,s0,0x1f
    7ae6:	8ed9                	or	a3,a3,a4
    7ae8:	8ec1                	or	a3,a3,s0
    7aea:	40f2                	lw	ra,28(sp)
    7aec:	4462                	lw	s0,24(sp)
    7aee:	44d2                	lw	s1,20(sp)
    7af0:	4942                	lw	s2,16(sp)
    7af2:	49b2                	lw	s3,12(sp)
    7af4:	8542                	mv	a0,a6
    7af6:	85b6                	mv	a1,a3
    7af8:	6105                	addi	sp,sp,32
    7afa:	8082                	ret
    7afc:	0ab05663          	blez	a1,7ba8 <__subdf3+0x230>
    7b00:	12088a63          	beqz	a7,7c34 <__subdf3+0x2bc>
    7b04:	008007b7          	lui	a5,0x800
    7b08:	8f5d                	or	a4,a4,a5
    7b0a:	2dc48763          	beq	s1,t3,7dd8 <__subdf3+0x460>
    7b0e:	03800793          	li	a5,56
    7b12:	18b7c763          	blt	a5,a1,7ca0 <__subdf3+0x328>
    7b16:	47fd                	li	a5,31
    7b18:	3cb7d263          	bge	a5,a1,7edc <__subdf3+0x564>
    7b1c:	fe058813          	addi	a6,a1,-32 # ffe0 <_data_lma+0x514c>
    7b20:	02000793          	li	a5,32
    7b24:	010759b3          	srl	s3,a4,a6
    7b28:	00f58a63          	beq	a1,a5,7b3c <__subdf3+0x1c4>
    7b2c:	04000793          	li	a5,64
    7b30:	40b785b3          	sub	a1,a5,a1
    7b34:	00b71733          	sll	a4,a4,a1
    7b38:	00eeeeb3          	or	t4,t4,a4
    7b3c:	01d03833          	snez	a6,t4
    7b40:	01386833          	or	a6,a6,s3
    7b44:	a295                	j	7ca8 <__subdf3+0x330>
    7b46:	01d767b3          	or	a5,a4,t4
    7b4a:	80148593          	addi	a1,s1,-2047
    7b4e:	e399                	bnez	a5,7b54 <__subdf3+0x1dc>
    7b50:	0016c693          	xori	a3,a3,1
    7b54:	04d40a63          	beq	s0,a3,7ba8 <__subdf3+0x230>
    7b58:	e1d1                	bnez	a1,7bdc <__subdf3+0x264>
    7b5a:	00148793          	addi	a5,s1,1
    7b5e:	7fe7f793          	andi	a5,a5,2046
    7b62:	1e079963          	bnez	a5,7d54 <__subdf3+0x3dc>
    7b66:	01e367b3          	or	a5,t1,t5
    7b6a:	01d76833          	or	a6,a4,t4
    7b6e:	16049263          	bnez	s1,7cd2 <__subdf3+0x35a>
    7b72:	3c078263          	beqz	a5,7f36 <__subdf3+0x5be>
    7b76:	42081663          	bnez	a6,7fa2 <__subdf3+0x62a>
    7b7a:	00351813          	slli	a6,a0,0x3
    7b7e:	01d31693          	slli	a3,t1,0x1d
    7b82:	00385813          	srli	a6,a6,0x3
    7b86:	0106e833          	or	a6,a3,a6
    7b8a:	00335793          	srli	a5,t1,0x3
    7b8e:	a219                	j	7c94 <__subdf3+0x31c>
    7b90:	01d767b3          	or	a5,a4,t4
    7b94:	1a078563          	beqz	a5,7d3e <__subdf3+0x3c6>
    7b98:	fff58793          	addi	a5,a1,-1
    7b9c:	3a078b63          	beqz	a5,7f52 <__subdf3+0x5da>
    7ba0:	23c58c63          	beq	a1,t3,7dd8 <__subdf3+0x460>
    7ba4:	85be                	mv	a1,a5
    7ba6:	b589                	j	79e8 <__subdf3+0x70>
    7ba8:	1c059963          	bnez	a1,7d7a <__subdf3+0x402>
    7bac:	00148693          	addi	a3,s1,1
    7bb0:	7fe6f793          	andi	a5,a3,2046
    7bb4:	efc1                	bnez	a5,7c4c <__subdf3+0x2d4>
    7bb6:	01e367b3          	or	a5,t1,t5
    7bba:	36049063          	bnez	s1,7f1a <__subdf3+0x5a2>
    7bbe:	44078d63          	beqz	a5,8018 <__subdf3+0x6a0>
    7bc2:	01d767b3          	or	a5,a4,t4
    7bc6:	46079463          	bnez	a5,802e <__subdf3+0x6b6>
    7bca:	050e                	slli	a0,a0,0x3
    7bcc:	01d31813          	slli	a6,t1,0x1d
    7bd0:	810d                	srli	a0,a0,0x3
    7bd2:	00a86833          	or	a6,a6,a0
    7bd6:	00335793          	srli	a5,t1,0x3
    7bda:	a86d                	j	7c94 <__subdf3+0x31c>
    7bdc:	409885b3          	sub	a1,a7,s1
    7be0:	20049763          	bnez	s1,7dee <__subdf3+0x476>
    7be4:	01e367b3          	or	a5,t1,t5
    7be8:	30078d63          	beqz	a5,7f02 <__subdf3+0x58a>
    7bec:	fff58793          	addi	a5,a1,-1
    7bf0:	40078963          	beqz	a5,8002 <__subdf3+0x68a>
    7bf4:	7ff00513          	li	a0,2047
    7bf8:	20a58363          	beq	a1,a0,7dfe <__subdf3+0x486>
    7bfc:	85be                	mv	a1,a5
    7bfe:	03800793          	li	a5,56
    7c02:	2ab7c263          	blt	a5,a1,7ea6 <__subdf3+0x52e>
    7c06:	47fd                	li	a5,31
    7c08:	3cb7c863          	blt	a5,a1,7fd8 <__subdf3+0x660>
    7c0c:	02000793          	li	a5,32
    7c10:	8f8d                	sub	a5,a5,a1
    7c12:	00f31833          	sll	a6,t1,a5
    7c16:	00bf5633          	srl	a2,t5,a1
    7c1a:	00ff17b3          	sll	a5,t5,a5
    7c1e:	00c86833          	or	a6,a6,a2
    7c22:	00f039b3          	snez	s3,a5
    7c26:	00b35333          	srl	t1,t1,a1
    7c2a:	01386833          	or	a6,a6,s3
    7c2e:	40670733          	sub	a4,a4,t1
    7c32:	acb5                	j	7eae <__subdf3+0x536>
    7c34:	01d767b3          	or	a5,a4,t4
    7c38:	10078363          	beqz	a5,7d3e <__subdf3+0x3c6>
    7c3c:	fff58793          	addi	a5,a1,-1
    7c40:	1e078f63          	beqz	a5,7e3e <__subdf3+0x4c6>
    7c44:	2fc58063          	beq	a1,t3,7f24 <__subdf3+0x5ac>
    7c48:	85be                	mv	a1,a5
    7c4a:	b5d1                	j	7b0e <__subdf3+0x196>
    7c4c:	7ff00793          	li	a5,2047
    7c50:	06f68b63          	beq	a3,a5,7cc6 <__subdf3+0x34e>
    7c54:	9efa                	add	t4,t4,t5
    7c56:	01eeb633          	sltu	a2,t4,t5
    7c5a:	00e307b3          	add	a5,t1,a4
    7c5e:	97b2                	add	a5,a5,a2
    7c60:	01f79813          	slli	a6,a5,0x1f
    7c64:	001ede93          	srli	t4,t4,0x1
    7c68:	01d869b3          	or	s3,a6,t4
    7c6c:	0017d613          	srli	a2,a5,0x1
    7c70:	84b6                	mv	s1,a3
    7c72:	0079f793          	andi	a5,s3,7
    7c76:	e0079fe3          	bnez	a5,7a94 <__subdf3+0x11c>
    7c7a:	01d61793          	slli	a5,a2,0x1d
    7c7e:	0039d813          	srli	a6,s3,0x3
    7c82:	00f86833          	or	a6,a6,a5
    7c86:	85a6                	mv	a1,s1
    7c88:	00365793          	srli	a5,a2,0x3
    7c8c:	7ff00713          	li	a4,2047
    7c90:	06e58063          	beq	a1,a4,7cf0 <__subdf3+0x378>
    7c94:	07b2                	slli	a5,a5,0xc
    7c96:	83b1                	srli	a5,a5,0xc
    7c98:	7ff5f713          	andi	a4,a1,2047
    7c9c:	8805                	andi	s0,s0,1
    7c9e:	bd3d                	j	7adc <__subdf3+0x164>
    7ca0:	01d76733          	or	a4,a4,t4
    7ca4:	00e03833          	snez	a6,a4
    7ca8:	01e809b3          	add	s3,a6,t5
    7cac:	01e9b7b3          	sltu	a5,s3,t5
    7cb0:	00678633          	add	a2,a5,t1
    7cb4:	00861793          	slli	a5,a2,0x8
    7cb8:	fa07dde3          	bgez	a5,7c72 <__subdf3+0x2fa>
    7cbc:	0485                	addi	s1,s1,1
    7cbe:	7ff00793          	li	a5,2047
    7cc2:	18f49c63          	bne	s1,a5,7e5a <__subdf3+0x4e2>
    7cc6:	8805                	andi	s0,s0,1
    7cc8:	7ff00713          	li	a4,2047
    7ccc:	4781                	li	a5,0
    7cce:	4801                	li	a6,0
    7cd0:	b531                	j	7adc <__subdf3+0x164>
    7cd2:	10079163          	bnez	a5,7dd4 <__subdf3+0x45c>
    7cd6:	3c080163          	beqz	a6,8098 <__subdf3+0x720>
    7cda:	00361813          	slli	a6,a2,0x3
    7cde:	01d71793          	slli	a5,a4,0x1d
    7ce2:	00385813          	srli	a6,a6,0x3
    7ce6:	00f86833          	or	a6,a6,a5
    7cea:	8436                	mv	s0,a3
    7cec:	00375793          	srli	a5,a4,0x3
    7cf0:	00f867b3          	or	a5,a6,a5
    7cf4:	dbe9                	beqz	a5,7cc6 <__subdf3+0x34e>
    7cf6:	4401                	li	s0,0
    7cf8:	7ff00713          	li	a4,2047
    7cfc:	000807b7          	lui	a5,0x80
    7d00:	4801                	li	a6,0
    7d02:	bbe9                	j	7adc <__subdf3+0x164>
    7d04:	ff800637          	lui	a2,0xff800
    7d08:	167d                	addi	a2,a2,-1
    7d0a:	8e7d                	and	a2,a2,a5
    7d0c:	0079f793          	andi	a5,s3,7
    7d10:	8c99                	sub	s1,s1,a4
    7d12:	d80791e3          	bnez	a5,7a94 <__subdf3+0x11c>
    7d16:	b795                	j	7c7a <__subdf3+0x302>
    7d18:	854e                	mv	a0,s3
    7d1a:	508010ef          	jal	ra,9222 <__clzsi2>
    7d1e:	01850713          	addi	a4,a0,24
    7d22:	47fd                	li	a5,31
    7d24:	d2e7d2e3          	bge	a5,a4,7a48 <__subdf3+0xd0>
    7d28:	ff850613          	addi	a2,a0,-8
    7d2c:	00c997b3          	sll	a5,s3,a2
    7d30:	4981                	li	s3,0
    7d32:	b32d                	j	7a5c <__subdf3+0xe4>
    7d34:	01d76833          	or	a6,a4,t4
    7d38:	01003833          	snez	a6,a6
    7d3c:	b1c5                	j	7a1c <__subdf3+0xa4>
    7d3e:	00351813          	slli	a6,a0,0x3
    7d42:	01d31793          	slli	a5,t1,0x1d
    7d46:	00385813          	srli	a6,a6,0x3
    7d4a:	00f86833          	or	a6,a6,a5
    7d4e:	00335793          	srli	a5,t1,0x3
    7d52:	bf2d                	j	7c8c <__subdf3+0x314>
    7d54:	41df09b3          	sub	s3,t5,t4
    7d58:	40e30933          	sub	s2,t1,a4
    7d5c:	013f3633          	sltu	a2,t5,s3
    7d60:	40c90933          	sub	s2,s2,a2
    7d64:	00891793          	slli	a5,s2,0x8
    7d68:	2007ca63          	bltz	a5,7f7c <__subdf3+0x604>
    7d6c:	0129e833          	or	a6,s3,s2
    7d70:	cc0815e3          	bnez	a6,7a3a <__subdf3+0xc2>
    7d74:	4781                	li	a5,0
    7d76:	4401                	li	s0,0
    7d78:	bf31                	j	7c94 <__subdf3+0x31c>
    7d7a:	409885b3          	sub	a1,a7,s1
    7d7e:	14048163          	beqz	s1,7ec0 <__subdf3+0x548>
    7d82:	008006b7          	lui	a3,0x800
    7d86:	7ff00793          	li	a5,2047
    7d8a:	00d36333          	or	t1,t1,a3
    7d8e:	20f88163          	beq	a7,a5,7f90 <__subdf3+0x618>
    7d92:	03800793          	li	a5,56
    7d96:	22b7cc63          	blt	a5,a1,7fce <__subdf3+0x656>
    7d9a:	47fd                	li	a5,31
    7d9c:	2cb7c963          	blt	a5,a1,806e <__subdf3+0x6f6>
    7da0:	02000793          	li	a5,32
    7da4:	8f8d                	sub	a5,a5,a1
    7da6:	00f31833          	sll	a6,t1,a5
    7daa:	00bf56b3          	srl	a3,t5,a1
    7dae:	00ff17b3          	sll	a5,t5,a5
    7db2:	00d86833          	or	a6,a6,a3
    7db6:	00f039b3          	snez	s3,a5
    7dba:	00b35333          	srl	t1,t1,a1
    7dbe:	01386833          	or	a6,a6,s3
    7dc2:	971a                	add	a4,a4,t1
    7dc4:	01d809b3          	add	s3,a6,t4
    7dc8:	01d9b7b3          	sltu	a5,s3,t4
    7dcc:	00e78633          	add	a2,a5,a4
    7dd0:	84c6                	mv	s1,a7
    7dd2:	b5cd                	j	7cb4 <__subdf3+0x33c>
    7dd4:	f20811e3          	bnez	a6,7cf6 <__subdf3+0x37e>
    7dd8:	00351813          	slli	a6,a0,0x3
    7ddc:	01d31793          	slli	a5,t1,0x1d
    7de0:	00385813          	srli	a6,a6,0x3
    7de4:	00f86833          	or	a6,a6,a5
    7de8:	00335793          	srli	a5,t1,0x3
    7dec:	b711                	j	7cf0 <__subdf3+0x378>
    7dee:	00800537          	lui	a0,0x800
    7df2:	7ff00793          	li	a5,2047
    7df6:	00a36333          	or	t1,t1,a0
    7dfa:	e0f892e3          	bne	a7,a5,7bfe <__subdf3+0x286>
    7dfe:	060e                	slli	a2,a2,0x3
    7e00:	01d71813          	slli	a6,a4,0x1d
    7e04:	820d                	srli	a2,a2,0x3
    7e06:	00c86833          	or	a6,a6,a2
    7e0a:	00375793          	srli	a5,a4,0x3
    7e0e:	8436                	mv	s0,a3
    7e10:	b5c5                	j	7cf0 <__subdf3+0x378>
    7e12:	1705                	addi	a4,a4,-31
    7e14:	02000693          	li	a3,32
    7e18:	00e7d733          	srl	a4,a5,a4
    7e1c:	00d60a63          	beq	a2,a3,7e30 <__subdf3+0x4b8>
    7e20:	04000693          	li	a3,64
    7e24:	40c68633          	sub	a2,a3,a2
    7e28:	00c79633          	sll	a2,a5,a2
    7e2c:	00c9e9b3          	or	s3,s3,a2
    7e30:	01303833          	snez	a6,s3
    7e34:	00e869b3          	or	s3,a6,a4
    7e38:	4601                	li	a2,0
    7e3a:	4481                	li	s1,0
    7e3c:	bd1d                	j	7c72 <__subdf3+0x2fa>
    7e3e:	01df09b3          	add	s3,t5,t4
    7e42:	00e307b3          	add	a5,t1,a4
    7e46:	01e9bf33          	sltu	t5,s3,t5
    7e4a:	01e78633          	add	a2,a5,t5
    7e4e:	00861793          	slli	a5,a2,0x8
    7e52:	4485                	li	s1,1
    7e54:	e007dfe3          	bgez	a5,7c72 <__subdf3+0x2fa>
    7e58:	4489                	li	s1,2
    7e5a:	ff8007b7          	lui	a5,0xff800
    7e5e:	17fd                	addi	a5,a5,-1
    7e60:	8ff1                	and	a5,a5,a2
    7e62:	0019d713          	srli	a4,s3,0x1
    7e66:	0019f813          	andi	a6,s3,1
    7e6a:	01076833          	or	a6,a4,a6
    7e6e:	01f79993          	slli	s3,a5,0x1f
    7e72:	0109e9b3          	or	s3,s3,a6
    7e76:	0017d613          	srli	a2,a5,0x1
    7e7a:	b911                	j	7a8e <__subdf3+0x116>
    7e7c:	fe058813          	addi	a6,a1,-32
    7e80:	02000793          	li	a5,32
    7e84:	010759b3          	srl	s3,a4,a6
    7e88:	00f58a63          	beq	a1,a5,7e9c <__subdf3+0x524>
    7e8c:	04000793          	li	a5,64
    7e90:	40b785b3          	sub	a1,a5,a1
    7e94:	00b71733          	sll	a4,a4,a1
    7e98:	00eeeeb3          	or	t4,t4,a4
    7e9c:	01d03833          	snez	a6,t4
    7ea0:	01386833          	or	a6,a6,s3
    7ea4:	bea5                	j	7a1c <__subdf3+0xa4>
    7ea6:	01e36333          	or	t1,t1,t5
    7eaa:	00603833          	snez	a6,t1
    7eae:	410e89b3          	sub	s3,t4,a6
    7eb2:	013eb7b3          	sltu	a5,t4,s3
    7eb6:	40f70633          	sub	a2,a4,a5
    7eba:	84c6                	mv	s1,a7
    7ebc:	8436                	mv	s0,a3
    7ebe:	b6ad                	j	7a28 <__subdf3+0xb0>
    7ec0:	01e367b3          	or	a5,t1,t5
    7ec4:	18078763          	beqz	a5,8052 <__subdf3+0x6da>
    7ec8:	fff58793          	addi	a5,a1,-1
    7ecc:	1c078c63          	beqz	a5,80a4 <__subdf3+0x72c>
    7ed0:	7ff00693          	li	a3,2047
    7ed4:	0ad58e63          	beq	a1,a3,7f90 <__subdf3+0x618>
    7ed8:	85be                	mv	a1,a5
    7eda:	bd65                	j	7d92 <__subdf3+0x41a>
    7edc:	02000793          	li	a5,32
    7ee0:	8f8d                	sub	a5,a5,a1
    7ee2:	00bed9b3          	srl	s3,t4,a1
    7ee6:	00f71833          	sll	a6,a4,a5
    7eea:	00fe9eb3          	sll	t4,t4,a5
    7eee:	01386833          	or	a6,a6,s3
    7ef2:	00b75733          	srl	a4,a4,a1
    7ef6:	01d039b3          	snez	s3,t4
    7efa:	01386833          	or	a6,a6,s3
    7efe:	933a                	add	t1,t1,a4
    7f00:	b365                	j	7ca8 <__subdf3+0x330>
    7f02:	00361813          	slli	a6,a2,0x3
    7f06:	01d71793          	slli	a5,a4,0x1d
    7f0a:	00385813          	srli	a6,a6,0x3
    7f0e:	0107e833          	or	a6,a5,a6
    7f12:	8436                	mv	s0,a3
    7f14:	00375793          	srli	a5,a4,0x3
    7f18:	bb95                	j	7c8c <__subdf3+0x314>
    7f1a:	cbbd                	beqz	a5,7f90 <__subdf3+0x618>
    7f1c:	01d76733          	or	a4,a4,t4
    7f20:	dc071be3          	bnez	a4,7cf6 <__subdf3+0x37e>
    7f24:	050e                	slli	a0,a0,0x3
    7f26:	01d31813          	slli	a6,t1,0x1d
    7f2a:	810d                	srli	a0,a0,0x3
    7f2c:	00a86833          	or	a6,a6,a0
    7f30:	00335793          	srli	a5,t1,0x3
    7f34:	bb75                	j	7cf0 <__subdf3+0x378>
    7f36:	e2080fe3          	beqz	a6,7d74 <__subdf3+0x3fc>
    7f3a:	00361813          	slli	a6,a2,0x3
    7f3e:	01d71793          	slli	a5,a4,0x1d
    7f42:	00385813          	srli	a6,a6,0x3
    7f46:	00f86833          	or	a6,a6,a5
    7f4a:	8436                	mv	s0,a3
    7f4c:	00375793          	srli	a5,a4,0x3
    7f50:	b391                	j	7c94 <__subdf3+0x31c>
    7f52:	41df09b3          	sub	s3,t5,t4
    7f56:	40e307b3          	sub	a5,t1,a4
    7f5a:	013f3f33          	sltu	t5,t5,s3
    7f5e:	41e78633          	sub	a2,a5,t5
    7f62:	4485                	li	s1,1
    7f64:	b4d1                	j	7a28 <__subdf3+0xb0>
    7f66:	00351813          	slli	a6,a0,0x3
    7f6a:	01d31693          	slli	a3,t1,0x1d
    7f6e:	00385813          	srli	a6,a6,0x3
    7f72:	0106e833          	or	a6,a3,a6
    7f76:	00335793          	srli	a5,t1,0x3
    7f7a:	bb9d                	j	7cf0 <__subdf3+0x378>
    7f7c:	41ee89b3          	sub	s3,t4,t5
    7f80:	40670633          	sub	a2,a4,t1
    7f84:	013eb933          	sltu	s2,t4,s3
    7f88:	41260933          	sub	s2,a2,s2
    7f8c:	8436                	mv	s0,a3
    7f8e:	b475                	j	7a3a <__subdf3+0xc2>
    7f90:	060e                	slli	a2,a2,0x3
    7f92:	01d71813          	slli	a6,a4,0x1d
    7f96:	820d                	srli	a2,a2,0x3
    7f98:	00c86833          	or	a6,a6,a2
    7f9c:	00375793          	srli	a5,a4,0x3
    7fa0:	bb81                	j	7cf0 <__subdf3+0x378>
    7fa2:	41df09b3          	sub	s3,t5,t4
    7fa6:	40e307b3          	sub	a5,t1,a4
    7faa:	013f3633          	sltu	a2,t5,s3
    7fae:	40c78633          	sub	a2,a5,a2
    7fb2:	00861793          	slli	a5,a2,0x8
    7fb6:	0a07d763          	bgez	a5,8064 <__subdf3+0x6ec>
    7fba:	41ee89b3          	sub	s3,t4,t5
    7fbe:	406707b3          	sub	a5,a4,t1
    7fc2:	013ebeb3          	sltu	t4,t4,s3
    7fc6:	41d78633          	sub	a2,a5,t4
    7fca:	8436                	mv	s0,a3
    7fcc:	b4c9                	j	7a8e <__subdf3+0x116>
    7fce:	01e36333          	or	t1,t1,t5
    7fd2:	00603833          	snez	a6,t1
    7fd6:	b3fd                	j	7dc4 <__subdf3+0x44c>
    7fd8:	fe058813          	addi	a6,a1,-32
    7fdc:	02000793          	li	a5,32
    7fe0:	010359b3          	srl	s3,t1,a6
    7fe4:	00f58a63          	beq	a1,a5,7ff8 <__subdf3+0x680>
    7fe8:	04000793          	li	a5,64
    7fec:	40b785b3          	sub	a1,a5,a1
    7ff0:	00b31333          	sll	t1,t1,a1
    7ff4:	006f6f33          	or	t5,t5,t1
    7ff8:	01e03833          	snez	a6,t5
    7ffc:	01386833          	or	a6,a6,s3
    8000:	b57d                	j	7eae <__subdf3+0x536>
    8002:	41ee89b3          	sub	s3,t4,t5
    8006:	406707b3          	sub	a5,a4,t1
    800a:	013ebeb3          	sltu	t4,t4,s3
    800e:	41d78633          	sub	a2,a5,t4
    8012:	8436                	mv	s0,a3
    8014:	4485                	li	s1,1
    8016:	bc09                	j	7a28 <__subdf3+0xb0>
    8018:	00361813          	slli	a6,a2,0x3
    801c:	01d71793          	slli	a5,a4,0x1d
    8020:	00385813          	srli	a6,a6,0x3
    8024:	00f86833          	or	a6,a6,a5
    8028:	00375793          	srli	a5,a4,0x3
    802c:	b1a5                	j	7c94 <__subdf3+0x31c>
    802e:	01df09b3          	add	s3,t5,t4
    8032:	00e307b3          	add	a5,t1,a4
    8036:	01e9bf33          	sltu	t5,s3,t5
    803a:	01e78633          	add	a2,a5,t5
    803e:	00861793          	slli	a5,a2,0x8
    8042:	c207d8e3          	bgez	a5,7c72 <__subdf3+0x2fa>
    8046:	ff8007b7          	lui	a5,0xff800
    804a:	17fd                	addi	a5,a5,-1
    804c:	8e7d                	and	a2,a2,a5
    804e:	4485                	li	s1,1
    8050:	b10d                	j	7c72 <__subdf3+0x2fa>
    8052:	060e                	slli	a2,a2,0x3
    8054:	01d71813          	slli	a6,a4,0x1d
    8058:	820d                	srli	a2,a2,0x3
    805a:	00c86833          	or	a6,a6,a2
    805e:	00375793          	srli	a5,a4,0x3
    8062:	b12d                	j	7c8c <__subdf3+0x314>
    8064:	00c9e833          	or	a6,s3,a2
    8068:	d00806e3          	beqz	a6,7d74 <__subdf3+0x3fc>
    806c:	b119                	j	7c72 <__subdf3+0x2fa>
    806e:	fe058813          	addi	a6,a1,-32
    8072:	02000793          	li	a5,32
    8076:	010359b3          	srl	s3,t1,a6
    807a:	00f58a63          	beq	a1,a5,808e <__subdf3+0x716>
    807e:	04000793          	li	a5,64
    8082:	40b785b3          	sub	a1,a5,a1
    8086:	00b31333          	sll	t1,t1,a1
    808a:	006f6f33          	or	t5,t5,t1
    808e:	01e03833          	snez	a6,t5
    8092:	01386833          	or	a6,a6,s3
    8096:	b33d                	j	7dc4 <__subdf3+0x44c>
    8098:	4401                	li	s0,0
    809a:	7ff00713          	li	a4,2047
    809e:	000807b7          	lui	a5,0x80
    80a2:	bc2d                	j	7adc <__subdf3+0x164>
    80a4:	01df09b3          	add	s3,t5,t4
    80a8:	00e307b3          	add	a5,t1,a4
    80ac:	01d9beb3          	sltu	t4,s3,t4
    80b0:	01d78633          	add	a2,a5,t4
    80b4:	bb69                	j	7e4e <__subdf3+0x4d6>

000080b6 <__unorddf2>:
    80b6:	0145d713          	srli	a4,a1,0x14
    80ba:	001007b7          	lui	a5,0x100
    80be:	17fd                	addi	a5,a5,-1
    80c0:	fff74713          	not	a4,a4
    80c4:	0146d813          	srli	a6,a3,0x14
    80c8:	8dfd                	and	a1,a1,a5
    80ca:	8ff5                	and	a5,a5,a3
    80cc:	01571693          	slli	a3,a4,0x15
    80d0:	7ff87813          	andi	a6,a6,2047
    80d4:	ca99                	beqz	a3,80ea <__unorddf2+0x34>
    80d6:	7ff00713          	li	a4,2047
    80da:	4501                	li	a0,0
    80dc:	00e80363          	beq	a6,a4,80e2 <__unorddf2+0x2c>
    80e0:	8082                	ret
    80e2:	8fd1                	or	a5,a5,a2
    80e4:	00f03533          	snez	a0,a5
    80e8:	8082                	ret
    80ea:	8dc9                	or	a1,a1,a0
    80ec:	4505                	li	a0,1
    80ee:	d5e5                	beqz	a1,80d6 <__unorddf2+0x20>
    80f0:	8082                	ret

000080f2 <__fixdfsi>:
    80f2:	0145d793          	srli	a5,a1,0x14
    80f6:	001006b7          	lui	a3,0x100
    80fa:	fff68713          	addi	a4,a3,-1 # fffff <_data_lma+0xf516b>
    80fe:	7ff7f793          	andi	a5,a5,2047
    8102:	3fe00613          	li	a2,1022
    8106:	8f6d                	and	a4,a4,a1
    8108:	81fd                	srli	a1,a1,0x1f
    810a:	00f65c63          	bge	a2,a5,8122 <__fixdfsi+0x30>
    810e:	41d00613          	li	a2,1053
    8112:	00f65a63          	bge	a2,a5,8126 <__fixdfsi+0x34>
    8116:	80000537          	lui	a0,0x80000
    811a:	fff54513          	not	a0,a0
    811e:	952e                	add	a0,a0,a1
    8120:	8082                	ret
    8122:	4501                	li	a0,0
    8124:	8082                	ret
    8126:	43300613          	li	a2,1075
    812a:	8e1d                	sub	a2,a2,a5
    812c:	487d                	li	a6,31
    812e:	8f55                	or	a4,a4,a3
    8130:	00c85d63          	bge	a6,a2,814a <__fixdfsi+0x58>
    8134:	41300693          	li	a3,1043
    8138:	40f687b3          	sub	a5,a3,a5
    813c:	00f757b3          	srl	a5,a4,a5
    8140:	40f00533          	neg	a0,a5
    8144:	f1e5                	bnez	a1,8124 <__fixdfsi+0x32>
    8146:	853e                	mv	a0,a5
    8148:	8082                	ret
    814a:	bed78793          	addi	a5,a5,-1043 # ffbed <_data_lma+0xf4d59>
    814e:	00f717b3          	sll	a5,a4,a5
    8152:	00c55533          	srl	a0,a0,a2
    8156:	8fc9                	or	a5,a5,a0
    8158:	b7e5                	j	8140 <__fixdfsi+0x4e>

0000815a <__floatsidf>:
    815a:	1141                	addi	sp,sp,-16
    815c:	c606                	sw	ra,12(sp)
    815e:	c422                	sw	s0,8(sp)
    8160:	c226                	sw	s1,4(sp)
    8162:	cd0d                	beqz	a0,819c <__floatsidf+0x42>
    8164:	41f55793          	srai	a5,a0,0x1f
    8168:	00a7c4b3          	xor	s1,a5,a0
    816c:	8c9d                	sub	s1,s1,a5
    816e:	842a                	mv	s0,a0
    8170:	8526                	mv	a0,s1
    8172:	0b0010ef          	jal	ra,9222 <__clzsi2>
    8176:	41e00693          	li	a3,1054
    817a:	8e89                	sub	a3,a3,a0
    817c:	47a9                	li	a5,10
    817e:	807d                	srli	s0,s0,0x1f
    8180:	7ff6f693          	andi	a3,a3,2047
    8184:	02a7cd63          	blt	a5,a0,81be <__floatsidf+0x64>
    8188:	472d                	li	a4,11
    818a:	8f09                	sub	a4,a4,a0
    818c:	00e4d7b3          	srl	a5,s1,a4
    8190:	0555                	addi	a0,a0,21
    8192:	07b2                	slli	a5,a5,0xc
    8194:	00a494b3          	sll	s1,s1,a0
    8198:	83b1                	srli	a5,a5,0xc
    819a:	a029                	j	81a4 <__floatsidf+0x4a>
    819c:	4401                	li	s0,0
    819e:	4681                	li	a3,0
    81a0:	4781                	li	a5,0
    81a2:	4481                	li	s1,0
    81a4:	07b2                	slli	a5,a5,0xc
    81a6:	06d2                	slli	a3,a3,0x14
    81a8:	83b1                	srli	a5,a5,0xc
    81aa:	047e                	slli	s0,s0,0x1f
    81ac:	8fd5                	or	a5,a5,a3
    81ae:	8fc1                	or	a5,a5,s0
    81b0:	40b2                	lw	ra,12(sp)
    81b2:	4422                	lw	s0,8(sp)
    81b4:	8526                	mv	a0,s1
    81b6:	85be                	mv	a1,a5
    81b8:	4492                	lw	s1,4(sp)
    81ba:	0141                	addi	sp,sp,16
    81bc:	8082                	ret
    81be:	1555                	addi	a0,a0,-11
    81c0:	00a497b3          	sll	a5,s1,a0
    81c4:	07b2                	slli	a5,a5,0xc
    81c6:	83b1                	srli	a5,a5,0xc
    81c8:	4481                	li	s1,0
    81ca:	bfe9                	j	81a4 <__floatsidf+0x4a>

000081cc <__addsf3>:
    81cc:	1141                	addi	sp,sp,-16
    81ce:	00800737          	lui	a4,0x800
    81d2:	177d                	addi	a4,a4,-1
    81d4:	0175d813          	srli	a6,a1,0x17
    81d8:	c226                	sw	s1,4(sp)
    81da:	01755493          	srli	s1,a0,0x17
    81de:	00a77333          	and	t1,a4,a0
    81e2:	0ff4f493          	andi	s1,s1,255
    81e6:	00b776b3          	and	a3,a4,a1
    81ea:	c04a                	sw	s2,0(sp)
    81ec:	0ff87813          	andi	a6,a6,255
    81f0:	01f55913          	srli	s2,a0,0x1f
    81f4:	c606                	sw	ra,12(sp)
    81f6:	c422                	sw	s0,8(sp)
    81f8:	81fd                	srli	a1,a1,0x1f
    81fa:	879a                	mv	a5,t1
    81fc:	8526                	mv	a0,s1
    81fe:	864a                	mv	a2,s2
    8200:	00331e13          	slli	t3,t1,0x3
    8204:	00369e93          	slli	t4,a3,0x3
    8208:	410488b3          	sub	a7,s1,a6
    820c:	0eb90a63          	beq	s2,a1,8300 <__addsf3+0x134>
    8210:	0d105063          	blez	a7,82d0 <__addsf3+0x104>
    8214:	14080463          	beqz	a6,835c <__addsf3+0x190>
    8218:	0ff00793          	li	a5,255
    821c:	14f48b63          	beq	s1,a5,8372 <__addsf3+0x1a6>
    8220:	040007b7          	lui	a5,0x4000
    8224:	00feeeb3          	or	t4,t4,a5
    8228:	47ed                	li	a5,27
    822a:	2917c163          	blt	a5,a7,84ac <__addsf3+0x2e0>
    822e:	02000793          	li	a5,32
    8232:	411787b3          	sub	a5,a5,a7
    8236:	00fe97b3          	sll	a5,t4,a5
    823a:	011ed8b3          	srl	a7,t4,a7
    823e:	00f037b3          	snez	a5,a5
    8242:	00f8e7b3          	or	a5,a7,a5
    8246:	40fe07b3          	sub	a5,t3,a5
    824a:	00579713          	slli	a4,a5,0x5
    824e:	18075e63          	bgez	a4,83ea <__addsf3+0x21e>
    8252:	04000437          	lui	s0,0x4000
    8256:	147d                	addi	s0,s0,-1
    8258:	8c7d                	and	s0,s0,a5
    825a:	8522                	mv	a0,s0
    825c:	7c7000ef          	jal	ra,9222 <__clzsi2>
    8260:	156d                	addi	a0,a0,-5
    8262:	00a417b3          	sll	a5,s0,a0
    8266:	1a954863          	blt	a0,s1,8416 <__addsf3+0x24a>
    826a:	8d05                	sub	a0,a0,s1
    826c:	00150413          	addi	s0,a0,1 # 80000001 <__freertos_irq_stack_top+0x5fffb001>
    8270:	02000713          	li	a4,32
    8274:	8f01                	sub	a4,a4,s0
    8276:	00e79733          	sll	a4,a5,a4
    827a:	00e03733          	snez	a4,a4
    827e:	0087d7b3          	srl	a5,a5,s0
    8282:	8fd9                	or	a5,a5,a4
    8284:	4481                	li	s1,0
    8286:	0077f713          	andi	a4,a5,7
    828a:	c719                	beqz	a4,8298 <__addsf3+0xcc>
    828c:	00f7f713          	andi	a4,a5,15
    8290:	4691                	li	a3,4
    8292:	00d70363          	beq	a4,a3,8298 <__addsf3+0xcc>
    8296:	0791                	addi	a5,a5,4
    8298:	00579713          	slli	a4,a5,0x5
    829c:	14075b63          	bgez	a4,83f2 <__addsf3+0x226>
    82a0:	0485                	addi	s1,s1,1
    82a2:	0ff00713          	li	a4,255
    82a6:	864a                	mv	a2,s2
    82a8:	16e48363          	beq	s1,a4,840e <__addsf3+0x242>
    82ac:	079a                	slli	a5,a5,0x6
    82ae:	83a5                	srli	a5,a5,0x9
    82b0:	0ff4f513          	andi	a0,s1,255
    82b4:	40b2                	lw	ra,12(sp)
    82b6:	4422                	lw	s0,8(sp)
    82b8:	07a6                	slli	a5,a5,0x9
    82ba:	01751493          	slli	s1,a0,0x17
    82be:	0097d513          	srli	a0,a5,0x9
    82c2:	8d45                	or	a0,a0,s1
    82c4:	067e                	slli	a2,a2,0x1f
    82c6:	4492                	lw	s1,4(sp)
    82c8:	4902                	lw	s2,0(sp)
    82ca:	8d51                	or	a0,a0,a2
    82cc:	0141                	addi	sp,sp,16
    82ce:	8082                	ret
    82d0:	0a089963          	bnez	a7,8382 <__addsf3+0x1b6>
    82d4:	00148713          	addi	a4,s1,1
    82d8:	0fe77713          	andi	a4,a4,254
    82dc:	14071763          	bnez	a4,842a <__addsf3+0x25e>
    82e0:	22049063          	bnez	s1,8500 <__addsf3+0x334>
    82e4:	1e0e0d63          	beqz	t3,84de <__addsf3+0x312>
    82e8:	fc0e86e3          	beqz	t4,82b4 <__addsf3+0xe8>
    82ec:	41de07b3          	sub	a5,t3,t4
    82f0:	00579713          	slli	a4,a5,0x5
    82f4:	22075063          	bgez	a4,8514 <__addsf3+0x348>
    82f8:	41ce87b3          	sub	a5,t4,t3
    82fc:	892e                	mv	s2,a1
    82fe:	b761                	j	8286 <__addsf3+0xba>
    8300:	0b105c63          	blez	a7,83b8 <__addsf3+0x1ec>
    8304:	08080e63          	beqz	a6,83a0 <__addsf3+0x1d4>
    8308:	0ff00793          	li	a5,255
    830c:	06f48363          	beq	s1,a5,8372 <__addsf3+0x1a6>
    8310:	040007b7          	lui	a5,0x4000
    8314:	00feeeb3          	or	t4,t4,a5
    8318:	47ed                	li	a5,27
    831a:	1f17c963          	blt	a5,a7,850c <__addsf3+0x340>
    831e:	02000793          	li	a5,32
    8322:	411787b3          	sub	a5,a5,a7
    8326:	00fe97b3          	sll	a5,t4,a5
    832a:	011ed8b3          	srl	a7,t4,a7
    832e:	00f037b3          	snez	a5,a5
    8332:	00f8e7b3          	or	a5,a7,a5
    8336:	97f2                	add	a5,a5,t3
    8338:	00579713          	slli	a4,a5,0x5
    833c:	0a075763          	bgez	a4,83ea <__addsf3+0x21e>
    8340:	0485                	addi	s1,s1,1
    8342:	0ff00713          	li	a4,255
    8346:	0ce48463          	beq	s1,a4,840e <__addsf3+0x242>
    834a:	7e0006b7          	lui	a3,0x7e000
    834e:	0017d713          	srli	a4,a5,0x1
    8352:	16fd                	addi	a3,a3,-1
    8354:	8b85                	andi	a5,a5,1
    8356:	8f75                	and	a4,a4,a3
    8358:	8fd9                	or	a5,a5,a4
    835a:	b735                	j	8286 <__addsf3+0xba>
    835c:	080e8d63          	beqz	t4,83f6 <__addsf3+0x22a>
    8360:	18fd                	addi	a7,a7,-1
    8362:	41de07b3          	sub	a5,t3,t4
    8366:	ee0882e3          	beqz	a7,824a <__addsf3+0x7e>
    836a:	0ff00793          	li	a5,255
    836e:	eaf49de3          	bne	s1,a5,8228 <__addsf3+0x5c>
    8372:	08030d63          	beqz	t1,840c <__addsf3+0x240>
    8376:	4601                	li	a2,0
    8378:	0ff00513          	li	a0,255
    837c:	004007b7          	lui	a5,0x400
    8380:	bf15                	j	82b4 <__addsf3+0xe8>
    8382:	40980733          	sub	a4,a6,s1
    8386:	e8ed                	bnez	s1,8478 <__addsf3+0x2ac>
    8388:	140e0263          	beqz	t3,84cc <__addsf3+0x300>
    838c:	177d                	addi	a4,a4,-1
    838e:	18070863          	beqz	a4,851e <__addsf3+0x352>
    8392:	0ff00793          	li	a5,255
    8396:	0ef81963          	bne	a6,a5,8488 <__addsf3+0x2bc>
    839a:	892e                	mv	s2,a1
    839c:	8336                	mv	t1,a3
    839e:	bfd1                	j	8372 <__addsf3+0x1a6>
    83a0:	040e8b63          	beqz	t4,83f6 <__addsf3+0x22a>
    83a4:	18fd                	addi	a7,a7,-1
    83a6:	01de07b3          	add	a5,t3,t4
    83aa:	f80887e3          	beqz	a7,8338 <__addsf3+0x16c>
    83ae:	0ff00793          	li	a5,255
    83b2:	f6f493e3          	bne	s1,a5,8318 <__addsf3+0x14c>
    83b6:	bf75                	j	8372 <__addsf3+0x1a6>
    83b8:	08089563          	bnez	a7,8442 <__addsf3+0x276>
    83bc:	0485                	addi	s1,s1,1
    83be:	0fe4f713          	andi	a4,s1,254
    83c2:	12071363          	bnez	a4,84e8 <__addsf3+0x31c>
    83c6:	10051763          	bnez	a0,84d4 <__addsf3+0x308>
    83ca:	140e0f63          	beqz	t3,8528 <__addsf3+0x35c>
    83ce:	ee0e83e3          	beqz	t4,82b4 <__addsf3+0xe8>
    83d2:	01de07b3          	add	a5,t3,t4
    83d6:	00579713          	slli	a4,a5,0x5
    83da:	4481                	li	s1,0
    83dc:	00075763          	bgez	a4,83ea <__addsf3+0x21e>
    83e0:	fc000737          	lui	a4,0xfc000
    83e4:	177d                	addi	a4,a4,-1
    83e6:	8ff9                	and	a5,a5,a4
    83e8:	4485                	li	s1,1
    83ea:	0077f713          	andi	a4,a5,7
    83ee:	e8071fe3          	bnez	a4,828c <__addsf3+0xc0>
    83f2:	0037d313          	srli	t1,a5,0x3
    83f6:	0ff00793          	li	a5,255
    83fa:	f6f48ce3          	beq	s1,a5,8372 <__addsf3+0x1a6>
    83fe:	00931793          	slli	a5,t1,0x9
    8402:	83a5                	srli	a5,a5,0x9
    8404:	0ff4f513          	andi	a0,s1,255
    8408:	864a                	mv	a2,s2
    840a:	b56d                	j	82b4 <__addsf3+0xe8>
    840c:	864a                	mv	a2,s2
    840e:	0ff00513          	li	a0,255
    8412:	4781                	li	a5,0
    8414:	b545                	j	82b4 <__addsf3+0xe8>
    8416:	fc000737          	lui	a4,0xfc000
    841a:	177d                	addi	a4,a4,-1
    841c:	8ff9                	and	a5,a5,a4
    841e:	0077f713          	andi	a4,a5,7
    8422:	8c89                	sub	s1,s1,a0
    8424:	e60714e3          	bnez	a4,828c <__addsf3+0xc0>
    8428:	b7e9                	j	83f2 <__addsf3+0x226>
    842a:	41de0433          	sub	s0,t3,t4
    842e:	00541793          	slli	a5,s0,0x5
    8432:	0c07c363          	bltz	a5,84f8 <__addsf3+0x32c>
    8436:	e20412e3          	bnez	s0,825a <__addsf3+0x8e>
    843a:	4601                	li	a2,0
    843c:	4501                	li	a0,0
    843e:	4781                	li	a5,0
    8440:	bd95                	j	82b4 <__addsf3+0xe8>
    8442:	40980733          	sub	a4,a6,s1
    8446:	c4ad                	beqz	s1,84b0 <__addsf3+0x2e4>
    8448:	0ff00793          	li	a5,255
    844c:	f4f808e3          	beq	a6,a5,839c <__addsf3+0x1d0>
    8450:	040007b7          	lui	a5,0x4000
    8454:	00fe6e33          	or	t3,t3,a5
    8458:	47ed                	li	a5,27
    845a:	0ce7cc63          	blt	a5,a4,8532 <__addsf3+0x366>
    845e:	02000793          	li	a5,32
    8462:	8f99                	sub	a5,a5,a4
    8464:	00fe17b3          	sll	a5,t3,a5
    8468:	00ee5733          	srl	a4,t3,a4
    846c:	00f037b3          	snez	a5,a5
    8470:	8fd9                	or	a5,a5,a4
    8472:	97f6                	add	a5,a5,t4
    8474:	84c2                	mv	s1,a6
    8476:	b5c9                	j	8338 <__addsf3+0x16c>
    8478:	0ff00793          	li	a5,255
    847c:	f0f80fe3          	beq	a6,a5,839a <__addsf3+0x1ce>
    8480:	040007b7          	lui	a5,0x4000
    8484:	00fe6e33          	or	t3,t3,a5
    8488:	47ed                	li	a5,27
    848a:	08e7c363          	blt	a5,a4,8510 <__addsf3+0x344>
    848e:	02000693          	li	a3,32
    8492:	8e99                	sub	a3,a3,a4
    8494:	00de16b3          	sll	a3,t3,a3
    8498:	00ee57b3          	srl	a5,t3,a4
    849c:	00d03733          	snez	a4,a3
    84a0:	8fd9                	or	a5,a5,a4
    84a2:	40fe87b3          	sub	a5,t4,a5
    84a6:	84c2                	mv	s1,a6
    84a8:	892e                	mv	s2,a1
    84aa:	b345                	j	824a <__addsf3+0x7e>
    84ac:	4785                	li	a5,1
    84ae:	bb61                	j	8246 <__addsf3+0x7a>
    84b0:	060e0e63          	beqz	t3,852c <__addsf3+0x360>
    84b4:	177d                	addi	a4,a4,-1
    84b6:	01de07b3          	add	a5,t3,t4
    84ba:	84c2                	mv	s1,a6
    84bc:	e6070ee3          	beqz	a4,8338 <__addsf3+0x16c>
    84c0:	0ff00793          	li	a5,255
    84c4:	f8f81ae3          	bne	a6,a5,8458 <__addsf3+0x28c>
    84c8:	8336                	mv	t1,a3
    84ca:	b565                	j	8372 <__addsf3+0x1a6>
    84cc:	8336                	mv	t1,a3
    84ce:	84c2                	mv	s1,a6
    84d0:	892e                	mv	s2,a1
    84d2:	b715                	j	83f6 <__addsf3+0x22a>
    84d4:	ec0e04e3          	beqz	t3,839c <__addsf3+0x1d0>
    84d8:	e80e8de3          	beqz	t4,8372 <__addsf3+0x1a6>
    84dc:	bd69                	j	8376 <__addsf3+0x1aa>
    84de:	020e8d63          	beqz	t4,8518 <__addsf3+0x34c>
    84e2:	862e                	mv	a2,a1
    84e4:	87b6                	mv	a5,a3
    84e6:	b3f9                	j	82b4 <__addsf3+0xe8>
    84e8:	0ff00793          	li	a5,255
    84ec:	f2f481e3          	beq	s1,a5,840e <__addsf3+0x242>
    84f0:	01de07b3          	add	a5,t3,t4
    84f4:	8385                	srli	a5,a5,0x1
    84f6:	bdd5                	j	83ea <__addsf3+0x21e>
    84f8:	41ce8433          	sub	s0,t4,t3
    84fc:	892e                	mv	s2,a1
    84fe:	bbb1                	j	825a <__addsf3+0x8e>
    8500:	fc0e1ce3          	bnez	t3,84d8 <__addsf3+0x30c>
    8504:	e60e89e3          	beqz	t4,8376 <__addsf3+0x1aa>
    8508:	892e                	mv	s2,a1
    850a:	bd49                	j	839c <__addsf3+0x1d0>
    850c:	4785                	li	a5,1
    850e:	b525                	j	8336 <__addsf3+0x16a>
    8510:	4785                	li	a5,1
    8512:	bf41                	j	84a2 <__addsf3+0x2d6>
    8514:	ec079be3          	bnez	a5,83ea <__addsf3+0x21e>
    8518:	4601                	li	a2,0
    851a:	4781                	li	a5,0
    851c:	bb61                	j	82b4 <__addsf3+0xe8>
    851e:	41ce87b3          	sub	a5,t4,t3
    8522:	84c2                	mv	s1,a6
    8524:	892e                	mv	s2,a1
    8526:	b315                	j	824a <__addsf3+0x7e>
    8528:	87b6                	mv	a5,a3
    852a:	b369                	j	82b4 <__addsf3+0xe8>
    852c:	8336                	mv	t1,a3
    852e:	84c2                	mv	s1,a6
    8530:	b5d9                	j	83f6 <__addsf3+0x22a>
    8532:	4785                	li	a5,1
    8534:	bf3d                	j	8472 <__addsf3+0x2a6>

00008536 <__divsf3>:
    8536:	7139                	addi	sp,sp,-64
    8538:	01755793          	srli	a5,a0,0x17
    853c:	d84a                	sw	s2,48(sp)
    853e:	d256                	sw	s5,36(sp)
    8540:	ce5e                	sw	s7,28(sp)
    8542:	00951a93          	slli	s5,a0,0x9
    8546:	01f55913          	srli	s2,a0,0x1f
    854a:	de06                	sw	ra,60(sp)
    854c:	dc22                	sw	s0,56(sp)
    854e:	da26                	sw	s1,52(sp)
    8550:	d64e                	sw	s3,44(sp)
    8552:	d452                	sw	s4,40(sp)
    8554:	d05a                	sw	s6,32(sp)
    8556:	0ff7f793          	andi	a5,a5,255
    855a:	009ada93          	srli	s5,s5,0x9
    855e:	8bca                	mv	s7,s2
    8560:	12078263          	beqz	a5,8684 <__divsf3+0x14e>
    8564:	0ff00713          	li	a4,255
    8568:	12e78463          	beq	a5,a4,8690 <__divsf3+0x15a>
    856c:	0a8e                	slli	s5,s5,0x3
    856e:	04000737          	lui	a4,0x4000
    8572:	00eaeab3          	or	s5,s5,a4
    8576:	f8178a13          	addi	s4,a5,-127 # 3ffff81 <_data_lma+0x3ff50ed>
    857a:	4401                	li	s0,0
    857c:	4b01                	li	s6,0
    857e:	0175d793          	srli	a5,a1,0x17
    8582:	00959493          	slli	s1,a1,0x9
    8586:	0ff7f793          	andi	a5,a5,255
    858a:	80a5                	srli	s1,s1,0x9
    858c:	01f5d993          	srli	s3,a1,0x1f
    8590:	c7fd                	beqz	a5,867e <__divsf3+0x148>
    8592:	0ff00713          	li	a4,255
    8596:	02e78763          	beq	a5,a4,85c4 <__divsf3+0x8e>
    859a:	048e                	slli	s1,s1,0x3
    859c:	f8178793          	addi	a5,a5,-127
    85a0:	04000737          	lui	a4,0x4000
    85a4:	8cd9                	or	s1,s1,a4
    85a6:	40fa0a33          	sub	s4,s4,a5
    85aa:	4681                	li	a3,0
    85ac:	8c55                	or	s0,s0,a3
    85ae:	00002717          	auipc	a4,0x2
    85b2:	68a70713          	addi	a4,a4,1674 # ac38 <init_jk+0xd8>
    85b6:	040a                	slli	s0,s0,0x2
    85b8:	943a                	add	s0,s0,a4
    85ba:	401c                	lw	a5,0(s0)
    85bc:	01394933          	xor	s2,s2,s3
    85c0:	97ba                	add	a5,a5,a4
    85c2:	8782                	jr	a5
    85c4:	f01a0a13          	addi	s4,s4,-255
    85c8:	e8f9                	bnez	s1,869e <__divsf3+0x168>
    85ca:	4689                	li	a3,2
    85cc:	8c55                	or	s0,s0,a3
    85ce:	00002717          	auipc	a4,0x2
    85d2:	6aa70713          	addi	a4,a4,1706 # ac78 <init_jk+0x118>
    85d6:	040a                	slli	s0,s0,0x2
    85d8:	943a                	add	s0,s0,a4
    85da:	401c                	lw	a5,0(s0)
    85dc:	01394933          	xor	s2,s2,s3
    85e0:	97ba                	add	a5,a5,a4
    85e2:	8782                	jr	a5
    85e4:	4901                	li	s2,0
    85e6:	0ff00713          	li	a4,255
    85ea:	004007b7          	lui	a5,0x400
    85ee:	00979513          	slli	a0,a5,0x9
    85f2:	50f2                	lw	ra,60(sp)
    85f4:	5462                	lw	s0,56(sp)
    85f6:	01771793          	slli	a5,a4,0x17
    85fa:	8125                	srli	a0,a0,0x9
    85fc:	097e                	slli	s2,s2,0x1f
    85fe:	8d5d                	or	a0,a0,a5
    8600:	01256533          	or	a0,a0,s2
    8604:	54d2                	lw	s1,52(sp)
    8606:	5942                	lw	s2,48(sp)
    8608:	59b2                	lw	s3,44(sp)
    860a:	5a22                	lw	s4,40(sp)
    860c:	5a92                	lw	s5,36(sp)
    860e:	5b02                	lw	s6,32(sp)
    8610:	4bf2                	lw	s7,28(sp)
    8612:	6121                	addi	sp,sp,64
    8614:	8082                	ret
    8616:	0ff00713          	li	a4,255
    861a:	4781                	li	a5,0
    861c:	bfc9                	j	85ee <__divsf3+0xb8>
    861e:	8aa6                	mv	s5,s1
    8620:	8bce                	mv	s7,s3
    8622:	8b36                	mv	s6,a3
    8624:	4789                	li	a5,2
    8626:	1afb0b63          	beq	s6,a5,87dc <__divsf3+0x2a6>
    862a:	478d                	li	a5,3
    862c:	fafb0ce3          	beq	s6,a5,85e4 <__divsf3+0xae>
    8630:	4785                	li	a5,1
    8632:	0afb0a63          	beq	s6,a5,86e6 <__divsf3+0x1b0>
    8636:	07fa0713          	addi	a4,s4,127
    863a:	001bf913          	andi	s2,s7,1
    863e:	12e05763          	blez	a4,876c <__divsf3+0x236>
    8642:	007af793          	andi	a5,s5,7
    8646:	c799                	beqz	a5,8654 <__divsf3+0x11e>
    8648:	00faf793          	andi	a5,s5,15
    864c:	4691                	li	a3,4
    864e:	00d78363          	beq	a5,a3,8654 <__divsf3+0x11e>
    8652:	0a91                	addi	s5,s5,4
    8654:	004a9793          	slli	a5,s5,0x4
    8658:	0007d963          	bgez	a5,866a <__divsf3+0x134>
    865c:	f80007b7          	lui	a5,0xf8000
    8660:	17fd                	addi	a5,a5,-1
    8662:	00fafab3          	and	s5,s5,a5
    8666:	080a0713          	addi	a4,s4,128
    866a:	0fe00793          	li	a5,254
    866e:	fae7c4e3          	blt	a5,a4,8616 <__divsf3+0xe0>
    8672:	006a9793          	slli	a5,s5,0x6
    8676:	83a5                	srli	a5,a5,0x9
    8678:	0ff77713          	andi	a4,a4,255
    867c:	bf8d                	j	85ee <__divsf3+0xb8>
    867e:	e4b9                	bnez	s1,86cc <__divsf3+0x196>
    8680:	4685                	li	a3,1
    8682:	b7a9                	j	85cc <__divsf3+0x96>
    8684:	020a9463          	bnez	s5,86ac <__divsf3+0x176>
    8688:	4411                	li	s0,4
    868a:	4a01                	li	s4,0
    868c:	4b05                	li	s6,1
    868e:	bdc5                	j	857e <__divsf3+0x48>
    8690:	000a9963          	bnez	s5,86a2 <__divsf3+0x16c>
    8694:	4421                	li	s0,8
    8696:	0ff00a13          	li	s4,255
    869a:	4b09                	li	s6,2
    869c:	b5cd                	j	857e <__divsf3+0x48>
    869e:	468d                	li	a3,3
    86a0:	b731                	j	85ac <__divsf3+0x76>
    86a2:	4431                	li	s0,12
    86a4:	0ff00a13          	li	s4,255
    86a8:	4b0d                	li	s6,3
    86aa:	bdd1                	j	857e <__divsf3+0x48>
    86ac:	8556                	mv	a0,s5
    86ae:	c62e                	sw	a1,12(sp)
    86b0:	373000ef          	jal	ra,9222 <__clzsi2>
    86b4:	ffb50793          	addi	a5,a0,-5
    86b8:	00fa9ab3          	sll	s5,s5,a5
    86bc:	f8a00793          	li	a5,-118
    86c0:	40a78a33          	sub	s4,a5,a0
    86c4:	4401                	li	s0,0
    86c6:	4b01                	li	s6,0
    86c8:	45b2                	lw	a1,12(sp)
    86ca:	bd55                	j	857e <__divsf3+0x48>
    86cc:	8526                	mv	a0,s1
    86ce:	355000ef          	jal	ra,9222 <__clzsi2>
    86d2:	ffb50713          	addi	a4,a0,-5
    86d6:	00aa07b3          	add	a5,s4,a0
    86da:	00e494b3          	sll	s1,s1,a4
    86de:	07678a13          	addi	s4,a5,118 # f8000076 <__freertos_irq_stack_top+0xd7ffb076>
    86e2:	4681                	li	a3,0
    86e4:	b5e1                	j	85ac <__divsf3+0x76>
    86e6:	001bf913          	andi	s2,s7,1
    86ea:	4701                	li	a4,0
    86ec:	4781                	li	a5,0
    86ee:	b701                	j	85ee <__divsf3+0xb8>
    86f0:	6641                	lui	a2,0x10
    86f2:	00549513          	slli	a0,s1,0x5
    86f6:	167d                	addi	a2,a2,-1
    86f8:	01055793          	srli	a5,a0,0x10
    86fc:	8e69                	and	a2,a2,a0
    86fe:	0a9afa63          	bgeu	s5,s1,87b2 <__divsf3+0x27c>
    8702:	02fad5b3          	divu	a1,s5,a5
    8706:	1a7d                	addi	s4,s4,-1
    8708:	86d6                	mv	a3,s5
    870a:	4701                	li	a4,0
    870c:	02c58833          	mul	a6,a1,a2
    8710:	02f6f6b3          	remu	a3,a3,a5
    8714:	06c2                	slli	a3,a3,0x10
    8716:	8f55                	or	a4,a4,a3
    8718:	01077b63          	bgeu	a4,a6,872e <__divsf3+0x1f8>
    871c:	972a                	add	a4,a4,a0
    871e:	fff58693          	addi	a3,a1,-1
    8722:	0aa76863          	bltu	a4,a0,87d2 <__divsf3+0x29c>
    8726:	0b077663          	bgeu	a4,a6,87d2 <__divsf3+0x29c>
    872a:	15f9                	addi	a1,a1,-2
    872c:	972a                	add	a4,a4,a0
    872e:	41070733          	sub	a4,a4,a6
    8732:	02f756b3          	divu	a3,a4,a5
    8736:	02f77733          	remu	a4,a4,a5
    873a:	02c68ab3          	mul	s5,a3,a2
    873e:	01071793          	slli	a5,a4,0x10
    8742:	0157fb63          	bgeu	a5,s5,8758 <__divsf3+0x222>
    8746:	97aa                	add	a5,a5,a0
    8748:	fff68713          	addi	a4,a3,-1 # 7dffffff <__freertos_irq_stack_top+0x5dffafff>
    874c:	08a7e163          	bltu	a5,a0,87ce <__divsf3+0x298>
    8750:	0757ff63          	bgeu	a5,s5,87ce <__divsf3+0x298>
    8754:	16f9                	addi	a3,a3,-2
    8756:	97aa                	add	a5,a5,a0
    8758:	05c2                	slli	a1,a1,0x10
    875a:	41578ab3          	sub	s5,a5,s5
    875e:	8dd5                	or	a1,a1,a3
    8760:	01503ab3          	snez	s5,s5
    8764:	0155eab3          	or	s5,a1,s5
    8768:	8bca                	mv	s7,s2
    876a:	b5f1                	j	8636 <__divsf3+0x100>
    876c:	4685                	li	a3,1
    876e:	8e99                	sub	a3,a3,a4
    8770:	c711                	beqz	a4,877c <__divsf3+0x246>
    8772:	466d                	li	a2,27
    8774:	4701                	li	a4,0
    8776:	4781                	li	a5,0
    8778:	e6d64be3          	blt	a2,a3,85ee <__divsf3+0xb8>
    877c:	09ea0a13          	addi	s4,s4,158
    8780:	014a9a33          	sll	s4,s5,s4
    8784:	00dad7b3          	srl	a5,s5,a3
    8788:	01403ab3          	snez	s5,s4
    878c:	0157e7b3          	or	a5,a5,s5
    8790:	0077f713          	andi	a4,a5,7
    8794:	c719                	beqz	a4,87a2 <__divsf3+0x26c>
    8796:	00f7f713          	andi	a4,a5,15
    879a:	4691                	li	a3,4
    879c:	00d70363          	beq	a4,a3,87a2 <__divsf3+0x26c>
    87a0:	0791                	addi	a5,a5,4
    87a2:	00579713          	slli	a4,a5,0x5
    87a6:	02074863          	bltz	a4,87d6 <__divsf3+0x2a0>
    87aa:	079a                	slli	a5,a5,0x6
    87ac:	83a5                	srli	a5,a5,0x9
    87ae:	4701                	li	a4,0
    87b0:	bd3d                	j	85ee <__divsf3+0xb8>
    87b2:	001ad693          	srli	a3,s5,0x1
    87b6:	02f6d5b3          	divu	a1,a3,a5
    87ba:	01fa9713          	slli	a4,s5,0x1f
    87be:	8341                	srli	a4,a4,0x10
    87c0:	02c58833          	mul	a6,a1,a2
    87c4:	b7b1                	j	8710 <__divsf3+0x1da>
    87c6:	8bce                	mv	s7,s3
    87c8:	8b36                	mv	s6,a3
    87ca:	4a81                	li	s5,0
    87cc:	bda1                	j	8624 <__divsf3+0xee>
    87ce:	86ba                	mv	a3,a4
    87d0:	b761                	j	8758 <__divsf3+0x222>
    87d2:	85b6                	mv	a1,a3
    87d4:	bfa9                	j	872e <__divsf3+0x1f8>
    87d6:	4705                	li	a4,1
    87d8:	4781                	li	a5,0
    87da:	bd11                	j	85ee <__divsf3+0xb8>
    87dc:	001bf913          	andi	s2,s7,1
    87e0:	0ff00713          	li	a4,255
    87e4:	4781                	li	a5,0
    87e6:	b521                	j	85ee <__divsf3+0xb8>

000087e8 <__mulsf3>:
    87e8:	7179                	addi	sp,sp,-48
    87ea:	d422                	sw	s0,40(sp)
    87ec:	01755413          	srli	s0,a0,0x17
    87f0:	ce4e                	sw	s3,28(sp)
    87f2:	cc52                	sw	s4,24(sp)
    87f4:	00951993          	slli	s3,a0,0x9
    87f8:	d606                	sw	ra,44(sp)
    87fa:	d226                	sw	s1,36(sp)
    87fc:	d04a                	sw	s2,32(sp)
    87fe:	ca56                	sw	s5,20(sp)
    8800:	c85a                	sw	s6,16(sp)
    8802:	0ff47413          	andi	s0,s0,255
    8806:	0099d993          	srli	s3,s3,0x9
    880a:	01f55a13          	srli	s4,a0,0x1f
    880e:	c469                	beqz	s0,88d8 <__mulsf3+0xf0>
    8810:	0ff00793          	li	a5,255
    8814:	0ef40863          	beq	s0,a5,8904 <__mulsf3+0x11c>
    8818:	00399793          	slli	a5,s3,0x3
    881c:	04000737          	lui	a4,0x4000
    8820:	00e7e9b3          	or	s3,a5,a4
    8824:	f8140413          	addi	s0,s0,-127 # 3ffff81 <_data_lma+0x3ff50ed>
    8828:	4481                	li	s1,0
    882a:	4b01                	li	s6,0
    882c:	0175d713          	srli	a4,a1,0x17
    8830:	00959a93          	slli	s5,a1,0x9
    8834:	0ff77713          	andi	a4,a4,255
    8838:	009ada93          	srli	s5,s5,0x9
    883c:	01f5d913          	srli	s2,a1,0x1f
    8840:	cf45                	beqz	a4,88f8 <__mulsf3+0x110>
    8842:	0ff00793          	li	a5,255
    8846:	02f70c63          	beq	a4,a5,887e <__mulsf3+0x96>
    884a:	0a8e                	slli	s5,s5,0x3
    884c:	f8170713          	addi	a4,a4,-127 # 3ffff81 <_data_lma+0x3ff50ed>
    8850:	040007b7          	lui	a5,0x4000
    8854:	00faeab3          	or	s5,s5,a5
    8858:	943a                	add	s0,s0,a4
    885a:	4601                	li	a2,0
    885c:	012a4533          	xor	a0,s4,s2
    8860:	47bd                	li	a5,15
    8862:	86aa                	mv	a3,a0
    8864:	00140593          	addi	a1,s0,1
    8868:	1097e263          	bltu	a5,s1,896c <__mulsf3+0x184>
    886c:	00002717          	auipc	a4,0x2
    8870:	44c70713          	addi	a4,a4,1100 # acb8 <init_jk+0x158>
    8874:	048a                	slli	s1,s1,0x2
    8876:	94ba                	add	s1,s1,a4
    8878:	409c                	lw	a5,0(s1)
    887a:	97ba                	add	a5,a5,a4
    887c:	8782                	jr	a5
    887e:	0ff40413          	addi	s0,s0,255
    8882:	0c0a9863          	bnez	s5,8952 <__mulsf3+0x16a>
    8886:	0024e493          	ori	s1,s1,2
    888a:	4609                	li	a2,2
    888c:	bfc1                	j	885c <__mulsf3+0x74>
    888e:	4501                	li	a0,0
    8890:	0ff00713          	li	a4,255
    8894:	004007b7          	lui	a5,0x400
    8898:	50b2                	lw	ra,44(sp)
    889a:	5422                	lw	s0,40(sp)
    889c:	07a6                	slli	a5,a5,0x9
    889e:	075e                	slli	a4,a4,0x17
    88a0:	83a5                	srli	a5,a5,0x9
    88a2:	057e                	slli	a0,a0,0x1f
    88a4:	8fd9                	or	a5,a5,a4
    88a6:	5492                	lw	s1,36(sp)
    88a8:	5902                	lw	s2,32(sp)
    88aa:	49f2                	lw	s3,28(sp)
    88ac:	4a62                	lw	s4,24(sp)
    88ae:	4ad2                	lw	s5,20(sp)
    88b0:	4b42                	lw	s6,16(sp)
    88b2:	8d5d                	or	a0,a0,a5
    88b4:	6145                	addi	sp,sp,48
    88b6:	8082                	ret
    88b8:	86ca                	mv	a3,s2
    88ba:	89d6                	mv	s3,s5
    88bc:	8b32                	mv	s6,a2
    88be:	4789                	li	a5,2
    88c0:	0afb0163          	beq	s6,a5,8962 <__mulsf3+0x17a>
    88c4:	478d                	li	a5,3
    88c6:	fcfb04e3          	beq	s6,a5,888e <__mulsf3+0xa6>
    88ca:	4785                	li	a5,1
    88cc:	8536                	mv	a0,a3
    88ce:	1afb1263          	bne	s6,a5,8a72 <__mulsf3+0x28a>
    88d2:	4701                	li	a4,0
    88d4:	4781                	li	a5,0
    88d6:	b7c9                	j	8898 <__mulsf3+0xb0>
    88d8:	04099e63          	bnez	s3,8934 <__mulsf3+0x14c>
    88dc:	0175d713          	srli	a4,a1,0x17
    88e0:	00959a93          	slli	s5,a1,0x9
    88e4:	0ff77713          	andi	a4,a4,255
    88e8:	4491                	li	s1,4
    88ea:	4401                	li	s0,0
    88ec:	4b05                	li	s6,1
    88ee:	009ada93          	srli	s5,s5,0x9
    88f2:	01f5d913          	srli	s2,a1,0x1f
    88f6:	f731                	bnez	a4,8842 <__mulsf3+0x5a>
    88f8:	000a9d63          	bnez	s5,8912 <__mulsf3+0x12a>
    88fc:	0014e493          	ori	s1,s1,1
    8900:	4605                	li	a2,1
    8902:	bfa9                	j	885c <__mulsf3+0x74>
    8904:	02099363          	bnez	s3,892a <__mulsf3+0x142>
    8908:	44a1                	li	s1,8
    890a:	0ff00413          	li	s0,255
    890e:	4b09                	li	s6,2
    8910:	bf31                	j	882c <__mulsf3+0x44>
    8912:	8556                	mv	a0,s5
    8914:	10f000ef          	jal	ra,9222 <__clzsi2>
    8918:	ffb50793          	addi	a5,a0,-5
    891c:	8c09                	sub	s0,s0,a0
    891e:	00fa9ab3          	sll	s5,s5,a5
    8922:	f8a40413          	addi	s0,s0,-118
    8926:	4601                	li	a2,0
    8928:	bf15                	j	885c <__mulsf3+0x74>
    892a:	44b1                	li	s1,12
    892c:	0ff00413          	li	s0,255
    8930:	4b0d                	li	s6,3
    8932:	bded                	j	882c <__mulsf3+0x44>
    8934:	854e                	mv	a0,s3
    8936:	c62e                	sw	a1,12(sp)
    8938:	0eb000ef          	jal	ra,9222 <__clzsi2>
    893c:	ffb50793          	addi	a5,a0,-5
    8940:	f8a00413          	li	s0,-118
    8944:	00f999b3          	sll	s3,s3,a5
    8948:	8c09                	sub	s0,s0,a0
    894a:	4481                	li	s1,0
    894c:	4b01                	li	s6,0
    894e:	45b2                	lw	a1,12(sp)
    8950:	bdf1                	j	882c <__mulsf3+0x44>
    8952:	0034e493          	ori	s1,s1,3
    8956:	460d                	li	a2,3
    8958:	b711                	j	885c <__mulsf3+0x74>
    895a:	4789                	li	a5,2
    895c:	86d2                	mv	a3,s4
    895e:	f6fb13e3          	bne	s6,a5,88c4 <__mulsf3+0xdc>
    8962:	8536                	mv	a0,a3
    8964:	0ff00713          	li	a4,255
    8968:	4781                	li	a5,0
    896a:	b73d                	j	8898 <__mulsf3+0xb0>
    896c:	6341                	lui	t1,0x10
    896e:	fff30693          	addi	a3,t1,-1 # ffff <_data_lma+0x516b>
    8972:	0109d613          	srli	a2,s3,0x10
    8976:	010ad893          	srli	a7,s5,0x10
    897a:	00d9f7b3          	and	a5,s3,a3
    897e:	00dafab3          	and	s5,s5,a3
    8982:	03578833          	mul	a6,a5,s5
    8986:	02f889b3          	mul	s3,a7,a5
    898a:	01085713          	srli	a4,a6,0x10
    898e:	03560ab3          	mul	s5,a2,s5
    8992:	99d6                	add	s3,s3,s5
    8994:	974e                	add	a4,a4,s3
    8996:	03160633          	mul	a2,a2,a7
    899a:	01577363          	bgeu	a4,s5,89a0 <__mulsf3+0x1b8>
    899e:	961a                	add	a2,a2,t1
    89a0:	67c1                	lui	a5,0x10
    89a2:	17fd                	addi	a5,a5,-1
    89a4:	00f776b3          	and	a3,a4,a5
    89a8:	00f87833          	and	a6,a6,a5
    89ac:	06c2                	slli	a3,a3,0x10
    89ae:	96c2                	add	a3,a3,a6
    89b0:	00669993          	slli	s3,a3,0x6
    89b4:	01075793          	srli	a5,a4,0x10
    89b8:	013039b3          	snez	s3,s3
    89bc:	82e9                	srli	a3,a3,0x1a
    89be:	97b2                	add	a5,a5,a2
    89c0:	079a                	slli	a5,a5,0x6
    89c2:	00d9e6b3          	or	a3,s3,a3
    89c6:	00d7e9b3          	or	s3,a5,a3
    89ca:	00499793          	slli	a5,s3,0x4
    89ce:	0007d963          	bgez	a5,89e0 <__mulsf3+0x1f8>
    89d2:	0019d713          	srli	a4,s3,0x1
    89d6:	0019f793          	andi	a5,s3,1
    89da:	00f769b3          	or	s3,a4,a5
    89de:	842e                	mv	s0,a1
    89e0:	07f40713          	addi	a4,s0,127
    89e4:	04e05063          	blez	a4,8a24 <__mulsf3+0x23c>
    89e8:	0079f793          	andi	a5,s3,7
    89ec:	c799                	beqz	a5,89fa <__mulsf3+0x212>
    89ee:	00f9f793          	andi	a5,s3,15
    89f2:	4691                	li	a3,4
    89f4:	00d78363          	beq	a5,a3,89fa <__mulsf3+0x212>
    89f8:	0991                	addi	s3,s3,4
    89fa:	00499793          	slli	a5,s3,0x4
    89fe:	0007d963          	bgez	a5,8a10 <__mulsf3+0x228>
    8a02:	f80007b7          	lui	a5,0xf8000
    8a06:	17fd                	addi	a5,a5,-1
    8a08:	00f9f9b3          	and	s3,s3,a5
    8a0c:	08040713          	addi	a4,s0,128
    8a10:	0fe00793          	li	a5,254
    8a14:	04e7cb63          	blt	a5,a4,8a6a <__mulsf3+0x282>
    8a18:	00699793          	slli	a5,s3,0x6
    8a1c:	83a5                	srli	a5,a5,0x9
    8a1e:	0ff77713          	andi	a4,a4,255
    8a22:	bd9d                	j	8898 <__mulsf3+0xb0>
    8a24:	4785                	li	a5,1
    8a26:	40e786b3          	sub	a3,a5,a4
    8a2a:	c711                	beqz	a4,8a36 <__mulsf3+0x24e>
    8a2c:	466d                	li	a2,27
    8a2e:	4701                	li	a4,0
    8a30:	4781                	li	a5,0
    8a32:	e6d643e3          	blt	a2,a3,8898 <__mulsf3+0xb0>
    8a36:	09e40713          	addi	a4,s0,158
    8a3a:	00e99733          	sll	a4,s3,a4
    8a3e:	00e03733          	snez	a4,a4
    8a42:	00d9d7b3          	srl	a5,s3,a3
    8a46:	8fd9                	or	a5,a5,a4
    8a48:	0077f713          	andi	a4,a5,7
    8a4c:	c719                	beqz	a4,8a5a <__mulsf3+0x272>
    8a4e:	00f7f713          	andi	a4,a5,15
    8a52:	4691                	li	a3,4
    8a54:	00d70363          	beq	a4,a3,8a5a <__mulsf3+0x272>
    8a58:	0791                	addi	a5,a5,4
    8a5a:	00579713          	slli	a4,a5,0x5
    8a5e:	00074c63          	bltz	a4,8a76 <__mulsf3+0x28e>
    8a62:	079a                	slli	a5,a5,0x6
    8a64:	83a5                	srli	a5,a5,0x9
    8a66:	4701                	li	a4,0
    8a68:	bd05                	j	8898 <__mulsf3+0xb0>
    8a6a:	0ff00713          	li	a4,255
    8a6e:	4781                	li	a5,0
    8a70:	b525                	j	8898 <__mulsf3+0xb0>
    8a72:	842e                	mv	s0,a1
    8a74:	b7b5                	j	89e0 <__mulsf3+0x1f8>
    8a76:	4705                	li	a4,1
    8a78:	4781                	li	a5,0
    8a7a:	bd39                	j	8898 <__mulsf3+0xb0>

00008a7c <__subsf3>:
    8a7c:	00800737          	lui	a4,0x800
    8a80:	1141                	addi	sp,sp,-16
    8a82:	177d                	addi	a4,a4,-1
    8a84:	01755693          	srli	a3,a0,0x17
    8a88:	0175d813          	srli	a6,a1,0x17
    8a8c:	00a777b3          	and	a5,a4,a0
    8a90:	0ff6f693          	andi	a3,a3,255
    8a94:	01f55e93          	srli	t4,a0,0x1f
    8a98:	00b77633          	and	a2,a4,a1
    8a9c:	c226                	sw	s1,4(sp)
    8a9e:	c04a                	sw	s2,0(sp)
    8aa0:	0ff87813          	andi	a6,a6,255
    8aa4:	c606                	sw	ra,12(sp)
    8aa6:	c422                	sw	s0,8(sp)
    8aa8:	0ff00313          	li	t1,255
    8aac:	8e3e                	mv	t3,a5
    8aae:	8936                	mv	s2,a3
    8ab0:	84f6                	mv	s1,t4
    8ab2:	00379f13          	slli	t5,a5,0x3
    8ab6:	81fd                	srli	a1,a1,0x1f
    8ab8:	00361513          	slli	a0,a2,0x3
    8abc:	410688b3          	sub	a7,a3,a6
    8ac0:	10680263          	beq	a6,t1,8bc4 <__subsf3+0x148>
    8ac4:	0015c593          	xori	a1,a1,1
    8ac8:	10be8c63          	beq	t4,a1,8be0 <__subsf3+0x164>
    8acc:	0d105463          	blez	a7,8b94 <__subsf3+0x118>
    8ad0:	10081063          	bnez	a6,8bd0 <__subsf3+0x154>
    8ad4:	1e050463          	beqz	a0,8cbc <__subsf3+0x240>
    8ad8:	18fd                	addi	a7,a7,-1
    8ada:	40af07b3          	sub	a5,t5,a0
    8ade:	02088663          	beqz	a7,8b0a <__subsf3+0x8e>
    8ae2:	0ff00793          	li	a5,255
    8ae6:	16f68863          	beq	a3,a5,8c56 <__subsf3+0x1da>
    8aea:	47ed                	li	a5,27
    8aec:	2917c763          	blt	a5,a7,8d7a <__subsf3+0x2fe>
    8af0:	02000713          	li	a4,32
    8af4:	41170733          	sub	a4,a4,a7
    8af8:	00e51733          	sll	a4,a0,a4
    8afc:	011557b3          	srl	a5,a0,a7
    8b00:	00e03733          	snez	a4,a4
    8b04:	8fd9                	or	a5,a5,a4
    8b06:	40ff07b3          	sub	a5,t5,a5
    8b0a:	00579713          	slli	a4,a5,0x5
    8b0e:	1a075163          	bgez	a4,8cb0 <__subsf3+0x234>
    8b12:	04000437          	lui	s0,0x4000
    8b16:	147d                	addi	s0,s0,-1
    8b18:	8c7d                	and	s0,s0,a5
    8b1a:	8522                	mv	a0,s0
    8b1c:	2719                	jal	9222 <__clzsi2>
    8b1e:	156d                	addi	a0,a0,-5
    8b20:	00a417b3          	sll	a5,s0,a0
    8b24:	1b254e63          	blt	a0,s2,8ce0 <__subsf3+0x264>
    8b28:	41250533          	sub	a0,a0,s2
    8b2c:	00150413          	addi	s0,a0,1
    8b30:	02000713          	li	a4,32
    8b34:	8f01                	sub	a4,a4,s0
    8b36:	00e79733          	sll	a4,a5,a4
    8b3a:	00e03733          	snez	a4,a4
    8b3e:	0087d7b3          	srl	a5,a5,s0
    8b42:	8fd9                	or	a5,a5,a4
    8b44:	4901                	li	s2,0
    8b46:	0077f713          	andi	a4,a5,7
    8b4a:	c719                	beqz	a4,8b58 <__subsf3+0xdc>
    8b4c:	00f7f713          	andi	a4,a5,15
    8b50:	4691                	li	a3,4
    8b52:	00d70363          	beq	a4,a3,8b58 <__subsf3+0xdc>
    8b56:	0791                	addi	a5,a5,4
    8b58:	00579713          	slli	a4,a5,0x5
    8b5c:	14075e63          	bgez	a4,8cb8 <__subsf3+0x23c>
    8b60:	00190693          	addi	a3,s2,1 # 800001 <_data_lma+0x7f516d>
    8b64:	0ff00713          	li	a4,255
    8b68:	0014fe93          	andi	t4,s1,1
    8b6c:	16e68663          	beq	a3,a4,8cd8 <__subsf3+0x25c>
    8b70:	079a                	slli	a5,a5,0x6
    8b72:	83a5                	srli	a5,a5,0x9
    8b74:	0ff6f693          	andi	a3,a3,255
    8b78:	07a6                	slli	a5,a5,0x9
    8b7a:	40b2                	lw	ra,12(sp)
    8b7c:	4422                	lw	s0,8(sp)
    8b7e:	0097d513          	srli	a0,a5,0x9
    8b82:	06de                	slli	a3,a3,0x17
    8b84:	01fe9793          	slli	a5,t4,0x1f
    8b88:	8d55                	or	a0,a0,a3
    8b8a:	4492                	lw	s1,4(sp)
    8b8c:	4902                	lw	s2,0(sp)
    8b8e:	8d5d                	or	a0,a0,a5
    8b90:	0141                	addi	sp,sp,16
    8b92:	8082                	ret
    8b94:	0a089263          	bnez	a7,8c38 <__subsf3+0x1bc>
    8b98:	00168713          	addi	a4,a3,1
    8b9c:	0fe77713          	andi	a4,a4,254
    8ba0:	14071b63          	bnez	a4,8cf6 <__subsf3+0x27a>
    8ba4:	22069463          	bnez	a3,8dcc <__subsf3+0x350>
    8ba8:	200f0263          	beqz	t5,8dac <__subsf3+0x330>
    8bac:	d571                	beqz	a0,8b78 <__subsf3+0xfc>
    8bae:	40af07b3          	sub	a5,t5,a0
    8bb2:	00579713          	slli	a4,a5,0x5
    8bb6:	22075563          	bgez	a4,8de0 <__subsf3+0x364>
    8bba:	41e507b3          	sub	a5,a0,t5
    8bbe:	4901                	li	s2,0
    8bc0:	84ae                	mv	s1,a1
    8bc2:	b751                	j	8b46 <__subsf3+0xca>
    8bc4:	f00500e3          	beqz	a0,8ac4 <__subsf3+0x48>
    8bc8:	0abe8a63          	beq	t4,a1,8c7c <__subsf3+0x200>
    8bcc:	fd1054e3          	blez	a7,8b94 <__subsf3+0x118>
    8bd0:	0ff00793          	li	a5,255
    8bd4:	08f68163          	beq	a3,a5,8c56 <__subsf3+0x1da>
    8bd8:	040007b7          	lui	a5,0x4000
    8bdc:	8d5d                	or	a0,a0,a5
    8bde:	b731                	j	8aea <__subsf3+0x6e>
    8be0:	09105e63          	blez	a7,8c7c <__subsf3+0x200>
    8be4:	08080163          	beqz	a6,8c66 <__subsf3+0x1ea>
    8be8:	0ff00793          	li	a5,255
    8bec:	06f68563          	beq	a3,a5,8c56 <__subsf3+0x1da>
    8bf0:	040007b7          	lui	a5,0x4000
    8bf4:	8d5d                	or	a0,a0,a5
    8bf6:	47ed                	li	a5,27
    8bf8:	1f17c063          	blt	a5,a7,8dd8 <__subsf3+0x35c>
    8bfc:	02000713          	li	a4,32
    8c00:	41170733          	sub	a4,a4,a7
    8c04:	00e51733          	sll	a4,a0,a4
    8c08:	011557b3          	srl	a5,a0,a7
    8c0c:	00e03733          	snez	a4,a4
    8c10:	8fd9                	or	a5,a5,a4
    8c12:	97fa                	add	a5,a5,t5
    8c14:	00579713          	slli	a4,a5,0x5
    8c18:	08075c63          	bgez	a4,8cb0 <__subsf3+0x234>
    8c1c:	0905                	addi	s2,s2,1
    8c1e:	0ff00713          	li	a4,255
    8c22:	0ae90b63          	beq	s2,a4,8cd8 <__subsf3+0x25c>
    8c26:	7e0006b7          	lui	a3,0x7e000
    8c2a:	0017d713          	srli	a4,a5,0x1
    8c2e:	16fd                	addi	a3,a3,-1
    8c30:	8b85                	andi	a5,a5,1
    8c32:	8f75                	and	a4,a4,a3
    8c34:	8fd9                	or	a5,a5,a4
    8c36:	bf01                	j	8b46 <__subsf3+0xca>
    8c38:	40d80733          	sub	a4,a6,a3
    8c3c:	10069563          	bnez	a3,8d46 <__subsf3+0x2ca>
    8c40:	140f0d63          	beqz	t5,8d9a <__subsf3+0x31e>
    8c44:	177d                	addi	a4,a4,-1
    8c46:	1a070363          	beqz	a4,8dec <__subsf3+0x370>
    8c4a:	0ff00793          	li	a5,255
    8c4e:	10f81463          	bne	a6,a5,8d56 <__subsf3+0x2da>
    8c52:	84ae                	mv	s1,a1
    8c54:	8e32                	mv	t3,a2
    8c56:	060e0f63          	beqz	t3,8cd4 <__subsf3+0x258>
    8c5a:	4e81                	li	t4,0
    8c5c:	0ff00693          	li	a3,255
    8c60:	004007b7          	lui	a5,0x400
    8c64:	bf11                	j	8b78 <__subsf3+0xfc>
    8c66:	c939                	beqz	a0,8cbc <__subsf3+0x240>
    8c68:	18fd                	addi	a7,a7,-1
    8c6a:	00af07b3          	add	a5,t5,a0
    8c6e:	fa0883e3          	beqz	a7,8c14 <__subsf3+0x198>
    8c72:	0ff00793          	li	a5,255
    8c76:	f8f690e3          	bne	a3,a5,8bf6 <__subsf3+0x17a>
    8c7a:	bff1                	j	8c56 <__subsf3+0x1da>
    8c7c:	08089963          	bnez	a7,8d0e <__subsf3+0x292>
    8c80:	00168913          	addi	s2,a3,1 # 7e000001 <__freertos_irq_stack_top+0x5dffb001>
    8c84:	0fe97713          	andi	a4,s2,254
    8c88:	12071663          	bnez	a4,8db4 <__subsf3+0x338>
    8c8c:	10069b63          	bnez	a3,8da2 <__subsf3+0x326>
    8c90:	160f0363          	beqz	t5,8df6 <__subsf3+0x37a>
    8c94:	ee0502e3          	beqz	a0,8b78 <__subsf3+0xfc>
    8c98:	00af07b3          	add	a5,t5,a0
    8c9c:	00579713          	slli	a4,a5,0x5
    8ca0:	4901                	li	s2,0
    8ca2:	00075763          	bgez	a4,8cb0 <__subsf3+0x234>
    8ca6:	fc000737          	lui	a4,0xfc000
    8caa:	177d                	addi	a4,a4,-1
    8cac:	8ff9                	and	a5,a5,a4
    8cae:	4905                	li	s2,1
    8cb0:	0077f713          	andi	a4,a5,7
    8cb4:	e8071ce3          	bnez	a4,8b4c <__subsf3+0xd0>
    8cb8:	0037de13          	srli	t3,a5,0x3
    8cbc:	0ff00793          	li	a5,255
    8cc0:	f8f90be3          	beq	s2,a5,8c56 <__subsf3+0x1da>
    8cc4:	009e1793          	slli	a5,t3,0x9
    8cc8:	83a5                	srli	a5,a5,0x9
    8cca:	0ff97693          	andi	a3,s2,255
    8cce:	0014fe93          	andi	t4,s1,1
    8cd2:	b55d                	j	8b78 <__subsf3+0xfc>
    8cd4:	0014fe93          	andi	t4,s1,1
    8cd8:	0ff00693          	li	a3,255
    8cdc:	4781                	li	a5,0
    8cde:	bd69                	j	8b78 <__subsf3+0xfc>
    8ce0:	fc000737          	lui	a4,0xfc000
    8ce4:	177d                	addi	a4,a4,-1
    8ce6:	8ff9                	and	a5,a5,a4
    8ce8:	0077f713          	andi	a4,a5,7
    8cec:	40a90933          	sub	s2,s2,a0
    8cf0:	e4071ee3          	bnez	a4,8b4c <__subsf3+0xd0>
    8cf4:	b7d1                	j	8cb8 <__subsf3+0x23c>
    8cf6:	40af0433          	sub	s0,t5,a0
    8cfa:	00541793          	slli	a5,s0,0x5
    8cfe:	0c07c363          	bltz	a5,8dc4 <__subsf3+0x348>
    8d02:	e0041ce3          	bnez	s0,8b1a <__subsf3+0x9e>
    8d06:	4e81                	li	t4,0
    8d08:	4681                	li	a3,0
    8d0a:	4781                	li	a5,0
    8d0c:	b5b5                	j	8b78 <__subsf3+0xfc>
    8d0e:	40d80733          	sub	a4,a6,a3
    8d12:	c6b5                	beqz	a3,8d7e <__subsf3+0x302>
    8d14:	0ff00793          	li	a5,255
    8d18:	f2f80ee3          	beq	a6,a5,8c54 <__subsf3+0x1d8>
    8d1c:	040007b7          	lui	a5,0x4000
    8d20:	00ff6f33          	or	t5,t5,a5
    8d24:	47ed                	li	a5,27
    8d26:	0ce7cd63          	blt	a5,a4,8e00 <__subsf3+0x384>
    8d2a:	02000793          	li	a5,32
    8d2e:	8f99                	sub	a5,a5,a4
    8d30:	00ff17b3          	sll	a5,t5,a5
    8d34:	00ef5733          	srl	a4,t5,a4
    8d38:	00f037b3          	snez	a5,a5
    8d3c:	8f5d                	or	a4,a4,a5
    8d3e:	00a707b3          	add	a5,a4,a0
    8d42:	8942                	mv	s2,a6
    8d44:	bdc1                	j	8c14 <__subsf3+0x198>
    8d46:	0ff00793          	li	a5,255
    8d4a:	f0f804e3          	beq	a6,a5,8c52 <__subsf3+0x1d6>
    8d4e:	040007b7          	lui	a5,0x4000
    8d52:	00ff6f33          	or	t5,t5,a5
    8d56:	47ed                	li	a5,27
    8d58:	08e7c263          	blt	a5,a4,8ddc <__subsf3+0x360>
    8d5c:	02000793          	li	a5,32
    8d60:	8f99                	sub	a5,a5,a4
    8d62:	00ff17b3          	sll	a5,t5,a5
    8d66:	00ef5733          	srl	a4,t5,a4
    8d6a:	00f037b3          	snez	a5,a5
    8d6e:	8fd9                	or	a5,a5,a4
    8d70:	40f507b3          	sub	a5,a0,a5
    8d74:	8942                	mv	s2,a6
    8d76:	84ae                	mv	s1,a1
    8d78:	bb49                	j	8b0a <__subsf3+0x8e>
    8d7a:	4785                	li	a5,1
    8d7c:	b369                	j	8b06 <__subsf3+0x8a>
    8d7e:	060f0e63          	beqz	t5,8dfa <__subsf3+0x37e>
    8d82:	177d                	addi	a4,a4,-1
    8d84:	00af07b3          	add	a5,t5,a0
    8d88:	8942                	mv	s2,a6
    8d8a:	e80705e3          	beqz	a4,8c14 <__subsf3+0x198>
    8d8e:	0ff00793          	li	a5,255
    8d92:	f8f819e3          	bne	a6,a5,8d24 <__subsf3+0x2a8>
    8d96:	8e32                	mv	t3,a2
    8d98:	bd7d                	j	8c56 <__subsf3+0x1da>
    8d9a:	8e32                	mv	t3,a2
    8d9c:	8942                	mv	s2,a6
    8d9e:	84ae                	mv	s1,a1
    8da0:	bf31                	j	8cbc <__subsf3+0x240>
    8da2:	ea0f09e3          	beqz	t5,8c54 <__subsf3+0x1d8>
    8da6:	ea0508e3          	beqz	a0,8c56 <__subsf3+0x1da>
    8daa:	bd45                	j	8c5a <__subsf3+0x1de>
    8dac:	cd0d                	beqz	a0,8de6 <__subsf3+0x36a>
    8dae:	8eae                	mv	t4,a1
    8db0:	87b2                	mv	a5,a2
    8db2:	b3d9                	j	8b78 <__subsf3+0xfc>
    8db4:	0ff00793          	li	a5,255
    8db8:	f2f900e3          	beq	s2,a5,8cd8 <__subsf3+0x25c>
    8dbc:	00af07b3          	add	a5,t5,a0
    8dc0:	8385                	srli	a5,a5,0x1
    8dc2:	b5fd                	j	8cb0 <__subsf3+0x234>
    8dc4:	41e50433          	sub	s0,a0,t5
    8dc8:	84ae                	mv	s1,a1
    8dca:	bb81                	j	8b1a <__subsf3+0x9e>
    8dcc:	fc0f1de3          	bnez	t5,8da6 <__subsf3+0x32a>
    8dd0:	e80505e3          	beqz	a0,8c5a <__subsf3+0x1de>
    8dd4:	84ae                	mv	s1,a1
    8dd6:	bdbd                	j	8c54 <__subsf3+0x1d8>
    8dd8:	4785                	li	a5,1
    8dda:	bd25                	j	8c12 <__subsf3+0x196>
    8ddc:	4785                	li	a5,1
    8dde:	bf49                	j	8d70 <__subsf3+0x2f4>
    8de0:	4901                	li	s2,0
    8de2:	ec0797e3          	bnez	a5,8cb0 <__subsf3+0x234>
    8de6:	4e81                	li	t4,0
    8de8:	4781                	li	a5,0
    8dea:	b379                	j	8b78 <__subsf3+0xfc>
    8dec:	41e507b3          	sub	a5,a0,t5
    8df0:	8942                	mv	s2,a6
    8df2:	84ae                	mv	s1,a1
    8df4:	bb19                	j	8b0a <__subsf3+0x8e>
    8df6:	87b2                	mv	a5,a2
    8df8:	b341                	j	8b78 <__subsf3+0xfc>
    8dfa:	8e32                	mv	t3,a2
    8dfc:	8942                	mv	s2,a6
    8dfe:	bd7d                	j	8cbc <__subsf3+0x240>
    8e00:	4705                	li	a4,1
    8e02:	bf35                	j	8d3e <__subsf3+0x2c2>

00008e04 <__floatsisf>:
    8e04:	1141                	addi	sp,sp,-16
    8e06:	c606                	sw	ra,12(sp)
    8e08:	c422                	sw	s0,8(sp)
    8e0a:	c226                	sw	s1,4(sp)
    8e0c:	cd0d                	beqz	a0,8e46 <__floatsisf+0x42>
    8e0e:	41f55793          	srai	a5,a0,0x1f
    8e12:	00a7c433          	xor	s0,a5,a0
    8e16:	8c1d                	sub	s0,s0,a5
    8e18:	84aa                	mv	s1,a0
    8e1a:	8522                	mv	a0,s0
    8e1c:	2119                	jal	9222 <__clzsi2>
    8e1e:	09e00793          	li	a5,158
    8e22:	40a78733          	sub	a4,a5,a0
    8e26:	09600793          	li	a5,150
    8e2a:	80fd                	srli	s1,s1,0x1f
    8e2c:	02e7cc63          	blt	a5,a4,8e64 <__floatsisf+0x60>
    8e30:	46a1                	li	a3,8
    8e32:	0ff77793          	andi	a5,a4,255
    8e36:	00a6d563          	bge	a3,a0,8e40 <__floatsisf+0x3c>
    8e3a:	1561                	addi	a0,a0,-8
    8e3c:	00a41433          	sll	s0,s0,a0
    8e40:	0426                	slli	s0,s0,0x9
    8e42:	8025                	srli	s0,s0,0x9
    8e44:	a021                	j	8e4c <__floatsisf+0x48>
    8e46:	4481                	li	s1,0
    8e48:	4781                	li	a5,0
    8e4a:	4401                	li	s0,0
    8e4c:	0426                	slli	s0,s0,0x9
    8e4e:	00945513          	srli	a0,s0,0x9
    8e52:	40b2                	lw	ra,12(sp)
    8e54:	4422                	lw	s0,8(sp)
    8e56:	07de                	slli	a5,a5,0x17
    8e58:	04fe                	slli	s1,s1,0x1f
    8e5a:	8d5d                	or	a0,a0,a5
    8e5c:	8d45                	or	a0,a0,s1
    8e5e:	4492                	lw	s1,4(sp)
    8e60:	0141                	addi	sp,sp,16
    8e62:	8082                	ret
    8e64:	09900793          	li	a5,153
    8e68:	00e7dd63          	bge	a5,a4,8e82 <__floatsisf+0x7e>
    8e6c:	01b50793          	addi	a5,a0,27
    8e70:	4695                	li	a3,5
    8e72:	00f417b3          	sll	a5,s0,a5
    8e76:	8e89                	sub	a3,a3,a0
    8e78:	00d45433          	srl	s0,s0,a3
    8e7c:	00f037b3          	snez	a5,a5
    8e80:	8c5d                	or	s0,s0,a5
    8e82:	4795                	li	a5,5
    8e84:	00a7d663          	bge	a5,a0,8e90 <__floatsisf+0x8c>
    8e88:	ffb50793          	addi	a5,a0,-5
    8e8c:	00f41433          	sll	s0,s0,a5
    8e90:	fc0006b7          	lui	a3,0xfc000
    8e94:	16fd                	addi	a3,a3,-1
    8e96:	00747793          	andi	a5,s0,7
    8e9a:	00d47633          	and	a2,s0,a3
    8e9e:	c385                	beqz	a5,8ebe <__floatsisf+0xba>
    8ea0:	00f47793          	andi	a5,s0,15
    8ea4:	4591                	li	a1,4
    8ea6:	00b78c63          	beq	a5,a1,8ebe <__floatsisf+0xba>
    8eaa:	0611                	addi	a2,a2,4
    8eac:	00561793          	slli	a5,a2,0x5
    8eb0:	0007d763          	bgez	a5,8ebe <__floatsisf+0xba>
    8eb4:	09f00793          	li	a5,159
    8eb8:	8e75                	and	a2,a2,a3
    8eba:	40a78733          	sub	a4,a5,a0
    8ebe:	00661413          	slli	s0,a2,0x6
    8ec2:	8025                	srli	s0,s0,0x9
    8ec4:	0ff77793          	andi	a5,a4,255
    8ec8:	b751                	j	8e4c <__floatsisf+0x48>

00008eca <__floatdisf>:
    8eca:	1141                	addi	sp,sp,-16
    8ecc:	c606                	sw	ra,12(sp)
    8ece:	c422                	sw	s0,8(sp)
    8ed0:	c226                	sw	s1,4(sp)
    8ed2:	c04a                	sw	s2,0(sp)
    8ed4:	00b567b3          	or	a5,a0,a1
    8ed8:	c7b1                	beqz	a5,8f24 <__floatdisf+0x5a>
    8eda:	842e                	mv	s0,a1
    8edc:	84aa                	mv	s1,a0
    8ede:	01f5d913          	srli	s2,a1,0x1f
    8ee2:	0605c263          	bltz	a1,8f46 <__floatdisf+0x7c>
    8ee6:	c82d                	beqz	s0,8f58 <__floatdisf+0x8e>
    8ee8:	8522                	mv	a0,s0
    8eea:	2e25                	jal	9222 <__clzsi2>
    8eec:	0be00713          	li	a4,190
    8ef0:	8f09                	sub	a4,a4,a0
    8ef2:	02500613          	li	a2,37
    8ef6:	40a607b3          	sub	a5,a2,a0
    8efa:	fe078613          	addi	a2,a5,-32 # 3ffffe0 <_data_lma+0x3ff514c>
    8efe:	0c064d63          	bltz	a2,8fd8 <__floatdisf+0x10e>
    8f02:	00c45633          	srl	a2,s0,a2
    8f06:	ffb50593          	addi	a1,a0,-5
    8f0a:	01b50693          	addi	a3,a0,27
    8f0e:	0c05cf63          	bltz	a1,8fec <__floatdisf+0x122>
    8f12:	00b49433          	sll	s0,s1,a1
    8f16:	4681                	li	a3,0
    8f18:	8ec1                	or	a3,a3,s0
    8f1a:	00d036b3          	snez	a3,a3
    8f1e:	00d664b3          	or	s1,a2,a3
    8f22:	a899                	j	8f78 <__floatdisf+0xae>
    8f24:	4901                	li	s2,0
    8f26:	4701                	li	a4,0
    8f28:	4501                	li	a0,0
    8f2a:	40b2                	lw	ra,12(sp)
    8f2c:	4422                	lw	s0,8(sp)
    8f2e:	0526                	slli	a0,a0,0x9
    8f30:	01771793          	slli	a5,a4,0x17
    8f34:	8125                	srli	a0,a0,0x9
    8f36:	01f91713          	slli	a4,s2,0x1f
    8f3a:	8d5d                	or	a0,a0,a5
    8f3c:	4492                	lw	s1,4(sp)
    8f3e:	4902                	lw	s2,0(sp)
    8f40:	8d59                	or	a0,a0,a4
    8f42:	0141                	addi	sp,sp,16
    8f44:	8082                	ret
    8f46:	40a00533          	neg	a0,a0
    8f4a:	00a037b3          	snez	a5,a0
    8f4e:	40b00433          	neg	s0,a1
    8f52:	8c1d                	sub	s0,s0,a5
    8f54:	84aa                	mv	s1,a0
    8f56:	f849                	bnez	s0,8ee8 <__floatdisf+0x1e>
    8f58:	8526                	mv	a0,s1
    8f5a:	24e1                	jal	9222 <__clzsi2>
    8f5c:	87aa                	mv	a5,a0
    8f5e:	0be00713          	li	a4,190
    8f62:	02050513          	addi	a0,a0,32
    8f66:	8f09                	sub	a4,a4,a0
    8f68:	09600693          	li	a3,150
    8f6c:	04e6da63          	bge	a3,a4,8fc0 <__floatdisf+0xf6>
    8f70:	09900793          	li	a5,153
    8f74:	f6e7cfe3          	blt	a5,a4,8ef2 <__floatdisf+0x28>
    8f78:	02500793          	li	a5,37
    8f7c:	86a6                	mv	a3,s1
    8f7e:	00a7d663          	bge	a5,a0,8f8a <__floatdisf+0xc0>
    8f82:	fdb50793          	addi	a5,a0,-37
    8f86:	00f496b3          	sll	a3,s1,a5
    8f8a:	fc000637          	lui	a2,0xfc000
    8f8e:	167d                	addi	a2,a2,-1
    8f90:	0076f593          	andi	a1,a3,7
    8f94:	00c6f7b3          	and	a5,a3,a2
    8f98:	cd91                	beqz	a1,8fb4 <__floatdisf+0xea>
    8f9a:	8abd                	andi	a3,a3,15
    8f9c:	4591                	li	a1,4
    8f9e:	00b68b63          	beq	a3,a1,8fb4 <__floatdisf+0xea>
    8fa2:	0791                	addi	a5,a5,4
    8fa4:	00579693          	slli	a3,a5,0x5
    8fa8:	0006d663          	bgez	a3,8fb4 <__floatdisf+0xea>
    8fac:	0bf00713          	li	a4,191
    8fb0:	8ff1                	and	a5,a5,a2
    8fb2:	8f09                	sub	a4,a4,a0
    8fb4:	00679513          	slli	a0,a5,0x6
    8fb8:	8125                	srli	a0,a0,0x9
    8fba:	0ff77713          	andi	a4,a4,255
    8fbe:	b7b5                	j	8f2a <__floatdisf+0x60>
    8fc0:	02800693          	li	a3,40
    8fc4:	17e1                	addi	a5,a5,-8
    8fc6:	0ff77713          	andi	a4,a4,255
    8fca:	02a6dd63          	bge	a3,a0,9004 <__floatdisf+0x13a>
    8fce:	00f49533          	sll	a0,s1,a5
    8fd2:	0526                	slli	a0,a0,0x9
    8fd4:	8125                	srli	a0,a0,0x9
    8fd6:	bf91                	j	8f2a <__floatdisf+0x60>
    8fd8:	467d                	li	a2,31
    8fda:	8e1d                	sub	a2,a2,a5
    8fdc:	00141693          	slli	a3,s0,0x1
    8fe0:	00c696b3          	sll	a3,a3,a2
    8fe4:	00f4d633          	srl	a2,s1,a5
    8fe8:	8e55                	or	a2,a2,a3
    8fea:	bf31                	j	8f06 <__floatdisf+0x3c>
    8fec:	45fd                	li	a1,31
    8fee:	8d95                	sub	a1,a1,a3
    8ff0:	0014d793          	srli	a5,s1,0x1
    8ff4:	00d41433          	sll	s0,s0,a3
    8ff8:	00b7d7b3          	srl	a5,a5,a1
    8ffc:	8c5d                	or	s0,s0,a5
    8ffe:	00d496b3          	sll	a3,s1,a3
    9002:	bf19                	j	8f18 <__floatdisf+0x4e>
    9004:	00949513          	slli	a0,s1,0x9
    9008:	8125                	srli	a0,a0,0x9
    900a:	b705                	j	8f2a <__floatdisf+0x60>

0000900c <__extendsfdf2>:
    900c:	01755713          	srli	a4,a0,0x17
    9010:	0ff77713          	andi	a4,a4,255
    9014:	1141                	addi	sp,sp,-16
    9016:	00170793          	addi	a5,a4,1 # fc000001 <__freertos_irq_stack_top+0xdbffb001>
    901a:	c422                	sw	s0,8(sp)
    901c:	c226                	sw	s1,4(sp)
    901e:	00951413          	slli	s0,a0,0x9
    9022:	c606                	sw	ra,12(sp)
    9024:	0fe7f793          	andi	a5,a5,254
    9028:	8025                	srli	s0,s0,0x9
    902a:	01f55493          	srli	s1,a0,0x1f
    902e:	c785                	beqz	a5,9056 <__extendsfdf2+0x4a>
    9030:	00345793          	srli	a5,s0,0x3
    9034:	38070713          	addi	a4,a4,896
    9038:	0476                	slli	s0,s0,0x1d
    903a:	07b2                	slli	a5,a5,0xc
    903c:	0752                	slli	a4,a4,0x14
    903e:	83b1                	srli	a5,a5,0xc
    9040:	01f49513          	slli	a0,s1,0x1f
    9044:	8fd9                	or	a5,a5,a4
    9046:	8fc9                	or	a5,a5,a0
    9048:	40b2                	lw	ra,12(sp)
    904a:	8522                	mv	a0,s0
    904c:	4422                	lw	s0,8(sp)
    904e:	4492                	lw	s1,4(sp)
    9050:	85be                	mv	a1,a5
    9052:	0141                	addi	sp,sp,16
    9054:	8082                	ret
    9056:	eb05                	bnez	a4,9086 <__extendsfdf2+0x7a>
    9058:	c439                	beqz	s0,90a6 <__extendsfdf2+0x9a>
    905a:	8522                	mv	a0,s0
    905c:	22d9                	jal	9222 <__clzsi2>
    905e:	47a9                	li	a5,10
    9060:	04a7c663          	blt	a5,a0,90ac <__extendsfdf2+0xa0>
    9064:	472d                	li	a4,11
    9066:	8f09                	sub	a4,a4,a0
    9068:	01550793          	addi	a5,a0,21
    906c:	00e45733          	srl	a4,s0,a4
    9070:	00f41433          	sll	s0,s0,a5
    9074:	00c71793          	slli	a5,a4,0xc
    9078:	38900713          	li	a4,905
    907c:	8f09                	sub	a4,a4,a0
    907e:	83b1                	srli	a5,a5,0xc
    9080:	7ff77713          	andi	a4,a4,2047
    9084:	bf5d                	j	903a <__extendsfdf2+0x2e>
    9086:	cc01                	beqz	s0,909e <__extendsfdf2+0x92>
    9088:	00345713          	srli	a4,s0,0x3
    908c:	000807b7          	lui	a5,0x80
    9090:	8fd9                	or	a5,a5,a4
    9092:	07b2                	slli	a5,a5,0xc
    9094:	0476                	slli	s0,s0,0x1d
    9096:	83b1                	srli	a5,a5,0xc
    9098:	7ff00713          	li	a4,2047
    909c:	bf79                	j	903a <__extendsfdf2+0x2e>
    909e:	7ff00713          	li	a4,2047
    90a2:	4781                	li	a5,0
    90a4:	bf59                	j	903a <__extendsfdf2+0x2e>
    90a6:	4701                	li	a4,0
    90a8:	4781                	li	a5,0
    90aa:	bf41                	j	903a <__extendsfdf2+0x2e>
    90ac:	ff550713          	addi	a4,a0,-11
    90b0:	00e41733          	sll	a4,s0,a4
    90b4:	4401                	li	s0,0
    90b6:	bf7d                	j	9074 <__extendsfdf2+0x68>

000090b8 <__truncdfsf2>:
    90b8:	0145d693          	srli	a3,a1,0x14
    90bc:	00c59793          	slli	a5,a1,0xc
    90c0:	7ff6f693          	andi	a3,a3,2047
    90c4:	83b1                	srli	a5,a5,0xc
    90c6:	00168613          	addi	a2,a3,1 # fc000001 <__freertos_irq_stack_top+0xdbffb001>
    90ca:	078e                	slli	a5,a5,0x3
    90cc:	01d55713          	srli	a4,a0,0x1d
    90d0:	7fe67613          	andi	a2,a2,2046
    90d4:	81fd                	srli	a1,a1,0x1f
    90d6:	8f5d                	or	a4,a4,a5
    90d8:	00351893          	slli	a7,a0,0x3
    90dc:	ce35                	beqz	a2,9158 <__truncdfsf2+0xa0>
    90de:	c8068813          	addi	a6,a3,-896
    90e2:	0fe00793          	li	a5,254
    90e6:	0107dd63          	bge	a5,a6,9100 <__truncdfsf2+0x48>
    90ea:	4781                	li	a5,0
    90ec:	00979513          	slli	a0,a5,0x9
    90f0:	0ff00693          	li	a3,255
    90f4:	06de                	slli	a3,a3,0x17
    90f6:	8125                	srli	a0,a0,0x9
    90f8:	05fe                	slli	a1,a1,0x1f
    90fa:	8d55                	or	a0,a0,a3
    90fc:	8d4d                	or	a0,a0,a1
    90fe:	8082                	ret
    9100:	0b005563          	blez	a6,91aa <__truncdfsf2+0xf2>
    9104:	00651793          	slli	a5,a0,0x6
    9108:	070e                	slli	a4,a4,0x3
    910a:	00f037b3          	snez	a5,a5
    910e:	8fd9                	or	a5,a5,a4
    9110:	01d8d893          	srli	a7,a7,0x1d
    9114:	0117e7b3          	or	a5,a5,a7
    9118:	0077f713          	andi	a4,a5,7
    911c:	10070163          	beqz	a4,921e <__truncdfsf2+0x166>
    9120:	00f7f713          	andi	a4,a5,15
    9124:	4691                	li	a3,4
    9126:	00d70363          	beq	a4,a3,912c <__truncdfsf2+0x74>
    912a:	0791                	addi	a5,a5,4
    912c:	04000737          	lui	a4,0x4000
    9130:	8f7d                	and	a4,a4,a5
    9132:	c775                	beqz	a4,921e <__truncdfsf2+0x166>
    9134:	00180713          	addi	a4,a6,1
    9138:	0ff00613          	li	a2,255
    913c:	0ff77693          	andi	a3,a4,255
    9140:	fac705e3          	beq	a4,a2,90ea <__truncdfsf2+0x32>
    9144:	079a                	slli	a5,a5,0x6
    9146:	83a5                	srli	a5,a5,0x9
    9148:	00979513          	slli	a0,a5,0x9
    914c:	06de                	slli	a3,a3,0x17
    914e:	8125                	srli	a0,a0,0x9
    9150:	05fe                	slli	a1,a1,0x1f
    9152:	8d55                	or	a0,a0,a3
    9154:	8d4d                	or	a0,a0,a1
    9156:	8082                	ret
    9158:	011767b3          	or	a5,a4,a7
    915c:	ee99                	bnez	a3,917a <__truncdfsf2+0xc2>
    915e:	cf85                	beqz	a5,9196 <__truncdfsf2+0xde>
    9160:	4795                	li	a5,5
    9162:	079a                	slli	a5,a5,0x6
    9164:	83a5                	srli	a5,a5,0x9
    9166:	00979513          	slli	a0,a5,0x9
    916a:	0ff6f693          	andi	a3,a3,255
    916e:	06de                	slli	a3,a3,0x17
    9170:	8125                	srli	a0,a0,0x9
    9172:	05fe                	slli	a1,a1,0x1f
    9174:	8d55                	or	a0,a0,a3
    9176:	8d4d                	or	a0,a0,a1
    9178:	8082                	ret
    917a:	dba5                	beqz	a5,90ea <__truncdfsf2+0x32>
    917c:	004007b7          	lui	a5,0x400
    9180:	00979513          	slli	a0,a5,0x9
    9184:	0ff00693          	li	a3,255
    9188:	06de                	slli	a3,a3,0x17
    918a:	4581                	li	a1,0
    918c:	8125                	srli	a0,a0,0x9
    918e:	05fe                	slli	a1,a1,0x1f
    9190:	8d55                	or	a0,a0,a3
    9192:	8d4d                	or	a0,a0,a1
    9194:	8082                	ret
    9196:	4781                	li	a5,0
    9198:	00979513          	slli	a0,a5,0x9
    919c:	4681                	li	a3,0
    919e:	06de                	slli	a3,a3,0x17
    91a0:	8125                	srli	a0,a0,0x9
    91a2:	05fe                	slli	a1,a1,0x1f
    91a4:	8d55                	or	a0,a0,a3
    91a6:	8d4d                	or	a0,a0,a1
    91a8:	8082                	ret
    91aa:	57a5                	li	a5,-23
    91ac:	04f84863          	blt	a6,a5,91fc <__truncdfsf2+0x144>
    91b0:	47f9                	li	a5,30
    91b2:	00800637          	lui	a2,0x800
    91b6:	410787b3          	sub	a5,a5,a6
    91ba:	457d                	li	a0,31
    91bc:	8e59                	or	a2,a2,a4
    91be:	04f55163          	bge	a0,a5,9200 <__truncdfsf2+0x148>
    91c2:	5779                	li	a4,-2
    91c4:	41070733          	sub	a4,a4,a6
    91c8:	02000513          	li	a0,32
    91cc:	00e65733          	srl	a4,a2,a4
    91d0:	00a78863          	beq	a5,a0,91e0 <__truncdfsf2+0x128>
    91d4:	ca268693          	addi	a3,a3,-862
    91d8:	00d616b3          	sll	a3,a2,a3
    91dc:	00d8e8b3          	or	a7,a7,a3
    91e0:	011037b3          	snez	a5,a7
    91e4:	8fd9                	or	a5,a5,a4
    91e6:	0077f713          	andi	a4,a5,7
    91ea:	4801                	li	a6,0
    91ec:	fb15                	bnez	a4,9120 <__truncdfsf2+0x68>
    91ee:	00579713          	slli	a4,a5,0x5
    91f2:	4685                	li	a3,1
    91f4:	f40748e3          	bltz	a4,9144 <__truncdfsf2+0x8c>
    91f8:	4681                	li	a3,0
    91fa:	b7a5                	j	9162 <__truncdfsf2+0xaa>
    91fc:	4681                	li	a3,0
    91fe:	b78d                	j	9160 <__truncdfsf2+0xa8>
    9200:	c8268693          	addi	a3,a3,-894
    9204:	00d89733          	sll	a4,a7,a3
    9208:	00e03733          	snez	a4,a4
    920c:	00d616b3          	sll	a3,a2,a3
    9210:	00f8d8b3          	srl	a7,a7,a5
    9214:	00d767b3          	or	a5,a4,a3
    9218:	00f8e7b3          	or	a5,a7,a5
    921c:	b7e9                	j	91e6 <__truncdfsf2+0x12e>
    921e:	86c2                	mv	a3,a6
    9220:	b789                	j	9162 <__truncdfsf2+0xaa>

00009222 <__clzsi2>:
    9222:	67c1                	lui	a5,0x10
    9224:	02f57e63          	bgeu	a0,a5,9260 <__clzsi2+0x3e>
    9228:	0ff00793          	li	a5,255
    922c:	02000713          	li	a4,32
    9230:	00a7ec63          	bltu	a5,a0,9248 <__clzsi2+0x26>
    9234:	00002797          	auipc	a5,0x2
    9238:	ac478793          	addi	a5,a5,-1340 # acf8 <__clz_tab>
    923c:	97aa                	add	a5,a5,a0
    923e:	0007c503          	lbu	a0,0(a5)
    9242:	40a70533          	sub	a0,a4,a0
    9246:	8082                	ret
    9248:	8121                	srli	a0,a0,0x8
    924a:	00002797          	auipc	a5,0x2
    924e:	aae78793          	addi	a5,a5,-1362 # acf8 <__clz_tab>
    9252:	97aa                	add	a5,a5,a0
    9254:	0007c503          	lbu	a0,0(a5)
    9258:	4761                	li	a4,24
    925a:	40a70533          	sub	a0,a4,a0
    925e:	8082                	ret
    9260:	010007b7          	lui	a5,0x1000
    9264:	00f56e63          	bltu	a0,a5,9280 <__clzsi2+0x5e>
    9268:	8161                	srli	a0,a0,0x18
    926a:	00002797          	auipc	a5,0x2
    926e:	a8e78793          	addi	a5,a5,-1394 # acf8 <__clz_tab>
    9272:	97aa                	add	a5,a5,a0
    9274:	0007c503          	lbu	a0,0(a5)
    9278:	4721                	li	a4,8
    927a:	40a70533          	sub	a0,a4,a0
    927e:	8082                	ret
    9280:	8141                	srli	a0,a0,0x10
    9282:	00002797          	auipc	a5,0x2
    9286:	a7678793          	addi	a5,a5,-1418 # acf8 <__clz_tab>
    928a:	97aa                	add	a5,a5,a0
    928c:	0007c503          	lbu	a0,0(a5)
    9290:	4741                	li	a4,16
    9292:	40a70533          	sub	a0,a4,a0
    9296:	8082                	ret

00009298 <__errno>:
    9298:	81818793          	addi	a5,gp,-2024 # 20000098 <_impure_ptr>
    929c:	4388                	lw	a0,0(a5)
    929e:	8082                	ret

000092a0 <memcpy>:
    92a0:	00a5c7b3          	xor	a5,a1,a0
    92a4:	8b8d                	andi	a5,a5,3
    92a6:	00c50733          	add	a4,a0,a2
    92aa:	e781                	bnez	a5,92b2 <memcpy+0x12>
    92ac:	478d                	li	a5,3
    92ae:	00c7ee63          	bltu	a5,a2,92ca <memcpy+0x2a>
    92b2:	87aa                	mv	a5,a0
    92b4:	0ae57063          	bgeu	a0,a4,9354 <memcpy+0xb4>
    92b8:	0005c683          	lbu	a3,0(a1)
    92bc:	0785                	addi	a5,a5,1
    92be:	0585                	addi	a1,a1,1
    92c0:	fed78fa3          	sb	a3,-1(a5)
    92c4:	fee7eae3          	bltu	a5,a4,92b8 <memcpy+0x18>
    92c8:	8082                	ret
    92ca:	00357693          	andi	a3,a0,3
    92ce:	87aa                	mv	a5,a0
    92d0:	ca91                	beqz	a3,92e4 <memcpy+0x44>
    92d2:	0005c683          	lbu	a3,0(a1)
    92d6:	0785                	addi	a5,a5,1
    92d8:	0585                	addi	a1,a1,1
    92da:	fed78fa3          	sb	a3,-1(a5)
    92de:	0037f693          	andi	a3,a5,3
    92e2:	b7fd                	j	92d0 <memcpy+0x30>
    92e4:	ffc77693          	andi	a3,a4,-4
    92e8:	fe068613          	addi	a2,a3,-32
    92ec:	06c7f063          	bgeu	a5,a2,934c <memcpy+0xac>
    92f0:	0005a383          	lw	t2,0(a1)
    92f4:	0045a283          	lw	t0,4(a1)
    92f8:	0085af83          	lw	t6,8(a1)
    92fc:	00c5af03          	lw	t5,12(a1)
    9300:	0105ae83          	lw	t4,16(a1)
    9304:	0145ae03          	lw	t3,20(a1)
    9308:	0185a303          	lw	t1,24(a1)
    930c:	01c5a883          	lw	a7,28(a1)
    9310:	02458593          	addi	a1,a1,36
    9314:	0077a023          	sw	t2,0(a5)
    9318:	ffc5a803          	lw	a6,-4(a1)
    931c:	0057a223          	sw	t0,4(a5)
    9320:	01f7a423          	sw	t6,8(a5)
    9324:	01e7a623          	sw	t5,12(a5)
    9328:	01d7a823          	sw	t4,16(a5)
    932c:	01c7aa23          	sw	t3,20(a5)
    9330:	0067ac23          	sw	t1,24(a5)
    9334:	0117ae23          	sw	a7,28(a5)
    9338:	02478793          	addi	a5,a5,36
    933c:	ff07ae23          	sw	a6,-4(a5)
    9340:	b775                	j	92ec <memcpy+0x4c>
    9342:	4190                	lw	a2,0(a1)
    9344:	0791                	addi	a5,a5,4
    9346:	0591                	addi	a1,a1,4
    9348:	fec7ae23          	sw	a2,-4(a5)
    934c:	fed7ebe3          	bltu	a5,a3,9342 <memcpy+0xa2>
    9350:	f6e7e4e3          	bltu	a5,a4,92b8 <memcpy+0x18>
    9354:	8082                	ret

00009356 <iprintf>:
    9356:	7139                	addi	sp,sp,-64
    9358:	da3e                	sw	a5,52(sp)
    935a:	d22e                	sw	a1,36(sp)
    935c:	d432                	sw	a2,40(sp)
    935e:	d636                	sw	a3,44(sp)
    9360:	d83a                	sw	a4,48(sp)
    9362:	dc42                	sw	a6,56(sp)
    9364:	de46                	sw	a7,60(sp)
    9366:	81818793          	addi	a5,gp,-2024 # 20000098 <_impure_ptr>
    936a:	cc22                	sw	s0,24(sp)
    936c:	4380                	lw	s0,0(a5)
    936e:	ca26                	sw	s1,20(sp)
    9370:	ce06                	sw	ra,28(sp)
    9372:	84aa                	mv	s1,a0
    9374:	c409                	beqz	s0,937e <iprintf+0x28>
    9376:	4c1c                	lw	a5,24(s0)
    9378:	e399                	bnez	a5,937e <iprintf+0x28>
    937a:	8522                	mv	a0,s0
    937c:	2325                	jal	98a4 <__sinit>
    937e:	440c                	lw	a1,8(s0)
    9380:	1054                	addi	a3,sp,36
    9382:	8626                	mv	a2,s1
    9384:	8522                	mv	a0,s0
    9386:	c636                	sw	a3,12(sp)
    9388:	191000ef          	jal	ra,9d18 <_vfiprintf_r>
    938c:	40f2                	lw	ra,28(sp)
    938e:	4462                	lw	s0,24(sp)
    9390:	44d2                	lw	s1,20(sp)
    9392:	6121                	addi	sp,sp,64
    9394:	8082                	ret

00009396 <_puts_r>:
    9396:	1101                	addi	sp,sp,-32
    9398:	ca26                	sw	s1,20(sp)
    939a:	c84a                	sw	s2,16(sp)
    939c:	ce06                	sw	ra,28(sp)
    939e:	cc22                	sw	s0,24(sp)
    93a0:	c64e                	sw	s3,12(sp)
    93a2:	c452                	sw	s4,8(sp)
    93a4:	84aa                	mv	s1,a0
    93a6:	892e                	mv	s2,a1
    93a8:	c501                	beqz	a0,93b0 <_puts_r+0x1a>
    93aa:	4d1c                	lw	a5,24(a0)
    93ac:	e391                	bnez	a5,93b0 <_puts_r+0x1a>
    93ae:	29dd                	jal	98a4 <__sinit>
    93b0:	4c9c                	lw	a5,24(s1)
    93b2:	4480                	lw	s0,8(s1)
    93b4:	e399                	bnez	a5,93ba <_puts_r+0x24>
    93b6:	8526                	mv	a0,s1
    93b8:	21f5                	jal	98a4 <__sinit>
    93ba:	00002797          	auipc	a5,0x2
    93be:	a5e78793          	addi	a5,a5,-1442 # ae18 <__sf_fake_stdin>
    93c2:	02f41c63          	bne	s0,a5,93fa <_puts_r+0x64>
    93c6:	40c0                	lw	s0,4(s1)
    93c8:	00c45783          	lhu	a5,12(s0) # 400000c <_data_lma+0x3ff5178>
    93cc:	8ba1                	andi	a5,a5,8
    93ce:	c7b1                	beqz	a5,941a <_puts_r+0x84>
    93d0:	481c                	lw	a5,16(s0)
    93d2:	c7a1                	beqz	a5,941a <_puts_r+0x84>
    93d4:	59fd                	li	s3,-1
    93d6:	4a29                	li	s4,10
    93d8:	441c                	lw	a5,8(s0)
    93da:	00094583          	lbu	a1,0(s2)
    93de:	17fd                	addi	a5,a5,-1
    93e0:	e9b1                	bnez	a1,9434 <_puts_r+0x9e>
    93e2:	c41c                	sw	a5,8(s0)
    93e4:	0607de63          	bgez	a5,9460 <_puts_r+0xca>
    93e8:	8622                	mv	a2,s0
    93ea:	45a9                	li	a1,10
    93ec:	8526                	mv	a0,s1
    93ee:	2079                	jal	947c <__swbuf_r>
    93f0:	57fd                	li	a5,-1
    93f2:	02f50863          	beq	a0,a5,9422 <_puts_r+0x8c>
    93f6:	4529                	li	a0,10
    93f8:	a035                	j	9424 <_puts_r+0x8e>
    93fa:	00002797          	auipc	a5,0x2
    93fe:	a3e78793          	addi	a5,a5,-1474 # ae38 <__sf_fake_stdout>
    9402:	00f41463          	bne	s0,a5,940a <_puts_r+0x74>
    9406:	4480                	lw	s0,8(s1)
    9408:	b7c1                	j	93c8 <_puts_r+0x32>
    940a:	00002797          	auipc	a5,0x2
    940e:	9ee78793          	addi	a5,a5,-1554 # adf8 <__sf_fake_stderr>
    9412:	faf41be3          	bne	s0,a5,93c8 <_puts_r+0x32>
    9416:	44c0                	lw	s0,12(s1)
    9418:	bf45                	j	93c8 <_puts_r+0x32>
    941a:	85a2                	mv	a1,s0
    941c:	8526                	mv	a0,s1
    941e:	2a39                	jal	953c <__swsetup_r>
    9420:	d955                	beqz	a0,93d4 <_puts_r+0x3e>
    9422:	557d                	li	a0,-1
    9424:	40f2                	lw	ra,28(sp)
    9426:	4462                	lw	s0,24(sp)
    9428:	44d2                	lw	s1,20(sp)
    942a:	4942                	lw	s2,16(sp)
    942c:	49b2                	lw	s3,12(sp)
    942e:	4a22                	lw	s4,8(sp)
    9430:	6105                	addi	sp,sp,32
    9432:	8082                	ret
    9434:	c41c                	sw	a5,8(s0)
    9436:	0905                	addi	s2,s2,1
    9438:	0007d763          	bgez	a5,9446 <_puts_r+0xb0>
    943c:	4c18                	lw	a4,24(s0)
    943e:	00e7cb63          	blt	a5,a4,9454 <_puts_r+0xbe>
    9442:	01458963          	beq	a1,s4,9454 <_puts_r+0xbe>
    9446:	401c                	lw	a5,0(s0)
    9448:	00178713          	addi	a4,a5,1
    944c:	c018                	sw	a4,0(s0)
    944e:	00b78023          	sb	a1,0(a5)
    9452:	b759                	j	93d8 <_puts_r+0x42>
    9454:	8622                	mv	a2,s0
    9456:	8526                	mv	a0,s1
    9458:	2015                	jal	947c <__swbuf_r>
    945a:	f7351fe3          	bne	a0,s3,93d8 <_puts_r+0x42>
    945e:	b7d1                	j	9422 <_puts_r+0x8c>
    9460:	401c                	lw	a5,0(s0)
    9462:	00178713          	addi	a4,a5,1
    9466:	c018                	sw	a4,0(s0)
    9468:	4729                	li	a4,10
    946a:	00e78023          	sb	a4,0(a5)
    946e:	b761                	j	93f6 <_puts_r+0x60>

00009470 <puts>:
    9470:	81818793          	addi	a5,gp,-2024 # 20000098 <_impure_ptr>
    9474:	85aa                	mv	a1,a0
    9476:	4388                	lw	a0,0(a5)
    9478:	f1fff06f          	j	9396 <_puts_r>

0000947c <__swbuf_r>:
    947c:	1101                	addi	sp,sp,-32
    947e:	cc22                	sw	s0,24(sp)
    9480:	ca26                	sw	s1,20(sp)
    9482:	c84a                	sw	s2,16(sp)
    9484:	ce06                	sw	ra,28(sp)
    9486:	c64e                	sw	s3,12(sp)
    9488:	84aa                	mv	s1,a0
    948a:	892e                	mv	s2,a1
    948c:	8432                	mv	s0,a2
    948e:	c501                	beqz	a0,9496 <__swbuf_r+0x1a>
    9490:	4d1c                	lw	a5,24(a0)
    9492:	e391                	bnez	a5,9496 <__swbuf_r+0x1a>
    9494:	2901                	jal	98a4 <__sinit>
    9496:	00002797          	auipc	a5,0x2
    949a:	98278793          	addi	a5,a5,-1662 # ae18 <__sf_fake_stdin>
    949e:	06f41963          	bne	s0,a5,9510 <__swbuf_r+0x94>
    94a2:	40c0                	lw	s0,4(s1)
    94a4:	4c1c                	lw	a5,24(s0)
    94a6:	c41c                	sw	a5,8(s0)
    94a8:	00c45783          	lhu	a5,12(s0)
    94ac:	8ba1                	andi	a5,a5,8
    94ae:	c3c9                	beqz	a5,9530 <__swbuf_r+0xb4>
    94b0:	481c                	lw	a5,16(s0)
    94b2:	cfbd                	beqz	a5,9530 <__swbuf_r+0xb4>
    94b4:	481c                	lw	a5,16(s0)
    94b6:	4008                	lw	a0,0(s0)
    94b8:	0ff97993          	andi	s3,s2,255
    94bc:	0ff97913          	andi	s2,s2,255
    94c0:	8d1d                	sub	a0,a0,a5
    94c2:	485c                	lw	a5,20(s0)
    94c4:	00f54663          	blt	a0,a5,94d0 <__swbuf_r+0x54>
    94c8:	85a2                	mv	a1,s0
    94ca:	8526                	mv	a0,s1
    94cc:	2c65                	jal	9784 <_fflush_r>
    94ce:	e52d                	bnez	a0,9538 <__swbuf_r+0xbc>
    94d0:	441c                	lw	a5,8(s0)
    94d2:	0505                	addi	a0,a0,1
    94d4:	17fd                	addi	a5,a5,-1
    94d6:	c41c                	sw	a5,8(s0)
    94d8:	401c                	lw	a5,0(s0)
    94da:	00178713          	addi	a4,a5,1
    94de:	c018                	sw	a4,0(s0)
    94e0:	01378023          	sb	s3,0(a5)
    94e4:	485c                	lw	a5,20(s0)
    94e6:	00a78963          	beq	a5,a0,94f8 <__swbuf_r+0x7c>
    94ea:	00c45783          	lhu	a5,12(s0)
    94ee:	8b85                	andi	a5,a5,1
    94f0:	cb81                	beqz	a5,9500 <__swbuf_r+0x84>
    94f2:	47a9                	li	a5,10
    94f4:	00f91663          	bne	s2,a5,9500 <__swbuf_r+0x84>
    94f8:	85a2                	mv	a1,s0
    94fa:	8526                	mv	a0,s1
    94fc:	2461                	jal	9784 <_fflush_r>
    94fe:	ed0d                	bnez	a0,9538 <__swbuf_r+0xbc>
    9500:	40f2                	lw	ra,28(sp)
    9502:	4462                	lw	s0,24(sp)
    9504:	854a                	mv	a0,s2
    9506:	44d2                	lw	s1,20(sp)
    9508:	4942                	lw	s2,16(sp)
    950a:	49b2                	lw	s3,12(sp)
    950c:	6105                	addi	sp,sp,32
    950e:	8082                	ret
    9510:	00002797          	auipc	a5,0x2
    9514:	92878793          	addi	a5,a5,-1752 # ae38 <__sf_fake_stdout>
    9518:	00f41463          	bne	s0,a5,9520 <__swbuf_r+0xa4>
    951c:	4480                	lw	s0,8(s1)
    951e:	b759                	j	94a4 <__swbuf_r+0x28>
    9520:	00002797          	auipc	a5,0x2
    9524:	8d878793          	addi	a5,a5,-1832 # adf8 <__sf_fake_stderr>
    9528:	f6f41ee3          	bne	s0,a5,94a4 <__swbuf_r+0x28>
    952c:	44c0                	lw	s0,12(s1)
    952e:	bf9d                	j	94a4 <__swbuf_r+0x28>
    9530:	85a2                	mv	a1,s0
    9532:	8526                	mv	a0,s1
    9534:	2021                	jal	953c <__swsetup_r>
    9536:	dd3d                	beqz	a0,94b4 <__swbuf_r+0x38>
    9538:	597d                	li	s2,-1
    953a:	b7d9                	j	9500 <__swbuf_r+0x84>

0000953c <__swsetup_r>:
    953c:	1141                	addi	sp,sp,-16
    953e:	81818793          	addi	a5,gp,-2024 # 20000098 <_impure_ptr>
    9542:	c226                	sw	s1,4(sp)
    9544:	4384                	lw	s1,0(a5)
    9546:	c422                	sw	s0,8(sp)
    9548:	c04a                	sw	s2,0(sp)
    954a:	c606                	sw	ra,12(sp)
    954c:	892a                	mv	s2,a0
    954e:	842e                	mv	s0,a1
    9550:	c489                	beqz	s1,955a <__swsetup_r+0x1e>
    9552:	4c9c                	lw	a5,24(s1)
    9554:	e399                	bnez	a5,955a <__swsetup_r+0x1e>
    9556:	8526                	mv	a0,s1
    9558:	26b1                	jal	98a4 <__sinit>
    955a:	00002797          	auipc	a5,0x2
    955e:	8be78793          	addi	a5,a5,-1858 # ae18 <__sf_fake_stdin>
    9562:	02f41c63          	bne	s0,a5,959a <__swsetup_r+0x5e>
    9566:	40c0                	lw	s0,4(s1)
    9568:	00c41703          	lh	a4,12(s0)
    956c:	01071793          	slli	a5,a4,0x10
    9570:	83c1                	srli	a5,a5,0x10
    9572:	0087f693          	andi	a3,a5,8
    9576:	eeb5                	bnez	a3,95f2 <__swsetup_r+0xb6>
    9578:	0107f693          	andi	a3,a5,16
    957c:	ee9d                	bnez	a3,95ba <__swsetup_r+0x7e>
    957e:	47a5                	li	a5,9
    9580:	00f92023          	sw	a5,0(s2)
    9584:	04076713          	ori	a4,a4,64
    9588:	00e41623          	sh	a4,12(s0)
    958c:	557d                	li	a0,-1
    958e:	40b2                	lw	ra,12(sp)
    9590:	4422                	lw	s0,8(sp)
    9592:	4492                	lw	s1,4(sp)
    9594:	4902                	lw	s2,0(sp)
    9596:	0141                	addi	sp,sp,16
    9598:	8082                	ret
    959a:	00002797          	auipc	a5,0x2
    959e:	89e78793          	addi	a5,a5,-1890 # ae38 <__sf_fake_stdout>
    95a2:	00f41463          	bne	s0,a5,95aa <__swsetup_r+0x6e>
    95a6:	4480                	lw	s0,8(s1)
    95a8:	b7c1                	j	9568 <__swsetup_r+0x2c>
    95aa:	00002797          	auipc	a5,0x2
    95ae:	84e78793          	addi	a5,a5,-1970 # adf8 <__sf_fake_stderr>
    95b2:	faf41be3          	bne	s0,a5,9568 <__swsetup_r+0x2c>
    95b6:	44c0                	lw	s0,12(s1)
    95b8:	bf45                	j	9568 <__swsetup_r+0x2c>
    95ba:	8b91                	andi	a5,a5,4
    95bc:	c78d                	beqz	a5,95e6 <__swsetup_r+0xaa>
    95be:	584c                	lw	a1,52(s0)
    95c0:	c989                	beqz	a1,95d2 <__swsetup_r+0x96>
    95c2:	04440793          	addi	a5,s0,68
    95c6:	00f58463          	beq	a1,a5,95ce <__swsetup_r+0x92>
    95ca:	854a                	mv	a0,s2
    95cc:	23a9                	jal	9b16 <_free_r>
    95ce:	02042a23          	sw	zero,52(s0)
    95d2:	00c45783          	lhu	a5,12(s0)
    95d6:	00042223          	sw	zero,4(s0)
    95da:	fdb7f793          	andi	a5,a5,-37
    95de:	00f41623          	sh	a5,12(s0)
    95e2:	481c                	lw	a5,16(s0)
    95e4:	c01c                	sw	a5,0(s0)
    95e6:	00c45783          	lhu	a5,12(s0)
    95ea:	0087e793          	ori	a5,a5,8
    95ee:	00f41623          	sh	a5,12(s0)
    95f2:	481c                	lw	a5,16(s0)
    95f4:	ef81                	bnez	a5,960c <__swsetup_r+0xd0>
    95f6:	00c45783          	lhu	a5,12(s0)
    95fa:	20000713          	li	a4,512
    95fe:	2807f793          	andi	a5,a5,640
    9602:	00e78563          	beq	a5,a4,960c <__swsetup_r+0xd0>
    9606:	85a2                	mv	a1,s0
    9608:	854a                	mv	a0,s2
    960a:	21b5                	jal	9a76 <__smakebuf_r>
    960c:	00c45783          	lhu	a5,12(s0)
    9610:	0017f713          	andi	a4,a5,1
    9614:	c705                	beqz	a4,963c <__swsetup_r+0x100>
    9616:	485c                	lw	a5,20(s0)
    9618:	00042423          	sw	zero,8(s0)
    961c:	40f007b3          	neg	a5,a5
    9620:	cc1c                	sw	a5,24(s0)
    9622:	481c                	lw	a5,16(s0)
    9624:	4501                	li	a0,0
    9626:	f7a5                	bnez	a5,958e <__swsetup_r+0x52>
    9628:	00c41783          	lh	a5,12(s0)
    962c:	0807f713          	andi	a4,a5,128
    9630:	df39                	beqz	a4,958e <__swsetup_r+0x52>
    9632:	0407e793          	ori	a5,a5,64
    9636:	00f41623          	sh	a5,12(s0)
    963a:	bf89                	j	958c <__swsetup_r+0x50>
    963c:	8b89                	andi	a5,a5,2
    963e:	4701                	li	a4,0
    9640:	e391                	bnez	a5,9644 <__swsetup_r+0x108>
    9642:	4858                	lw	a4,20(s0)
    9644:	c418                	sw	a4,8(s0)
    9646:	bff1                	j	9622 <__swsetup_r+0xe6>

00009648 <__sflush_r>:
    9648:	00c5d783          	lhu	a5,12(a1)
    964c:	1101                	addi	sp,sp,-32
    964e:	cc22                	sw	s0,24(sp)
    9650:	ca26                	sw	s1,20(sp)
    9652:	ce06                	sw	ra,28(sp)
    9654:	c84a                	sw	s2,16(sp)
    9656:	c64e                	sw	s3,12(sp)
    9658:	0087f713          	andi	a4,a5,8
    965c:	84aa                	mv	s1,a0
    965e:	842e                	mv	s0,a1
    9660:	ef71                	bnez	a4,973c <__sflush_r+0xf4>
    9662:	41d8                	lw	a4,4(a1)
    9664:	00e04d63          	bgtz	a4,967e <__sflush_r+0x36>
    9668:	41b8                	lw	a4,64(a1)
    966a:	00e04a63          	bgtz	a4,967e <__sflush_r+0x36>
    966e:	4501                	li	a0,0
    9670:	40f2                	lw	ra,28(sp)
    9672:	4462                	lw	s0,24(sp)
    9674:	44d2                	lw	s1,20(sp)
    9676:	4942                	lw	s2,16(sp)
    9678:	49b2                	lw	s3,12(sp)
    967a:	6105                	addi	sp,sp,32
    967c:	8082                	ret
    967e:	5458                	lw	a4,44(s0)
    9680:	d77d                	beqz	a4,966e <__sflush_r+0x26>
    9682:	0004a903          	lw	s2,0(s1)
    9686:	01379693          	slli	a3,a5,0x13
    968a:	0004a023          	sw	zero,0(s1)
    968e:	0606dd63          	bgez	a3,9708 <__sflush_r+0xc0>
    9692:	4870                	lw	a2,84(s0)
    9694:	00c45783          	lhu	a5,12(s0)
    9698:	8b91                	andi	a5,a5,4
    969a:	c799                	beqz	a5,96a8 <__sflush_r+0x60>
    969c:	405c                	lw	a5,4(s0)
    969e:	8e1d                	sub	a2,a2,a5
    96a0:	585c                	lw	a5,52(s0)
    96a2:	c399                	beqz	a5,96a8 <__sflush_r+0x60>
    96a4:	403c                	lw	a5,64(s0)
    96a6:	8e1d                	sub	a2,a2,a5
    96a8:	545c                	lw	a5,44(s0)
    96aa:	500c                	lw	a1,32(s0)
    96ac:	4681                	li	a3,0
    96ae:	8526                	mv	a0,s1
    96b0:	9782                	jalr	a5
    96b2:	57fd                	li	a5,-1
    96b4:	00c45703          	lhu	a4,12(s0)
    96b8:	00f51d63          	bne	a0,a5,96d2 <__sflush_r+0x8a>
    96bc:	4094                	lw	a3,0(s1)
    96be:	47f5                	li	a5,29
    96c0:	06d7e863          	bltu	a5,a3,9730 <__sflush_r+0xe8>
    96c4:	204007b7          	lui	a5,0x20400
    96c8:	0785                	addi	a5,a5,1
    96ca:	00d7d7b3          	srl	a5,a5,a3
    96ce:	8b85                	andi	a5,a5,1
    96d0:	c3a5                	beqz	a5,9730 <__sflush_r+0xe8>
    96d2:	481c                	lw	a5,16(s0)
    96d4:	00042223          	sw	zero,4(s0)
    96d8:	c01c                	sw	a5,0(s0)
    96da:	01371793          	slli	a5,a4,0x13
    96de:	0007d863          	bgez	a5,96ee <__sflush_r+0xa6>
    96e2:	57fd                	li	a5,-1
    96e4:	00f51463          	bne	a0,a5,96ec <__sflush_r+0xa4>
    96e8:	409c                	lw	a5,0(s1)
    96ea:	e391                	bnez	a5,96ee <__sflush_r+0xa6>
    96ec:	c868                	sw	a0,84(s0)
    96ee:	584c                	lw	a1,52(s0)
    96f0:	0124a023          	sw	s2,0(s1)
    96f4:	ddad                	beqz	a1,966e <__sflush_r+0x26>
    96f6:	04440793          	addi	a5,s0,68
    96fa:	00f58463          	beq	a1,a5,9702 <__sflush_r+0xba>
    96fe:	8526                	mv	a0,s1
    9700:	2919                	jal	9b16 <_free_r>
    9702:	02042a23          	sw	zero,52(s0)
    9706:	b7a5                	j	966e <__sflush_r+0x26>
    9708:	500c                	lw	a1,32(s0)
    970a:	4601                	li	a2,0
    970c:	4685                	li	a3,1
    970e:	8526                	mv	a0,s1
    9710:	9702                	jalr	a4
    9712:	57fd                	li	a5,-1
    9714:	862a                	mv	a2,a0
    9716:	f6f51fe3          	bne	a0,a5,9694 <__sflush_r+0x4c>
    971a:	409c                	lw	a5,0(s1)
    971c:	dfa5                	beqz	a5,9694 <__sflush_r+0x4c>
    971e:	4775                	li	a4,29
    9720:	00e78563          	beq	a5,a4,972a <__sflush_r+0xe2>
    9724:	4759                	li	a4,22
    9726:	04e79463          	bne	a5,a4,976e <__sflush_r+0x126>
    972a:	0124a023          	sw	s2,0(s1)
    972e:	b781                	j	966e <__sflush_r+0x26>
    9730:	04076713          	ori	a4,a4,64
    9734:	00e41623          	sh	a4,12(s0)
    9738:	557d                	li	a0,-1
    973a:	bf1d                	j	9670 <__sflush_r+0x28>
    973c:	0105a983          	lw	s3,16(a1)
    9740:	f20987e3          	beqz	s3,966e <__sflush_r+0x26>
    9744:	0005a903          	lw	s2,0(a1)
    9748:	8b8d                	andi	a5,a5,3
    974a:	0135a023          	sw	s3,0(a1)
    974e:	41390933          	sub	s2,s2,s3
    9752:	4701                	li	a4,0
    9754:	e391                	bnez	a5,9758 <__sflush_r+0x110>
    9756:	49d8                	lw	a4,20(a1)
    9758:	c418                	sw	a4,8(s0)
    975a:	f1205ae3          	blez	s2,966e <__sflush_r+0x26>
    975e:	541c                	lw	a5,40(s0)
    9760:	500c                	lw	a1,32(s0)
    9762:	86ca                	mv	a3,s2
    9764:	864e                	mv	a2,s3
    9766:	8526                	mv	a0,s1
    9768:	9782                	jalr	a5
    976a:	00a04963          	bgtz	a0,977c <__sflush_r+0x134>
    976e:	00c45783          	lhu	a5,12(s0)
    9772:	0407e793          	ori	a5,a5,64
    9776:	00f41623          	sh	a5,12(s0)
    977a:	bf7d                	j	9738 <__sflush_r+0xf0>
    977c:	99aa                	add	s3,s3,a0
    977e:	40a90933          	sub	s2,s2,a0
    9782:	bfe1                	j	975a <__sflush_r+0x112>

00009784 <_fflush_r>:
    9784:	499c                	lw	a5,16(a1)
    9786:	c3a5                	beqz	a5,97e6 <_fflush_r+0x62>
    9788:	1101                	addi	sp,sp,-32
    978a:	cc22                	sw	s0,24(sp)
    978c:	ce06                	sw	ra,28(sp)
    978e:	842a                	mv	s0,a0
    9790:	c511                	beqz	a0,979c <_fflush_r+0x18>
    9792:	4d1c                	lw	a5,24(a0)
    9794:	e781                	bnez	a5,979c <_fflush_r+0x18>
    9796:	c62e                	sw	a1,12(sp)
    9798:	2231                	jal	98a4 <__sinit>
    979a:	45b2                	lw	a1,12(sp)
    979c:	00001797          	auipc	a5,0x1
    97a0:	67c78793          	addi	a5,a5,1660 # ae18 <__sf_fake_stdin>
    97a4:	00f59c63          	bne	a1,a5,97bc <_fflush_r+0x38>
    97a8:	404c                	lw	a1,4(s0)
    97aa:	00c59783          	lh	a5,12(a1)
    97ae:	c79d                	beqz	a5,97dc <_fflush_r+0x58>
    97b0:	8522                	mv	a0,s0
    97b2:	4462                	lw	s0,24(sp)
    97b4:	40f2                	lw	ra,28(sp)
    97b6:	6105                	addi	sp,sp,32
    97b8:	e91ff06f          	j	9648 <__sflush_r>
    97bc:	00001797          	auipc	a5,0x1
    97c0:	67c78793          	addi	a5,a5,1660 # ae38 <__sf_fake_stdout>
    97c4:	00f59463          	bne	a1,a5,97cc <_fflush_r+0x48>
    97c8:	440c                	lw	a1,8(s0)
    97ca:	b7c5                	j	97aa <_fflush_r+0x26>
    97cc:	00001797          	auipc	a5,0x1
    97d0:	62c78793          	addi	a5,a5,1580 # adf8 <__sf_fake_stderr>
    97d4:	fcf59be3          	bne	a1,a5,97aa <_fflush_r+0x26>
    97d8:	444c                	lw	a1,12(s0)
    97da:	bfc1                	j	97aa <_fflush_r+0x26>
    97dc:	40f2                	lw	ra,28(sp)
    97de:	4462                	lw	s0,24(sp)
    97e0:	4501                	li	a0,0
    97e2:	6105                	addi	sp,sp,32
    97e4:	8082                	ret
    97e6:	4501                	li	a0,0
    97e8:	8082                	ret

000097ea <std>:
    97ea:	1141                	addi	sp,sp,-16
    97ec:	c422                	sw	s0,8(sp)
    97ee:	c606                	sw	ra,12(sp)
    97f0:	842a                	mv	s0,a0
    97f2:	00b51623          	sh	a1,12(a0)
    97f6:	00c51723          	sh	a2,14(a0)
    97fa:	00052023          	sw	zero,0(a0)
    97fe:	00052223          	sw	zero,4(a0)
    9802:	00052423          	sw	zero,8(a0)
    9806:	06052223          	sw	zero,100(a0)
    980a:	00052823          	sw	zero,16(a0)
    980e:	00052a23          	sw	zero,20(a0)
    9812:	00052c23          	sw	zero,24(a0)
    9816:	4621                	li	a2,8
    9818:	4581                	li	a1,0
    981a:	05c50513          	addi	a0,a0,92
    981e:	d31f60ef          	jal	ra,54e <memset>
    9822:	00001797          	auipc	a5,0x1
    9826:	b7a78793          	addi	a5,a5,-1158 # a39c <__sread>
    982a:	d05c                	sw	a5,36(s0)
    982c:	00001797          	auipc	a5,0x1
    9830:	ba078793          	addi	a5,a5,-1120 # a3cc <__swrite>
    9834:	d41c                	sw	a5,40(s0)
    9836:	00001797          	auipc	a5,0x1
    983a:	be478793          	addi	a5,a5,-1052 # a41a <__sseek>
    983e:	d45c                	sw	a5,44(s0)
    9840:	00001797          	auipc	a5,0x1
    9844:	c1078793          	addi	a5,a5,-1008 # a450 <__sclose>
    9848:	d000                	sw	s0,32(s0)
    984a:	d81c                	sw	a5,48(s0)
    984c:	40b2                	lw	ra,12(sp)
    984e:	4422                	lw	s0,8(sp)
    9850:	0141                	addi	sp,sp,16
    9852:	8082                	ret

00009854 <_cleanup_r>:
    9854:	00000597          	auipc	a1,0x0
    9858:	f3058593          	addi	a1,a1,-208 # 9784 <_fflush_r>
    985c:	aa91                	j	99b0 <_fwalk_reent>

0000985e <__sfmoreglue>:
    985e:	1141                	addi	sp,sp,-16
    9860:	c226                	sw	s1,4(sp)
    9862:	06800613          	li	a2,104
    9866:	fff58493          	addi	s1,a1,-1
    986a:	02c484b3          	mul	s1,s1,a2
    986e:	c04a                	sw	s2,0(sp)
    9870:	892e                	mv	s2,a1
    9872:	c422                	sw	s0,8(sp)
    9874:	c606                	sw	ra,12(sp)
    9876:	07448593          	addi	a1,s1,116
    987a:	26b1                	jal	9bc6 <_malloc_r>
    987c:	842a                	mv	s0,a0
    987e:	cd01                	beqz	a0,9896 <__sfmoreglue+0x38>
    9880:	00052023          	sw	zero,0(a0)
    9884:	01252223          	sw	s2,4(a0)
    9888:	0531                	addi	a0,a0,12
    988a:	c408                	sw	a0,8(s0)
    988c:	06848613          	addi	a2,s1,104
    9890:	4581                	li	a1,0
    9892:	cbdf60ef          	jal	ra,54e <memset>
    9896:	8522                	mv	a0,s0
    9898:	40b2                	lw	ra,12(sp)
    989a:	4422                	lw	s0,8(sp)
    989c:	4492                	lw	s1,4(sp)
    989e:	4902                	lw	s2,0(sp)
    98a0:	0141                	addi	sp,sp,16
    98a2:	8082                	ret

000098a4 <__sinit>:
    98a4:	4d1c                	lw	a5,24(a0)
    98a6:	e7a5                	bnez	a5,990e <__sinit+0x6a>
    98a8:	1141                	addi	sp,sp,-16
    98aa:	c606                	sw	ra,12(sp)
    98ac:	c422                	sw	s0,8(sp)
    98ae:	00000797          	auipc	a5,0x0
    98b2:	fa678793          	addi	a5,a5,-90 # 9854 <_cleanup_r>
    98b6:	d51c                	sw	a5,40(a0)
    98b8:	82018793          	addi	a5,gp,-2016 # 200000a0 <_global_impure_ptr>
    98bc:	439c                	lw	a5,0(a5)
    98be:	04052423          	sw	zero,72(a0)
    98c2:	04052623          	sw	zero,76(a0)
    98c6:	04052823          	sw	zero,80(a0)
    98ca:	00f51463          	bne	a0,a5,98d2 <__sinit+0x2e>
    98ce:	4785                	li	a5,1
    98d0:	cd1c                	sw	a5,24(a0)
    98d2:	842a                	mv	s0,a0
    98d4:	2835                	jal	9910 <__sfp>
    98d6:	c048                	sw	a0,4(s0)
    98d8:	8522                	mv	a0,s0
    98da:	281d                	jal	9910 <__sfp>
    98dc:	c408                	sw	a0,8(s0)
    98de:	8522                	mv	a0,s0
    98e0:	2805                	jal	9910 <__sfp>
    98e2:	c448                	sw	a0,12(s0)
    98e4:	4048                	lw	a0,4(s0)
    98e6:	4601                	li	a2,0
    98e8:	4591                	li	a1,4
    98ea:	f01ff0ef          	jal	ra,97ea <std>
    98ee:	4408                	lw	a0,8(s0)
    98f0:	4605                	li	a2,1
    98f2:	45a5                	li	a1,9
    98f4:	ef7ff0ef          	jal	ra,97ea <std>
    98f8:	4448                	lw	a0,12(s0)
    98fa:	4609                	li	a2,2
    98fc:	45c9                	li	a1,18
    98fe:	eedff0ef          	jal	ra,97ea <std>
    9902:	4785                	li	a5,1
    9904:	cc1c                	sw	a5,24(s0)
    9906:	40b2                	lw	ra,12(sp)
    9908:	4422                	lw	s0,8(sp)
    990a:	0141                	addi	sp,sp,16
    990c:	8082                	ret
    990e:	8082                	ret

00009910 <__sfp>:
    9910:	1141                	addi	sp,sp,-16
    9912:	82018793          	addi	a5,gp,-2016 # 200000a0 <_global_impure_ptr>
    9916:	c226                	sw	s1,4(sp)
    9918:	4384                	lw	s1,0(a5)
    991a:	c04a                	sw	s2,0(sp)
    991c:	c606                	sw	ra,12(sp)
    991e:	4c9c                	lw	a5,24(s1)
    9920:	c422                	sw	s0,8(sp)
    9922:	892a                	mv	s2,a0
    9924:	e781                	bnez	a5,992c <__sfp+0x1c>
    9926:	8526                	mv	a0,s1
    9928:	f7dff0ef          	jal	ra,98a4 <__sinit>
    992c:	04848493          	addi	s1,s1,72
    9930:	4480                	lw	s0,8(s1)
    9932:	40dc                	lw	a5,4(s1)
    9934:	17fd                	addi	a5,a5,-1
    9936:	0007d663          	bgez	a5,9942 <__sfp+0x32>
    993a:	409c                	lw	a5,0(s1)
    993c:	cfb9                	beqz	a5,999a <__sfp+0x8a>
    993e:	4084                	lw	s1,0(s1)
    9940:	bfc5                	j	9930 <__sfp+0x20>
    9942:	00c41703          	lh	a4,12(s0)
    9946:	e739                	bnez	a4,9994 <__sfp+0x84>
    9948:	77c1                	lui	a5,0xffff0
    994a:	0785                	addi	a5,a5,1
    994c:	06042223          	sw	zero,100(s0)
    9950:	00042023          	sw	zero,0(s0)
    9954:	00042223          	sw	zero,4(s0)
    9958:	00042423          	sw	zero,8(s0)
    995c:	c45c                	sw	a5,12(s0)
    995e:	00042823          	sw	zero,16(s0)
    9962:	00042a23          	sw	zero,20(s0)
    9966:	00042c23          	sw	zero,24(s0)
    996a:	4621                	li	a2,8
    996c:	4581                	li	a1,0
    996e:	05c40513          	addi	a0,s0,92
    9972:	bddf60ef          	jal	ra,54e <memset>
    9976:	02042a23          	sw	zero,52(s0)
    997a:	02042c23          	sw	zero,56(s0)
    997e:	04042423          	sw	zero,72(s0)
    9982:	04042623          	sw	zero,76(s0)
    9986:	8522                	mv	a0,s0
    9988:	40b2                	lw	ra,12(sp)
    998a:	4422                	lw	s0,8(sp)
    998c:	4492                	lw	s1,4(sp)
    998e:	4902                	lw	s2,0(sp)
    9990:	0141                	addi	sp,sp,16
    9992:	8082                	ret
    9994:	06840413          	addi	s0,s0,104
    9998:	bf71                	j	9934 <__sfp+0x24>
    999a:	4591                	li	a1,4
    999c:	854a                	mv	a0,s2
    999e:	ec1ff0ef          	jal	ra,985e <__sfmoreglue>
    99a2:	c088                	sw	a0,0(s1)
    99a4:	fd49                	bnez	a0,993e <__sfp+0x2e>
    99a6:	47b1                	li	a5,12
    99a8:	00f92023          	sw	a5,0(s2)
    99ac:	4401                	li	s0,0
    99ae:	bfe1                	j	9986 <__sfp+0x76>

000099b0 <_fwalk_reent>:
    99b0:	7179                	addi	sp,sp,-48
    99b2:	d422                	sw	s0,40(sp)
    99b4:	d04a                	sw	s2,32(sp)
    99b6:	cc52                	sw	s4,24(sp)
    99b8:	ca56                	sw	s5,20(sp)
    99ba:	c85a                	sw	s6,16(sp)
    99bc:	c65e                	sw	s7,12(sp)
    99be:	d606                	sw	ra,44(sp)
    99c0:	d226                	sw	s1,36(sp)
    99c2:	ce4e                	sw	s3,28(sp)
    99c4:	8a2a                	mv	s4,a0
    99c6:	8aae                	mv	s5,a1
    99c8:	04850413          	addi	s0,a0,72
    99cc:	4901                	li	s2,0
    99ce:	4b05                	li	s6,1
    99d0:	5bfd                	li	s7,-1
    99d2:	ec09                	bnez	s0,99ec <_fwalk_reent+0x3c>
    99d4:	50b2                	lw	ra,44(sp)
    99d6:	5422                	lw	s0,40(sp)
    99d8:	854a                	mv	a0,s2
    99da:	5492                	lw	s1,36(sp)
    99dc:	5902                	lw	s2,32(sp)
    99de:	49f2                	lw	s3,28(sp)
    99e0:	4a62                	lw	s4,24(sp)
    99e2:	4ad2                	lw	s5,20(sp)
    99e4:	4b42                	lw	s6,16(sp)
    99e6:	4bb2                	lw	s7,12(sp)
    99e8:	6145                	addi	sp,sp,48
    99ea:	8082                	ret
    99ec:	4404                	lw	s1,8(s0)
    99ee:	00442983          	lw	s3,4(s0)
    99f2:	19fd                	addi	s3,s3,-1
    99f4:	0009d463          	bgez	s3,99fc <_fwalk_reent+0x4c>
    99f8:	4000                	lw	s0,0(s0)
    99fa:	bfe1                	j	99d2 <_fwalk_reent+0x22>
    99fc:	00c4d783          	lhu	a5,12(s1)
    9a00:	00fb7b63          	bgeu	s6,a5,9a16 <_fwalk_reent+0x66>
    9a04:	00e49783          	lh	a5,14(s1)
    9a08:	01778763          	beq	a5,s7,9a16 <_fwalk_reent+0x66>
    9a0c:	85a6                	mv	a1,s1
    9a0e:	8552                	mv	a0,s4
    9a10:	9a82                	jalr	s5
    9a12:	00a96933          	or	s2,s2,a0
    9a16:	06848493          	addi	s1,s1,104
    9a1a:	bfe1                	j	99f2 <_fwalk_reent+0x42>

00009a1c <__swhatbuf_r>:
    9a1c:	7119                	addi	sp,sp,-128
    9a1e:	daa6                	sw	s1,116(sp)
    9a20:	84ae                	mv	s1,a1
    9a22:	00e59583          	lh	a1,14(a1)
    9a26:	dca2                	sw	s0,120(sp)
    9a28:	de86                	sw	ra,124(sp)
    9a2a:	8432                	mv	s0,a2
    9a2c:	0005dc63          	bgez	a1,9a44 <__swhatbuf_r+0x28>
    9a30:	00c4d783          	lhu	a5,12(s1)
    9a34:	0006a023          	sw	zero,0(a3)
    9a38:	0807f793          	andi	a5,a5,128
    9a3c:	e785                	bnez	a5,9a64 <__swhatbuf_r+0x48>
    9a3e:	40000793          	li	a5,1024
    9a42:	a01d                	j	9a68 <__swhatbuf_r+0x4c>
    9a44:	0830                	addi	a2,sp,24
    9a46:	c636                	sw	a3,12(sp)
    9a48:	275000ef          	jal	ra,a4bc <_fstat_r>
    9a4c:	46b2                	lw	a3,12(sp)
    9a4e:	fe0541e3          	bltz	a0,9a30 <__swhatbuf_r+0x14>
    9a52:	4772                	lw	a4,28(sp)
    9a54:	67bd                	lui	a5,0xf
    9a56:	8ff9                	and	a5,a5,a4
    9a58:	7779                	lui	a4,0xffffe
    9a5a:	97ba                	add	a5,a5,a4
    9a5c:	0017b793          	seqz	a5,a5
    9a60:	c29c                	sw	a5,0(a3)
    9a62:	bff1                	j	9a3e <__swhatbuf_r+0x22>
    9a64:	04000793          	li	a5,64
    9a68:	c01c                	sw	a5,0(s0)
    9a6a:	50f6                	lw	ra,124(sp)
    9a6c:	5466                	lw	s0,120(sp)
    9a6e:	54d6                	lw	s1,116(sp)
    9a70:	4501                	li	a0,0
    9a72:	6109                	addi	sp,sp,128
    9a74:	8082                	ret

00009a76 <__smakebuf_r>:
    9a76:	00c5d783          	lhu	a5,12(a1)
    9a7a:	1101                	addi	sp,sp,-32
    9a7c:	cc22                	sw	s0,24(sp)
    9a7e:	ce06                	sw	ra,28(sp)
    9a80:	ca26                	sw	s1,20(sp)
    9a82:	c84a                	sw	s2,16(sp)
    9a84:	8b89                	andi	a5,a5,2
    9a86:	842e                	mv	s0,a1
    9a88:	cf89                	beqz	a5,9aa2 <__smakebuf_r+0x2c>
    9a8a:	04740793          	addi	a5,s0,71
    9a8e:	c01c                	sw	a5,0(s0)
    9a90:	c81c                	sw	a5,16(s0)
    9a92:	4785                	li	a5,1
    9a94:	c85c                	sw	a5,20(s0)
    9a96:	40f2                	lw	ra,28(sp)
    9a98:	4462                	lw	s0,24(sp)
    9a9a:	44d2                	lw	s1,20(sp)
    9a9c:	4942                	lw	s2,16(sp)
    9a9e:	6105                	addi	sp,sp,32
    9aa0:	8082                	ret
    9aa2:	0074                	addi	a3,sp,12
    9aa4:	0030                	addi	a2,sp,8
    9aa6:	84aa                	mv	s1,a0
    9aa8:	f75ff0ef          	jal	ra,9a1c <__swhatbuf_r>
    9aac:	45a2                	lw	a1,8(sp)
    9aae:	892a                	mv	s2,a0
    9ab0:	8526                	mv	a0,s1
    9ab2:	2a11                	jal	9bc6 <_malloc_r>
    9ab4:	ed01                	bnez	a0,9acc <__smakebuf_r+0x56>
    9ab6:	00c41783          	lh	a5,12(s0)
    9aba:	2007f713          	andi	a4,a5,512
    9abe:	ff61                	bnez	a4,9a96 <__smakebuf_r+0x20>
    9ac0:	9bf1                	andi	a5,a5,-4
    9ac2:	0027e793          	ori	a5,a5,2
    9ac6:	00f41623          	sh	a5,12(s0)
    9aca:	b7c1                	j	9a8a <__smakebuf_r+0x14>
    9acc:	00000797          	auipc	a5,0x0
    9ad0:	d8878793          	addi	a5,a5,-632 # 9854 <_cleanup_r>
    9ad4:	d49c                	sw	a5,40(s1)
    9ad6:	00c45783          	lhu	a5,12(s0)
    9ada:	c008                	sw	a0,0(s0)
    9adc:	c808                	sw	a0,16(s0)
    9ade:	0807e793          	ori	a5,a5,128
    9ae2:	00f41623          	sh	a5,12(s0)
    9ae6:	47a2                	lw	a5,8(sp)
    9ae8:	c85c                	sw	a5,20(s0)
    9aea:	47b2                	lw	a5,12(sp)
    9aec:	cf91                	beqz	a5,9b08 <__smakebuf_r+0x92>
    9aee:	00e41583          	lh	a1,14(s0)
    9af2:	8526                	mv	a0,s1
    9af4:	1fb000ef          	jal	ra,a4ee <_isatty_r>
    9af8:	c901                	beqz	a0,9b08 <__smakebuf_r+0x92>
    9afa:	00c45783          	lhu	a5,12(s0)
    9afe:	9bf1                	andi	a5,a5,-4
    9b00:	0017e793          	ori	a5,a5,1
    9b04:	00f41623          	sh	a5,12(s0)
    9b08:	00c45783          	lhu	a5,12(s0)
    9b0c:	00f96933          	or	s2,s2,a5
    9b10:	01241623          	sh	s2,12(s0)
    9b14:	b749                	j	9a96 <__smakebuf_r+0x20>

00009b16 <_free_r>:
    9b16:	c5dd                	beqz	a1,9bc4 <_free_r+0xae>
    9b18:	ffc5a783          	lw	a5,-4(a1)
    9b1c:	1141                	addi	sp,sp,-16
    9b1e:	c422                	sw	s0,8(sp)
    9b20:	c606                	sw	ra,12(sp)
    9b22:	c226                	sw	s1,4(sp)
    9b24:	ffc58413          	addi	s0,a1,-4
    9b28:	0007d363          	bgez	a5,9b2e <_free_r+0x18>
    9b2c:	943e                	add	s0,s0,a5
    9b2e:	84aa                	mv	s1,a0
    9b30:	23d000ef          	jal	ra,a56c <__malloc_lock>
    9b34:	1fff6797          	auipc	a5,0x1fff6
    9b38:	62c78793          	addi	a5,a5,1580 # 20000160 <__malloc_free_list>
    9b3c:	439c                	lw	a5,0(a5)
    9b3e:	ef91                	bnez	a5,9b5a <_free_r+0x44>
    9b40:	00042223          	sw	zero,4(s0)
    9b44:	1fff6797          	auipc	a5,0x1fff6
    9b48:	6087ae23          	sw	s0,1564(a5) # 20000160 <__malloc_free_list>
    9b4c:	4422                	lw	s0,8(sp)
    9b4e:	40b2                	lw	ra,12(sp)
    9b50:	8526                	mv	a0,s1
    9b52:	4492                	lw	s1,4(sp)
    9b54:	0141                	addi	sp,sp,16
    9b56:	2190006f          	j	a56e <__malloc_unlock>
    9b5a:	00f47e63          	bgeu	s0,a5,9b76 <_free_r+0x60>
    9b5e:	4014                	lw	a3,0(s0)
    9b60:	00d40733          	add	a4,s0,a3
    9b64:	00e79663          	bne	a5,a4,9b70 <_free_r+0x5a>
    9b68:	4398                	lw	a4,0(a5)
    9b6a:	43dc                	lw	a5,4(a5)
    9b6c:	9736                	add	a4,a4,a3
    9b6e:	c018                	sw	a4,0(s0)
    9b70:	c05c                	sw	a5,4(s0)
    9b72:	bfc9                	j	9b44 <_free_r+0x2e>
    9b74:	87ba                	mv	a5,a4
    9b76:	43d8                	lw	a4,4(a5)
    9b78:	c319                	beqz	a4,9b7e <_free_r+0x68>
    9b7a:	fee47de3          	bgeu	s0,a4,9b74 <_free_r+0x5e>
    9b7e:	4394                	lw	a3,0(a5)
    9b80:	00d78633          	add	a2,a5,a3
    9b84:	00861f63          	bne	a2,s0,9ba2 <_free_r+0x8c>
    9b88:	4010                	lw	a2,0(s0)
    9b8a:	96b2                	add	a3,a3,a2
    9b8c:	c394                	sw	a3,0(a5)
    9b8e:	00d78633          	add	a2,a5,a3
    9b92:	fac71de3          	bne	a4,a2,9b4c <_free_r+0x36>
    9b96:	4310                	lw	a2,0(a4)
    9b98:	4358                	lw	a4,4(a4)
    9b9a:	96b2                	add	a3,a3,a2
    9b9c:	c394                	sw	a3,0(a5)
    9b9e:	c3d8                	sw	a4,4(a5)
    9ba0:	b775                	j	9b4c <_free_r+0x36>
    9ba2:	00c47563          	bgeu	s0,a2,9bac <_free_r+0x96>
    9ba6:	47b1                	li	a5,12
    9ba8:	c09c                	sw	a5,0(s1)
    9baa:	b74d                	j	9b4c <_free_r+0x36>
    9bac:	4010                	lw	a2,0(s0)
    9bae:	00c406b3          	add	a3,s0,a2
    9bb2:	00d71663          	bne	a4,a3,9bbe <_free_r+0xa8>
    9bb6:	4314                	lw	a3,0(a4)
    9bb8:	4358                	lw	a4,4(a4)
    9bba:	96b2                	add	a3,a3,a2
    9bbc:	c014                	sw	a3,0(s0)
    9bbe:	c058                	sw	a4,4(s0)
    9bc0:	c3c0                	sw	s0,4(a5)
    9bc2:	b769                	j	9b4c <_free_r+0x36>
    9bc4:	8082                	ret

00009bc6 <_malloc_r>:
    9bc6:	1101                	addi	sp,sp,-32
    9bc8:	ca26                	sw	s1,20(sp)
    9bca:	00358493          	addi	s1,a1,3
    9bce:	98f1                	andi	s1,s1,-4
    9bd0:	ce06                	sw	ra,28(sp)
    9bd2:	cc22                	sw	s0,24(sp)
    9bd4:	c84a                	sw	s2,16(sp)
    9bd6:	c64e                	sw	s3,12(sp)
    9bd8:	04a1                	addi	s1,s1,8
    9bda:	47b1                	li	a5,12
    9bdc:	04f4f963          	bgeu	s1,a5,9c2e <_malloc_r+0x68>
    9be0:	44b1                	li	s1,12
    9be2:	04b4e863          	bltu	s1,a1,9c32 <_malloc_r+0x6c>
    9be6:	892a                	mv	s2,a0
    9be8:	185000ef          	jal	ra,a56c <__malloc_lock>
    9bec:	1fff6797          	auipc	a5,0x1fff6
    9bf0:	57478793          	addi	a5,a5,1396 # 20000160 <__malloc_free_list>
    9bf4:	4398                	lw	a4,0(a5)
    9bf6:	843a                	mv	s0,a4
    9bf8:	e439                	bnez	s0,9c46 <_malloc_r+0x80>
    9bfa:	1fff6797          	auipc	a5,0x1fff6
    9bfe:	56a78793          	addi	a5,a5,1386 # 20000164 <__malloc_sbrk_start>
    9c02:	439c                	lw	a5,0(a5)
    9c04:	eb81                	bnez	a5,9c14 <_malloc_r+0x4e>
    9c06:	4581                	li	a1,0
    9c08:	854a                	mv	a0,s2
    9c0a:	2785                	jal	a36a <_sbrk_r>
    9c0c:	1fff6797          	auipc	a5,0x1fff6
    9c10:	54a7ac23          	sw	a0,1368(a5) # 20000164 <__malloc_sbrk_start>
    9c14:	85a6                	mv	a1,s1
    9c16:	854a                	mv	a0,s2
    9c18:	2f89                	jal	a36a <_sbrk_r>
    9c1a:	59fd                	li	s3,-1
    9c1c:	07351b63          	bne	a0,s3,9c92 <_malloc_r+0xcc>
    9c20:	47b1                	li	a5,12
    9c22:	00f92023          	sw	a5,0(s2)
    9c26:	854a                	mv	a0,s2
    9c28:	147000ef          	jal	ra,a56e <__malloc_unlock>
    9c2c:	a029                	j	9c36 <_malloc_r+0x70>
    9c2e:	fa04dae3          	bgez	s1,9be2 <_malloc_r+0x1c>
    9c32:	47b1                	li	a5,12
    9c34:	c11c                	sw	a5,0(a0)
    9c36:	4501                	li	a0,0
    9c38:	40f2                	lw	ra,28(sp)
    9c3a:	4462                	lw	s0,24(sp)
    9c3c:	44d2                	lw	s1,20(sp)
    9c3e:	4942                	lw	s2,16(sp)
    9c40:	49b2                	lw	s3,12(sp)
    9c42:	6105                	addi	sp,sp,32
    9c44:	8082                	ret
    9c46:	401c                	lw	a5,0(s0)
    9c48:	8f85                	sub	a5,a5,s1
    9c4a:	0407c163          	bltz	a5,9c8c <_malloc_r+0xc6>
    9c4e:	46ad                	li	a3,11
    9c50:	00f6f663          	bgeu	a3,a5,9c5c <_malloc_r+0x96>
    9c54:	c01c                	sw	a5,0(s0)
    9c56:	943e                	add	s0,s0,a5
    9c58:	c004                	sw	s1,0(s0)
    9c5a:	a801                	j	9c6a <_malloc_r+0xa4>
    9c5c:	405c                	lw	a5,4(s0)
    9c5e:	02871563          	bne	a4,s0,9c88 <_malloc_r+0xc2>
    9c62:	1fff6717          	auipc	a4,0x1fff6
    9c66:	4ef72f23          	sw	a5,1278(a4) # 20000160 <__malloc_free_list>
    9c6a:	854a                	mv	a0,s2
    9c6c:	103000ef          	jal	ra,a56e <__malloc_unlock>
    9c70:	00b40513          	addi	a0,s0,11
    9c74:	00440793          	addi	a5,s0,4
    9c78:	9961                	andi	a0,a0,-8
    9c7a:	40f50733          	sub	a4,a0,a5
    9c7e:	df4d                	beqz	a4,9c38 <_malloc_r+0x72>
    9c80:	943a                	add	s0,s0,a4
    9c82:	8f89                	sub	a5,a5,a0
    9c84:	c01c                	sw	a5,0(s0)
    9c86:	bf4d                	j	9c38 <_malloc_r+0x72>
    9c88:	c35c                	sw	a5,4(a4)
    9c8a:	b7c5                	j	9c6a <_malloc_r+0xa4>
    9c8c:	8722                	mv	a4,s0
    9c8e:	4040                	lw	s0,4(s0)
    9c90:	b7a5                	j	9bf8 <_malloc_r+0x32>
    9c92:	00350413          	addi	s0,a0,3
    9c96:	9871                	andi	s0,s0,-4
    9c98:	fc8500e3          	beq	a0,s0,9c58 <_malloc_r+0x92>
    9c9c:	40a405b3          	sub	a1,s0,a0
    9ca0:	854a                	mv	a0,s2
    9ca2:	25e1                	jal	a36a <_sbrk_r>
    9ca4:	fb351ae3          	bne	a0,s3,9c58 <_malloc_r+0x92>
    9ca8:	bfa5                	j	9c20 <_malloc_r+0x5a>

00009caa <__sfputc_r>:
    9caa:	461c                	lw	a5,8(a2)
    9cac:	17fd                	addi	a5,a5,-1
    9cae:	c61c                	sw	a5,8(a2)
    9cb0:	0007da63          	bgez	a5,9cc4 <__sfputc_r+0x1a>
    9cb4:	4e18                	lw	a4,24(a2)
    9cb6:	00e7c563          	blt	a5,a4,9cc0 <__sfputc_r+0x16>
    9cba:	47a9                	li	a5,10
    9cbc:	00f59463          	bne	a1,a5,9cc4 <__sfputc_r+0x1a>
    9cc0:	fbcff06f          	j	947c <__swbuf_r>
    9cc4:	421c                	lw	a5,0(a2)
    9cc6:	852e                	mv	a0,a1
    9cc8:	00178713          	addi	a4,a5,1
    9ccc:	c218                	sw	a4,0(a2)
    9cce:	00b78023          	sb	a1,0(a5)
    9cd2:	8082                	ret

00009cd4 <__sfputs_r>:
    9cd4:	1101                	addi	sp,sp,-32
    9cd6:	cc22                	sw	s0,24(sp)
    9cd8:	ca26                	sw	s1,20(sp)
    9cda:	c84a                	sw	s2,16(sp)
    9cdc:	c64e                	sw	s3,12(sp)
    9cde:	c452                	sw	s4,8(sp)
    9ce0:	ce06                	sw	ra,28(sp)
    9ce2:	892a                	mv	s2,a0
    9ce4:	89ae                	mv	s3,a1
    9ce6:	8432                	mv	s0,a2
    9ce8:	00d604b3          	add	s1,a2,a3
    9cec:	5a7d                	li	s4,-1
    9cee:	00941463          	bne	s0,s1,9cf6 <__sfputs_r+0x22>
    9cf2:	4501                	li	a0,0
    9cf4:	a811                	j	9d08 <__sfputs_r+0x34>
    9cf6:	00044583          	lbu	a1,0(s0)
    9cfa:	864e                	mv	a2,s3
    9cfc:	854a                	mv	a0,s2
    9cfe:	fadff0ef          	jal	ra,9caa <__sfputc_r>
    9d02:	0405                	addi	s0,s0,1
    9d04:	ff4515e3          	bne	a0,s4,9cee <__sfputs_r+0x1a>
    9d08:	40f2                	lw	ra,28(sp)
    9d0a:	4462                	lw	s0,24(sp)
    9d0c:	44d2                	lw	s1,20(sp)
    9d0e:	4942                	lw	s2,16(sp)
    9d10:	49b2                	lw	s3,12(sp)
    9d12:	4a22                	lw	s4,8(sp)
    9d14:	6105                	addi	sp,sp,32
    9d16:	8082                	ret

00009d18 <_vfiprintf_r>:
    9d18:	7135                	addi	sp,sp,-160
    9d1a:	cd22                	sw	s0,152(sp)
    9d1c:	cb26                	sw	s1,148(sp)
    9d1e:	c94a                	sw	s2,144(sp)
    9d20:	c74e                	sw	s3,140(sp)
    9d22:	cf06                	sw	ra,156(sp)
    9d24:	c552                	sw	s4,136(sp)
    9d26:	c356                	sw	s5,132(sp)
    9d28:	c15a                	sw	s6,128(sp)
    9d2a:	dede                	sw	s7,124(sp)
    9d2c:	dce2                	sw	s8,120(sp)
    9d2e:	dae6                	sw	s9,116(sp)
    9d30:	89aa                	mv	s3,a0
    9d32:	84ae                	mv	s1,a1
    9d34:	8932                	mv	s2,a2
    9d36:	8436                	mv	s0,a3
    9d38:	c509                	beqz	a0,9d42 <_vfiprintf_r+0x2a>
    9d3a:	4d1c                	lw	a5,24(a0)
    9d3c:	e399                	bnez	a5,9d42 <_vfiprintf_r+0x2a>
    9d3e:	b67ff0ef          	jal	ra,98a4 <__sinit>
    9d42:	00001797          	auipc	a5,0x1
    9d46:	0d678793          	addi	a5,a5,214 # ae18 <__sf_fake_stdin>
    9d4a:	0cf49c63          	bne	s1,a5,9e22 <_vfiprintf_r+0x10a>
    9d4e:	0049a483          	lw	s1,4(s3)
    9d52:	00c4d783          	lhu	a5,12(s1)
    9d56:	8ba1                	andi	a5,a5,8
    9d58:	c7fd                	beqz	a5,9e46 <_vfiprintf_r+0x12e>
    9d5a:	489c                	lw	a5,16(s1)
    9d5c:	c7ed                	beqz	a5,9e46 <_vfiprintf_r+0x12e>
    9d5e:	02000793          	li	a5,32
    9d62:	02f104a3          	sb	a5,41(sp)
    9d66:	03000793          	li	a5,48
    9d6a:	d202                	sw	zero,36(sp)
    9d6c:	02f10523          	sb	a5,42(sp)
    9d70:	c622                	sw	s0,12(sp)
    9d72:	02500b93          	li	s7,37
    9d76:	00001a97          	auipc	s5,0x1
    9d7a:	0e2a8a93          	addi	s5,s5,226 # ae58 <__sf_fake_stdout+0x20>
    9d7e:	4c05                	li	s8,1
    9d80:	4b29                	li	s6,10
    9d82:	844a                	mv	s0,s2
    9d84:	00044783          	lbu	a5,0(s0)
    9d88:	c399                	beqz	a5,9d8e <_vfiprintf_r+0x76>
    9d8a:	0f779163          	bne	a5,s7,9e6c <_vfiprintf_r+0x154>
    9d8e:	41240cb3          	sub	s9,s0,s2
    9d92:	000c8e63          	beqz	s9,9dae <_vfiprintf_r+0x96>
    9d96:	86e6                	mv	a3,s9
    9d98:	864a                	mv	a2,s2
    9d9a:	85a6                	mv	a1,s1
    9d9c:	854e                	mv	a0,s3
    9d9e:	f37ff0ef          	jal	ra,9cd4 <__sfputs_r>
    9da2:	57fd                	li	a5,-1
    9da4:	1ef50663          	beq	a0,a5,9f90 <_vfiprintf_r+0x278>
    9da8:	5692                	lw	a3,36(sp)
    9daa:	96e6                	add	a3,a3,s9
    9dac:	d236                	sw	a3,36(sp)
    9dae:	00044783          	lbu	a5,0(s0)
    9db2:	1c078f63          	beqz	a5,9f90 <_vfiprintf_r+0x278>
    9db6:	57fd                	li	a5,-1
    9db8:	00140913          	addi	s2,s0,1
    9dbc:	c802                	sw	zero,16(sp)
    9dbe:	ce02                	sw	zero,28(sp)
    9dc0:	ca3e                	sw	a5,20(sp)
    9dc2:	cc02                	sw	zero,24(sp)
    9dc4:	040109a3          	sb	zero,83(sp)
    9dc8:	d482                	sw	zero,104(sp)
    9dca:	00094583          	lbu	a1,0(s2)
    9dce:	4615                	li	a2,5
    9dd0:	8556                	mv	a0,s5
    9dd2:	2741                	jal	a552 <memchr>
    9dd4:	00190413          	addi	s0,s2,1
    9dd8:	47c2                	lw	a5,16(sp)
    9dda:	e959                	bnez	a0,9e70 <_vfiprintf_r+0x158>
    9ddc:	0107f713          	andi	a4,a5,16
    9de0:	c709                	beqz	a4,9dea <_vfiprintf_r+0xd2>
    9de2:	02000713          	li	a4,32
    9de6:	04e109a3          	sb	a4,83(sp)
    9dea:	0087f713          	andi	a4,a5,8
    9dee:	c709                	beqz	a4,9df8 <_vfiprintf_r+0xe0>
    9df0:	02b00713          	li	a4,43
    9df4:	04e109a3          	sb	a4,83(sp)
    9df8:	00094683          	lbu	a3,0(s2)
    9dfc:	02a00713          	li	a4,42
    9e00:	08e68063          	beq	a3,a4,9e80 <_vfiprintf_r+0x168>
    9e04:	47f2                	lw	a5,28(sp)
    9e06:	844a                	mv	s0,s2
    9e08:	4681                	li	a3,0
    9e0a:	4625                	li	a2,9
    9e0c:	00044703          	lbu	a4,0(s0)
    9e10:	00140593          	addi	a1,s0,1
    9e14:	fd070713          	addi	a4,a4,-48
    9e18:	0ae67963          	bgeu	a2,a4,9eca <_vfiprintf_r+0x1b2>
    9e1c:	cab5                	beqz	a3,9e90 <_vfiprintf_r+0x178>
    9e1e:	ce3e                	sw	a5,28(sp)
    9e20:	a885                	j	9e90 <_vfiprintf_r+0x178>
    9e22:	00001797          	auipc	a5,0x1
    9e26:	01678793          	addi	a5,a5,22 # ae38 <__sf_fake_stdout>
    9e2a:	00f49563          	bne	s1,a5,9e34 <_vfiprintf_r+0x11c>
    9e2e:	0089a483          	lw	s1,8(s3)
    9e32:	b705                	j	9d52 <_vfiprintf_r+0x3a>
    9e34:	00001797          	auipc	a5,0x1
    9e38:	fc478793          	addi	a5,a5,-60 # adf8 <__sf_fake_stderr>
    9e3c:	f0f49be3          	bne	s1,a5,9d52 <_vfiprintf_r+0x3a>
    9e40:	00c9a483          	lw	s1,12(s3)
    9e44:	b739                	j	9d52 <_vfiprintf_r+0x3a>
    9e46:	85a6                	mv	a1,s1
    9e48:	854e                	mv	a0,s3
    9e4a:	ef2ff0ef          	jal	ra,953c <__swsetup_r>
    9e4e:	d901                	beqz	a0,9d5e <_vfiprintf_r+0x46>
    9e50:	557d                	li	a0,-1
    9e52:	40fa                	lw	ra,156(sp)
    9e54:	446a                	lw	s0,152(sp)
    9e56:	44da                	lw	s1,148(sp)
    9e58:	494a                	lw	s2,144(sp)
    9e5a:	49ba                	lw	s3,140(sp)
    9e5c:	4a2a                	lw	s4,136(sp)
    9e5e:	4a9a                	lw	s5,132(sp)
    9e60:	4b0a                	lw	s6,128(sp)
    9e62:	5bf6                	lw	s7,124(sp)
    9e64:	5c66                	lw	s8,120(sp)
    9e66:	5cd6                	lw	s9,116(sp)
    9e68:	610d                	addi	sp,sp,160
    9e6a:	8082                	ret
    9e6c:	0405                	addi	s0,s0,1
    9e6e:	bf19                	j	9d84 <_vfiprintf_r+0x6c>
    9e70:	41550533          	sub	a0,a0,s5
    9e74:	00ac1533          	sll	a0,s8,a0
    9e78:	8fc9                	or	a5,a5,a0
    9e7a:	c83e                	sw	a5,16(sp)
    9e7c:	8922                	mv	s2,s0
    9e7e:	b7b1                	j	9dca <_vfiprintf_r+0xb2>
    9e80:	4732                	lw	a4,12(sp)
    9e82:	00470693          	addi	a3,a4,4
    9e86:	4318                	lw	a4,0(a4)
    9e88:	c636                	sw	a3,12(sp)
    9e8a:	02074963          	bltz	a4,9ebc <_vfiprintf_r+0x1a4>
    9e8e:	ce3a                	sw	a4,28(sp)
    9e90:	00044703          	lbu	a4,0(s0)
    9e94:	02e00793          	li	a5,46
    9e98:	04f71f63          	bne	a4,a5,9ef6 <_vfiprintf_r+0x1de>
    9e9c:	00144703          	lbu	a4,1(s0)
    9ea0:	02a00793          	li	a5,42
    9ea4:	02f71b63          	bne	a4,a5,9eda <_vfiprintf_r+0x1c2>
    9ea8:	47b2                	lw	a5,12(sp)
    9eaa:	0409                	addi	s0,s0,2
    9eac:	00478713          	addi	a4,a5,4
    9eb0:	439c                	lw	a5,0(a5)
    9eb2:	c63a                	sw	a4,12(sp)
    9eb4:	0207c163          	bltz	a5,9ed6 <_vfiprintf_r+0x1be>
    9eb8:	ca3e                	sw	a5,20(sp)
    9eba:	a835                	j	9ef6 <_vfiprintf_r+0x1de>
    9ebc:	40e00733          	neg	a4,a4
    9ec0:	0027e793          	ori	a5,a5,2
    9ec4:	ce3a                	sw	a4,28(sp)
    9ec6:	c83e                	sw	a5,16(sp)
    9ec8:	b7e1                	j	9e90 <_vfiprintf_r+0x178>
    9eca:	036787b3          	mul	a5,a5,s6
    9ece:	4685                	li	a3,1
    9ed0:	842e                	mv	s0,a1
    9ed2:	97ba                	add	a5,a5,a4
    9ed4:	bf25                	j	9e0c <_vfiprintf_r+0xf4>
    9ed6:	57fd                	li	a5,-1
    9ed8:	b7c5                	j	9eb8 <_vfiprintf_r+0x1a0>
    9eda:	0405                	addi	s0,s0,1
    9edc:	ca02                	sw	zero,20(sp)
    9ede:	4681                	li	a3,0
    9ee0:	4781                	li	a5,0
    9ee2:	4625                	li	a2,9
    9ee4:	00044703          	lbu	a4,0(s0)
    9ee8:	00140593          	addi	a1,s0,1
    9eec:	fd070713          	addi	a4,a4,-48
    9ef0:	06e67663          	bgeu	a2,a4,9f5c <_vfiprintf_r+0x244>
    9ef4:	f2f1                	bnez	a3,9eb8 <_vfiprintf_r+0x1a0>
    9ef6:	00044583          	lbu	a1,0(s0)
    9efa:	460d                	li	a2,3
    9efc:	00001517          	auipc	a0,0x1
    9f00:	f6450513          	addi	a0,a0,-156 # ae60 <__sf_fake_stdout+0x28>
    9f04:	25b9                	jal	a552 <memchr>
    9f06:	cd11                	beqz	a0,9f22 <_vfiprintf_r+0x20a>
    9f08:	00001797          	auipc	a5,0x1
    9f0c:	f5878793          	addi	a5,a5,-168 # ae60 <__sf_fake_stdout+0x28>
    9f10:	8d1d                	sub	a0,a0,a5
    9f12:	04000793          	li	a5,64
    9f16:	00a797b3          	sll	a5,a5,a0
    9f1a:	4542                	lw	a0,16(sp)
    9f1c:	0405                	addi	s0,s0,1
    9f1e:	8d5d                	or	a0,a0,a5
    9f20:	c82a                	sw	a0,16(sp)
    9f22:	00044583          	lbu	a1,0(s0)
    9f26:	4619                	li	a2,6
    9f28:	00001517          	auipc	a0,0x1
    9f2c:	f3c50513          	addi	a0,a0,-196 # ae64 <__sf_fake_stdout+0x2c>
    9f30:	00140913          	addi	s2,s0,1
    9f34:	02b10423          	sb	a1,40(sp)
    9f38:	2d29                	jal	a552 <memchr>
    9f3a:	c13d                	beqz	a0,9fa0 <_vfiprintf_r+0x288>
    9f3c:	ffff6797          	auipc	a5,0xffff6
    9f40:	0c478793          	addi	a5,a5,196 # 0 <_sinit>
    9f44:	e795                	bnez	a5,9f70 <_vfiprintf_r+0x258>
    9f46:	4742                	lw	a4,16(sp)
    9f48:	47b2                	lw	a5,12(sp)
    9f4a:	10077713          	andi	a4,a4,256
    9f4e:	cf09                	beqz	a4,9f68 <_vfiprintf_r+0x250>
    9f50:	0791                	addi	a5,a5,4
    9f52:	c63e                	sw	a5,12(sp)
    9f54:	5792                	lw	a5,36(sp)
    9f56:	97d2                	add	a5,a5,s4
    9f58:	d23e                	sw	a5,36(sp)
    9f5a:	b525                	j	9d82 <_vfiprintf_r+0x6a>
    9f5c:	036787b3          	mul	a5,a5,s6
    9f60:	4685                	li	a3,1
    9f62:	842e                	mv	s0,a1
    9f64:	97ba                	add	a5,a5,a4
    9f66:	bfbd                	j	9ee4 <_vfiprintf_r+0x1cc>
    9f68:	079d                	addi	a5,a5,7
    9f6a:	9be1                	andi	a5,a5,-8
    9f6c:	07a1                	addi	a5,a5,8
    9f6e:	b7d5                	j	9f52 <_vfiprintf_r+0x23a>
    9f70:	0078                	addi	a4,sp,12
    9f72:	00000697          	auipc	a3,0x0
    9f76:	d6268693          	addi	a3,a3,-670 # 9cd4 <__sfputs_r>
    9f7a:	8626                	mv	a2,s1
    9f7c:	080c                	addi	a1,sp,16
    9f7e:	854e                	mv	a0,s3
    9f80:	00000097          	auipc	ra,0x0
    9f84:	000000e7          	jalr	zero # 0 <_sinit>
    9f88:	57fd                	li	a5,-1
    9f8a:	8a2a                	mv	s4,a0
    9f8c:	fcf514e3          	bne	a0,a5,9f54 <_vfiprintf_r+0x23c>
    9f90:	00c4d783          	lhu	a5,12(s1)
    9f94:	0407f793          	andi	a5,a5,64
    9f98:	ea079ce3          	bnez	a5,9e50 <_vfiprintf_r+0x138>
    9f9c:	5512                	lw	a0,36(sp)
    9f9e:	bd55                	j	9e52 <_vfiprintf_r+0x13a>
    9fa0:	0078                	addi	a4,sp,12
    9fa2:	00000697          	auipc	a3,0x0
    9fa6:	d3268693          	addi	a3,a3,-718 # 9cd4 <__sfputs_r>
    9faa:	8626                	mv	a2,s1
    9fac:	080c                	addi	a1,sp,16
    9fae:	854e                	mv	a0,s3
    9fb0:	2a01                	jal	a0c0 <_printf_i>
    9fb2:	bfd9                	j	9f88 <_vfiprintf_r+0x270>

00009fb4 <_printf_common>:
    9fb4:	7179                	addi	sp,sp,-48
    9fb6:	ca56                	sw	s5,20(sp)
    9fb8:	499c                	lw	a5,16(a1)
    9fba:	8aba                	mv	s5,a4
    9fbc:	4598                	lw	a4,8(a1)
    9fbe:	d422                	sw	s0,40(sp)
    9fc0:	d226                	sw	s1,36(sp)
    9fc2:	ce4e                	sw	s3,28(sp)
    9fc4:	cc52                	sw	s4,24(sp)
    9fc6:	d606                	sw	ra,44(sp)
    9fc8:	d04a                	sw	s2,32(sp)
    9fca:	c85a                	sw	s6,16(sp)
    9fcc:	c65e                	sw	s7,12(sp)
    9fce:	89aa                	mv	s3,a0
    9fd0:	842e                	mv	s0,a1
    9fd2:	84b2                	mv	s1,a2
    9fd4:	8a36                	mv	s4,a3
    9fd6:	00e7d363          	bge	a5,a4,9fdc <_printf_common+0x28>
    9fda:	87ba                	mv	a5,a4
    9fdc:	c09c                	sw	a5,0(s1)
    9fde:	04344703          	lbu	a4,67(s0)
    9fe2:	c319                	beqz	a4,9fe8 <_printf_common+0x34>
    9fe4:	0785                	addi	a5,a5,1
    9fe6:	c09c                	sw	a5,0(s1)
    9fe8:	401c                	lw	a5,0(s0)
    9fea:	0207f793          	andi	a5,a5,32
    9fee:	c781                	beqz	a5,9ff6 <_printf_common+0x42>
    9ff0:	409c                	lw	a5,0(s1)
    9ff2:	0789                	addi	a5,a5,2
    9ff4:	c09c                	sw	a5,0(s1)
    9ff6:	00042903          	lw	s2,0(s0)
    9ffa:	00697913          	andi	s2,s2,6
    9ffe:	00091a63          	bnez	s2,a012 <_printf_common+0x5e>
    a002:	01940b13          	addi	s6,s0,25
    a006:	5bfd                	li	s7,-1
    a008:	445c                	lw	a5,12(s0)
    a00a:	4098                	lw	a4,0(s1)
    a00c:	8f99                	sub	a5,a5,a4
    a00e:	04f94c63          	blt	s2,a5,a066 <_printf_common+0xb2>
    a012:	401c                	lw	a5,0(s0)
    a014:	04344683          	lbu	a3,67(s0)
    a018:	0207f793          	andi	a5,a5,32
    a01c:	00d036b3          	snez	a3,a3
    a020:	eba5                	bnez	a5,a090 <_printf_common+0xdc>
    a022:	04340613          	addi	a2,s0,67
    a026:	85d2                	mv	a1,s4
    a028:	854e                	mv	a0,s3
    a02a:	9a82                	jalr	s5
    a02c:	57fd                	li	a5,-1
    a02e:	04f50363          	beq	a0,a5,a074 <_printf_common+0xc0>
    a032:	401c                	lw	a5,0(s0)
    a034:	4611                	li	a2,4
    a036:	4098                	lw	a4,0(s1)
    a038:	8b99                	andi	a5,a5,6
    a03a:	4454                	lw	a3,12(s0)
    a03c:	4481                	li	s1,0
    a03e:	00c79763          	bne	a5,a2,a04c <_printf_common+0x98>
    a042:	40e684b3          	sub	s1,a3,a4
    a046:	0004d363          	bgez	s1,a04c <_printf_common+0x98>
    a04a:	4481                	li	s1,0
    a04c:	441c                	lw	a5,8(s0)
    a04e:	4818                	lw	a4,16(s0)
    a050:	00f75463          	bge	a4,a5,a058 <_printf_common+0xa4>
    a054:	8f99                	sub	a5,a5,a4
    a056:	94be                	add	s1,s1,a5
    a058:	4901                	li	s2,0
    a05a:	0469                	addi	s0,s0,26
    a05c:	5b7d                	li	s6,-1
    a05e:	05249863          	bne	s1,s2,a0ae <_printf_common+0xfa>
    a062:	4501                	li	a0,0
    a064:	a809                	j	a076 <_printf_common+0xc2>
    a066:	4685                	li	a3,1
    a068:	865a                	mv	a2,s6
    a06a:	85d2                	mv	a1,s4
    a06c:	854e                	mv	a0,s3
    a06e:	9a82                	jalr	s5
    a070:	01751e63          	bne	a0,s7,a08c <_printf_common+0xd8>
    a074:	557d                	li	a0,-1
    a076:	50b2                	lw	ra,44(sp)
    a078:	5422                	lw	s0,40(sp)
    a07a:	5492                	lw	s1,36(sp)
    a07c:	5902                	lw	s2,32(sp)
    a07e:	49f2                	lw	s3,28(sp)
    a080:	4a62                	lw	s4,24(sp)
    a082:	4ad2                	lw	s5,20(sp)
    a084:	4b42                	lw	s6,16(sp)
    a086:	4bb2                	lw	s7,12(sp)
    a088:	6145                	addi	sp,sp,48
    a08a:	8082                	ret
    a08c:	0905                	addi	s2,s2,1
    a08e:	bfad                	j	a008 <_printf_common+0x54>
    a090:	00d40733          	add	a4,s0,a3
    a094:	03000613          	li	a2,48
    a098:	04c701a3          	sb	a2,67(a4)
    a09c:	04544703          	lbu	a4,69(s0)
    a0a0:	00168793          	addi	a5,a3,1
    a0a4:	97a2                	add	a5,a5,s0
    a0a6:	0689                	addi	a3,a3,2
    a0a8:	04e781a3          	sb	a4,67(a5)
    a0ac:	bf9d                	j	a022 <_printf_common+0x6e>
    a0ae:	4685                	li	a3,1
    a0b0:	8622                	mv	a2,s0
    a0b2:	85d2                	mv	a1,s4
    a0b4:	854e                	mv	a0,s3
    a0b6:	9a82                	jalr	s5
    a0b8:	fb650ee3          	beq	a0,s6,a074 <_printf_common+0xc0>
    a0bc:	0905                	addi	s2,s2,1
    a0be:	b745                	j	a05e <_printf_common+0xaa>

0000a0c0 <_printf_i>:
    a0c0:	7179                	addi	sp,sp,-48
    a0c2:	d422                	sw	s0,40(sp)
    a0c4:	d226                	sw	s1,36(sp)
    a0c6:	d04a                	sw	s2,32(sp)
    a0c8:	ce4e                	sw	s3,28(sp)
    a0ca:	d606                	sw	ra,44(sp)
    a0cc:	cc52                	sw	s4,24(sp)
    a0ce:	ca56                	sw	s5,20(sp)
    a0d0:	c85a                	sw	s6,16(sp)
    a0d2:	89b6                	mv	s3,a3
    a0d4:	0185c683          	lbu	a3,24(a1)
    a0d8:	06900793          	li	a5,105
    a0dc:	8932                	mv	s2,a2
    a0de:	84aa                	mv	s1,a0
    a0e0:	842e                	mv	s0,a1
    a0e2:	04358613          	addi	a2,a1,67
    a0e6:	02f68d63          	beq	a3,a5,a120 <_printf_i+0x60>
    a0ea:	06d7e263          	bltu	a5,a3,a14e <_printf_i+0x8e>
    a0ee:	05800793          	li	a5,88
    a0f2:	18f68863          	beq	a3,a5,a282 <_printf_i+0x1c2>
    a0f6:	00d7ed63          	bltu	a5,a3,a110 <_printf_i+0x50>
    a0fa:	22068163          	beqz	a3,a31c <_printf_i+0x25c>
    a0fe:	04300793          	li	a5,67
    a102:	0af68e63          	beq	a3,a5,a1be <_printf_i+0xfe>
    a106:	04240a93          	addi	s5,s0,66
    a10a:	04d40123          	sb	a3,66(s0)
    a10e:	a0c9                	j	a1d0 <_printf_i+0x110>
    a110:	06300793          	li	a5,99
    a114:	0af68563          	beq	a3,a5,a1be <_printf_i+0xfe>
    a118:	06400793          	li	a5,100
    a11c:	fef695e3          	bne	a3,a5,a106 <_printf_i+0x46>
    a120:	401c                	lw	a5,0(s0)
    a122:	4308                	lw	a0,0(a4)
    a124:	0807f693          	andi	a3,a5,128
    a128:	00450593          	addi	a1,a0,4
    a12c:	c6c5                	beqz	a3,a1d4 <_printf_i+0x114>
    a12e:	411c                	lw	a5,0(a0)
    a130:	c30c                	sw	a1,0(a4)
    a132:	0007d863          	bgez	a5,a142 <_printf_i+0x82>
    a136:	02d00713          	li	a4,45
    a13a:	40f007b3          	neg	a5,a5
    a13e:	04e401a3          	sb	a4,67(s0)
    a142:	00001697          	auipc	a3,0x1
    a146:	d2a68693          	addi	a3,a3,-726 # ae6c <__sf_fake_stdout+0x34>
    a14a:	4729                	li	a4,10
    a14c:	a86d                	j	a206 <_printf_i+0x146>
    a14e:	07000793          	li	a5,112
    a152:	16f68463          	beq	a3,a5,a2ba <_printf_i+0x1fa>
    a156:	02d7e563          	bltu	a5,a3,a180 <_printf_i+0xc0>
    a15a:	06e00793          	li	a5,110
    a15e:	18f68b63          	beq	a3,a5,a2f4 <_printf_i+0x234>
    a162:	06f00793          	li	a5,111
    a166:	faf690e3          	bne	a3,a5,a106 <_printf_i+0x46>
    a16a:	400c                	lw	a1,0(s0)
    a16c:	431c                	lw	a5,0(a4)
    a16e:	0805f813          	andi	a6,a1,128
    a172:	00478513          	addi	a0,a5,4
    a176:	06080763          	beqz	a6,a1e4 <_printf_i+0x124>
    a17a:	c308                	sw	a0,0(a4)
    a17c:	439c                	lw	a5,0(a5)
    a17e:	a88d                	j	a1f0 <_printf_i+0x130>
    a180:	07500793          	li	a5,117
    a184:	fef683e3          	beq	a3,a5,a16a <_printf_i+0xaa>
    a188:	07800793          	li	a5,120
    a18c:	12f68b63          	beq	a3,a5,a2c2 <_printf_i+0x202>
    a190:	07300793          	li	a5,115
    a194:	f6f699e3          	bne	a3,a5,a106 <_printf_i+0x46>
    a198:	431c                	lw	a5,0(a4)
    a19a:	41d0                	lw	a2,4(a1)
    a19c:	4581                	li	a1,0
    a19e:	00478693          	addi	a3,a5,4
    a1a2:	c314                	sw	a3,0(a4)
    a1a4:	0007aa83          	lw	s5,0(a5)
    a1a8:	8556                	mv	a0,s5
    a1aa:	2665                	jal	a552 <memchr>
    a1ac:	c501                	beqz	a0,a1b4 <_printf_i+0xf4>
    a1ae:	41550533          	sub	a0,a0,s5
    a1b2:	c048                	sw	a0,4(s0)
    a1b4:	405c                	lw	a5,4(s0)
    a1b6:	c81c                	sw	a5,16(s0)
    a1b8:	040401a3          	sb	zero,67(s0)
    a1bc:	a871                	j	a258 <_printf_i+0x198>
    a1be:	431c                	lw	a5,0(a4)
    a1c0:	04240a93          	addi	s5,s0,66
    a1c4:	00478693          	addi	a3,a5,4
    a1c8:	439c                	lw	a5,0(a5)
    a1ca:	c314                	sw	a3,0(a4)
    a1cc:	04f40123          	sb	a5,66(s0)
    a1d0:	4785                	li	a5,1
    a1d2:	b7d5                	j	a1b6 <_printf_i+0xf6>
    a1d4:	0407f693          	andi	a3,a5,64
    a1d8:	411c                	lw	a5,0(a0)
    a1da:	c30c                	sw	a1,0(a4)
    a1dc:	dab9                	beqz	a3,a132 <_printf_i+0x72>
    a1de:	07c2                	slli	a5,a5,0x10
    a1e0:	87c1                	srai	a5,a5,0x10
    a1e2:	bf81                	j	a132 <_printf_i+0x72>
    a1e4:	0405f593          	andi	a1,a1,64
    a1e8:	c308                	sw	a0,0(a4)
    a1ea:	d9c9                	beqz	a1,a17c <_printf_i+0xbc>
    a1ec:	0007d783          	lhu	a5,0(a5)
    a1f0:	06f00713          	li	a4,111
    a1f4:	0ee68863          	beq	a3,a4,a2e4 <_printf_i+0x224>
    a1f8:	00001697          	auipc	a3,0x1
    a1fc:	c7468693          	addi	a3,a3,-908 # ae6c <__sf_fake_stdout+0x34>
    a200:	4729                	li	a4,10
    a202:	040401a3          	sb	zero,67(s0)
    a206:	404c                	lw	a1,4(s0)
    a208:	c40c                	sw	a1,8(s0)
    a20a:	0005c563          	bltz	a1,a214 <_printf_i+0x154>
    a20e:	4008                	lw	a0,0(s0)
    a210:	996d                	andi	a0,a0,-5
    a212:	c008                	sw	a0,0(s0)
    a214:	e399                	bnez	a5,a21a <_printf_i+0x15a>
    a216:	8ab2                	mv	s5,a2
    a218:	cd91                	beqz	a1,a234 <_printf_i+0x174>
    a21a:	8ab2                	mv	s5,a2
    a21c:	02e7f5b3          	remu	a1,a5,a4
    a220:	1afd                	addi	s5,s5,-1
    a222:	95b6                	add	a1,a1,a3
    a224:	0005c583          	lbu	a1,0(a1)
    a228:	00ba8023          	sb	a1,0(s5)
    a22c:	02e7d5b3          	divu	a1,a5,a4
    a230:	0ce7f063          	bgeu	a5,a4,a2f0 <_printf_i+0x230>
    a234:	47a1                	li	a5,8
    a236:	00f71e63          	bne	a4,a5,a252 <_printf_i+0x192>
    a23a:	401c                	lw	a5,0(s0)
    a23c:	8b85                	andi	a5,a5,1
    a23e:	cb91                	beqz	a5,a252 <_printf_i+0x192>
    a240:	4058                	lw	a4,4(s0)
    a242:	481c                	lw	a5,16(s0)
    a244:	00e7c763          	blt	a5,a4,a252 <_printf_i+0x192>
    a248:	03000793          	li	a5,48
    a24c:	fefa8fa3          	sb	a5,-1(s5)
    a250:	1afd                	addi	s5,s5,-1
    a252:	41560633          	sub	a2,a2,s5
    a256:	c810                	sw	a2,16(s0)
    a258:	874e                	mv	a4,s3
    a25a:	86ca                	mv	a3,s2
    a25c:	0070                	addi	a2,sp,12
    a25e:	85a2                	mv	a1,s0
    a260:	8526                	mv	a0,s1
    a262:	d53ff0ef          	jal	ra,9fb4 <_printf_common>
    a266:	5a7d                	li	s4,-1
    a268:	0b451e63          	bne	a0,s4,a324 <_printf_i+0x264>
    a26c:	557d                	li	a0,-1
    a26e:	50b2                	lw	ra,44(sp)
    a270:	5422                	lw	s0,40(sp)
    a272:	5492                	lw	s1,36(sp)
    a274:	5902                	lw	s2,32(sp)
    a276:	49f2                	lw	s3,28(sp)
    a278:	4a62                	lw	s4,24(sp)
    a27a:	4ad2                	lw	s5,20(sp)
    a27c:	4b42                	lw	s6,16(sp)
    a27e:	6145                	addi	sp,sp,48
    a280:	8082                	ret
    a282:	04d582a3          	sb	a3,69(a1)
    a286:	00001697          	auipc	a3,0x1
    a28a:	be668693          	addi	a3,a3,-1050 # ae6c <__sf_fake_stdout+0x34>
    a28e:	400c                	lw	a1,0(s0)
    a290:	4308                	lw	a0,0(a4)
    a292:	0805f813          	andi	a6,a1,128
    a296:	411c                	lw	a5,0(a0)
    a298:	0511                	addi	a0,a0,4
    a29a:	02080d63          	beqz	a6,a2d4 <_printf_i+0x214>
    a29e:	c308                	sw	a0,0(a4)
    a2a0:	0015f713          	andi	a4,a1,1
    a2a4:	c701                	beqz	a4,a2ac <_printf_i+0x1ec>
    a2a6:	0205e593          	ori	a1,a1,32
    a2aa:	c00c                	sw	a1,0(s0)
    a2ac:	4741                	li	a4,16
    a2ae:	fbb1                	bnez	a5,a202 <_printf_i+0x142>
    a2b0:	400c                	lw	a1,0(s0)
    a2b2:	fdf5f593          	andi	a1,a1,-33
    a2b6:	c00c                	sw	a1,0(s0)
    a2b8:	b7a9                	j	a202 <_printf_i+0x142>
    a2ba:	419c                	lw	a5,0(a1)
    a2bc:	0207e793          	ori	a5,a5,32
    a2c0:	c19c                	sw	a5,0(a1)
    a2c2:	07800793          	li	a5,120
    a2c6:	04f402a3          	sb	a5,69(s0)
    a2ca:	00001697          	auipc	a3,0x1
    a2ce:	bb668693          	addi	a3,a3,-1098 # ae80 <__sf_fake_stdout+0x48>
    a2d2:	bf75                	j	a28e <_printf_i+0x1ce>
    a2d4:	0405f813          	andi	a6,a1,64
    a2d8:	c308                	sw	a0,0(a4)
    a2da:	fc0803e3          	beqz	a6,a2a0 <_printf_i+0x1e0>
    a2de:	07c2                	slli	a5,a5,0x10
    a2e0:	83c1                	srli	a5,a5,0x10
    a2e2:	bf7d                	j	a2a0 <_printf_i+0x1e0>
    a2e4:	00001697          	auipc	a3,0x1
    a2e8:	b8868693          	addi	a3,a3,-1144 # ae6c <__sf_fake_stdout+0x34>
    a2ec:	4721                	li	a4,8
    a2ee:	bf11                	j	a202 <_printf_i+0x142>
    a2f0:	87ae                	mv	a5,a1
    a2f2:	b72d                	j	a21c <_printf_i+0x15c>
    a2f4:	4194                	lw	a3,0(a1)
    a2f6:	431c                	lw	a5,0(a4)
    a2f8:	49cc                	lw	a1,20(a1)
    a2fa:	0806f813          	andi	a6,a3,128
    a2fe:	00478513          	addi	a0,a5,4
    a302:	00080663          	beqz	a6,a30e <_printf_i+0x24e>
    a306:	c308                	sw	a0,0(a4)
    a308:	439c                	lw	a5,0(a5)
    a30a:	c38c                	sw	a1,0(a5)
    a30c:	a801                	j	a31c <_printf_i+0x25c>
    a30e:	c308                	sw	a0,0(a4)
    a310:	0406f693          	andi	a3,a3,64
    a314:	439c                	lw	a5,0(a5)
    a316:	daf5                	beqz	a3,a30a <_printf_i+0x24a>
    a318:	00b79023          	sh	a1,0(a5)
    a31c:	00042823          	sw	zero,16(s0)
    a320:	8ab2                	mv	s5,a2
    a322:	bf1d                	j	a258 <_printf_i+0x198>
    a324:	4814                	lw	a3,16(s0)
    a326:	8656                	mv	a2,s5
    a328:	85ca                	mv	a1,s2
    a32a:	8526                	mv	a0,s1
    a32c:	9982                	jalr	s3
    a32e:	f3450fe3          	beq	a0,s4,a26c <_printf_i+0x1ac>
    a332:	401c                	lw	a5,0(s0)
    a334:	8b89                	andi	a5,a5,2
    a336:	e78d                	bnez	a5,a360 <_printf_i+0x2a0>
    a338:	47b2                	lw	a5,12(sp)
    a33a:	4448                	lw	a0,12(s0)
    a33c:	f2f559e3          	bge	a0,a5,a26e <_printf_i+0x1ae>
    a340:	853e                	mv	a0,a5
    a342:	b735                	j	a26e <_printf_i+0x1ae>
    a344:	4685                	li	a3,1
    a346:	8656                	mv	a2,s5
    a348:	85ca                	mv	a1,s2
    a34a:	8526                	mv	a0,s1
    a34c:	9982                	jalr	s3
    a34e:	f1650fe3          	beq	a0,s6,a26c <_printf_i+0x1ac>
    a352:	0a05                	addi	s4,s4,1
    a354:	445c                	lw	a5,12(s0)
    a356:	4732                	lw	a4,12(sp)
    a358:	8f99                	sub	a5,a5,a4
    a35a:	fefa45e3          	blt	s4,a5,a344 <_printf_i+0x284>
    a35e:	bfe9                	j	a338 <_printf_i+0x278>
    a360:	4a01                	li	s4,0
    a362:	01940a93          	addi	s5,s0,25
    a366:	5b7d                	li	s6,-1
    a368:	b7f5                	j	a354 <_printf_i+0x294>

0000a36a <_sbrk_r>:
    a36a:	1141                	addi	sp,sp,-16
    a36c:	c422                	sw	s0,8(sp)
    a36e:	842a                	mv	s0,a0
    a370:	852e                	mv	a0,a1
    a372:	1fff9797          	auipc	a5,0x1fff9
    a376:	fe07a723          	sw	zero,-18(a5) # 20003360 <errno>
    a37a:	c606                	sw	ra,12(sp)
    a37c:	e41f80ef          	jal	ra,31bc <_sbrk>
    a380:	57fd                	li	a5,-1
    a382:	00f51963          	bne	a0,a5,a394 <_sbrk_r+0x2a>
    a386:	1fff9797          	auipc	a5,0x1fff9
    a38a:	fda78793          	addi	a5,a5,-38 # 20003360 <errno>
    a38e:	439c                	lw	a5,0(a5)
    a390:	c391                	beqz	a5,a394 <_sbrk_r+0x2a>
    a392:	c01c                	sw	a5,0(s0)
    a394:	40b2                	lw	ra,12(sp)
    a396:	4422                	lw	s0,8(sp)
    a398:	0141                	addi	sp,sp,16
    a39a:	8082                	ret

0000a39c <__sread>:
    a39c:	1141                	addi	sp,sp,-16
    a39e:	c422                	sw	s0,8(sp)
    a3a0:	842e                	mv	s0,a1
    a3a2:	00e59583          	lh	a1,14(a1)
    a3a6:	c606                	sw	ra,12(sp)
    a3a8:	22e1                	jal	a570 <_read_r>
    a3aa:	00054963          	bltz	a0,a3bc <__sread+0x20>
    a3ae:	487c                	lw	a5,84(s0)
    a3b0:	97aa                	add	a5,a5,a0
    a3b2:	c87c                	sw	a5,84(s0)
    a3b4:	40b2                	lw	ra,12(sp)
    a3b6:	4422                	lw	s0,8(sp)
    a3b8:	0141                	addi	sp,sp,16
    a3ba:	8082                	ret
    a3bc:	00c45783          	lhu	a5,12(s0)
    a3c0:	777d                	lui	a4,0xfffff
    a3c2:	177d                	addi	a4,a4,-1
    a3c4:	8ff9                	and	a5,a5,a4
    a3c6:	00f41623          	sh	a5,12(s0)
    a3ca:	b7ed                	j	a3b4 <__sread+0x18>

0000a3cc <__swrite>:
    a3cc:	00c5d783          	lhu	a5,12(a1)
    a3d0:	1101                	addi	sp,sp,-32
    a3d2:	cc22                	sw	s0,24(sp)
    a3d4:	ca26                	sw	s1,20(sp)
    a3d6:	c84a                	sw	s2,16(sp)
    a3d8:	c64e                	sw	s3,12(sp)
    a3da:	ce06                	sw	ra,28(sp)
    a3dc:	1007f793          	andi	a5,a5,256
    a3e0:	84aa                	mv	s1,a0
    a3e2:	842e                	mv	s0,a1
    a3e4:	8932                	mv	s2,a2
    a3e6:	89b6                	mv	s3,a3
    a3e8:	c791                	beqz	a5,a3f4 <__swrite+0x28>
    a3ea:	00e59583          	lh	a1,14(a1)
    a3ee:	4689                	li	a3,2
    a3f0:	4601                	li	a2,0
    a3f2:	2235                	jal	a51e <_lseek_r>
    a3f4:	00c45783          	lhu	a5,12(s0)
    a3f8:	777d                	lui	a4,0xfffff
    a3fa:	177d                	addi	a4,a4,-1
    a3fc:	8ff9                	and	a5,a5,a4
    a3fe:	00f41623          	sh	a5,12(s0)
    a402:	00e41583          	lh	a1,14(s0)
    a406:	4462                	lw	s0,24(sp)
    a408:	40f2                	lw	ra,28(sp)
    a40a:	86ce                	mv	a3,s3
    a40c:	864a                	mv	a2,s2
    a40e:	49b2                	lw	s3,12(sp)
    a410:	4942                	lw	s2,16(sp)
    a412:	8526                	mv	a0,s1
    a414:	44d2                	lw	s1,20(sp)
    a416:	6105                	addi	sp,sp,32
    a418:	a83d                	j	a456 <_write_r>

0000a41a <__sseek>:
    a41a:	1141                	addi	sp,sp,-16
    a41c:	c422                	sw	s0,8(sp)
    a41e:	842e                	mv	s0,a1
    a420:	00e59583          	lh	a1,14(a1)
    a424:	c606                	sw	ra,12(sp)
    a426:	28e5                	jal	a51e <_lseek_r>
    a428:	57fd                	li	a5,-1
    a42a:	00c45703          	lhu	a4,12(s0)
    a42e:	00f51b63          	bne	a0,a5,a444 <__sseek+0x2a>
    a432:	77fd                	lui	a5,0xfffff
    a434:	17fd                	addi	a5,a5,-1
    a436:	8ff9                	and	a5,a5,a4
    a438:	00f41623          	sh	a5,12(s0)
    a43c:	40b2                	lw	ra,12(sp)
    a43e:	4422                	lw	s0,8(sp)
    a440:	0141                	addi	sp,sp,16
    a442:	8082                	ret
    a444:	6785                	lui	a5,0x1
    a446:	8fd9                	or	a5,a5,a4
    a448:	00f41623          	sh	a5,12(s0)
    a44c:	c868                	sw	a0,84(s0)
    a44e:	b7fd                	j	a43c <__sseek+0x22>

0000a450 <__sclose>:
    a450:	00e59583          	lh	a1,14(a1)
    a454:	a825                	j	a48c <_close_r>

0000a456 <_write_r>:
    a456:	1141                	addi	sp,sp,-16
    a458:	c422                	sw	s0,8(sp)
    a45a:	842a                	mv	s0,a0
    a45c:	852e                	mv	a0,a1
    a45e:	85b2                	mv	a1,a2
    a460:	8636                	mv	a2,a3
    a462:	1fff9797          	auipc	a5,0x1fff9
    a466:	ee07af23          	sw	zero,-258(a5) # 20003360 <errno>
    a46a:	c606                	sw	ra,12(sp)
    a46c:	d13f80ef          	jal	ra,317e <_write>
    a470:	57fd                	li	a5,-1
    a472:	00f51963          	bne	a0,a5,a484 <_write_r+0x2e>
    a476:	1fff9797          	auipc	a5,0x1fff9
    a47a:	eea78793          	addi	a5,a5,-278 # 20003360 <errno>
    a47e:	439c                	lw	a5,0(a5)
    a480:	c391                	beqz	a5,a484 <_write_r+0x2e>
    a482:	c01c                	sw	a5,0(s0)
    a484:	40b2                	lw	ra,12(sp)
    a486:	4422                	lw	s0,8(sp)
    a488:	0141                	addi	sp,sp,16
    a48a:	8082                	ret

0000a48c <_close_r>:
    a48c:	1141                	addi	sp,sp,-16
    a48e:	c422                	sw	s0,8(sp)
    a490:	842a                	mv	s0,a0
    a492:	852e                	mv	a0,a1
    a494:	1fff9797          	auipc	a5,0x1fff9
    a498:	ec07a623          	sw	zero,-308(a5) # 20003360 <errno>
    a49c:	c606                	sw	ra,12(sp)
    a49e:	2219                	jal	a5a4 <_close>
    a4a0:	57fd                	li	a5,-1
    a4a2:	00f51963          	bne	a0,a5,a4b4 <_close_r+0x28>
    a4a6:	1fff9797          	auipc	a5,0x1fff9
    a4aa:	eba78793          	addi	a5,a5,-326 # 20003360 <errno>
    a4ae:	439c                	lw	a5,0(a5)
    a4b0:	c391                	beqz	a5,a4b4 <_close_r+0x28>
    a4b2:	c01c                	sw	a5,0(s0)
    a4b4:	40b2                	lw	ra,12(sp)
    a4b6:	4422                	lw	s0,8(sp)
    a4b8:	0141                	addi	sp,sp,16
    a4ba:	8082                	ret

0000a4bc <_fstat_r>:
    a4bc:	1141                	addi	sp,sp,-16
    a4be:	c422                	sw	s0,8(sp)
    a4c0:	842a                	mv	s0,a0
    a4c2:	852e                	mv	a0,a1
    a4c4:	85b2                	mv	a1,a2
    a4c6:	1fff9797          	auipc	a5,0x1fff9
    a4ca:	e807ad23          	sw	zero,-358(a5) # 20003360 <errno>
    a4ce:	c606                	sw	ra,12(sp)
    a4d0:	20d5                	jal	a5b4 <_fstat>
    a4d2:	57fd                	li	a5,-1
    a4d4:	00f51963          	bne	a0,a5,a4e6 <_fstat_r+0x2a>
    a4d8:	1fff9797          	auipc	a5,0x1fff9
    a4dc:	e8878793          	addi	a5,a5,-376 # 20003360 <errno>
    a4e0:	439c                	lw	a5,0(a5)
    a4e2:	c391                	beqz	a5,a4e6 <_fstat_r+0x2a>
    a4e4:	c01c                	sw	a5,0(s0)
    a4e6:	40b2                	lw	ra,12(sp)
    a4e8:	4422                	lw	s0,8(sp)
    a4ea:	0141                	addi	sp,sp,16
    a4ec:	8082                	ret

0000a4ee <_isatty_r>:
    a4ee:	1141                	addi	sp,sp,-16
    a4f0:	c422                	sw	s0,8(sp)
    a4f2:	842a                	mv	s0,a0
    a4f4:	852e                	mv	a0,a1
    a4f6:	1fff9797          	auipc	a5,0x1fff9
    a4fa:	e607a523          	sw	zero,-406(a5) # 20003360 <errno>
    a4fe:	c606                	sw	ra,12(sp)
    a500:	20d1                	jal	a5c4 <_isatty>
    a502:	57fd                	li	a5,-1
    a504:	00f51963          	bne	a0,a5,a516 <_isatty_r+0x28>
    a508:	1fff9797          	auipc	a5,0x1fff9
    a50c:	e5878793          	addi	a5,a5,-424 # 20003360 <errno>
    a510:	439c                	lw	a5,0(a5)
    a512:	c391                	beqz	a5,a516 <_isatty_r+0x28>
    a514:	c01c                	sw	a5,0(s0)
    a516:	40b2                	lw	ra,12(sp)
    a518:	4422                	lw	s0,8(sp)
    a51a:	0141                	addi	sp,sp,16
    a51c:	8082                	ret

0000a51e <_lseek_r>:
    a51e:	1141                	addi	sp,sp,-16
    a520:	c422                	sw	s0,8(sp)
    a522:	842a                	mv	s0,a0
    a524:	852e                	mv	a0,a1
    a526:	85b2                	mv	a1,a2
    a528:	8636                	mv	a2,a3
    a52a:	1fff9797          	auipc	a5,0x1fff9
    a52e:	e207ab23          	sw	zero,-458(a5) # 20003360 <errno>
    a532:	c606                	sw	ra,12(sp)
    a534:	2045                	jal	a5d4 <_lseek>
    a536:	57fd                	li	a5,-1
    a538:	00f51963          	bne	a0,a5,a54a <_lseek_r+0x2c>
    a53c:	1fff9797          	auipc	a5,0x1fff9
    a540:	e2478793          	addi	a5,a5,-476 # 20003360 <errno>
    a544:	439c                	lw	a5,0(a5)
    a546:	c391                	beqz	a5,a54a <_lseek_r+0x2c>
    a548:	c01c                	sw	a5,0(s0)
    a54a:	40b2                	lw	ra,12(sp)
    a54c:	4422                	lw	s0,8(sp)
    a54e:	0141                	addi	sp,sp,16
    a550:	8082                	ret

0000a552 <memchr>:
    a552:	0ff5f593          	andi	a1,a1,255
    a556:	962a                	add	a2,a2,a0
    a558:	00c51463          	bne	a0,a2,a560 <memchr+0xe>
    a55c:	4501                	li	a0,0
    a55e:	8082                	ret
    a560:	00054783          	lbu	a5,0(a0)
    a564:	feb78de3          	beq	a5,a1,a55e <memchr+0xc>
    a568:	0505                	addi	a0,a0,1
    a56a:	b7fd                	j	a558 <memchr+0x6>

0000a56c <__malloc_lock>:
    a56c:	8082                	ret

0000a56e <__malloc_unlock>:
    a56e:	8082                	ret

0000a570 <_read_r>:
    a570:	1141                	addi	sp,sp,-16
    a572:	c422                	sw	s0,8(sp)
    a574:	842a                	mv	s0,a0
    a576:	852e                	mv	a0,a1
    a578:	85b2                	mv	a1,a2
    a57a:	8636                	mv	a2,a3
    a57c:	1fff9797          	auipc	a5,0x1fff9
    a580:	de07a223          	sw	zero,-540(a5) # 20003360 <errno>
    a584:	c606                	sw	ra,12(sp)
    a586:	28b9                	jal	a5e4 <_read>
    a588:	57fd                	li	a5,-1
    a58a:	00f51963          	bne	a0,a5,a59c <_read_r+0x2c>
    a58e:	1fff9797          	auipc	a5,0x1fff9
    a592:	dd278793          	addi	a5,a5,-558 # 20003360 <errno>
    a596:	439c                	lw	a5,0(a5)
    a598:	c391                	beqz	a5,a59c <_read_r+0x2c>
    a59a:	c01c                	sw	a5,0(s0)
    a59c:	40b2                	lw	ra,12(sp)
    a59e:	4422                	lw	s0,8(sp)
    a5a0:	0141                	addi	sp,sp,16
    a5a2:	8082                	ret

0000a5a4 <_close>:
    a5a4:	05800793          	li	a5,88
    a5a8:	1fff9717          	auipc	a4,0x1fff9
    a5ac:	daf72c23          	sw	a5,-584(a4) # 20003360 <errno>
    a5b0:	557d                	li	a0,-1
    a5b2:	8082                	ret

0000a5b4 <_fstat>:
    a5b4:	05800793          	li	a5,88
    a5b8:	1fff9717          	auipc	a4,0x1fff9
    a5bc:	daf72423          	sw	a5,-600(a4) # 20003360 <errno>
    a5c0:	557d                	li	a0,-1
    a5c2:	8082                	ret

0000a5c4 <_isatty>:
    a5c4:	05800793          	li	a5,88
    a5c8:	1fff9717          	auipc	a4,0x1fff9
    a5cc:	d8f72c23          	sw	a5,-616(a4) # 20003360 <errno>
    a5d0:	4501                	li	a0,0
    a5d2:	8082                	ret

0000a5d4 <_lseek>:
    a5d4:	05800793          	li	a5,88
    a5d8:	1fff9717          	auipc	a4,0x1fff9
    a5dc:	d8f72423          	sw	a5,-632(a4) # 20003360 <errno>
    a5e0:	557d                	li	a0,-1
    a5e2:	8082                	ret

0000a5e4 <_read>:
    a5e4:	05800793          	li	a5,88
    a5e8:	1fff9717          	auipc	a4,0x1fff9
    a5ec:	d6f72c23          	sw	a5,-648(a4) # 20003360 <errno>
    a5f0:	557d                	li	a0,-1
    a5f2:	8082                	ret
    a5f4:	0001                	nop
    a5f6:	0000                	unimp
    a5f8:	0001                	nop
    a5fa:	0000                	unimp
    a5fc:	0000                	unimp
    a5fe:	0000                	unimp
    a600:	2e2e                	fld	ft8,200(sp)
    a602:	646f432f          	0x646f432f
    a606:	2f65                	jal	adbe <__clz_tab+0xc6>
    a608:	76726553          	0x76726553
    a60c:	6369                	lui	t1,0x1a
    a60e:	2f65                	jal	adc6 <__clz_tab+0xce>
    a610:	7246                	flw	ft4,112(sp)
    a612:	6565                	lui	a0,0x19
    a614:	5452                	lw	s0,52(sp)
    a616:	702f534f          	fnmadd.s	ft6,ft10,ft2,fa4,unknown
    a61a:	6174726f          	jal	tp,52430 <_data_lma+0x4759c>
    a61e:	6c62                	flw	fs8,24(sp)
    a620:	2f65                	jal	add8 <__clz_tab+0xe0>
    a622:	654d                	lui	a0,0x13
    a624:	4d6d                	li	s10,27
    a626:	6e61                	lui	t3,0x18
    a628:	65682f67          	0x65682f67
    a62c:	7061                	c.lui	zero,0xffff8
    a62e:	345f 632e 0000      	0x632e345f
    a634:	7265                	lui	tp,0xffff9
    a636:	2072                	fld	ft0,280(sp)
    a638:	7461                	lui	s0,0xffff8
    a63a:	6c20                	flw	fs0,88(s0)
    a63c:	6e69                	lui	t3,0x1a
    a63e:	2065                	jal	a6e6 <_read+0x102>
    a640:	6425                	lui	s0,0x9
    a642:	6f20                	flw	fs0,88(a4)
    a644:	2066                	fld	ft0,88(sp)
    a646:	6966                	flw	fs2,88(sp)
    a648:	656c                	flw	fa1,76(a0)
    a64a:	2220                	fld	fs0,64(a2)
    a64c:	7325                	lui	t1,0xfffe9
    a64e:	2e22                	fld	ft8,8(sp)
    a650:	0d20                	addi	s0,sp,664
    a652:	200a                	fld	ft0,128(sp)
    a654:	0000                	unimp
    a656:	0000                	unimp
    a658:	2e2e                	fld	ft8,200(sp)
    a65a:	646f432f          	0x646f432f
    a65e:	2f65                	jal	ae16 <__sf_fake_stderr+0x1e>
    a660:	76726553          	0x76726553
    a664:	6369                	lui	t1,0x1a
    a666:	2f65                	jal	ae1e <__sf_fake_stdin+0x6>
    a668:	7246                	flw	ft4,112(sp)
    a66a:	6565                	lui	a0,0x19
    a66c:	5452                	lw	s0,52(sp)
    a66e:	702f534f          	fnmadd.s	ft6,ft10,ft2,fa4,unknown
    a672:	6174726f          	jal	tp,52488 <_data_lma+0x475f4>
    a676:	6c62                	flw	fs8,24(sp)
    a678:	2f65                	jal	ae30 <__sf_fake_stdin+0x18>
    a67a:	2f434347          	fmsub.q	ft6,ft6,fs4,ft5,rmm
    a67e:	4952                	lw	s2,20(sp)
    a680:	562d4353          	0x562d4353
    a684:	726f702f          	0x726f702f
    a688:	2e74                	fld	fa3,216(a2)
    a68a:	2e2e0063          	beq	t3,sp,a96a <npio2_hw+0x32>
    a68e:	646f432f          	0x646f432f
    a692:	2f65                	jal	ae4a <__sf_fake_stdout+0x12>
    a694:	76726553          	0x76726553
    a698:	6369                	lui	t1,0x1a
    a69a:	2f65                	jal	ae52 <__sf_fake_stdout+0x1a>
    a69c:	7246                	flw	ft4,112(sp)
    a69e:	6565                	lui	a0,0x19
    a6a0:	5452                	lw	s0,52(sp)
    a6a2:	712f534f          	fnmadd.s	ft6,ft10,fs2,fa4,unknown
    a6a6:	6575                	lui	a0,0x1d
    a6a8:	6575                	lui	a0,0x1d
    a6aa:	632e                	flw	ft6,200(sp)
    a6ac:	0000                	unimp
    a6ae:	0000                	unimp
    a6b0:	2e2e                	fld	ft8,200(sp)
    a6b2:	646f432f          	0x646f432f
    a6b6:	2f65                	jal	ae6e <__sf_fake_stdout+0x36>
    a6b8:	76726553          	0x76726553
    a6bc:	6369                	lui	t1,0x1a
    a6be:	2f65                	jal	ae76 <__sf_fake_stdout+0x3e>
    a6c0:	7246                	flw	ft4,112(sp)
    a6c2:	6565                	lui	a0,0x19
    a6c4:	5452                	lw	s0,52(sp)
    a6c6:	742f534f          	0x742f534f
    a6ca:	7361                	lui	t1,0xffff8
    a6cc:	632e736b          	0x632e736b
    a6d0:	0000                	unimp
    a6d2:	0000                	unimp
    a6d4:	4449                	li	s0,18
    a6d6:	454c                	lw	a1,12(a0)
    a6d8:	0000                	unimp
    a6da:	0000                	unimp
    a6dc:	1fca                	slli	t6,t6,0x32
    a6de:	0000                	unimp
    a6e0:	1fca                	slli	t6,t6,0x32
    a6e2:	0000                	unimp
    a6e4:	200a                	fld	ft0,128(sp)
    a6e6:	0000                	unimp
    a6e8:	2016                	fld	ft0,320(sp)
    a6ea:	0000                	unimp
    a6ec:	2058                	fld	fa4,128(s0)
    a6ee:	0000                	unimp
    a6f0:	1fca                	slli	t6,t6,0x32
    a6f2:	0000                	unimp
    a6f4:	1fca                	slli	t6,t6,0x32
    a6f6:	0000                	unimp
    a6f8:	200a                	fld	ft0,128(sp)
    a6fa:	0000                	unimp
    a6fc:	2016                	fld	ft0,320(sp)
    a6fe:	0000                	unimp
    a700:	6d54                	flw	fa3,28(a0)
    a702:	5172                	lw	sp,60(sp)
    a704:	0000                	unimp
    a706:	0000                	unimp
    a708:	2e2e                	fld	ft8,200(sp)
    a70a:	646f432f          	0x646f432f
    a70e:	2f65                	jal	aec6 <_data_lma+0x32>
    a710:	76726553          	0x76726553
    a714:	6369                	lui	t1,0x1a
    a716:	2f65                	jal	aece <_data_lma+0x3a>
    a718:	7246                	flw	ft4,112(sp)
    a71a:	6565                	lui	a0,0x19
    a71c:	5452                	lw	s0,52(sp)
    a71e:	742f534f          	0x742f534f
    a722:	6d69                	lui	s10,0x1a
    a724:	7265                	lui	tp,0xffff9
    a726:	00632e73          	csrrs	t3,0x6,t1
    a72a:	0000                	unimp
    a72c:	6d54                	flw	fa3,28(a0)
    a72e:	2072                	fld	ft0,280(sp)
    a730:	00637653          	fadd.s	fa2,ft6,ft6
    a734:	0000                	unimp
    a736:	4040                	lw	s0,4(s0)
    a738:	0000                	unimp
    a73a:	4080                	lw	s0,0(s1)
    a73c:	d70a                	sw	sp,172(sp)
    a73e:	e7123ba3          	0xe7123ba3
    a742:	a1fa                	fsd	ft10,192(sp)
    a744:	df46                	sw	a7,188(sp)
    a746:	3f91                	jal	a69a <_read+0xb6>
    a748:	5c2d                	li	s8,-21
    a74a:	3dad                	jal	a5c4 <_isatty>
    a74c:	0000                	unimp
    a74e:	0000                	unimp
    a750:	1af05a77          	0x1af05a77
    a754:	a5dc                	fsd	fa5,136(a1)
    a756:	404c                	lw	a1,4(s0)
    a758:	0000                	unimp
    a75a:	3f80                	fld	fs0,56(a5)
    a75c:	0000                	unimp
    a75e:	3980                	fld	fs0,48(a1)
    a760:	0000                	unimp
    a762:	0000                	unimp
    a764:	6000                	flw	fs0,0(s0)
    a766:	4050                	lw	a2,4(s0)
    a768:	0000                	unimp
    a76a:	44fa                	lw	s1,156(sp)
	...
    a774:	3000                	fld	fs0,32(s0)
    a776:	4070                	lw	a2,68(s0)
    a778:	0000                	unimp
    a77a:	0000                	unimp
    a77c:	1000                	addi	s0,sp,32
    a77e:	4078                	lw	a4,68(s0)
    a780:	0000                	unimp
    a782:	0000                	unimp
    a784:	6000                	flw	fs0,0(s0)
    a786:	4064                	lw	s1,68(s0)
    a788:	0000                	unimp
    a78a:	46c8                	lw	a0,12(a3)
    a78c:	0000                	unimp
    a78e:	42c8                	lw	a0,4(a3)
    a790:	736e6553          	0x736e6553
    a794:	4320726f          	jal	tp,11bc6 <_data_lma+0x6d32>
    a798:	656c6c6f          	jal	s8,d0dee <_data_lma+0xc5f5a>
    a79c:	6f697463          	bgeu	s2,s6,ae84 <__sf_fake_stdout+0x4c>
    a7a0:	006e                	c.slli	zero,0x1b
    a7a2:	0000                	unimp
    a7a4:	736e6553          	0x736e6553
    a7a8:	4620726f          	jal	tp,11c0a <_data_lma+0x6d76>
    a7ac:	7375                	lui	t1,0xffffd
    a7ae:	6f69                	lui	t5,0x1a
    a7b0:	006e                	c.slli	zero,0x1b
    a7b2:	0000                	unimp
    a7b4:	614d                	addi	sp,sp,176
    a7b6:	72657473          	csrrci	s0,0x726,10
    a7ba:	0000                	unimp
    a7bc:	756f6873          	csrrsi	a6,0x756,30
    a7c0:	646c                	flw	fa1,76(s0)
    a7c2:	276e                	fld	fa4,216(sp)
    a7c4:	2074                	fld	fa3,192(s0)
    a7c6:	7572                	flw	fa0,60(sp)
    a7c8:	206e                	fld	ft0,216(sp)
    a7ca:	7461                	lui	s0,0xffff8
    a7cc:	6820                	flw	fs0,80(s0)
    a7ce:	7265                	lui	tp,0xffff9
    a7d0:	2165                	jal	ac78 <init_jk+0x118>
    a7d2:	0021                	c.nop	8
    a7d4:	0000                	unimp
    a7d6:	0000                	unimp
    a7d8:	2d18                	fld	fa4,24(a0)
    a7da:	5444                	lw	s1,44(s0)
    a7dc:	3ff921fb          	0x3ff921fb
    a7e0:	2d18                	fld	fa4,24(a0)
    a7e2:	5444                	lw	s1,44(s0)
    a7e4:	bff921fb          	0xbff921fb
    a7e8:	759c                	flw	fa5,40(a1)
    a7ea:	8800                	0x8800
    a7ec:	e43c                	fsw	fa5,72(s0)
    a7ee:	00007e37          	lui	t3,0x7
    a7f2:	0000                	unimp
    a7f4:	0000                	unimp
    a7f6:	3ff0                	fld	fa2,248(a5)
    a7f8:	0000                	unimp
    a7fa:	0000                	unimp
    a7fc:	0000                	unimp
    a7fe:	4000                	lw	s0,0(s0)
    a800:	0000                	unimp
    a802:	0000                	unimp
    a804:	0000                	unimp
    a806:	3ff8                	fld	fa4,248(a5)
    a808:	0000                	unimp
    a80a:	0000                	unimp
    a80c:	0000                	unimp
    a80e:	bff0                	fsd	fa2,248(a5)
    a810:	da11                	beqz	a2,a724 <_read+0x140>
    a812:	e322                	fsw	fs0,132(sp)
    a814:	ad3a                	fsd	fa4,152(sp)
    a816:	3f90                	fld	fa2,56(a5)
    a818:	24760deb          	0x24760deb
    a81c:	3fa97b4b          	fnmsub.q	fs6,fs2,fs10,ft7
    a820:	3d51                	jal	a6b4 <_read+0xd0>
    a822:	a0d0                	fsd	fa2,128(s1)
    a824:	0d66                	slli	s10,s10,0x19
    a826:	3fb1                	jal	a782 <_read+0x19e>
    a828:	206e                	fld	ft0,216(sp)
    a82a:	c54c                	sw	a1,12(a0)
    a82c:	45cd                	li	a1,19
    a82e:	83ff3fb7          	lui	t6,0x83ff3
    a832:	9200                	0x9200
    a834:	4924                	lw	s1,80(a0)
    a836:	3fc2                	fld	ft11,48(sp)
    a838:	550d                	li	a0,-29
    a83a:	5555                	li	a0,-11
    a83c:	5555                	li	a0,-11
    a83e:	3fd5                	jal	a832 <_read+0x24e>
    a840:	2c6a6c2f          	0x2c6a6c2f
    a844:	b444                	fsd	fs1,168(s0)
    a846:	bfa2                	fsd	fs0,504(sp)
    a848:	fd9a                	fsw	ft6,248(sp)
    a84a:	52de                	lw	t0,244(sp)
    a84c:	de2d                	beqz	a2,a7c6 <_read+0x1e2>
    a84e:	3fad                	jal	a7c8 <_read+0x1e4>
    a850:	9a6d                	andi	a2,a2,-5
    a852:	af74                	fsd	fa3,216(a4)
    a854:	b0f2                	fsd	ft8,96(sp)
    a856:	16713fb3          	0x16713fb3
    a85a:	71c6fe23          	0x71c6fe23
    a85e:	3fbc                	fld	fa5,120(a5)
    a860:	ebc4                	fsw	fs1,20(a5)
    a862:	9998                	0x9998
    a864:	9999                	andi	a1,a1,-26
    a866:	3fc9                	jal	a838 <_read+0x254>

0000a868 <atanhi>:
    a868:	bb4f 0561 ac67 3fdd 2d18 5444 21fb 3fe9     O.a.g..?.-DT.!.?
    a878:	f69b d281 730b 3fef 2d18 5444 21fb 3ff9     .....s.?.-DT.!.?

0000a888 <atanlo>:
    a888:	65e2 222f 2b7f 3c7a 5c07 3314 a626 3c81     .e/".+z<.\.3&..<
    a898:	cbbd 7af0 0788 3c70 5c07 3314 a626 3c91     ...z..p<.\.3&..<
    a8a8:	7173 7472 0000 0000 2d18 5444 21fb 4009     sqrt.....-DT.!.@
    a8b8:	2d18 5444 21fb c009 0000 0000 0000 8000     .-DT.!..........
    a8c8:	21d2 7f33 d97c 4002 21d2 7f33 d97c c002     .!3.|..@.!3.|...
    a8d8:	2d18 5444 21fb 3fe9 2d18 5444 21fb bfe9     .-DT.!.?.-DT.!..
    a8e8:	5c07 3314 a626 3ca1 0000 5440 21fb 3ff9     .\.3&..<..@T.!.?
    a8f8:	6331 1a62 b461 3dd0 0000 1a60 b461 3dd0     1cb.a..=..`.a..=
    a908:	7073 2e03 198a 3ba3 c883 6dc9 5f30 3fe4     sp.....;...m0_.?
    a918:	0000 0000 0000 3fe0 0000 2e00 198a 3ba3     .......?.......;
    a928:	49c1 2520 839a 397b 0000 0000 0000 4170     .I %..{9......pA

0000a938 <npio2_hw>:
    a938:	21fb 3ff9 21fb 4009 d97c 4012 21fb 4019     .!.?.!.@|..@.!.@
    a948:	6a7a 401f d97c 4022 fdbb 4025 21fb 4029     zj.@|."@..%@.!)@
    a958:	463a 402c 6a7a 402f 475c 4031 d97c 4032     :F,@zj/@\G1@|.2@
    a968:	6b9c 4034 fdbb 4035 8fdb 4037 21fb 4039     .k4@..5@..7@.!9@
    a978:	b41b 403a 463a 403c d85a 403d 6a7a 403f     ..:@:F<@Z.=@zj?@
    a988:	7e4c 4040 475c 4041 106c 4042 d97c 4042     L~@@\GA@l.B@|.B@
    a998:	a28c 4043 6b9c 4044 34ac 4045 fdbb 4045     ..C@.kD@.4E@..E@
    a9a8:	c6cb 4046 8fdb 4047 58eb 4048 21fb 4049     ..F@..G@.XH@.!I@

0000a9b8 <two_over_pi>:
    a9b8:	f983 00a2 4e44 006e 29fc 0015 57d1 0027     ....DNn..)...W'.
    a9c8:	34dd 00f5 db62 00c0 993c 0095 9041 0043     .4..b...<...A.C.
    a9d8:	5163 00fe debb 00ab 61b7 00c5 6e3a 0024     cQ.......a..:n$.
    a9e8:	4dd2 0042 0649 00e0 ea09 002e 921c 00d1     .MB.I...........
    a9f8:	1deb 00fe b129 001c 3ee8 00a7 35f5 0082     ....)....>...5..
    aa08:	bb44 002e e99c 0084 26b4 0070 7e41 005f     D........&p.A~_.
    aa18:	91d6 0039 8353 0039 f49c 0039 5f8b 0084     ..9.S.9...9.._..
    aa28:	f928 00bd 1ff8 003b ffde 0097 980f 0005     (.....;.........
    aa38:	2f11 00ef 5a0a 008b 1f6d 006d 7ecf 0036     ./...Z..m.m..~6.
    aa48:	cb09 0027 4f46 00b7 669e 003f ea2d 005f     ..'.FO...f?.-._.
    aa58:	27ba 0075 ebe5 00c7 7b3d 00f1 39f7 0007     .'u.....={...9..
    aa68:	5292 008a 6bfb 00ea b11f 005f 5d08 008d     .R...k...._..]..
    aa78:	0330 0056 fc7b 0046 abf0 006b bc20 00cf     0.V.{.F...k. ...
    aa88:	f436 009a a9e3 001d 615e 0091 1b08 00e6     6.......^a......
    aa98:	9985 0065 14a0 005f 408d 0068 d880 00ff     ..e..._..@h.....
    aaa8:	7327 004d 0606 0031 56ca 0015 a8c9 0073     'sM...1..V....s.
    aab8:	e27b 0060 8c6b 00c0 0000 0000 0000 3fe7     {.`.k..........?
    aac8:	0000 0000 0000 3fd2 38d4 be88 fae9 bda8     .......?.8......
    aad8:	b1c4 bdb4 ee9e 3e21 52ad 809c 7e4f 3e92     ......!>.R..O~.>
    aae8:	1590 19cb 01a0 3efa 5177 16c1 c16c 3f56     .......>wQ..l.V?
    aaf8:	554c 5555 5555 3fa5                         LUUUUU.?

0000ab00 <PIo2>:
    ab00:	0000 4000 21fb 3ff9 0000 0000 442d 3e74     ...@.!.?....-Dt>
    ab10:	0000 8000 4698 3cf8 0000 6000 cc51 3b78     .....F.<...`Q.x;
    ab20:	0000 8000 1b83 39f0 0000 4000 2520 387a     .......9...@ %z8
    ab30:	0000 8000 8222 36e3 0000 0000 f31d 3569     ...."..6......i5
    ab40:	0000 4000 21fb 3ff9 0000 0000 0000 3e70     ...@.!.?......p>
    ab50:	0000 0000 0000 3fc0 0000 0000 0000 4020     .......?...... @

0000ab60 <init_jk>:
    ab60:	0002 0000 0003 0000 0004 0000 0006 0000     ................
    ab70:	d57c 5acf d93a 3de5 9ceb 8a2b e5e6 3e5a     |..Z:..=..+...Z>
    ab80:	fe7d 57b1 1de3 3ec7 61d5 19c1 01a0 3f2a     }..W...>.a....*?
    ab90:	f8a6 1110 1111 3f81 5549 5555 5555 3fc5     .......?IUUUUU.?
    aba0:	0000 0000 0000 4350 f359 c2f8 6e1f 01a5     ......PCY....n..
    abb0:	0000 0000 0000 3c90 c3c8 ffff c24c ffff     .......<....L...
    abc0:	c35c ffff c364 ffff c35c ffff c27c ffff     \...d...\...|...
    abd0:	c35c ffff c364 ffff c24c ffff c24c ffff     \...d...L...L...
    abe0:	c27c ffff c364 ffff c3be ffff c3be ffff     |...d...........
    abf0:	c3be ffff c27c ffff cad8 ffff c9ca ffff     ....|...........
    ac00:	c9ca ffff c9c8 ffff c9d0 ffff c9d0 ffff     ................
    ac10:	c996 ffff c9c8 ffff c9d0 ffff c996 ffff     ................
    ac20:	c9d0 ffff c9c8 ffff cac4 ffff cac4 ffff     ................
    ac30:	cac4 ffff c996 ffff dab8 ffff d9de ffff     ................
    ac40:	dab2 ffff d9e6 ffff dab2 ffff d9ac ffff     ................
    ac50:	dab2 ffff d9e6 ffff d9de ffff d9de ffff     ................
    ac60:	d9ac ffff d9e6 ffff d9ec ffff d9ec ffff     ................
    ac70:	d9ec ffff d9ac ffff d99e ffff d99e ffff     ................
    ac80:	da72 ffff db4e ffff da72 ffff d96c ffff     r...N...r...l...
    ac90:	da72 ffff db4e ffff d99e ffff d99e ffff     r...N...........
    aca0:	d96c ffff db4e ffff d9ac ffff d9ac ffff     l...N...........
    acb0:	d9ac ffff d96c ffff dcb4 ffff dc02 ffff     ....l...........
    acc0:	dc02 ffff dc00 ffff dc06 ffff dc06 ffff     ................
    acd0:	dbd6 ffff dc00 ffff dc06 ffff dbd6 ffff     ................
    ace0:	dc06 ffff dc00 ffff dca2 ffff dca2 ffff     ................
    acf0:	dca2 ffff dbd6 ffff                         ........

0000acf8 <__clz_tab>:
    acf8:	0100 0202 0303 0303 0404 0404 0404 0404     ................
    ad08:	0505 0505 0505 0505 0505 0505 0505 0505     ................
    ad18:	0606 0606 0606 0606 0606 0606 0606 0606     ................
    ad28:	0606 0606 0606 0606 0606 0606 0606 0606     ................
    ad38:	0707 0707 0707 0707 0707 0707 0707 0707     ................
    ad48:	0707 0707 0707 0707 0707 0707 0707 0707     ................
    ad58:	0707 0707 0707 0707 0707 0707 0707 0707     ................
    ad68:	0707 0707 0707 0707 0707 0707 0707 0707     ................
    ad78:	0808 0808 0808 0808 0808 0808 0808 0808     ................
    ad88:	0808 0808 0808 0808 0808 0808 0808 0808     ................
    ad98:	0808 0808 0808 0808 0808 0808 0808 0808     ................
    ada8:	0808 0808 0808 0808 0808 0808 0808 0808     ................
    adb8:	0808 0808 0808 0808 0808 0808 0808 0808     ................
    adc8:	0808 0808 0808 0808 0808 0808 0808 0808     ................
    add8:	0808 0808 0808 0808 0808 0808 0808 0808     ................
    ade8:	0808 0808 0808 0808 0808 0808 0808 0808     ................

0000adf8 <__sf_fake_stderr>:
	...

0000ae18 <__sf_fake_stdin>:
	...

0000ae38 <__sf_fake_stdout>:
	...
    ae58:	2d23 2b30 0020 0000 6c68 004c 6665 4567     #-0+ ...hlL.efgE
    ae68:	4746 0000 3130 3332 3534 3736 3938 4241     FG..0123456789AB
    ae78:	4443 4645 0000 0000 3130 3332 3534 3736     CDEF....01234567
    ae88:	3938 6261 6463 6665 0000 0000               89abcdef....
