
Drone Board.elf:     file format elf32-littleriscv
Drone Board.elf
architecture: riscv:rv32, flags 0x00000112:
EXEC_P, HAS_SYMS, D_PAGED
start address 0x00000000

Program Header:
    LOAD off    0x00001000 vaddr 0x00000000 paddr 0x00000000 align 2**12
         filesz 0x000082a4 memsz 0x000082a4 flags r-x
    LOAD off    0x0000a000 vaddr 0x20000000 paddr 0x000082a4 align 2**12
         filesz 0x000000a0 memsz 0x000032e4 flags rw-
    LOAD off    0x0000a800 vaddr 0x20004800 paddr 0x20004800 align 2**12
         filesz 0x00000000 memsz 0x00000800 flags rw-

Sections:
Idx Name          Size      VMA       LMA       File off  Algn
  0 .init         00000038  00000000  00000000  00001000  2**1
                  CONTENTS, ALLOC, LOAD, READONLY, CODE
  1 .vector       00000108  00000038  00000038  00001038  2**1
                  CONTENTS, ALLOC, LOAD, READONLY, CODE
  2 .text         000080a4  00000200  00000200  00001200  2**8
                  CONTENTS, ALLOC, LOAD, READONLY, CODE
  3 .fini         00000000  000082a4  000082a4  0000a0a0  2**0
                  CONTENTS, ALLOC, LOAD, CODE
  4 .dalign       00000000  20000000  20000000  0000a0a0  2**0
                  CONTENTS
  5 .dlalign      00000000  000082a4  000082a4  0000a0a0  2**0
                  CONTENTS
  6 .data         000000a0  20000000  000082a4  0000a000  2**2
                  CONTENTS, ALLOC, LOAD, DATA
  7 .bss          00003244  200000a0  00008344  0000a0a0  2**2
                  ALLOC
  8 .stack        00000800  20004800  20004800  0000a800  2**0
                  ALLOC
  9 .debug_info   000196ea  00000000  00000000  0000a0a0  2**0
                  CONTENTS, READONLY, DEBUGGING
 10 .debug_abbrev 00003fb0  00000000  00000000  0002378a  2**0
                  CONTENTS, READONLY, DEBUGGING
 11 .debug_aranges 00000c68  00000000  00000000  00027740  2**3
                  CONTENTS, READONLY, DEBUGGING
 12 .debug_ranges 00000ad0  00000000  00000000  000283a8  2**3
                  CONTENTS, READONLY, DEBUGGING
 13 .debug_line   00010d3f  00000000  00000000  00028e78  2**0
                  CONTENTS, READONLY, DEBUGGING
 14 .debug_str    00004db8  00000000  00000000  00039bb7  2**0
                  CONTENTS, READONLY, DEBUGGING
 15 .comment      00000033  00000000  00000000  0003e96f  2**0
                  CONTENTS, READONLY
 16 .debug_frame  000037dc  00000000  00000000  0003e9a4  2**2
                  CONTENTS, READONLY, DEBUGGING
 17 .debug_loc    00000474  00000000  00000000  00042180  2**0
                  CONTENTS, READONLY, DEBUGGING
 18 .stab         00000084  00000000  00000000  000425f4  2**2
                  CONTENTS, READONLY, DEBUGGING
 19 .stabstr      00000117  00000000  00000000  00042678  2**0
                  CONTENTS, READONLY, DEBUGGING
SYMBOL TABLE:
00000000 l    d  .init	00000000 .init
00000038 l    d  .vector	00000000 .vector
00000200 l    d  .text	00000000 .text
000082a4 l    d  .fini	00000000 .fini
20000000 l    d  .dalign	00000000 .dalign
000082a4 l    d  .dlalign	00000000 .dlalign
20000000 l    d  .data	00000000 .data
200000a0 l    d  .bss	00000000 .bss
20004800 l    d  .stack	00000000 .stack
00000000 l    d  .debug_info	00000000 .debug_info
00000000 l    d  .debug_abbrev	00000000 .debug_abbrev
00000000 l    d  .debug_aranges	00000000 .debug_aranges
00000000 l    d  .debug_ranges	00000000 .debug_ranges
00000000 l    d  .debug_line	00000000 .debug_line
00000000 l    d  .debug_str	00000000 .debug_str
00000000 l    d  .comment	00000000 .comment
00000000 l    d  .debug_frame	00000000 .debug_frame
00000000 l    d  .debug_loc	00000000 .debug_loc
00000000 l    d  .stab	00000000 .stab
00000000 l    d  .stabstr	00000000 .stabstr
00000000 l    df *ABS*	00000000 ./Code/MCAL/Startup/startup_ch32v20x_D6.o
00000038 l       .vector	00000000 _vector_base
00000000 l    df *ABS*	00000000 ./Code/Service/FreeRTOS/portable/GCC/RISC-V/portASM.o
0000025c l       .text	00000000 processed_source
00000428 l       .text	00000000 chip_specific_stack_frame
00000000 l    df *ABS*	00000000 Service_RTOS_wrapper.c
00000000 l    df *ABS*	00000000 heap_4.c
20000154 l     O .bss	00003000 ucHeap
200000a0 l     O .bss	00000008 xStart
200000a8 l     O .bss	00000004 pxEnd
200000ac l     O .bss	00000004 xFreeBytesRemaining
200000b0 l     O .bss	00000004 xMinimumEverFreeBytesRemaining
200000b4 l     O .bss	00000004 xNumberOfSuccessfulAllocations
200000b8 l     O .bss	00000004 xNumberOfSuccessfulFrees
200000bc l     O .bss	00000004 xBlockAllocatedBit
00000a30 l     F .text	0000010c prvHeapInit
00000b3c l     F .text	000000f8 prvInsertBlockIntoFreeList
00000000 l    df *ABS*	00000000 port.c
20000080 l     O .data	00000004 uxCriticalNesting
00000000 l    df *ABS*	00000000 list.c
00000000 l    df *ABS*	00000000 queue.c
0000127c l     F .text	00000060 prvInitialiseNewQueue
00001562 l     F .text	000000c4 prvUnlockQueue
000014f8 l     F .text	0000006a prvCopyDataFromQueue
00001626 l     F .text	00000036 prvIsQueueEmpty
00000000 l    df *ABS*	00000000 tasks.c
20003194 l     O .bss	0000008c pxReadyTasksLists
20003220 l     O .bss	00000014 xDelayedTaskList1
20003234 l     O .bss	00000014 xDelayedTaskList2
200000c4 l     O .bss	00000004 pxDelayedTaskList
200000c8 l     O .bss	00000004 pxOverflowDelayedTaskList
20003248 l     O .bss	00000014 xPendingReadyList
2000325c l     O .bss	00000014 xTasksWaitingTermination
200000cc l     O .bss	00000004 uxDeletedTasksWaitingCleanUp
20003270 l     O .bss	00000014 xSuspendedTaskList
200000d0 l     O .bss	00000004 uxCurrentNumberOfTasks
200000d4 l     O .bss	00000004 xTickCount
200000d8 l     O .bss	00000004 uxTopReadyPriority
200000dc l     O .bss	00000004 xSchedulerRunning
200000e0 l     O .bss	00000004 xPendedTicks
200000e4 l     O .bss	00000004 xYieldPending
200000e8 l     O .bss	00000004 xNumOfOverflows
200000ec l     O .bss	00000004 uxTaskNumber
200000f0 l     O .bss	00000004 xNextTaskUnblockTime
200000f4 l     O .bss	00000004 xIdleTaskHandle
200000f8 l     O .bss	00000004 uxSchedulerSuspended
00001874 l     F .text	000001c4 prvInitialiseNewTask
00001a38 l     F .text	0000019e prvAddNewTaskToReadyList
0000285c l     F .text	000000a4 prvInitialiseTaskLists
0000299a l     F .text	0000003a prvResetNextTaskUnblockTime
00002970 l     F .text	0000002a prvDeleteTCB
00002a0e l     F .text	00000146 prvAddCurrentTaskToDelayedList
0000284c l     F .text	00000010 prvIdleTask
00002900 l     F .text	00000070 prvCheckTasksWaitingTermination
00000000 l    df *ABS*	00000000 timers.c
20003284 l     O .bss	00000014 xActiveTimerList1
20003298 l     O .bss	00000014 xActiveTimerList2
200000fc l     O .bss	00000004 pxCurrentTimerList
20000100 l     O .bss	00000004 pxOverflowTimerList
20000104 l     O .bss	00000004 xTimerQueue
20000108 l     O .bss	00000004 xTimerTaskHandle
00003134 l     F .text	0000008e prvCheckForValidListAndQueue
00002c96 l     F .text	00000028 prvTimerTask
00002bc6 l     F .text	0000005c prvReloadTimer
00002e1e l     F .text	000000b4 prvInsertTimerInActiveList
00002c22 l     F .text	00000074 prvProcessExpiredTimer
00002d80 l     F .text	0000004c prvGetNextExpireTime
00002cbe l     F .text	000000c2 prvProcessTimerOrBlockTask
00002ed2 l     F .text	00000200 prvProcessReceivedCommands
00002dcc l     F .text	00000052 prvSampleTimeNow
2000010c l     O .bss	00000004 xLastTime.5718
000030d2 l     F .text	00000062 prvSwitchTimerLists
00000000 l    df *ABS*	00000000 MCAL_wrapper.c
20000110 l     O .bss	00000001 i.4728
00000000 l    df *ABS*	00000000 ch32v20x_gpio.c
00000000 l    df *ABS*	00000000 ch32v20x_i2c.c
00000000 l    df *ABS*	00000000 ch32v20x_misc.c
00000000 l    df *ABS*	00000000 ch32v20x_rcc.c
20000000 l     O .data	00000010 APBAHBPrescTable
20000088 l     O .data	00000004 ADCPrescTable
00000000 l    df *ABS*	00000000 ch32v20x_spi.c
00000000 l    df *ABS*	00000000 ch32v20x_usart.c
00000000 l    df *ABS*	00000000 debug.c
20000118 l     O .bss	00000002 p_ms
2000008c l     O .data	00000004 curbrk.4666
00000000 l    df *ABS*	00000000 MCAL_config.c
00000000 l    df *ABS*	00000000 system_ch32v20x.c
00004a06 l     F .text	00000014 SetSysClock
00004a1a l     F .text	00000110 SetSysClockTo144_HSE
00000000 l    df *ABS*	00000000 HAL_wrapper.c
00000000 l    df *ABS*	00000000 MPU6050.c
00000000 l    df *ABS*	00000000 HAL_config.c
00000000 l    df *ABS*	00000000 ADXL345.c
00000000 l    df *ABS*	00000000 ch32v20x_it.c
00000000 l    df *ABS*	00000000 main.c
00000000 l    df *ABS*	00000000 divdf3.c
00000000 l    df *ABS*	00000000 subdf3.c
00000000 l    df *ABS*	00000000 addsf3.c
00000000 l    df *ABS*	00000000 divsf3.c
00000000 l    df *ABS*	00000000 mulsf3.c
00000000 l    df *ABS*	00000000 floatsisf.c
00000000 l    df *ABS*	00000000 extendsfdf2.c
00000000 l    df *ABS*	00000000 truncdfsf2.c
00000000 l    df *ABS*	00000000 libgcc2.c
00000000 l    df *ABS*	00000000 memcpy.c
00000000 l    df *ABS*	00000000 printf.c
00000000 l    df *ABS*	00000000 puts.c
00000000 l    df *ABS*	00000000 wbuf.c
00000000 l    df *ABS*	00000000 wsetup.c
00000000 l    df *ABS*	00000000 fflush.c
00000000 l    df *ABS*	00000000 findfp.c
00006fe8 l     F .text	0000006a std
00000000 l    df *ABS*	00000000 fwalk.c
00000000 l    df *ABS*	00000000 makebuf.c
00000000 l    df *ABS*	00000000 nano-mallocr.c
00000000 l    df *ABS*	00000000 nano-mallocr.c
00000000 l    df *ABS*	00000000 nano-vfprintf.c
000074a8 l     F .text	0000002a __sfputc_r
00000000 l    df *ABS*	00000000 nano-vfprintf_i.c
00000000 l    df *ABS*	00000000 sbrkr.c
00000000 l    df *ABS*	00000000 stdio.c
00000000 l    df *ABS*	00000000 writer.c
00000000 l    df *ABS*	00000000 closer.c
00000000 l    df *ABS*	00000000 fstatr.c
00000000 l    df *ABS*	00000000 isattyr.c
00000000 l    df *ABS*	00000000 lseekr.c
00000000 l    df *ABS*	00000000 memchr.c
00000000 l    df *ABS*	00000000 mlock.c
00000000 l    df *ABS*	00000000 readr.c
00000000 l    df *ABS*	00000000 close.c
00000000 l    df *ABS*	00000000 fstat.c
00000000 l    df *ABS*	00000000 isatty.c
00000000 l    df *ABS*	00000000 lseek.c
00000000 l    df *ABS*	00000000 read.c
00000000 l    df *ABS*	00000000 libgcc2.c
00000000 l    df *ABS*	00000000 impure.c
20000020 l     O .data	00000060 impure_data
00000000 l    df *ABS*	00000000 reent.c
000033d4  w      .text	00000000 EXTI2_IRQHandler
00007cec g     F .text	00000030 _isatty_r
00006b94 g     F .text	000000da _puts_r
00007d1c g     F .text	00000034 _lseek_r
200032ac g     O .bss	0000001c MCAL_CFG_adxlSPI
00000e5a g     F .text	00000064 vPortExitCritical
00006b54 g     F .text	00000040 printf
20000880 g       .data	00000000 __global_pointer$
000004f6 g     F .text	00000028 .hidden __riscv_save_8
000033fa  w      .text	00000000 TIM1_CC_IRQHandler
00003b26 g     F .text	00000022 I2C_ReceiveData
00007c18 g     F .text	00000036 __sseek
000070a2 g     F .text	0000006c __sinit
000041a2 g     F .text	00000024 SPI_I2S_SendData
00006c7a g     F .text	000000c0 __swbuf_r
000050fc g     F .text	00000008 HardFault_Handler
0000173e g     F .text	0000008a vQueueWaitForMessageRestricted
0000705c g     F .text	00000046 __sfmoreglue
00007d6c g     F .text	00000002 __malloc_unlock
00000542 g     F .text	0000000c .hidden __riscv_restore_3
2000012c g     O .bss	00000004 yaw_calibration
0000620e g     F .text	000002ae .hidden __divsf3
00000d8c g     F .text	000000a2 SysTick_Handler
000033c6  w      .text	00000000 PVD_IRQHandler
20000138 g     O .bss	00000004 queue_AppCommToDrone_Handle_t
0000052e g     F .text	00000020 .hidden __riscv_restore_10
000041c6 g     F .text	0000001e SPI_I2S_ReceiveData
000050f4 g     F .text	00000008 NMI_Handler
000033d6  w      .text	00000000 EXTI3_IRQHandler
000004f6 g     F .text	00000028 .hidden __riscv_save_11
200000c0 g     O .bss	00000004 pxCurrentTCB
00004258 g     F .text	00000046 USART_GetFlagStatus
00007cba g     F .text	00000032 _fstat_r
00004f50 g     F .text	000001a4 HAL_ADXL345_Init
200032e0 g     O .bss	00000004 errno
200000a0 g       .bss	00000000 _sbss
00000800 g       *ABS*	00000000 __stack_size
20000128 g     O .bss	00000004 roll_calibration
000026d4 g     F .text	0000002e vTaskInternalSetTimeOutState
00000542 g     F .text	0000000c .hidden __riscv_restore_2
20000124 g     O .bss	00000004 pitch_calibration
00000cbc g     F .text	000000d0 xPortStartScheduler
00006a9e g     F .text	000000b6 memcpy
00002354 g     F .text	0000005e vTaskPlaceOnEventList
00007052 g     F .text	0000000a _cleanup_r
00000c34  w    F .text	00000088 vPortSetupTimerInterrupt
00004be2 g     F .text	000000a6 mpu6050_accel_read
000033d0  w      .text	00000000 EXTI0_IRQHandler
00003406  w      .text	00000000 I2C2_EV_IRQHandler
00006c6e g     F .text	0000000c puts
0000092a g     F .text	00000106 vPortFree
20000090 g     O .data	00000004 SystemCoreClock
20005000 g       .stack	00000000 __freertos_irq_stack_top
20000130 g     O .bss	00000006 global_adxl345Config_t
00007db2 g     F .text	00000010 _fstat
00005104 g     F .text	00000020 Task_CollectSensorData
00000038 g       .init	00000000 _einit
00003fc4 g     F .text	00000046 RCC_APB2PeriphClockCmd
000004ee g     F .text	00000030 .hidden __riscv_save_12
000033e8  w      .text	00000000 ADC1_2_IRQHandler
000034b4 g     F .text	00000274 GPIO_Init
000033be  w      .text	00000000 Break_Point_Handler
0000052e g     F .text	00000020 .hidden __riscv_restore_11
20000114 g     O .bss	00000004 NVIC_Priority_Group
0000340a  w      .text	00000000 SPI1_IRQHandler
00007b68 g     F .text	00000032 _sbrk_r
0000051e g     F .text	0000000c .hidden __riscv_save_1
000033c8  w      .text	00000000 TAMPER_IRQHandler
00000542 g     F .text	0000000c .hidden __riscv_restore_0
00007d6e g     F .text	00000034 _read_r
00000f0a g     F .text	0000001a vListInitialiseItem
00000504 g     F .text	0000001a .hidden __riscv_save_7
000012dc g     F .text	0000021c xQueueReceive
20003154 g     O .bss	00000040 xQueueRegistry
00006812 g     F .text	000000ac .hidden __extendsfdf2
0000400a g     F .text	00000046 RCC_APB1PeriphClockCmd
20000144 g     O .bss	00000004 queue_RawSensorData_Handle_t
000033ba  w      .text	00000000 Ecall_M_Mode_Handler
20004800 g       .stack	00000000 _heap_end
000005f6 g     F .text	0000006a SERVICE_RTOS_TaskCreate
00007dc2 g     F .text	00000010 _isatty
2000009c g     O .data	00000004 _global_impure_ptr
00000538 g     F .text	00000016 .hidden __riscv_restore_5
000041e4 g     F .text	00000046 SPI_I2S_GetFlagStatus
00003f7e g     F .text	00000046 RCC_AHBPeriphClockCmd
000033e0  w      .text	00000000 DMA1_Channel4_IRQHandler
00003afc g     F .text	0000002a I2C_SendData
00004398 g     F .text	0000005e _sbrk
000006e4 g     F .text	00000246 pvPortMalloc
00000ebe g     F .text	0000004c vListInitialise
000037ac g     F .text	00000244 I2C_Init
00000538 g     F .text	00000016 .hidden __riscv_restore_6
00003412  w      .text	00000000 USART3_IRQHandler
00001f52 g     F .text	0000001e xTaskGetTickCount
000033ca  w      .text	00000000 RTC_IRQHandler
200032e4 g       .bss	00000000 _ebss
000033e6  w      .text	00000000 DMA1_Channel7_IRQHandler
000033ee  w      .text	00000000 CAN1_RX1_IRQHandler
20000148 g     O .bss	00000004 task_CollectSensorData_Handle_t
00002478 g     F .text	0000025c xTaskRemoveFromEventList
00003728 g     F .text	00000042 GPIO_SetBits
00003400  w      .text	00000000 TIM4_IRQHandler
000004f6 g     F .text	00000028 .hidden __riscv_save_9
200032c8 g     O .bss	0000000c global_MPU6050ACC_t
00003a48 g     F .text	0000005a I2C_GenerateSTART
00008208 g     O .text	00000020 __sf_fake_stderr
00000504 g     F .text	0000001a .hidden __riscv_save_4
00003402  w      .text	00000000 I2C1_EV_IRQHandler
20000098 g     O .data	00000004 xISRStackTop
0000341a  w      .text	00000000 USBHD_IRQHandler
00003d32 g     F .text	0000024c RCC_GetClocksFreq
000033e4  w      .text	00000000 DMA1_Channel6_IRQHandler
00006a28 g     F .text	00000076 .hidden __clzsi2
000074d2 g     F .text	00000044 __sfputs_r
00003b98 g     F .text	0000006c I2C_NACKPositionConfig
0000341e  w      .text	00000000 UART4_IRQHandler
00007d50 g     F .text	0000001a memchr
00002702 g     F .text	00000132 xTaskCheckForTimeOut
00007314 g     F .text	000000b0 _free_r
000033fe  w      .text	00000000 TIM3_IRQHandler
000033ce  w      .text	00000000 RCC_IRQHandler
0000051e g     F .text	0000000c .hidden __riscv_save_3
000033f8  w      .text	00000000 TIM1_TRG_COM_IRQHandler
00004e76 g     F .text	0000000e mpu6050_init
000033da  w      .text	00000000 DMA1_Channel1_IRQHandler
00000000 g       .init	00000000 _start
00001c88 g     F .text	00000022 vTaskSuspendAll
20000010 g     O .data	00000010 AHBPrescTable
00003c8c g     F .text	00000088 I2C_GetFlagStatus
00007dd2 g     F .text	00000010 _lseek
0000674c g     F .text	000000c6 .hidden __floatsisf
00000fc6 g     F .text	00000070 uxListRemove
00003414  w      .text	00000000 EXTI15_10_IRQHandler
00003420  w      .text	00000000 DMA1_Channel8_IRQHandler
00002268 g     F .text	000000ec vTaskSwitchContext
00004d9c g     F .text	000000da mpu6050_gyro_setup
000039f0 g     F .text	00000058 I2C_Cmd
000023b2 g     F .text	000000c6 vTaskPlaceOnEventListRestricted
0000376a g     F .text	00000042 GPIO_ResetBits
00007c8a g     F .text	00000030 _close_r
20000000 g       .dalign	00000000 _data_vma
00004b8a g     F .text	00000058 mpu6050_accel_setup
20000111 g     O .bss	00000001 MCU_Version
00006d3a g     F .text	0000010c __swsetup_r
000033f2  w      .text	00000000 EXTI9_5_IRQHandler
000051b2 g     F .text	000005b4 .hidden __divdf3
0000710e g     F .text	000000a0 __sfp
000004f6 g     F .text	00000028 .hidden __riscv_save_10
00007b9a g     F .text	00000030 __sread
00003b48 g     F .text	00000050 I2C_Send7bitAddress
00007d6a g     F .text	00000002 __malloc_lock
00000538 g     F .text	00000016 .hidden __riscv_restore_4
0000052e g     F .text	00000020 .hidden __riscv_restore_8
00006f82 g     F .text	00000066 _fflush_r
00000504 g     F .text	0000001a .hidden __riscv_save_6
0000340c  w      .text	00000000 SPI2_IRQHandler
00008228 g     O .text	00000020 __sf_fake_stdin
0000054e g     F .text	000000a8 memset
20000140 g     O .bss	00000004 queue_FusedSensorData_Handle_t
0000052e g     F .text	00000020 .hidden __riscv_restore_9
00003230 g     F .text	0000007a I2C_start_transmission
00000538 g     F .text	00000016 .hidden __riscv_restore_7
00005124 g     F .text	0000008e main
00000f24 g     F .text	000000a2 vListInsert
00000660 g     F .text	00000018 SERVICE_RTOS_StartSchedular
00007c4e g     F .text	00000006 __sclose
00002b54 g     F .text	00000072 xTimerCreateTimerTask
000068be g     F .text	0000016a .hidden __truncdfsf2
000073c4 g     F .text	000000e4 _malloc_r
00004eb8 g     F .text	0000004e HAL_ADXL345_Write_Single
000033e2  w      .text	00000000 DMA1_Channel5_IRQHandler
000033d8  w      .text	00000000 EXTI4_IRQHandler
0000429e g     F .text	00000088 Delay_Ms
000011a8 g     F .text	000000d4 xQueueGenericCreate
000033ec  w      .text	00000000 USB_LP_CAN1_RX0_IRQHandler
000064bc g     F .text	00000290 .hidden __mulsf3
0000330a g     F .text	00000028 I2C_read
000043f6 g     F .text	00000426 MCAL_Config_ConfigAllPins
00004148 g     F .text	0000005a SPI_Cmd
0000481c g     F .text	0000007c SystemInit
00006b54 g     F .text	00000040 iprintf
00001caa g     F .text	000002a8 xTaskResumeAll
20000084 g     O .data	00000004 uxTopUsedPriority
000033ea  w      .text	00000000 USB_HP_CAN1_TX_IRQHandler
00008108 g     O .text	00000100 .hidden __clz_tab
00001bd6 g     F .text	000000b2 vTaskStartScheduler
00004c88 g     F .text	00000114 mpu6050_gyro_read
00000000 g       .init	00000000 _sinit
0000341c  w      .text	00000000 USBHDWakeUp_IRQHandler
00007c54 g     F .text	00000036 _write_r
00000300 g       .text	00000000 xPortStartFirstTask
000033de  w      .text	00000000 DMA1_Channel3_IRQHandler
000077b2 g     F .text	0000010c _printf_common
20000094 g     O .data	00000004 _impure_ptr
000033f6  w      .text	00000000 TIM1_UP_IRQHandler
00006e46 g     F .text	0000013c __sflush_r
000033c4  w      .text	00000000 WWDG_IRQHandler
000033bc  w      .text	00000000 Ecall_U_Mode_Handler
00002834 g     F .text	00000018 vTaskMissedYield
000033fc  w      .text	00000000 TIM2_IRQHandler
20005000 g       .stack	00000000 _eusrstack
0000051e g     F .text	0000000c .hidden __riscv_save_2
00000200 g       .text	00000000 SW_Handler
2000011c g     O .bss	00000006 RxData
0000165c g     F .text	000000e2 vQueueAddToRegistry
00001f70 g     F .text	000002f8 xTaskIncrementTick
00003332 g     F .text	00000084 I2C_requestFrom
000033f4  w      .text	00000000 TIM1_BRK_IRQHandler
0000721a g     F .text	0000005a __swhatbuf_r
0000422a g     F .text	0000002e USART_SendData
000033d2  w      .text	00000000 EXTI1_IRQHandler
00000504 g     F .text	0000001a .hidden __riscv_save_5
00001036 g     F .text	00000172 xQueueGenericReset
00004326 g     F .text	00000072 _write
200000a0 g       .data	00000000 _edata
200032e4 g       .bss	00000000 _end
00000678 g     F .text	0000006c SERVICE_RTOS_CreateBlockingQueue
00003416  w      .text	00000000 RTCAlarm_IRQHandler
000017c8 g     F .text	000000ac xTaskCreate
000082a4 g       .dlalign	00000000 _data_lma
00003410  w      .text	00000000 USART2_IRQHandler
00007bca g     F .text	0000004e __swrite
00007516 g     F .text	0000029c _vfiprintf_r
000071ae g     F .text	0000006c _fwalk_reent
00004898 g     F .text	0000016e SystemCoreClockUpdate
00004b5e g     F .text	0000002c HAL_WRAPEPR_ReadGyro
00003408  w      .text	00000000 I2C2_ER_IRQHandler
000033dc  w      .text	00000000 DMA1_Channel2_IRQHandler
00008248 g     O .text	00000020 __sf_fake_stdout
00004f06 g     F .text	0000004a HAL_ADXL345_Read_Single
0000052a g     F .text	00000024 .hidden __riscv_restore_12
000029d4 g     F .text	0000003a xTaskGetSchedulerState
00007de2 g     F .text	00000010 _read
200032d4 g     O .bss	0000000c global_MPU6050GYRO_t
00003422  w      .text	00000000 handle_reset
000033f0  w      .text	00000000 CAN1_SCE_IRQHandler
0000051e g     F .text	0000000c .hidden __riscv_save_0
000033cc  w      .text	00000000 FLASH_IRQHandler
0000340e  w      .text	00000000 USART1_IRQHandler
00007274 g     F .text	000000a0 __smakebuf_r
00000400 g       .text	00000000 pxPortInitialiseStack
000078be g     F .text	000002aa _printf_i
2000013c g     O .bss	00000004 queue_DroneCommToApp_Handle_t
20000150 g     O .bss	00000004 __malloc_sbrk_start
00003c04 g     F .text	00000088 I2C_CheckEvent
00003aa2 g     F .text	0000005a I2C_GenerateSTOP
00003404  w      .text	00000000 I2C1_ER_IRQHandler
00004050 g     F .text	000000f8 SPI_Init
00003d14 g     F .text	0000001e NVIC_PriorityGroupConfig
00000e2e g     F .text	0000002c vPortEnterCritical
2000014c g     O .bss	00000004 __malloc_free_list
00000542 g     F .text	0000000c .hidden __riscv_restore_1
00005766 g     F .text	0000073e .hidden __subdf3
00007516 g     F .text	0000029c _vfprintf_r
00004e84 g     F .text	00000034 HAL_Config_ConfigAllHW
00005ea4 g     F .text	0000036a .hidden __addsf3
00004b2a g     F .text	00000034 HAL_WRAPEPR_ReadAcc
000031c2 g     F .text	0000006e MCAL_WRAPEPR_SPI_POLL_TRANSFER
00003418  w      .text	00000000 USBWakeUp_IRQHandler
000032dc g     F .text	0000002e I2C_stop
000032aa g     F .text	00000032 I2C_write
00007da2 g     F .text	00000010 _close



Disassembly of section .init:

00000000 <_sinit>:
   0:	4220306f          	j	3422 <handle_reset>
   4:	00000013          	nop
   8:	00000013          	nop
   c:	00000013          	nop
  10:	00000013          	nop
  14:	00000013          	nop
  18:	00000013          	nop
  1c:	00000013          	nop
  20:	00000013          	nop
  24:	00000013          	nop
  28:	00000013          	nop
  2c:	00000013          	nop
  30:	00000013          	nop
  34:	00100073          	ebreak

Disassembly of section .vector:

00000038 <_vector_base>:
	...
  40:	50f4                	lw	a3,100(s1)
  42:	0000                	unimp
  44:	50fc                	lw	a5,100(s1)
  46:	0000                	unimp
  48:	0000                	unimp
  4a:	0000                	unimp
  4c:	33ba                	fld	ft7,424(sp)
	...
  56:	0000                	unimp
  58:	33bc                	fld	fa5,96(a5)
  5a:	0000                	unimp
  5c:	33be                	fld	ft7,488(sp)
	...
  66:	0000                	unimp
  68:	0d8c                	addi	a1,sp,720
  6a:	0000                	unimp
  6c:	0000                	unimp
  6e:	0000                	unimp
  70:	0200                	addi	s0,sp,256
  72:	0000                	unimp
  74:	0000                	unimp
  76:	0000                	unimp
  78:	33c4                	fld	fs1,160(a5)
  7a:	0000                	unimp
  7c:	33c6                	fld	ft7,112(sp)
  7e:	0000                	unimp
  80:	33c8                	fld	fa0,160(a5)
  82:	0000                	unimp
  84:	33ca                	fld	ft7,176(sp)
  86:	0000                	unimp
  88:	33cc                	fld	fa1,160(a5)
  8a:	0000                	unimp
  8c:	33ce                	fld	ft7,240(sp)
  8e:	0000                	unimp
  90:	33d0                	fld	fa2,160(a5)
  92:	0000                	unimp
  94:	33d2                	fld	ft7,304(sp)
  96:	0000                	unimp
  98:	33d4                	fld	fa3,160(a5)
  9a:	0000                	unimp
  9c:	33d6                	fld	ft7,368(sp)
  9e:	0000                	unimp
  a0:	33d8                	fld	fa4,160(a5)
  a2:	0000                	unimp
  a4:	33da                	fld	ft7,432(sp)
  a6:	0000                	unimp
  a8:	33dc                	fld	fa5,160(a5)
  aa:	0000                	unimp
  ac:	33de                	fld	ft7,496(sp)
  ae:	0000                	unimp
  b0:	33e0                	fld	fs0,224(a5)
  b2:	0000                	unimp
  b4:	33e2                	fld	ft7,56(sp)
  b6:	0000                	unimp
  b8:	33e4                	fld	fs1,224(a5)
  ba:	0000                	unimp
  bc:	33e6                	fld	ft7,120(sp)
  be:	0000                	unimp
  c0:	33e8                	fld	fa0,224(a5)
  c2:	0000                	unimp
  c4:	33ea                	fld	ft7,184(sp)
  c6:	0000                	unimp
  c8:	33ec                	fld	fa1,224(a5)
  ca:	0000                	unimp
  cc:	33ee                	fld	ft7,248(sp)
  ce:	0000                	unimp
  d0:	33f0                	fld	fa2,224(a5)
  d2:	0000                	unimp
  d4:	33f2                	fld	ft7,312(sp)
  d6:	0000                	unimp
  d8:	33f4                	fld	fa3,224(a5)
  da:	0000                	unimp
  dc:	33f6                	fld	ft7,376(sp)
  de:	0000                	unimp
  e0:	33f8                	fld	fa4,224(a5)
  e2:	0000                	unimp
  e4:	33fa                	fld	ft7,440(sp)
  e6:	0000                	unimp
  e8:	33fc                	fld	fa5,224(a5)
  ea:	0000                	unimp
  ec:	33fe                	fld	ft7,504(sp)
  ee:	0000                	unimp
  f0:	3400                	fld	fs0,40(s0)
  f2:	0000                	unimp
  f4:	3402                	fld	fs0,32(sp)
  f6:	0000                	unimp
  f8:	3404                	fld	fs1,40(s0)
  fa:	0000                	unimp
  fc:	3406                	fld	fs0,96(sp)
  fe:	0000                	unimp
 100:	3408                	fld	fa0,40(s0)
 102:	0000                	unimp
 104:	340a                	fld	fs0,160(sp)
 106:	0000                	unimp
 108:	340c                	fld	fa1,40(s0)
 10a:	0000                	unimp
 10c:	340e                	fld	fs0,224(sp)
 10e:	0000                	unimp
 110:	3410                	fld	fa2,40(s0)
 112:	0000                	unimp
 114:	3412                	fld	fs0,288(sp)
 116:	0000                	unimp
 118:	3414                	fld	fa3,40(s0)
 11a:	0000                	unimp
 11c:	3416                	fld	fs0,352(sp)
 11e:	0000                	unimp
 120:	3418                	fld	fa4,40(s0)
 122:	0000                	unimp
 124:	341a                	fld	fs0,416(sp)
 126:	0000                	unimp
 128:	341c                	fld	fa5,40(s0)
 12a:	0000                	unimp
 12c:	341e                	fld	fs0,480(sp)
 12e:	0000                	unimp
 130:	3420                	fld	fs0,104(s0)
	...

Disassembly of section .text:

00000200 <SW_Handler>:
     200:	f8810113          	addi	sp,sp,-120
     204:	c206                	sw	ra,4(sp)
     206:	c416                	sw	t0,8(sp)
     208:	c61a                	sw	t1,12(sp)
     20a:	c81e                	sw	t2,16(sp)
     20c:	ca22                	sw	s0,20(sp)
     20e:	cc26                	sw	s1,24(sp)
     210:	ce2a                	sw	a0,28(sp)
     212:	d02e                	sw	a1,32(sp)
     214:	d232                	sw	a2,36(sp)
     216:	d436                	sw	a3,40(sp)
     218:	d63a                	sw	a4,44(sp)
     21a:	d83e                	sw	a5,48(sp)
     21c:	da42                	sw	a6,52(sp)
     21e:	dc46                	sw	a7,56(sp)
     220:	de4a                	sw	s2,60(sp)
     222:	c0ce                	sw	s3,64(sp)
     224:	c2d2                	sw	s4,68(sp)
     226:	c4d6                	sw	s5,72(sp)
     228:	c6da                	sw	s6,76(sp)
     22a:	c8de                	sw	s7,80(sp)
     22c:	cae2                	sw	s8,84(sp)
     22e:	cce6                	sw	s9,88(sp)
     230:	ceea                	sw	s10,92(sp)
     232:	d0ee                	sw	s11,96(sp)
     234:	d2f2                	sw	t3,100(sp)
     236:	d4f6                	sw	t4,104(sp)
     238:	d6fa                	sw	t5,108(sp)
     23a:	d8fe                	sw	t6,112(sp)
     23c:	300022f3          	csrr	t0,mstatus
     240:	da96                	sw	t0,116(sp)
     242:	20000297          	auipc	t0,0x20000
     246:	e7e2a283          	lw	t0,-386(t0) # 200000c0 <pxCurrentTCB>
     24a:	0022a023          	sw	sp,0(t0)
     24e:	341025f3          	csrr	a1,mepc
     252:	c02e                	sw	a1,0(sp)
     254:	8181a103          	lw	sp,-2024(gp) # 20000098 <xISRStackTop>
     258:	010020ef          	jal	ra,2268 <vTaskSwitchContext>

0000025c <processed_source>:
     25c:	20000317          	auipc	t1,0x20000
     260:	e6432303          	lw	t1,-412(t1) # 200000c0 <pxCurrentTCB>
     264:	00032103          	lw	sp,0(t1)
     268:	4282                	lw	t0,0(sp)
     26a:	34129073          	csrw	mepc,t0
     26e:	52d6                	lw	t0,116(sp)
     270:	30029073          	csrw	mstatus,t0
     274:	4092                	lw	ra,4(sp)
     276:	42a2                	lw	t0,8(sp)
     278:	4332                	lw	t1,12(sp)
     27a:	43c2                	lw	t2,16(sp)
     27c:	4452                	lw	s0,20(sp)
     27e:	44e2                	lw	s1,24(sp)
     280:	4572                	lw	a0,28(sp)
     282:	5582                	lw	a1,32(sp)
     284:	5612                	lw	a2,36(sp)
     286:	56a2                	lw	a3,40(sp)
     288:	5732                	lw	a4,44(sp)
     28a:	57c2                	lw	a5,48(sp)
     28c:	5852                	lw	a6,52(sp)
     28e:	58e2                	lw	a7,56(sp)
     290:	5972                	lw	s2,60(sp)
     292:	4986                	lw	s3,64(sp)
     294:	4a16                	lw	s4,68(sp)
     296:	4aa6                	lw	s5,72(sp)
     298:	4b36                	lw	s6,76(sp)
     29a:	4bc6                	lw	s7,80(sp)
     29c:	4c56                	lw	s8,84(sp)
     29e:	4ce6                	lw	s9,88(sp)
     2a0:	4d76                	lw	s10,92(sp)
     2a2:	5d86                	lw	s11,96(sp)
     2a4:	5e16                	lw	t3,100(sp)
     2a6:	5ea6                	lw	t4,104(sp)
     2a8:	5f36                	lw	t5,108(sp)
     2aa:	5fc6                	lw	t6,112(sp)
     2ac:	07810113          	addi	sp,sp,120
     2b0:	30200073          	mret
     2b4:	00000013          	nop
     2b8:	00000013          	nop
     2bc:	00000013          	nop
     2c0:	00000013          	nop
     2c4:	00000013          	nop
     2c8:	00000013          	nop
     2cc:	00000013          	nop
     2d0:	00000013          	nop
     2d4:	00000013          	nop
     2d8:	00000013          	nop
     2dc:	00000013          	nop
     2e0:	00000013          	nop
     2e4:	00000013          	nop
     2e8:	00000013          	nop
     2ec:	00000013          	nop
     2f0:	00000013          	nop
     2f4:	00000013          	nop
     2f8:	00000013          	nop
     2fc:	00000013          	nop

00000300 <xPortStartFirstTask>:
     300:	8181a283          	lw	t0,-2024(gp) # 20000098 <xISRStackTop>
     304:	e0028293          	addi	t0,t0,-512
     308:	34029073          	csrw	mscratch,t0
     30c:	20000117          	auipc	sp,0x20000
     310:	db412103          	lw	sp,-588(sp) # 200000c0 <pxCurrentTCB>
     314:	4102                	lw	sp,0(sp)
     316:	4082                	lw	ra,0(sp)
     318:	4332                	lw	t1,12(sp)
     31a:	43c2                	lw	t2,16(sp)
     31c:	4452                	lw	s0,20(sp)
     31e:	44e2                	lw	s1,24(sp)
     320:	4572                	lw	a0,28(sp)
     322:	5582                	lw	a1,32(sp)
     324:	5612                	lw	a2,36(sp)
     326:	56a2                	lw	a3,40(sp)
     328:	5732                	lw	a4,44(sp)
     32a:	57c2                	lw	a5,48(sp)
     32c:	5852                	lw	a6,52(sp)
     32e:	58e2                	lw	a7,56(sp)
     330:	5972                	lw	s2,60(sp)
     332:	4986                	lw	s3,64(sp)
     334:	4a16                	lw	s4,68(sp)
     336:	4aa6                	lw	s5,72(sp)
     338:	4b36                	lw	s6,76(sp)
     33a:	4bc6                	lw	s7,80(sp)
     33c:	4c56                	lw	s8,84(sp)
     33e:	4ce6                	lw	s9,88(sp)
     340:	4d76                	lw	s10,92(sp)
     342:	5d86                	lw	s11,96(sp)
     344:	5e16                	lw	t3,100(sp)
     346:	5ea6                	lw	t4,104(sp)
     348:	5f36                	lw	t5,108(sp)
     34a:	5fc6                	lw	t6,112(sp)
     34c:	52d6                	lw	t0,116(sp)
     34e:	02a1                	addi	t0,t0,8
     350:	30029073          	csrw	mstatus,t0
     354:	42a2                	lw	t0,8(sp)
     356:	07810113          	addi	sp,sp,120
     35a:	8082                	ret
     35c:	00000013          	nop
     360:	00000013          	nop
     364:	00000013          	nop
     368:	00000013          	nop
     36c:	00000013          	nop
     370:	00000013          	nop
     374:	00000013          	nop
     378:	00000013          	nop
     37c:	00000013          	nop
     380:	00000013          	nop
     384:	00000013          	nop
     388:	00000013          	nop
     38c:	00000013          	nop
     390:	00000013          	nop
     394:	00000013          	nop
     398:	00000013          	nop
     39c:	00000013          	nop
     3a0:	00000013          	nop
     3a4:	00000013          	nop
     3a8:	00000013          	nop
     3ac:	00000013          	nop
     3b0:	00000013          	nop
     3b4:	00000013          	nop
     3b8:	00000013          	nop
     3bc:	00000013          	nop
     3c0:	00000013          	nop
     3c4:	00000013          	nop
     3c8:	00000013          	nop
     3cc:	00000013          	nop
     3d0:	00000013          	nop
     3d4:	00000013          	nop
     3d8:	00000013          	nop
     3dc:	00000013          	nop
     3e0:	00000013          	nop
     3e4:	00000013          	nop
     3e8:	00000013          	nop
     3ec:	00000013          	nop
     3f0:	00000013          	nop
     3f4:	00000013          	nop
     3f8:	00000013          	nop
     3fc:	00000013          	nop

00000400 <pxPortInitialiseStack>:
     400:	300022f3          	csrr	t0,mstatus
     404:	ff72f293          	andi	t0,t0,-9
     408:	18800313          	li	t1,392
     40c:	0312                	slli	t1,t1,0x4
     40e:	0062e2b3          	or	t0,t0,t1
     412:	1571                	addi	a0,a0,-4
     414:	00552023          	sw	t0,0(a0)
     418:	fa850513          	addi	a0,a0,-88
     41c:	c110                	sw	a2,0(a0)
     41e:	1521                	addi	a0,a0,-24
     420:	00052023          	sw	zero,0(a0)
     424:	00000293          	li	t0,0

00000428 <chip_specific_stack_frame>:
     428:	00028763          	beqz	t0,436 <chip_specific_stack_frame+0xe>
     42c:	1571                	addi	a0,a0,-4
     42e:	00052023          	sw	zero,0(a0)
     432:	12fd                	addi	t0,t0,-1
     434:	bfd5                	j	428 <chip_specific_stack_frame>
     436:	1571                	addi	a0,a0,-4
     438:	c10c                	sw	a1,0(a0)
     43a:	8082                	ret
	...

000004ee <__riscv_save_12>:
     4ee:	7139                	addi	sp,sp,-64
     4f0:	4301                	li	t1,0
     4f2:	c66e                	sw	s11,12(sp)
     4f4:	a019                	j	4fa <__riscv_save_10+0x4>

000004f6 <__riscv_save_10>:
     4f6:	7139                	addi	sp,sp,-64
     4f8:	5341                	li	t1,-16
     4fa:	c86a                	sw	s10,16(sp)
     4fc:	ca66                	sw	s9,20(sp)
     4fe:	cc62                	sw	s8,24(sp)
     500:	ce5e                	sw	s7,28(sp)
     502:	a019                	j	508 <__riscv_save_4+0x4>

00000504 <__riscv_save_4>:
     504:	7139                	addi	sp,sp,-64
     506:	5301                	li	t1,-32
     508:	d05a                	sw	s6,32(sp)
     50a:	d256                	sw	s5,36(sp)
     50c:	d452                	sw	s4,40(sp)
     50e:	d64e                	sw	s3,44(sp)
     510:	d84a                	sw	s2,48(sp)
     512:	da26                	sw	s1,52(sp)
     514:	dc22                	sw	s0,56(sp)
     516:	de06                	sw	ra,60(sp)
     518:	40610133          	sub	sp,sp,t1
     51c:	8282                	jr	t0

0000051e <__riscv_save_0>:
     51e:	1141                	addi	sp,sp,-16
     520:	c04a                	sw	s2,0(sp)
     522:	c226                	sw	s1,4(sp)
     524:	c422                	sw	s0,8(sp)
     526:	c606                	sw	ra,12(sp)
     528:	8282                	jr	t0

0000052a <__riscv_restore_12>:
     52a:	4db2                	lw	s11,12(sp)
     52c:	0141                	addi	sp,sp,16

0000052e <__riscv_restore_10>:
     52e:	4d02                	lw	s10,0(sp)
     530:	4c92                	lw	s9,4(sp)
     532:	4c22                	lw	s8,8(sp)
     534:	4bb2                	lw	s7,12(sp)
     536:	0141                	addi	sp,sp,16

00000538 <__riscv_restore_4>:
     538:	4b02                	lw	s6,0(sp)
     53a:	4a92                	lw	s5,4(sp)
     53c:	4a22                	lw	s4,8(sp)
     53e:	49b2                	lw	s3,12(sp)
     540:	0141                	addi	sp,sp,16

00000542 <__riscv_restore_0>:
     542:	4902                	lw	s2,0(sp)
     544:	4492                	lw	s1,4(sp)
     546:	4422                	lw	s0,8(sp)
     548:	40b2                	lw	ra,12(sp)
     54a:	0141                	addi	sp,sp,16
     54c:	8082                	ret

0000054e <memset>:
     54e:	433d                	li	t1,15
     550:	872a                	mv	a4,a0
     552:	02c37363          	bgeu	t1,a2,578 <memset+0x2a>
     556:	00f77793          	andi	a5,a4,15
     55a:	efbd                	bnez	a5,5d8 <memset+0x8a>
     55c:	e5ad                	bnez	a1,5c6 <memset+0x78>
     55e:	ff067693          	andi	a3,a2,-16
     562:	8a3d                	andi	a2,a2,15
     564:	96ba                	add	a3,a3,a4
     566:	c30c                	sw	a1,0(a4)
     568:	c34c                	sw	a1,4(a4)
     56a:	c70c                	sw	a1,8(a4)
     56c:	c74c                	sw	a1,12(a4)
     56e:	0741                	addi	a4,a4,16
     570:	fed76be3          	bltu	a4,a3,566 <memset+0x18>
     574:	e211                	bnez	a2,578 <memset+0x2a>
     576:	8082                	ret
     578:	40c306b3          	sub	a3,t1,a2
     57c:	068a                	slli	a3,a3,0x2
     57e:	00000297          	auipc	t0,0x0
     582:	9696                	add	a3,a3,t0
     584:	00a68067          	jr	10(a3)
     588:	00b70723          	sb	a1,14(a4)
     58c:	00b706a3          	sb	a1,13(a4)
     590:	00b70623          	sb	a1,12(a4)
     594:	00b705a3          	sb	a1,11(a4)
     598:	00b70523          	sb	a1,10(a4)
     59c:	00b704a3          	sb	a1,9(a4)
     5a0:	00b70423          	sb	a1,8(a4)
     5a4:	00b703a3          	sb	a1,7(a4)
     5a8:	00b70323          	sb	a1,6(a4)
     5ac:	00b702a3          	sb	a1,5(a4)
     5b0:	00b70223          	sb	a1,4(a4)
     5b4:	00b701a3          	sb	a1,3(a4)
     5b8:	00b70123          	sb	a1,2(a4)
     5bc:	00b700a3          	sb	a1,1(a4)
     5c0:	00b70023          	sb	a1,0(a4)
     5c4:	8082                	ret
     5c6:	0ff5f593          	andi	a1,a1,255
     5ca:	00859693          	slli	a3,a1,0x8
     5ce:	8dd5                	or	a1,a1,a3
     5d0:	01059693          	slli	a3,a1,0x10
     5d4:	8dd5                	or	a1,a1,a3
     5d6:	b761                	j	55e <memset+0x10>
     5d8:	00279693          	slli	a3,a5,0x2
     5dc:	00000297          	auipc	t0,0x0
     5e0:	9696                	add	a3,a3,t0
     5e2:	8286                	mv	t0,ra
     5e4:	fa8680e7          	jalr	-88(a3)
     5e8:	8096                	mv	ra,t0
     5ea:	17c1                	addi	a5,a5,-16
     5ec:	8f1d                	sub	a4,a4,a5
     5ee:	963e                	add	a2,a2,a5
     5f0:	f8c374e3          	bgeu	t1,a2,578 <memset+0x2a>
     5f4:	b7a5                	j	55c <memset+0xe>

000005f6 <SERVICE_RTOS_TaskCreate>:
     5f6:	7139                	addi	sp,sp,-64
     5f8:	de06                	sw	ra,60(sp)
     5fa:	dc22                	sw	s0,56(sp)
     5fc:	0080                	addi	s0,sp,64
     5fe:	fca42e23          	sw	a0,-36(s0)
     602:	fcb42c23          	sw	a1,-40(s0)
     606:	87b2                	mv	a5,a2
     608:	fcd42823          	sw	a3,-48(s0)
     60c:	fce42623          	sw	a4,-52(s0)
     610:	fcf41b23          	sh	a5,-42(s0)
     614:	fe042623          	sw	zero,-20(s0)
     618:	fdc42783          	lw	a5,-36(s0)
     61c:	cb91                	beqz	a5,630 <SERVICE_RTOS_TaskCreate+0x3a>
     61e:	fd842783          	lw	a5,-40(s0)
     622:	c799                	beqz	a5,630 <SERVICE_RTOS_TaskCreate+0x3a>
     624:	fd645783          	lhu	a5,-42(s0)
     628:	c781                	beqz	a5,630 <SERVICE_RTOS_TaskCreate+0x3a>
     62a:	fcc42783          	lw	a5,-52(s0)
     62e:	e789                	bnez	a5,638 <SERVICE_RTOS_TaskCreate+0x42>
     630:	4785                	li	a5,1
     632:	fef42623          	sw	a5,-20(s0)
     636:	a831                	j	652 <SERVICE_RTOS_TaskCreate+0x5c>
     638:	fcc40793          	addi	a5,s0,-52
     63c:	fd645603          	lhu	a2,-42(s0)
     640:	fd042703          	lw	a4,-48(s0)
     644:	4681                	li	a3,0
     646:	fd842583          	lw	a1,-40(s0)
     64a:	fdc42503          	lw	a0,-36(s0)
     64e:	17a010ef          	jal	ra,17c8 <xTaskCreate>
     652:	fec42783          	lw	a5,-20(s0)
     656:	853e                	mv	a0,a5
     658:	50f2                	lw	ra,60(sp)
     65a:	5462                	lw	s0,56(sp)
     65c:	6121                	addi	sp,sp,64
     65e:	8082                	ret

00000660 <SERVICE_RTOS_StartSchedular>:
     660:	1141                	addi	sp,sp,-16
     662:	c606                	sw	ra,12(sp)
     664:	c422                	sw	s0,8(sp)
     666:	0800                	addi	s0,sp,16
     668:	56e010ef          	jal	ra,1bd6 <vTaskStartScheduler>
     66c:	4781                	li	a5,0
     66e:	853e                	mv	a0,a5
     670:	40b2                	lw	ra,12(sp)
     672:	4422                	lw	s0,8(sp)
     674:	0141                	addi	sp,sp,16
     676:	8082                	ret

00000678 <SERVICE_RTOS_CreateBlockingQueue>:
     678:	7179                	addi	sp,sp,-48
     67a:	d606                	sw	ra,44(sp)
     67c:	d422                	sw	s0,40(sp)
     67e:	1800                	addi	s0,sp,48
     680:	87aa                	mv	a5,a0
     682:	872e                	mv	a4,a1
     684:	fcc42c23          	sw	a2,-40(s0)
     688:	fcf41f23          	sh	a5,-34(s0)
     68c:	87ba                	mv	a5,a4
     68e:	fcf41e23          	sh	a5,-36(s0)
     692:	fe042623          	sw	zero,-20(s0)
     696:	fde45783          	lhu	a5,-34(s0)
     69a:	c799                	beqz	a5,6a8 <SERVICE_RTOS_CreateBlockingQueue+0x30>
     69c:	fdc45783          	lhu	a5,-36(s0)
     6a0:	c781                	beqz	a5,6a8 <SERVICE_RTOS_CreateBlockingQueue+0x30>
     6a2:	fd842783          	lw	a5,-40(s0)
     6a6:	e789                	bnez	a5,6b0 <SERVICE_RTOS_CreateBlockingQueue+0x38>
     6a8:	4785                	li	a5,1
     6aa:	fef42623          	sw	a5,-20(s0)
     6ae:	a025                	j	6d6 <SERVICE_RTOS_CreateBlockingQueue+0x5e>
     6b0:	fde45783          	lhu	a5,-34(s0)
     6b4:	fdc45703          	lhu	a4,-36(s0)
     6b8:	4601                	li	a2,0
     6ba:	85ba                	mv	a1,a4
     6bc:	853e                	mv	a0,a5
     6be:	2eb000ef          	jal	ra,11a8 <xQueueGenericCreate>
     6c2:	872a                	mv	a4,a0
     6c4:	fd842783          	lw	a5,-40(s0)
     6c8:	c398                	sw	a4,0(a5)
     6ca:	fd842783          	lw	a5,-40(s0)
     6ce:	e781                	bnez	a5,6d6 <SERVICE_RTOS_CreateBlockingQueue+0x5e>
     6d0:	4785                	li	a5,1
     6d2:	fef42623          	sw	a5,-20(s0)
     6d6:	fec42783          	lw	a5,-20(s0)
     6da:	853e                	mv	a0,a5
     6dc:	50b2                	lw	ra,44(sp)
     6de:	5422                	lw	s0,40(sp)
     6e0:	6145                	addi	sp,sp,48
     6e2:	8082                	ret

000006e4 <pvPortMalloc>:
     6e4:	7179                	addi	sp,sp,-48
     6e6:	d606                	sw	ra,44(sp)
     6e8:	d422                	sw	s0,40(sp)
     6ea:	1800                	addi	s0,sp,48
     6ec:	fca42e23          	sw	a0,-36(s0)
     6f0:	fe042223          	sw	zero,-28(s0)
     6f4:	594010ef          	jal	ra,1c88 <vTaskSuspendAll>
     6f8:	200007b7          	lui	a5,0x20000
     6fc:	0a87a783          	lw	a5,168(a5) # 200000a8 <pxEnd>
     700:	e391                	bnez	a5,704 <pvPortMalloc+0x20>
     702:	263d                	jal	a30 <prvHeapInit>
     704:	200007b7          	lui	a5,0x20000
     708:	0bc7a703          	lw	a4,188(a5) # 200000bc <xBlockAllocatedBit>
     70c:	fdc42783          	lw	a5,-36(s0)
     710:	8ff9                	and	a5,a5,a4
     712:	1c079f63          	bnez	a5,8f0 <__stack_size+0xf0>
     716:	fdc42783          	lw	a5,-36(s0)
     71a:	cba5                	beqz	a5,78a <pvPortMalloc+0xa6>
     71c:	4741                	li	a4,16
     71e:	fdc42783          	lw	a5,-36(s0)
     722:	97ba                	add	a5,a5,a4
     724:	fdc42703          	lw	a4,-36(s0)
     728:	06f77163          	bgeu	a4,a5,78a <pvPortMalloc+0xa6>
     72c:	47c1                	li	a5,16
     72e:	fdc42703          	lw	a4,-36(s0)
     732:	97ba                	add	a5,a5,a4
     734:	fcf42e23          	sw	a5,-36(s0)
     738:	fdc42783          	lw	a5,-36(s0)
     73c:	8bbd                	andi	a5,a5,15
     73e:	cba9                	beqz	a5,790 <pvPortMalloc+0xac>
     740:	fdc42783          	lw	a5,-36(s0)
     744:	9bc1                	andi	a5,a5,-16
     746:	07c1                	addi	a5,a5,16
     748:	fdc42703          	lw	a4,-36(s0)
     74c:	02f77c63          	bgeu	a4,a5,784 <pvPortMalloc+0xa0>
     750:	fdc42783          	lw	a5,-36(s0)
     754:	9bc1                	andi	a5,a5,-16
     756:	07c1                	addi	a5,a5,16
     758:	fcf42e23          	sw	a5,-36(s0)
     75c:	fdc42783          	lw	a5,-36(s0)
     760:	8bbd                	andi	a5,a5,15
     762:	c79d                	beqz	a5,790 <pvPortMalloc+0xac>
     764:	6789                	lui	a5,0x2
     766:	80078793          	addi	a5,a5,-2048 # 1800 <xTaskCreate+0x38>
     76a:	30079073          	csrw	mstatus,a5
     76e:	67a1                	lui	a5,0x8
     770:	df478613          	addi	a2,a5,-524 # 7df4 <_read+0x12>
     774:	09c00593          	li	a1,156
     778:	67a1                	lui	a5,0x8
     77a:	e2878513          	addi	a0,a5,-472 # 7e28 <_read+0x46>
     77e:	3d6060ef          	jal	ra,6b54 <iprintf>
     782:	a001                	j	782 <pvPortMalloc+0x9e>
     784:	fc042e23          	sw	zero,-36(s0)
     788:	a021                	j	790 <pvPortMalloc+0xac>
     78a:	fc042e23          	sw	zero,-36(s0)
     78e:	a011                	j	792 <pvPortMalloc+0xae>
     790:	0001                	nop
     792:	fdc42783          	lw	a5,-36(s0)
     796:	14078d63          	beqz	a5,8f0 <__stack_size+0xf0>
     79a:	200007b7          	lui	a5,0x20000
     79e:	0ac7a783          	lw	a5,172(a5) # 200000ac <xFreeBytesRemaining>
     7a2:	fdc42703          	lw	a4,-36(s0)
     7a6:	14e7e563          	bltu	a5,a4,8f0 <__stack_size+0xf0>
     7aa:	200007b7          	lui	a5,0x20000
     7ae:	0a078793          	addi	a5,a5,160 # 200000a0 <_edata>
     7b2:	fef42423          	sw	a5,-24(s0)
     7b6:	200007b7          	lui	a5,0x20000
     7ba:	0a07a783          	lw	a5,160(a5) # 200000a0 <_edata>
     7be:	fef42623          	sw	a5,-20(s0)
     7c2:	a811                	j	7d6 <pvPortMalloc+0xf2>
     7c4:	fec42783          	lw	a5,-20(s0)
     7c8:	fef42423          	sw	a5,-24(s0)
     7cc:	fec42783          	lw	a5,-20(s0)
     7d0:	439c                	lw	a5,0(a5)
     7d2:	fef42623          	sw	a5,-20(s0)
     7d6:	fec42783          	lw	a5,-20(s0)
     7da:	43dc                	lw	a5,4(a5)
     7dc:	fdc42703          	lw	a4,-36(s0)
     7e0:	00e7f663          	bgeu	a5,a4,7ec <pvPortMalloc+0x108>
     7e4:	fec42783          	lw	a5,-20(s0)
     7e8:	439c                	lw	a5,0(a5)
     7ea:	ffe9                	bnez	a5,7c4 <pvPortMalloc+0xe0>
     7ec:	200007b7          	lui	a5,0x20000
     7f0:	0a87a783          	lw	a5,168(a5) # 200000a8 <pxEnd>
     7f4:	fec42703          	lw	a4,-20(s0)
     7f8:	0ef70c63          	beq	a4,a5,8f0 <__stack_size+0xf0>
     7fc:	fe842783          	lw	a5,-24(s0)
     800:	4398                	lw	a4,0(a5)
     802:	47c1                	li	a5,16
     804:	97ba                	add	a5,a5,a4
     806:	fef42223          	sw	a5,-28(s0)
     80a:	fec42783          	lw	a5,-20(s0)
     80e:	4398                	lw	a4,0(a5)
     810:	fe842783          	lw	a5,-24(s0)
     814:	c398                	sw	a4,0(a5)
     816:	fec42783          	lw	a5,-20(s0)
     81a:	43d8                	lw	a4,4(a5)
     81c:	fdc42783          	lw	a5,-36(s0)
     820:	8f1d                	sub	a4,a4,a5
     822:	47c1                	li	a5,16
     824:	0786                	slli	a5,a5,0x1
     826:	04e7fe63          	bgeu	a5,a4,882 <__stack_size+0x82>
     82a:	fec42703          	lw	a4,-20(s0)
     82e:	fdc42783          	lw	a5,-36(s0)
     832:	97ba                	add	a5,a5,a4
     834:	fef42023          	sw	a5,-32(s0)
     838:	fe042783          	lw	a5,-32(s0)
     83c:	8bbd                	andi	a5,a5,15
     83e:	c38d                	beqz	a5,860 <__stack_size+0x60>
     840:	6789                	lui	a5,0x2
     842:	80078793          	addi	a5,a5,-2048 # 1800 <xTaskCreate+0x38>
     846:	30079073          	csrw	mstatus,a5
     84a:	67a1                	lui	a5,0x8
     84c:	df478613          	addi	a2,a5,-524 # 7df4 <_read+0x12>
     850:	0cf00593          	li	a1,207
     854:	67a1                	lui	a5,0x8
     856:	e2878513          	addi	a0,a5,-472 # 7e28 <_read+0x46>
     85a:	2fa060ef          	jal	ra,6b54 <iprintf>
     85e:	a001                	j	85e <__stack_size+0x5e>
     860:	fec42783          	lw	a5,-20(s0)
     864:	43d8                	lw	a4,4(a5)
     866:	fdc42783          	lw	a5,-36(s0)
     86a:	8f1d                	sub	a4,a4,a5
     86c:	fe042783          	lw	a5,-32(s0)
     870:	c3d8                	sw	a4,4(a5)
     872:	fec42783          	lw	a5,-20(s0)
     876:	fdc42703          	lw	a4,-36(s0)
     87a:	c3d8                	sw	a4,4(a5)
     87c:	fe042503          	lw	a0,-32(s0)
     880:	2c75                	jal	b3c <prvInsertBlockIntoFreeList>
     882:	200007b7          	lui	a5,0x20000
     886:	0ac7a703          	lw	a4,172(a5) # 200000ac <xFreeBytesRemaining>
     88a:	fec42783          	lw	a5,-20(s0)
     88e:	43dc                	lw	a5,4(a5)
     890:	8f1d                	sub	a4,a4,a5
     892:	200007b7          	lui	a5,0x20000
     896:	0ae7a623          	sw	a4,172(a5) # 200000ac <xFreeBytesRemaining>
     89a:	200007b7          	lui	a5,0x20000
     89e:	0ac7a703          	lw	a4,172(a5) # 200000ac <xFreeBytesRemaining>
     8a2:	200007b7          	lui	a5,0x20000
     8a6:	0b07a783          	lw	a5,176(a5) # 200000b0 <xMinimumEverFreeBytesRemaining>
     8aa:	00f77a63          	bgeu	a4,a5,8be <__stack_size+0xbe>
     8ae:	200007b7          	lui	a5,0x20000
     8b2:	0ac7a703          	lw	a4,172(a5) # 200000ac <xFreeBytesRemaining>
     8b6:	200007b7          	lui	a5,0x20000
     8ba:	0ae7a823          	sw	a4,176(a5) # 200000b0 <xMinimumEverFreeBytesRemaining>
     8be:	fec42783          	lw	a5,-20(s0)
     8c2:	43d8                	lw	a4,4(a5)
     8c4:	200007b7          	lui	a5,0x20000
     8c8:	0bc7a783          	lw	a5,188(a5) # 200000bc <xBlockAllocatedBit>
     8cc:	8f5d                	or	a4,a4,a5
     8ce:	fec42783          	lw	a5,-20(s0)
     8d2:	c3d8                	sw	a4,4(a5)
     8d4:	fec42783          	lw	a5,-20(s0)
     8d8:	0007a023          	sw	zero,0(a5)
     8dc:	200007b7          	lui	a5,0x20000
     8e0:	0b47a783          	lw	a5,180(a5) # 200000b4 <xNumberOfSuccessfulAllocations>
     8e4:	00178713          	addi	a4,a5,1
     8e8:	200007b7          	lui	a5,0x20000
     8ec:	0ae7aa23          	sw	a4,180(a5) # 200000b4 <xNumberOfSuccessfulAllocations>
     8f0:	3ba010ef          	jal	ra,1caa <xTaskResumeAll>
     8f4:	fe442783          	lw	a5,-28(s0)
     8f8:	8bbd                	andi	a5,a5,15
     8fa:	c38d                	beqz	a5,91c <__stack_size+0x11c>
     8fc:	6789                	lui	a5,0x2
     8fe:	80078793          	addi	a5,a5,-2048 # 1800 <xTaskCreate+0x38>
     902:	30079073          	csrw	mstatus,a5
     906:	67a1                	lui	a5,0x8
     908:	df478613          	addi	a2,a5,-524 # 7df4 <_read+0x12>
     90c:	11000593          	li	a1,272
     910:	67a1                	lui	a5,0x8
     912:	e2878513          	addi	a0,a5,-472 # 7e28 <_read+0x46>
     916:	23e060ef          	jal	ra,6b54 <iprintf>
     91a:	a001                	j	91a <__stack_size+0x11a>
     91c:	fe442783          	lw	a5,-28(s0)
     920:	853e                	mv	a0,a5
     922:	50b2                	lw	ra,44(sp)
     924:	5422                	lw	s0,40(sp)
     926:	6145                	addi	sp,sp,48
     928:	8082                	ret

0000092a <vPortFree>:
     92a:	7179                	addi	sp,sp,-48
     92c:	d606                	sw	ra,44(sp)
     92e:	d422                	sw	s0,40(sp)
     930:	1800                	addi	s0,sp,48
     932:	fca42e23          	sw	a0,-36(s0)
     936:	fdc42783          	lw	a5,-36(s0)
     93a:	fef42623          	sw	a5,-20(s0)
     93e:	fdc42783          	lw	a5,-36(s0)
     942:	0e078263          	beqz	a5,a26 <vPortFree+0xfc>
     946:	47c1                	li	a5,16
     948:	40f007b3          	neg	a5,a5
     94c:	fec42703          	lw	a4,-20(s0)
     950:	97ba                	add	a5,a5,a4
     952:	fef42623          	sw	a5,-20(s0)
     956:	fec42783          	lw	a5,-20(s0)
     95a:	fef42423          	sw	a5,-24(s0)
     95e:	fe842783          	lw	a5,-24(s0)
     962:	43d8                	lw	a4,4(a5)
     964:	200007b7          	lui	a5,0x20000
     968:	0bc7a783          	lw	a5,188(a5) # 200000bc <xBlockAllocatedBit>
     96c:	8ff9                	and	a5,a5,a4
     96e:	e38d                	bnez	a5,990 <vPortFree+0x66>
     970:	6789                	lui	a5,0x2
     972:	80078793          	addi	a5,a5,-2048 # 1800 <xTaskCreate+0x38>
     976:	30079073          	csrw	mstatus,a5
     97a:	67a1                	lui	a5,0x8
     97c:	df478613          	addi	a2,a5,-524 # 7df4 <_read+0x12>
     980:	12400593          	li	a1,292
     984:	67a1                	lui	a5,0x8
     986:	e2878513          	addi	a0,a5,-472 # 7e28 <_read+0x46>
     98a:	1ca060ef          	jal	ra,6b54 <iprintf>
     98e:	a001                	j	98e <vPortFree+0x64>
     990:	fe842783          	lw	a5,-24(s0)
     994:	439c                	lw	a5,0(a5)
     996:	c38d                	beqz	a5,9b8 <vPortFree+0x8e>
     998:	6789                	lui	a5,0x2
     99a:	80078793          	addi	a5,a5,-2048 # 1800 <xTaskCreate+0x38>
     99e:	30079073          	csrw	mstatus,a5
     9a2:	67a1                	lui	a5,0x8
     9a4:	df478613          	addi	a2,a5,-524 # 7df4 <_read+0x12>
     9a8:	12500593          	li	a1,293
     9ac:	67a1                	lui	a5,0x8
     9ae:	e2878513          	addi	a0,a5,-472 # 7e28 <_read+0x46>
     9b2:	1a2060ef          	jal	ra,6b54 <iprintf>
     9b6:	a001                	j	9b6 <vPortFree+0x8c>
     9b8:	fe842783          	lw	a5,-24(s0)
     9bc:	43d8                	lw	a4,4(a5)
     9be:	200007b7          	lui	a5,0x20000
     9c2:	0bc7a783          	lw	a5,188(a5) # 200000bc <xBlockAllocatedBit>
     9c6:	8ff9                	and	a5,a5,a4
     9c8:	cfb9                	beqz	a5,a26 <vPortFree+0xfc>
     9ca:	fe842783          	lw	a5,-24(s0)
     9ce:	439c                	lw	a5,0(a5)
     9d0:	ebb9                	bnez	a5,a26 <vPortFree+0xfc>
     9d2:	fe842783          	lw	a5,-24(s0)
     9d6:	43d8                	lw	a4,4(a5)
     9d8:	200007b7          	lui	a5,0x20000
     9dc:	0bc7a783          	lw	a5,188(a5) # 200000bc <xBlockAllocatedBit>
     9e0:	fff7c793          	not	a5,a5
     9e4:	8f7d                	and	a4,a4,a5
     9e6:	fe842783          	lw	a5,-24(s0)
     9ea:	c3d8                	sw	a4,4(a5)
     9ec:	29c010ef          	jal	ra,1c88 <vTaskSuspendAll>
     9f0:	fe842783          	lw	a5,-24(s0)
     9f4:	43d8                	lw	a4,4(a5)
     9f6:	200007b7          	lui	a5,0x20000
     9fa:	0ac7a783          	lw	a5,172(a5) # 200000ac <xFreeBytesRemaining>
     9fe:	973e                	add	a4,a4,a5
     a00:	200007b7          	lui	a5,0x20000
     a04:	0ae7a623          	sw	a4,172(a5) # 200000ac <xFreeBytesRemaining>
     a08:	fe842503          	lw	a0,-24(s0)
     a0c:	2a05                	jal	b3c <prvInsertBlockIntoFreeList>
     a0e:	200007b7          	lui	a5,0x20000
     a12:	0b87a783          	lw	a5,184(a5) # 200000b8 <xNumberOfSuccessfulFrees>
     a16:	00178713          	addi	a4,a5,1
     a1a:	200007b7          	lui	a5,0x20000
     a1e:	0ae7ac23          	sw	a4,184(a5) # 200000b8 <xNumberOfSuccessfulFrees>
     a22:	288010ef          	jal	ra,1caa <xTaskResumeAll>
     a26:	0001                	nop
     a28:	50b2                	lw	ra,44(sp)
     a2a:	5422                	lw	s0,40(sp)
     a2c:	6145                	addi	sp,sp,48
     a2e:	8082                	ret

00000a30 <prvHeapInit>:
     a30:	1101                	addi	sp,sp,-32
     a32:	ce22                	sw	s0,28(sp)
     a34:	1000                	addi	s0,sp,32
     a36:	678d                	lui	a5,0x3
     a38:	fef42423          	sw	a5,-24(s0)
     a3c:	200007b7          	lui	a5,0x20000
     a40:	15478793          	addi	a5,a5,340 # 20000154 <ucHeap>
     a44:	fef42623          	sw	a5,-20(s0)
     a48:	fec42783          	lw	a5,-20(s0)
     a4c:	8bbd                	andi	a5,a5,15
     a4e:	c79d                	beqz	a5,a7c <prvHeapInit+0x4c>
     a50:	fec42783          	lw	a5,-20(s0)
     a54:	07bd                	addi	a5,a5,15
     a56:	fef42623          	sw	a5,-20(s0)
     a5a:	fec42783          	lw	a5,-20(s0)
     a5e:	9bc1                	andi	a5,a5,-16
     a60:	fef42623          	sw	a5,-20(s0)
     a64:	fe842703          	lw	a4,-24(s0)
     a68:	fec42783          	lw	a5,-20(s0)
     a6c:	8f1d                	sub	a4,a4,a5
     a6e:	200007b7          	lui	a5,0x20000
     a72:	15478793          	addi	a5,a5,340 # 20000154 <ucHeap>
     a76:	97ba                	add	a5,a5,a4
     a78:	fef42423          	sw	a5,-24(s0)
     a7c:	fec42783          	lw	a5,-20(s0)
     a80:	fef42223          	sw	a5,-28(s0)
     a84:	200007b7          	lui	a5,0x20000
     a88:	fe442703          	lw	a4,-28(s0)
     a8c:	0ae7a023          	sw	a4,160(a5) # 200000a0 <_edata>
     a90:	200007b7          	lui	a5,0x20000
     a94:	0a078793          	addi	a5,a5,160 # 200000a0 <_edata>
     a98:	0007a223          	sw	zero,4(a5)
     a9c:	fe442783          	lw	a5,-28(s0)
     aa0:	fe842703          	lw	a4,-24(s0)
     aa4:	97ba                	add	a5,a5,a4
     aa6:	fef42623          	sw	a5,-20(s0)
     aaa:	47c1                	li	a5,16
     aac:	fec42703          	lw	a4,-20(s0)
     ab0:	40f707b3          	sub	a5,a4,a5
     ab4:	fef42623          	sw	a5,-20(s0)
     ab8:	fec42783          	lw	a5,-20(s0)
     abc:	9bc1                	andi	a5,a5,-16
     abe:	fef42623          	sw	a5,-20(s0)
     ac2:	fec42703          	lw	a4,-20(s0)
     ac6:	200007b7          	lui	a5,0x20000
     aca:	0ae7a423          	sw	a4,168(a5) # 200000a8 <pxEnd>
     ace:	200007b7          	lui	a5,0x20000
     ad2:	0a87a783          	lw	a5,168(a5) # 200000a8 <pxEnd>
     ad6:	0007a223          	sw	zero,4(a5)
     ada:	200007b7          	lui	a5,0x20000
     ade:	0a87a783          	lw	a5,168(a5) # 200000a8 <pxEnd>
     ae2:	0007a023          	sw	zero,0(a5)
     ae6:	fe442783          	lw	a5,-28(s0)
     aea:	fef42023          	sw	a5,-32(s0)
     aee:	fe042783          	lw	a5,-32(s0)
     af2:	fec42703          	lw	a4,-20(s0)
     af6:	8f1d                	sub	a4,a4,a5
     af8:	fe042783          	lw	a5,-32(s0)
     afc:	c3d8                	sw	a4,4(a5)
     afe:	200007b7          	lui	a5,0x20000
     b02:	0a87a703          	lw	a4,168(a5) # 200000a8 <pxEnd>
     b06:	fe042783          	lw	a5,-32(s0)
     b0a:	c398                	sw	a4,0(a5)
     b0c:	fe042783          	lw	a5,-32(s0)
     b10:	43d8                	lw	a4,4(a5)
     b12:	200007b7          	lui	a5,0x20000
     b16:	0ae7a823          	sw	a4,176(a5) # 200000b0 <xMinimumEverFreeBytesRemaining>
     b1a:	fe042783          	lw	a5,-32(s0)
     b1e:	43d8                	lw	a4,4(a5)
     b20:	200007b7          	lui	a5,0x20000
     b24:	0ae7a623          	sw	a4,172(a5) # 200000ac <xFreeBytesRemaining>
     b28:	200007b7          	lui	a5,0x20000
     b2c:	80000737          	lui	a4,0x80000
     b30:	0ae7ae23          	sw	a4,188(a5) # 200000bc <xBlockAllocatedBit>
     b34:	0001                	nop
     b36:	4472                	lw	s0,28(sp)
     b38:	6105                	addi	sp,sp,32
     b3a:	8082                	ret

00000b3c <prvInsertBlockIntoFreeList>:
     b3c:	7179                	addi	sp,sp,-48
     b3e:	d622                	sw	s0,44(sp)
     b40:	1800                	addi	s0,sp,48
     b42:	fca42e23          	sw	a0,-36(s0)
     b46:	200007b7          	lui	a5,0x20000
     b4a:	0a078793          	addi	a5,a5,160 # 200000a0 <_edata>
     b4e:	fef42623          	sw	a5,-20(s0)
     b52:	a031                	j	b5e <prvInsertBlockIntoFreeList+0x22>
     b54:	fec42783          	lw	a5,-20(s0)
     b58:	439c                	lw	a5,0(a5)
     b5a:	fef42623          	sw	a5,-20(s0)
     b5e:	fec42783          	lw	a5,-20(s0)
     b62:	439c                	lw	a5,0(a5)
     b64:	fdc42703          	lw	a4,-36(s0)
     b68:	fee7e6e3          	bltu	a5,a4,b54 <prvInsertBlockIntoFreeList+0x18>
     b6c:	fec42783          	lw	a5,-20(s0)
     b70:	fef42423          	sw	a5,-24(s0)
     b74:	fec42783          	lw	a5,-20(s0)
     b78:	43dc                	lw	a5,4(a5)
     b7a:	fe842703          	lw	a4,-24(s0)
     b7e:	97ba                	add	a5,a5,a4
     b80:	fdc42703          	lw	a4,-36(s0)
     b84:	02f71063          	bne	a4,a5,ba4 <prvInsertBlockIntoFreeList+0x68>
     b88:	fec42783          	lw	a5,-20(s0)
     b8c:	43d8                	lw	a4,4(a5)
     b8e:	fdc42783          	lw	a5,-36(s0)
     b92:	43dc                	lw	a5,4(a5)
     b94:	973e                	add	a4,a4,a5
     b96:	fec42783          	lw	a5,-20(s0)
     b9a:	c3d8                	sw	a4,4(a5)
     b9c:	fec42783          	lw	a5,-20(s0)
     ba0:	fcf42e23          	sw	a5,-36(s0)
     ba4:	fdc42783          	lw	a5,-36(s0)
     ba8:	fef42423          	sw	a5,-24(s0)
     bac:	fdc42783          	lw	a5,-36(s0)
     bb0:	43dc                	lw	a5,4(a5)
     bb2:	fe842703          	lw	a4,-24(s0)
     bb6:	973e                	add	a4,a4,a5
     bb8:	fec42783          	lw	a5,-20(s0)
     bbc:	439c                	lw	a5,0(a5)
     bbe:	04f71663          	bne	a4,a5,c0a <prvInsertBlockIntoFreeList+0xce>
     bc2:	fec42783          	lw	a5,-20(s0)
     bc6:	4398                	lw	a4,0(a5)
     bc8:	200007b7          	lui	a5,0x20000
     bcc:	0a87a783          	lw	a5,168(a5) # 200000a8 <pxEnd>
     bd0:	02f70563          	beq	a4,a5,bfa <prvInsertBlockIntoFreeList+0xbe>
     bd4:	fdc42783          	lw	a5,-36(s0)
     bd8:	43d8                	lw	a4,4(a5)
     bda:	fec42783          	lw	a5,-20(s0)
     bde:	439c                	lw	a5,0(a5)
     be0:	43dc                	lw	a5,4(a5)
     be2:	973e                	add	a4,a4,a5
     be4:	fdc42783          	lw	a5,-36(s0)
     be8:	c3d8                	sw	a4,4(a5)
     bea:	fec42783          	lw	a5,-20(s0)
     bee:	439c                	lw	a5,0(a5)
     bf0:	4398                	lw	a4,0(a5)
     bf2:	fdc42783          	lw	a5,-36(s0)
     bf6:	c398                	sw	a4,0(a5)
     bf8:	a839                	j	c16 <prvInsertBlockIntoFreeList+0xda>
     bfa:	200007b7          	lui	a5,0x20000
     bfe:	0a87a703          	lw	a4,168(a5) # 200000a8 <pxEnd>
     c02:	fdc42783          	lw	a5,-36(s0)
     c06:	c398                	sw	a4,0(a5)
     c08:	a039                	j	c16 <prvInsertBlockIntoFreeList+0xda>
     c0a:	fec42783          	lw	a5,-20(s0)
     c0e:	4398                	lw	a4,0(a5)
     c10:	fdc42783          	lw	a5,-36(s0)
     c14:	c398                	sw	a4,0(a5)
     c16:	fec42703          	lw	a4,-20(s0)
     c1a:	fdc42783          	lw	a5,-36(s0)
     c1e:	00f70763          	beq	a4,a5,c2c <prvInsertBlockIntoFreeList+0xf0>
     c22:	fec42783          	lw	a5,-20(s0)
     c26:	fdc42703          	lw	a4,-36(s0)
     c2a:	c398                	sw	a4,0(a5)
     c2c:	0001                	nop
     c2e:	5432                	lw	s0,44(sp)
     c30:	6145                	addi	sp,sp,48
     c32:	8082                	ret

00000c34 <vPortSetupTimerInterrupt>:
     c34:	1101                	addi	sp,sp,-32
     c36:	ce22                	sw	s0,28(sp)
     c38:	1000                	addi	s0,sp,32
     c3a:	4739                	li	a4,14
     c3c:	fee42223          	sw	a4,-28(s0)
     c40:	5741                	li	a4,-16
     c42:	fee401a3          	sb	a4,-29(s0)
     c46:	e000e6b7          	lui	a3,0xe000e
     c4a:	fe442703          	lw	a4,-28(s0)
     c4e:	9736                	add	a4,a4,a3
     c50:	fe344683          	lbu	a3,-29(s0)
     c54:	40d70023          	sb	a3,1024(a4) # 80000400 <__freertos_irq_stack_top+0x5fffb400>
     c58:	4731                	li	a4,12
     c5a:	fee42623          	sw	a4,-20(s0)
     c5e:	5741                	li	a4,-16
     c60:	fee405a3          	sb	a4,-21(s0)
     c64:	e000e6b7          	lui	a3,0xe000e
     c68:	fec42703          	lw	a4,-20(s0)
     c6c:	9736                	add	a4,a4,a3
     c6e:	feb44683          	lbu	a3,-21(s0)
     c72:	40d70023          	sb	a3,1024(a4)
     c76:	e000f737          	lui	a4,0xe000f
     c7a:	00072023          	sw	zero,0(a4) # e000f000 <__freertos_irq_stack_top+0xc000a000>
     c7e:	e000f737          	lui	a4,0xe000f
     c82:	00072223          	sw	zero,4(a4) # e000f004 <__freertos_irq_stack_top+0xc000a004>
     c86:	e000f737          	lui	a4,0xe000f
     c8a:	4601                	li	a2,0
     c8c:	4681                	li	a3,0
     c8e:	c710                	sw	a2,8(a4)
     c90:	c754                	sw	a3,12(a4)
     c92:	8101a683          	lw	a3,-2032(gp) # 20000090 <SystemCoreClock>
     c96:	1f400713          	li	a4,500
     c9a:	02e6d6b3          	divu	a3,a3,a4
     c9e:	e000f737          	lui	a4,0xe000f
     ca2:	87b6                	mv	a5,a3
     ca4:	4801                	li	a6,0
     ca6:	cb1c                	sw	a5,16(a4)
     ca8:	01072a23          	sw	a6,20(a4) # e000f014 <__freertos_irq_stack_top+0xc000a014>
     cac:	e000f7b7          	lui	a5,0xe000f
     cb0:	473d                	li	a4,15
     cb2:	c398                	sw	a4,0(a5)
     cb4:	0001                	nop
     cb6:	4472                	lw	s0,28(sp)
     cb8:	6105                	addi	sp,sp,32
     cba:	8082                	ret

00000cbc <xPortStartScheduler>:
     cbc:	1101                	addi	sp,sp,-32
     cbe:	ce06                	sw	ra,28(sp)
     cc0:	cc22                	sw	s0,24(sp)
     cc2:	1000                	addi	s0,sp,32
     cc4:	fe042223          	sw	zero,-28(s0)
     cc8:	305027f3          	csrr	a5,mtvec
     ccc:	fef42223          	sw	a5,-28(s0)
     cd0:	fe442783          	lw	a5,-28(s0)
     cd4:	0037f713          	andi	a4,a5,3
     cd8:	478d                	li	a5,3
     cda:	02f70263          	beq	a4,a5,cfe <xPortStartScheduler+0x42>
     cde:	6789                	lui	a5,0x2
     ce0:	80078793          	addi	a5,a5,-2048 # 1800 <xTaskCreate+0x38>
     ce4:	30079073          	csrw	mstatus,a5
     ce8:	67a1                	lui	a5,0x8
     cea:	e4c78613          	addi	a2,a5,-436 # 7e4c <_read+0x6a>
     cee:	0b600593          	li	a1,182
     cf2:	67a1                	lui	a5,0x8
     cf4:	e8078513          	addi	a0,a5,-384 # 7e80 <_read+0x9e>
     cf8:	65d050ef          	jal	ra,6b54 <iprintf>
     cfc:	a001                	j	cfc <xPortStartScheduler+0x40>
     cfe:	8181a783          	lw	a5,-2024(gp) # 20000098 <xISRStackTop>
     d02:	8bbd                	andi	a5,a5,15
     d04:	c38d                	beqz	a5,d26 <xPortStartScheduler+0x6a>
     d06:	6789                	lui	a5,0x2
     d08:	80078793          	addi	a5,a5,-2048 # 1800 <xTaskCreate+0x38>
     d0c:	30079073          	csrw	mstatus,a5
     d10:	67a1                	lui	a5,0x8
     d12:	e4c78613          	addi	a2,a5,-436 # 7e4c <_read+0x6a>
     d16:	0bb00593          	li	a1,187
     d1a:	67a1                	lui	a5,0x8
     d1c:	e8078513          	addi	a0,a5,-384 # 7e80 <_read+0x9e>
     d20:	635050ef          	jal	ra,6b54 <iprintf>
     d24:	a001                	j	d24 <xPortStartScheduler+0x68>
     d26:	3739                	jal	c34 <vPortSetupTimerInterrupt>
     d28:	47b9                	li	a5,14
     d2a:	fef42423          	sw	a5,-24(s0)
     d2e:	fe842783          	lw	a5,-24(s0)
     d32:	8bfd                	andi	a5,a5,31
     d34:	4705                	li	a4,1
     d36:	00f716b3          	sll	a3,a4,a5
     d3a:	e000e737          	lui	a4,0xe000e
     d3e:	fe842783          	lw	a5,-24(s0)
     d42:	8395                	srli	a5,a5,0x5
     d44:	04078793          	addi	a5,a5,64
     d48:	078a                	slli	a5,a5,0x2
     d4a:	97ba                	add	a5,a5,a4
     d4c:	c394                	sw	a3,0(a5)
     d4e:	47b1                	li	a5,12
     d50:	fef42623          	sw	a5,-20(s0)
     d54:	fec42783          	lw	a5,-20(s0)
     d58:	8bfd                	andi	a5,a5,31
     d5a:	4705                	li	a4,1
     d5c:	00f716b3          	sll	a3,a4,a5
     d60:	e000e737          	lui	a4,0xe000e
     d64:	fec42783          	lw	a5,-20(s0)
     d68:	8395                	srli	a5,a5,0x5
     d6a:	04078793          	addi	a5,a5,64
     d6e:	078a                	slli	a5,a5,0x2
     d70:	97ba                	add	a5,a5,a4
     d72:	c394                	sw	a3,0(a5)
     d74:	200007b7          	lui	a5,0x20000
     d78:	0807a023          	sw	zero,128(a5) # 20000080 <uxCriticalNesting>
     d7c:	d84ff0ef          	jal	ra,300 <xPortStartFirstTask>
     d80:	4781                	li	a5,0
     d82:	853e                	mv	a0,a5
     d84:	40f2                	lw	ra,28(sp)
     d86:	4462                	lw	s0,24(sp)
     d88:	6105                	addi	sp,sp,32
     d8a:	8082                	ret

00000d8c <SysTick_Handler>:
     d8c:	711d                	addi	sp,sp,-96
     d8e:	ce86                	sw	ra,92(sp)
     d90:	cc96                	sw	t0,88(sp)
     d92:	ca9a                	sw	t1,84(sp)
     d94:	c89e                	sw	t2,80(sp)
     d96:	c6a2                	sw	s0,76(sp)
     d98:	c4aa                	sw	a0,72(sp)
     d9a:	c2ae                	sw	a1,68(sp)
     d9c:	c0b2                	sw	a2,64(sp)
     d9e:	de36                	sw	a3,60(sp)
     da0:	dc3a                	sw	a4,56(sp)
     da2:	da3e                	sw	a5,52(sp)
     da4:	d842                	sw	a6,48(sp)
     da6:	d646                	sw	a7,44(sp)
     da8:	d472                	sw	t3,40(sp)
     daa:	d276                	sw	t4,36(sp)
     dac:	d07a                	sw	t5,32(sp)
     dae:	ce7e                	sw	t6,28(sp)
     db0:	1080                	addi	s0,sp,96
     db2:	34011173          	csrrw	sp,mscratch,sp
     db6:	6789                	lui	a5,0x2
     db8:	80078793          	addi	a5,a5,-2048 # 1800 <xTaskCreate+0x38>
     dbc:	30079073          	csrw	mstatus,a5
     dc0:	e000f7b7          	lui	a5,0xe000f
     dc4:	0007a223          	sw	zero,4(a5) # e000f004 <__freertos_irq_stack_top+0xc000a004>
     dc8:	1a8010ef          	jal	ra,1f70 <xTaskIncrementTick>
     dcc:	87aa                	mv	a5,a0
     dce:	c785                	beqz	a5,df6 <SysTick_Handler+0x6a>
     dd0:	47b9                	li	a5,14
     dd2:	faf42623          	sw	a5,-84(s0)
     dd6:	fac42783          	lw	a5,-84(s0)
     dda:	8bfd                	andi	a5,a5,31
     ddc:	4705                	li	a4,1
     dde:	00f716b3          	sll	a3,a4,a5
     de2:	e000e737          	lui	a4,0xe000e
     de6:	fac42783          	lw	a5,-84(s0)
     dea:	8395                	srli	a5,a5,0x5
     dec:	08078793          	addi	a5,a5,128
     df0:	078a                	slli	a5,a5,0x2
     df2:	97ba                	add	a5,a5,a4
     df4:	c394                	sw	a3,0(a5)
     df6:	6789                	lui	a5,0x2
     df8:	88878793          	addi	a5,a5,-1912 # 1888 <prvInitialiseNewTask+0x14>
     dfc:	30079073          	csrw	mstatus,a5
     e00:	34011173          	csrrw	sp,mscratch,sp
     e04:	0001                	nop
     e06:	40f6                	lw	ra,92(sp)
     e08:	42e6                	lw	t0,88(sp)
     e0a:	4356                	lw	t1,84(sp)
     e0c:	43c6                	lw	t2,80(sp)
     e0e:	4436                	lw	s0,76(sp)
     e10:	4526                	lw	a0,72(sp)
     e12:	4596                	lw	a1,68(sp)
     e14:	4606                	lw	a2,64(sp)
     e16:	56f2                	lw	a3,60(sp)
     e18:	5762                	lw	a4,56(sp)
     e1a:	57d2                	lw	a5,52(sp)
     e1c:	5842                	lw	a6,48(sp)
     e1e:	58b2                	lw	a7,44(sp)
     e20:	5e22                	lw	t3,40(sp)
     e22:	5e92                	lw	t4,36(sp)
     e24:	5f02                	lw	t5,32(sp)
     e26:	4ff2                	lw	t6,28(sp)
     e28:	6125                	addi	sp,sp,96
     e2a:	30200073          	mret

00000e2e <vPortEnterCritical>:
     e2e:	1141                	addi	sp,sp,-16
     e30:	c622                	sw	s0,12(sp)
     e32:	0800                	addi	s0,sp,16
     e34:	6789                	lui	a5,0x2
     e36:	80078793          	addi	a5,a5,-2048 # 1800 <xTaskCreate+0x38>
     e3a:	30079073          	csrw	mstatus,a5
     e3e:	200007b7          	lui	a5,0x20000
     e42:	0807a783          	lw	a5,128(a5) # 20000080 <uxCriticalNesting>
     e46:	00178713          	addi	a4,a5,1
     e4a:	200007b7          	lui	a5,0x20000
     e4e:	08e7a023          	sw	a4,128(a5) # 20000080 <uxCriticalNesting>
     e52:	0001                	nop
     e54:	4432                	lw	s0,12(sp)
     e56:	0141                	addi	sp,sp,16
     e58:	8082                	ret

00000e5a <vPortExitCritical>:
     e5a:	1141                	addi	sp,sp,-16
     e5c:	c606                	sw	ra,12(sp)
     e5e:	c422                	sw	s0,8(sp)
     e60:	0800                	addi	s0,sp,16
     e62:	200007b7          	lui	a5,0x20000
     e66:	0807a783          	lw	a5,128(a5) # 20000080 <uxCriticalNesting>
     e6a:	e38d                	bnez	a5,e8c <vPortExitCritical+0x32>
     e6c:	6789                	lui	a5,0x2
     e6e:	80078793          	addi	a5,a5,-2048 # 1800 <xTaskCreate+0x38>
     e72:	30079073          	csrw	mstatus,a5
     e76:	67a1                	lui	a5,0x8
     e78:	e4c78613          	addi	a2,a5,-436 # 7e4c <_read+0x6a>
     e7c:	10300593          	li	a1,259
     e80:	67a1                	lui	a5,0x8
     e82:	e8078513          	addi	a0,a5,-384 # 7e80 <_read+0x9e>
     e86:	4cf050ef          	jal	ra,6b54 <iprintf>
     e8a:	a001                	j	e8a <vPortExitCritical+0x30>
     e8c:	200007b7          	lui	a5,0x20000
     e90:	0807a783          	lw	a5,128(a5) # 20000080 <uxCriticalNesting>
     e94:	fff78713          	addi	a4,a5,-1
     e98:	200007b7          	lui	a5,0x20000
     e9c:	08e7a023          	sw	a4,128(a5) # 20000080 <uxCriticalNesting>
     ea0:	200007b7          	lui	a5,0x20000
     ea4:	0807a783          	lw	a5,128(a5) # 20000080 <uxCriticalNesting>
     ea8:	e791                	bnez	a5,eb4 <vPortExitCritical+0x5a>
     eaa:	6789                	lui	a5,0x2
     eac:	88878793          	addi	a5,a5,-1912 # 1888 <prvInitialiseNewTask+0x14>
     eb0:	30079073          	csrw	mstatus,a5
     eb4:	0001                	nop
     eb6:	40b2                	lw	ra,12(sp)
     eb8:	4422                	lw	s0,8(sp)
     eba:	0141                	addi	sp,sp,16
     ebc:	8082                	ret

00000ebe <vListInitialise>:
     ebe:	1101                	addi	sp,sp,-32
     ec0:	ce22                	sw	s0,28(sp)
     ec2:	1000                	addi	s0,sp,32
     ec4:	fea42623          	sw	a0,-20(s0)
     ec8:	fec42783          	lw	a5,-20(s0)
     ecc:	00878713          	addi	a4,a5,8
     ed0:	fec42783          	lw	a5,-20(s0)
     ed4:	c3d8                	sw	a4,4(a5)
     ed6:	fec42783          	lw	a5,-20(s0)
     eda:	577d                	li	a4,-1
     edc:	c798                	sw	a4,8(a5)
     ede:	fec42783          	lw	a5,-20(s0)
     ee2:	00878713          	addi	a4,a5,8
     ee6:	fec42783          	lw	a5,-20(s0)
     eea:	c7d8                	sw	a4,12(a5)
     eec:	fec42783          	lw	a5,-20(s0)
     ef0:	00878713          	addi	a4,a5,8
     ef4:	fec42783          	lw	a5,-20(s0)
     ef8:	cb98                	sw	a4,16(a5)
     efa:	fec42783          	lw	a5,-20(s0)
     efe:	0007a023          	sw	zero,0(a5)
     f02:	0001                	nop
     f04:	4472                	lw	s0,28(sp)
     f06:	6105                	addi	sp,sp,32
     f08:	8082                	ret

00000f0a <vListInitialiseItem>:
     f0a:	1101                	addi	sp,sp,-32
     f0c:	ce22                	sw	s0,28(sp)
     f0e:	1000                	addi	s0,sp,32
     f10:	fea42623          	sw	a0,-20(s0)
     f14:	fec42783          	lw	a5,-20(s0)
     f18:	0007a823          	sw	zero,16(a5)
     f1c:	0001                	nop
     f1e:	4472                	lw	s0,28(sp)
     f20:	6105                	addi	sp,sp,32
     f22:	8082                	ret

00000f24 <vListInsert>:
     f24:	7179                	addi	sp,sp,-48
     f26:	d622                	sw	s0,44(sp)
     f28:	1800                	addi	s0,sp,48
     f2a:	fca42e23          	sw	a0,-36(s0)
     f2e:	fcb42c23          	sw	a1,-40(s0)
     f32:	fd842783          	lw	a5,-40(s0)
     f36:	439c                	lw	a5,0(a5)
     f38:	fef42423          	sw	a5,-24(s0)
     f3c:	fe842703          	lw	a4,-24(s0)
     f40:	57fd                	li	a5,-1
     f42:	00f71863          	bne	a4,a5,f52 <vListInsert+0x2e>
     f46:	fdc42783          	lw	a5,-36(s0)
     f4a:	4b9c                	lw	a5,16(a5)
     f4c:	fef42623          	sw	a5,-20(s0)
     f50:	a025                	j	f78 <vListInsert+0x54>
     f52:	fdc42783          	lw	a5,-36(s0)
     f56:	07a1                	addi	a5,a5,8
     f58:	fef42623          	sw	a5,-20(s0)
     f5c:	a031                	j	f68 <vListInsert+0x44>
     f5e:	fec42783          	lw	a5,-20(s0)
     f62:	43dc                	lw	a5,4(a5)
     f64:	fef42623          	sw	a5,-20(s0)
     f68:	fec42783          	lw	a5,-20(s0)
     f6c:	43dc                	lw	a5,4(a5)
     f6e:	439c                	lw	a5,0(a5)
     f70:	fe842703          	lw	a4,-24(s0)
     f74:	fef775e3          	bgeu	a4,a5,f5e <vListInsert+0x3a>
     f78:	fec42783          	lw	a5,-20(s0)
     f7c:	43d8                	lw	a4,4(a5)
     f7e:	fd842783          	lw	a5,-40(s0)
     f82:	c3d8                	sw	a4,4(a5)
     f84:	fd842783          	lw	a5,-40(s0)
     f88:	43dc                	lw	a5,4(a5)
     f8a:	fd842703          	lw	a4,-40(s0)
     f8e:	c798                	sw	a4,8(a5)
     f90:	fd842783          	lw	a5,-40(s0)
     f94:	fec42703          	lw	a4,-20(s0)
     f98:	c798                	sw	a4,8(a5)
     f9a:	fec42783          	lw	a5,-20(s0)
     f9e:	fd842703          	lw	a4,-40(s0)
     fa2:	c3d8                	sw	a4,4(a5)
     fa4:	fd842783          	lw	a5,-40(s0)
     fa8:	fdc42703          	lw	a4,-36(s0)
     fac:	cb98                	sw	a4,16(a5)
     fae:	fdc42783          	lw	a5,-36(s0)
     fb2:	439c                	lw	a5,0(a5)
     fb4:	00178713          	addi	a4,a5,1
     fb8:	fdc42783          	lw	a5,-36(s0)
     fbc:	c398                	sw	a4,0(a5)
     fbe:	0001                	nop
     fc0:	5432                	lw	s0,44(sp)
     fc2:	6145                	addi	sp,sp,48
     fc4:	8082                	ret

00000fc6 <uxListRemove>:
     fc6:	7179                	addi	sp,sp,-48
     fc8:	d622                	sw	s0,44(sp)
     fca:	1800                	addi	s0,sp,48
     fcc:	fca42e23          	sw	a0,-36(s0)
     fd0:	fdc42783          	lw	a5,-36(s0)
     fd4:	4b9c                	lw	a5,16(a5)
     fd6:	fef42623          	sw	a5,-20(s0)
     fda:	fdc42783          	lw	a5,-36(s0)
     fde:	43dc                	lw	a5,4(a5)
     fe0:	fdc42703          	lw	a4,-36(s0)
     fe4:	4718                	lw	a4,8(a4)
     fe6:	c798                	sw	a4,8(a5)
     fe8:	fdc42783          	lw	a5,-36(s0)
     fec:	479c                	lw	a5,8(a5)
     fee:	fdc42703          	lw	a4,-36(s0)
     ff2:	4358                	lw	a4,4(a4)
     ff4:	c3d8                	sw	a4,4(a5)
     ff6:	fec42783          	lw	a5,-20(s0)
     ffa:	43dc                	lw	a5,4(a5)
     ffc:	fdc42703          	lw	a4,-36(s0)
    1000:	00f71863          	bne	a4,a5,1010 <uxListRemove+0x4a>
    1004:	fdc42783          	lw	a5,-36(s0)
    1008:	4798                	lw	a4,8(a5)
    100a:	fec42783          	lw	a5,-20(s0)
    100e:	c3d8                	sw	a4,4(a5)
    1010:	fdc42783          	lw	a5,-36(s0)
    1014:	0007a823          	sw	zero,16(a5)
    1018:	fec42783          	lw	a5,-20(s0)
    101c:	439c                	lw	a5,0(a5)
    101e:	fff78713          	addi	a4,a5,-1
    1022:	fec42783          	lw	a5,-20(s0)
    1026:	c398                	sw	a4,0(a5)
    1028:	fec42783          	lw	a5,-20(s0)
    102c:	439c                	lw	a5,0(a5)
    102e:	853e                	mv	a0,a5
    1030:	5432                	lw	s0,44(sp)
    1032:	6145                	addi	sp,sp,48
    1034:	8082                	ret

00001036 <xQueueGenericReset>:
    1036:	7179                	addi	sp,sp,-48
    1038:	d606                	sw	ra,44(sp)
    103a:	d422                	sw	s0,40(sp)
    103c:	1800                	addi	s0,sp,48
    103e:	fca42e23          	sw	a0,-36(s0)
    1042:	fcb42c23          	sw	a1,-40(s0)
    1046:	4785                	li	a5,1
    1048:	fef42623          	sw	a5,-20(s0)
    104c:	fdc42783          	lw	a5,-36(s0)
    1050:	fef42423          	sw	a5,-24(s0)
    1054:	fe842783          	lw	a5,-24(s0)
    1058:	e38d                	bnez	a5,107a <xQueueGenericReset+0x44>
    105a:	6789                	lui	a5,0x2
    105c:	80078793          	addi	a5,a5,-2048 # 1800 <xTaskCreate+0x38>
    1060:	30079073          	csrw	mstatus,a5
    1064:	67a1                	lui	a5,0x8
    1066:	ea478613          	addi	a2,a5,-348 # 7ea4 <_read+0xc2>
    106a:	11000593          	li	a1,272
    106e:	67a1                	lui	a5,0x8
    1070:	ec878513          	addi	a0,a5,-312 # 7ec8 <_read+0xe6>
    1074:	2e1050ef          	jal	ra,6b54 <iprintf>
    1078:	a001                	j	1078 <xQueueGenericReset+0x42>
    107a:	fe842783          	lw	a5,-24(s0)
    107e:	0e078963          	beqz	a5,1170 <xQueueGenericReset+0x13a>
    1082:	fe842783          	lw	a5,-24(s0)
    1086:	5fdc                	lw	a5,60(a5)
    1088:	0e078463          	beqz	a5,1170 <xQueueGenericReset+0x13a>
    108c:	fe842783          	lw	a5,-24(s0)
    1090:	43b8                	lw	a4,64(a5)
    1092:	fe842783          	lw	a5,-24(s0)
    1096:	5fdc                	lw	a5,60(a5)
    1098:	4681                	li	a3,0
    109a:	02f737b3          	mulhu	a5,a4,a5
    109e:	c391                	beqz	a5,10a2 <xQueueGenericReset+0x6c>
    10a0:	4685                	li	a3,1
    10a2:	87b6                	mv	a5,a3
    10a4:	e7f1                	bnez	a5,1170 <xQueueGenericReset+0x13a>
    10a6:	3361                	jal	e2e <vPortEnterCritical>
    10a8:	fe842783          	lw	a5,-24(s0)
    10ac:	4398                	lw	a4,0(a5)
    10ae:	fe842783          	lw	a5,-24(s0)
    10b2:	5fd4                	lw	a3,60(a5)
    10b4:	fe842783          	lw	a5,-24(s0)
    10b8:	43bc                	lw	a5,64(a5)
    10ba:	02f687b3          	mul	a5,a3,a5
    10be:	973e                	add	a4,a4,a5
    10c0:	fe842783          	lw	a5,-24(s0)
    10c4:	c798                	sw	a4,8(a5)
    10c6:	fe842783          	lw	a5,-24(s0)
    10ca:	0207ac23          	sw	zero,56(a5)
    10ce:	fe842783          	lw	a5,-24(s0)
    10d2:	4398                	lw	a4,0(a5)
    10d4:	fe842783          	lw	a5,-24(s0)
    10d8:	c3d8                	sw	a4,4(a5)
    10da:	fe842783          	lw	a5,-24(s0)
    10de:	4398                	lw	a4,0(a5)
    10e0:	fe842783          	lw	a5,-24(s0)
    10e4:	5fdc                	lw	a5,60(a5)
    10e6:	fff78693          	addi	a3,a5,-1
    10ea:	fe842783          	lw	a5,-24(s0)
    10ee:	43bc                	lw	a5,64(a5)
    10f0:	02f687b3          	mul	a5,a3,a5
    10f4:	973e                	add	a4,a4,a5
    10f6:	fe842783          	lw	a5,-24(s0)
    10fa:	c7d8                	sw	a4,12(a5)
    10fc:	fe842783          	lw	a5,-24(s0)
    1100:	577d                	li	a4,-1
    1102:	04e78223          	sb	a4,68(a5)
    1106:	fe842783          	lw	a5,-24(s0)
    110a:	577d                	li	a4,-1
    110c:	04e782a3          	sb	a4,69(a5)
    1110:	fd842783          	lw	a5,-40(s0)
    1114:	e3a9                	bnez	a5,1156 <xQueueGenericReset+0x120>
    1116:	fe842783          	lw	a5,-24(s0)
    111a:	4b9c                	lw	a5,16(a5)
    111c:	cba1                	beqz	a5,116c <xQueueGenericReset+0x136>
    111e:	fe842783          	lw	a5,-24(s0)
    1122:	07c1                	addi	a5,a5,16
    1124:	853e                	mv	a0,a5
    1126:	352010ef          	jal	ra,2478 <xTaskRemoveFromEventList>
    112a:	87aa                	mv	a5,a0
    112c:	c3a1                	beqz	a5,116c <xQueueGenericReset+0x136>
    112e:	47b9                	li	a5,14
    1130:	fef42223          	sw	a5,-28(s0)
    1134:	fe442783          	lw	a5,-28(s0)
    1138:	8bfd                	andi	a5,a5,31
    113a:	4705                	li	a4,1
    113c:	00f716b3          	sll	a3,a4,a5
    1140:	e000e737          	lui	a4,0xe000e
    1144:	fe442783          	lw	a5,-28(s0)
    1148:	8395                	srli	a5,a5,0x5
    114a:	08078793          	addi	a5,a5,128
    114e:	078a                	slli	a5,a5,0x2
    1150:	97ba                	add	a5,a5,a4
    1152:	c394                	sw	a3,0(a5)
    1154:	a821                	j	116c <xQueueGenericReset+0x136>
    1156:	fe842783          	lw	a5,-24(s0)
    115a:	07c1                	addi	a5,a5,16
    115c:	853e                	mv	a0,a5
    115e:	3385                	jal	ebe <vListInitialise>
    1160:	fe842783          	lw	a5,-24(s0)
    1164:	02478793          	addi	a5,a5,36
    1168:	853e                	mv	a0,a5
    116a:	3b91                	jal	ebe <vListInitialise>
    116c:	31fd                	jal	e5a <vPortExitCritical>
    116e:	a019                	j	1174 <xQueueGenericReset+0x13e>
    1170:	fe042623          	sw	zero,-20(s0)
    1174:	fec42783          	lw	a5,-20(s0)
    1178:	e38d                	bnez	a5,119a <xQueueGenericReset+0x164>
    117a:	6789                	lui	a5,0x2
    117c:	80078793          	addi	a5,a5,-2048 # 1800 <xTaskCreate+0x38>
    1180:	30079073          	csrw	mstatus,a5
    1184:	67a1                	lui	a5,0x8
    1186:	ea478613          	addi	a2,a5,-348 # 7ea4 <_read+0xc2>
    118a:	14500593          	li	a1,325
    118e:	67a1                	lui	a5,0x8
    1190:	ec878513          	addi	a0,a5,-312 # 7ec8 <_read+0xe6>
    1194:	1c1050ef          	jal	ra,6b54 <iprintf>
    1198:	a001                	j	1198 <xQueueGenericReset+0x162>
    119a:	fec42783          	lw	a5,-20(s0)
    119e:	853e                	mv	a0,a5
    11a0:	50b2                	lw	ra,44(sp)
    11a2:	5422                	lw	s0,40(sp)
    11a4:	6145                	addi	sp,sp,48
    11a6:	8082                	ret

000011a8 <xQueueGenericCreate>:
    11a8:	7179                	addi	sp,sp,-48
    11aa:	d606                	sw	ra,44(sp)
    11ac:	d422                	sw	s0,40(sp)
    11ae:	1800                	addi	s0,sp,48
    11b0:	fca42e23          	sw	a0,-36(s0)
    11b4:	fcb42c23          	sw	a1,-40(s0)
    11b8:	87b2                	mv	a5,a2
    11ba:	fcf40ba3          	sb	a5,-41(s0)
    11be:	fe042623          	sw	zero,-20(s0)
    11c2:	fdc42783          	lw	a5,-36(s0)
    11c6:	c3c9                	beqz	a5,1248 <xQueueGenericCreate+0xa0>
    11c8:	4681                	li	a3,0
    11ca:	fd842703          	lw	a4,-40(s0)
    11ce:	fdc42783          	lw	a5,-36(s0)
    11d2:	02f737b3          	mulhu	a5,a4,a5
    11d6:	c391                	beqz	a5,11da <xQueueGenericCreate+0x32>
    11d8:	4685                	li	a3,1
    11da:	87b6                	mv	a5,a3
    11dc:	e7b5                	bnez	a5,1248 <xQueueGenericCreate+0xa0>
    11de:	fdc42703          	lw	a4,-36(s0)
    11e2:	fd842783          	lw	a5,-40(s0)
    11e6:	02f70733          	mul	a4,a4,a5
    11ea:	fb700793          	li	a5,-73
    11ee:	04e7ed63          	bltu	a5,a4,1248 <xQueueGenericCreate+0xa0>
    11f2:	fdc42703          	lw	a4,-36(s0)
    11f6:	fd842783          	lw	a5,-40(s0)
    11fa:	02f707b3          	mul	a5,a4,a5
    11fe:	fef42423          	sw	a5,-24(s0)
    1202:	fe842783          	lw	a5,-24(s0)
    1206:	04878793          	addi	a5,a5,72
    120a:	853e                	mv	a0,a5
    120c:	cd8ff0ef          	jal	ra,6e4 <pvPortMalloc>
    1210:	fea42623          	sw	a0,-20(s0)
    1214:	fec42783          	lw	a5,-20(s0)
    1218:	cbb9                	beqz	a5,126e <xQueueGenericCreate+0xc6>
    121a:	fec42783          	lw	a5,-20(s0)
    121e:	fef42223          	sw	a5,-28(s0)
    1222:	fe442783          	lw	a5,-28(s0)
    1226:	04878793          	addi	a5,a5,72
    122a:	fef42223          	sw	a5,-28(s0)
    122e:	fd744783          	lbu	a5,-41(s0)
    1232:	fec42703          	lw	a4,-20(s0)
    1236:	86be                	mv	a3,a5
    1238:	fe442603          	lw	a2,-28(s0)
    123c:	fd842583          	lw	a1,-40(s0)
    1240:	fdc42503          	lw	a0,-36(s0)
    1244:	2825                	jal	127c <prvInitialiseNewQueue>
    1246:	a025                	j	126e <xQueueGenericCreate+0xc6>
    1248:	fec42783          	lw	a5,-20(s0)
    124c:	e38d                	bnez	a5,126e <xQueueGenericCreate+0xc6>
    124e:	6789                	lui	a5,0x2
    1250:	80078793          	addi	a5,a5,-2048 # 1800 <xTaskCreate+0x38>
    1254:	30079073          	csrw	mstatus,a5
    1258:	67a1                	lui	a5,0x8
    125a:	ea478613          	addi	a2,a5,-348 # 7ea4 <_read+0xc2>
    125e:	1c600593          	li	a1,454
    1262:	67a1                	lui	a5,0x8
    1264:	ec878513          	addi	a0,a5,-312 # 7ec8 <_read+0xe6>
    1268:	0ed050ef          	jal	ra,6b54 <iprintf>
    126c:	a001                	j	126c <xQueueGenericCreate+0xc4>
    126e:	fec42783          	lw	a5,-20(s0)
    1272:	853e                	mv	a0,a5
    1274:	50b2                	lw	ra,44(sp)
    1276:	5422                	lw	s0,40(sp)
    1278:	6145                	addi	sp,sp,48
    127a:	8082                	ret

0000127c <prvInitialiseNewQueue>:
    127c:	7179                	addi	sp,sp,-48
    127e:	d606                	sw	ra,44(sp)
    1280:	d422                	sw	s0,40(sp)
    1282:	1800                	addi	s0,sp,48
    1284:	fea42623          	sw	a0,-20(s0)
    1288:	feb42423          	sw	a1,-24(s0)
    128c:	fec42223          	sw	a2,-28(s0)
    1290:	87b6                	mv	a5,a3
    1292:	fce42e23          	sw	a4,-36(s0)
    1296:	fef401a3          	sb	a5,-29(s0)
    129a:	fe842783          	lw	a5,-24(s0)
    129e:	e799                	bnez	a5,12ac <prvInitialiseNewQueue+0x30>
    12a0:	fdc42783          	lw	a5,-36(s0)
    12a4:	fdc42703          	lw	a4,-36(s0)
    12a8:	c398                	sw	a4,0(a5)
    12aa:	a031                	j	12b6 <prvInitialiseNewQueue+0x3a>
    12ac:	fdc42783          	lw	a5,-36(s0)
    12b0:	fe442703          	lw	a4,-28(s0)
    12b4:	c398                	sw	a4,0(a5)
    12b6:	fdc42783          	lw	a5,-36(s0)
    12ba:	fec42703          	lw	a4,-20(s0)
    12be:	dfd8                	sw	a4,60(a5)
    12c0:	fdc42783          	lw	a5,-36(s0)
    12c4:	fe842703          	lw	a4,-24(s0)
    12c8:	c3b8                	sw	a4,64(a5)
    12ca:	4585                	li	a1,1
    12cc:	fdc42503          	lw	a0,-36(s0)
    12d0:	339d                	jal	1036 <xQueueGenericReset>
    12d2:	0001                	nop
    12d4:	50b2                	lw	ra,44(sp)
    12d6:	5422                	lw	s0,40(sp)
    12d8:	6145                	addi	sp,sp,48
    12da:	8082                	ret

000012dc <xQueueReceive>:
    12dc:	7139                	addi	sp,sp,-64
    12de:	de06                	sw	ra,60(sp)
    12e0:	dc22                	sw	s0,56(sp)
    12e2:	0080                	addi	s0,sp,64
    12e4:	fca42623          	sw	a0,-52(s0)
    12e8:	fcb42423          	sw	a1,-56(s0)
    12ec:	fcc42223          	sw	a2,-60(s0)
    12f0:	fe042623          	sw	zero,-20(s0)
    12f4:	fcc42783          	lw	a5,-52(s0)
    12f8:	fef42423          	sw	a5,-24(s0)
    12fc:	fe842783          	lw	a5,-24(s0)
    1300:	e38d                	bnez	a5,1322 <xQueueReceive+0x46>
    1302:	6789                	lui	a5,0x2
    1304:	80078793          	addi	a5,a5,-2048 # 1800 <xTaskCreate+0x38>
    1308:	30079073          	csrw	mstatus,a5
    130c:	67a1                	lui	a5,0x8
    130e:	ea478613          	addi	a2,a5,-348 # 7ea4 <_read+0xc2>
    1312:	55100593          	li	a1,1361
    1316:	67a1                	lui	a5,0x8
    1318:	ec878513          	addi	a0,a5,-312 # 7ec8 <_read+0xe6>
    131c:	039050ef          	jal	ra,6b54 <iprintf>
    1320:	a001                	j	1320 <xQueueReceive+0x44>
    1322:	fc842783          	lw	a5,-56(s0)
    1326:	e789                	bnez	a5,1330 <xQueueReceive+0x54>
    1328:	fe842783          	lw	a5,-24(s0)
    132c:	43bc                	lw	a5,64(a5)
    132e:	e399                	bnez	a5,1334 <xQueueReceive+0x58>
    1330:	4785                	li	a5,1
    1332:	a011                	j	1336 <xQueueReceive+0x5a>
    1334:	4781                	li	a5,0
    1336:	e38d                	bnez	a5,1358 <xQueueReceive+0x7c>
    1338:	6789                	lui	a5,0x2
    133a:	80078793          	addi	a5,a5,-2048 # 1800 <xTaskCreate+0x38>
    133e:	30079073          	csrw	mstatus,a5
    1342:	67a1                	lui	a5,0x8
    1344:	ea478613          	addi	a2,a5,-348 # 7ea4 <_read+0xc2>
    1348:	55500593          	li	a1,1365
    134c:	67a1                	lui	a5,0x8
    134e:	ec878513          	addi	a0,a5,-312 # 7ec8 <_read+0xe6>
    1352:	003050ef          	jal	ra,6b54 <iprintf>
    1356:	a001                	j	1356 <xQueueReceive+0x7a>
    1358:	67c010ef          	jal	ra,29d4 <xTaskGetSchedulerState>
    135c:	87aa                	mv	a5,a0
    135e:	e781                	bnez	a5,1366 <xQueueReceive+0x8a>
    1360:	fc442783          	lw	a5,-60(s0)
    1364:	e399                	bnez	a5,136a <xQueueReceive+0x8e>
    1366:	4785                	li	a5,1
    1368:	a011                	j	136c <xQueueReceive+0x90>
    136a:	4781                	li	a5,0
    136c:	e38d                	bnez	a5,138e <xQueueReceive+0xb2>
    136e:	6789                	lui	a5,0x2
    1370:	80078793          	addi	a5,a5,-2048 # 1800 <xTaskCreate+0x38>
    1374:	30079073          	csrw	mstatus,a5
    1378:	67a1                	lui	a5,0x8
    137a:	ea478613          	addi	a2,a5,-348 # 7ea4 <_read+0xc2>
    137e:	55a00593          	li	a1,1370
    1382:	67a1                	lui	a5,0x8
    1384:	ec878513          	addi	a0,a5,-312 # 7ec8 <_read+0xe6>
    1388:	7cc050ef          	jal	ra,6b54 <iprintf>
    138c:	a001                	j	138c <xQueueReceive+0xb0>
    138e:	3445                	jal	e2e <vPortEnterCritical>
    1390:	fe842783          	lw	a5,-24(s0)
    1394:	5f9c                	lw	a5,56(a5)
    1396:	fef42223          	sw	a5,-28(s0)
    139a:	fe442783          	lw	a5,-28(s0)
    139e:	cfb9                	beqz	a5,13fc <xQueueReceive+0x120>
    13a0:	fc842583          	lw	a1,-56(s0)
    13a4:	fe842503          	lw	a0,-24(s0)
    13a8:	2a81                	jal	14f8 <prvCopyDataFromQueue>
    13aa:	fe442783          	lw	a5,-28(s0)
    13ae:	fff78713          	addi	a4,a5,-1
    13b2:	fe842783          	lw	a5,-24(s0)
    13b6:	df98                	sw	a4,56(a5)
    13b8:	fe842783          	lw	a5,-24(s0)
    13bc:	4b9c                	lw	a5,16(a5)
    13be:	cf85                	beqz	a5,13f6 <xQueueReceive+0x11a>
    13c0:	fe842783          	lw	a5,-24(s0)
    13c4:	07c1                	addi	a5,a5,16
    13c6:	853e                	mv	a0,a5
    13c8:	0b0010ef          	jal	ra,2478 <xTaskRemoveFromEventList>
    13cc:	87aa                	mv	a5,a0
    13ce:	c785                	beqz	a5,13f6 <xQueueReceive+0x11a>
    13d0:	47b9                	li	a5,14
    13d2:	fef42023          	sw	a5,-32(s0)
    13d6:	fe042783          	lw	a5,-32(s0)
    13da:	8bfd                	andi	a5,a5,31
    13dc:	4705                	li	a4,1
    13de:	00f716b3          	sll	a3,a4,a5
    13e2:	e000e737          	lui	a4,0xe000e
    13e6:	fe042783          	lw	a5,-32(s0)
    13ea:	8395                	srli	a5,a5,0x5
    13ec:	08078793          	addi	a5,a5,128
    13f0:	078a                	slli	a5,a5,0x2
    13f2:	97ba                	add	a5,a5,a4
    13f4:	c394                	sw	a3,0(a5)
    13f6:	3495                	jal	e5a <vPortExitCritical>
    13f8:	4785                	li	a5,1
    13fa:	a8d5                	j	14ee <xQueueReceive+0x212>
    13fc:	fc442783          	lw	a5,-60(s0)
    1400:	e781                	bnez	a5,1408 <xQueueReceive+0x12c>
    1402:	3ca1                	jal	e5a <vPortExitCritical>
    1404:	4781                	li	a5,0
    1406:	a0e5                	j	14ee <xQueueReceive+0x212>
    1408:	fec42783          	lw	a5,-20(s0)
    140c:	eb89                	bnez	a5,141e <xQueueReceive+0x142>
    140e:	fd440793          	addi	a5,s0,-44
    1412:	853e                	mv	a0,a5
    1414:	2c0010ef          	jal	ra,26d4 <vTaskInternalSetTimeOutState>
    1418:	4785                	li	a5,1
    141a:	fef42623          	sw	a5,-20(s0)
    141e:	3c35                	jal	e5a <vPortExitCritical>
    1420:	069000ef          	jal	ra,1c88 <vTaskSuspendAll>
    1424:	3429                	jal	e2e <vPortEnterCritical>
    1426:	fe842783          	lw	a5,-24(s0)
    142a:	0447c783          	lbu	a5,68(a5)
    142e:	01879713          	slli	a4,a5,0x18
    1432:	8761                	srai	a4,a4,0x18
    1434:	57fd                	li	a5,-1
    1436:	00f71663          	bne	a4,a5,1442 <xQueueReceive+0x166>
    143a:	fe842783          	lw	a5,-24(s0)
    143e:	04078223          	sb	zero,68(a5)
    1442:	fe842783          	lw	a5,-24(s0)
    1446:	0457c783          	lbu	a5,69(a5)
    144a:	01879713          	slli	a4,a5,0x18
    144e:	8761                	srai	a4,a4,0x18
    1450:	57fd                	li	a5,-1
    1452:	00f71663          	bne	a4,a5,145e <xQueueReceive+0x182>
    1456:	fe842783          	lw	a5,-24(s0)
    145a:	040782a3          	sb	zero,69(a5)
    145e:	3af5                	jal	e5a <vPortExitCritical>
    1460:	fc440713          	addi	a4,s0,-60
    1464:	fd440793          	addi	a5,s0,-44
    1468:	85ba                	mv	a1,a4
    146a:	853e                	mv	a0,a5
    146c:	296010ef          	jal	ra,2702 <xTaskCheckForTimeOut>
    1470:	87aa                	mv	a5,a0
    1472:	e3b5                	bnez	a5,14d6 <xQueueReceive+0x1fa>
    1474:	fe842503          	lw	a0,-24(s0)
    1478:	227d                	jal	1626 <prvIsQueueEmpty>
    147a:	87aa                	mv	a5,a0
    147c:	c7b9                	beqz	a5,14ca <xQueueReceive+0x1ee>
    147e:	fe842783          	lw	a5,-24(s0)
    1482:	02478793          	addi	a5,a5,36
    1486:	fc442703          	lw	a4,-60(s0)
    148a:	85ba                	mv	a1,a4
    148c:	853e                	mv	a0,a5
    148e:	6c7000ef          	jal	ra,2354 <vTaskPlaceOnEventList>
    1492:	fe842503          	lw	a0,-24(s0)
    1496:	20f1                	jal	1562 <prvUnlockQueue>
    1498:	013000ef          	jal	ra,1caa <xTaskResumeAll>
    149c:	87aa                	mv	a5,a0
    149e:	ee0798e3          	bnez	a5,138e <xQueueReceive+0xb2>
    14a2:	47b9                	li	a5,14
    14a4:	fcf42e23          	sw	a5,-36(s0)
    14a8:	fdc42783          	lw	a5,-36(s0)
    14ac:	8bfd                	andi	a5,a5,31
    14ae:	4705                	li	a4,1
    14b0:	00f716b3          	sll	a3,a4,a5
    14b4:	e000e737          	lui	a4,0xe000e
    14b8:	fdc42783          	lw	a5,-36(s0)
    14bc:	8395                	srli	a5,a5,0x5
    14be:	08078793          	addi	a5,a5,128
    14c2:	078a                	slli	a5,a5,0x2
    14c4:	97ba                	add	a5,a5,a4
    14c6:	c394                	sw	a3,0(a5)
    14c8:	b5d9                	j	138e <xQueueReceive+0xb2>
    14ca:	fe842503          	lw	a0,-24(s0)
    14ce:	2851                	jal	1562 <prvUnlockQueue>
    14d0:	7da000ef          	jal	ra,1caa <xTaskResumeAll>
    14d4:	bd6d                	j	138e <xQueueReceive+0xb2>
    14d6:	fe842503          	lw	a0,-24(s0)
    14da:	2061                	jal	1562 <prvUnlockQueue>
    14dc:	7ce000ef          	jal	ra,1caa <xTaskResumeAll>
    14e0:	fe842503          	lw	a0,-24(s0)
    14e4:	2289                	jal	1626 <prvIsQueueEmpty>
    14e6:	87aa                	mv	a5,a0
    14e8:	ea0783e3          	beqz	a5,138e <xQueueReceive+0xb2>
    14ec:	4781                	li	a5,0
    14ee:	853e                	mv	a0,a5
    14f0:	50f2                	lw	ra,60(sp)
    14f2:	5462                	lw	s0,56(sp)
    14f4:	6121                	addi	sp,sp,64
    14f6:	8082                	ret

000014f8 <prvCopyDataFromQueue>:
    14f8:	1101                	addi	sp,sp,-32
    14fa:	ce06                	sw	ra,28(sp)
    14fc:	cc22                	sw	s0,24(sp)
    14fe:	1000                	addi	s0,sp,32
    1500:	fea42623          	sw	a0,-20(s0)
    1504:	feb42423          	sw	a1,-24(s0)
    1508:	fec42783          	lw	a5,-20(s0)
    150c:	43bc                	lw	a5,64(a5)
    150e:	c7a9                	beqz	a5,1558 <prvCopyDataFromQueue+0x60>
    1510:	fec42783          	lw	a5,-20(s0)
    1514:	47d8                	lw	a4,12(a5)
    1516:	fec42783          	lw	a5,-20(s0)
    151a:	43bc                	lw	a5,64(a5)
    151c:	973e                	add	a4,a4,a5
    151e:	fec42783          	lw	a5,-20(s0)
    1522:	c7d8                	sw	a4,12(a5)
    1524:	fec42783          	lw	a5,-20(s0)
    1528:	47d8                	lw	a4,12(a5)
    152a:	fec42783          	lw	a5,-20(s0)
    152e:	479c                	lw	a5,8(a5)
    1530:	00f76863          	bltu	a4,a5,1540 <prvCopyDataFromQueue+0x48>
    1534:	fec42783          	lw	a5,-20(s0)
    1538:	4398                	lw	a4,0(a5)
    153a:	fec42783          	lw	a5,-20(s0)
    153e:	c7d8                	sw	a4,12(a5)
    1540:	fec42783          	lw	a5,-20(s0)
    1544:	47d8                	lw	a4,12(a5)
    1546:	fec42783          	lw	a5,-20(s0)
    154a:	43bc                	lw	a5,64(a5)
    154c:	863e                	mv	a2,a5
    154e:	85ba                	mv	a1,a4
    1550:	fe842503          	lw	a0,-24(s0)
    1554:	54a050ef          	jal	ra,6a9e <memcpy>
    1558:	0001                	nop
    155a:	40f2                	lw	ra,28(sp)
    155c:	4462                	lw	s0,24(sp)
    155e:	6105                	addi	sp,sp,32
    1560:	8082                	ret

00001562 <prvUnlockQueue>:
    1562:	7179                	addi	sp,sp,-48
    1564:	d606                	sw	ra,44(sp)
    1566:	d422                	sw	s0,40(sp)
    1568:	1800                	addi	s0,sp,48
    156a:	fca42e23          	sw	a0,-36(s0)
    156e:	8c1ff0ef          	jal	ra,e2e <vPortEnterCritical>
    1572:	fdc42783          	lw	a5,-36(s0)
    1576:	0457c783          	lbu	a5,69(a5)
    157a:	fef407a3          	sb	a5,-17(s0)
    157e:	a03d                	j	15ac <prvUnlockQueue+0x4a>
    1580:	fdc42783          	lw	a5,-36(s0)
    1584:	53dc                	lw	a5,36(a5)
    1586:	cb85                	beqz	a5,15b6 <prvUnlockQueue+0x54>
    1588:	fdc42783          	lw	a5,-36(s0)
    158c:	02478793          	addi	a5,a5,36
    1590:	853e                	mv	a0,a5
    1592:	6e7000ef          	jal	ra,2478 <xTaskRemoveFromEventList>
    1596:	87aa                	mv	a5,a0
    1598:	c399                	beqz	a5,159e <prvUnlockQueue+0x3c>
    159a:	29a010ef          	jal	ra,2834 <vTaskMissedYield>
    159e:	fef44783          	lbu	a5,-17(s0)
    15a2:	17fd                	addi	a5,a5,-1
    15a4:	0ff7f793          	andi	a5,a5,255
    15a8:	fef407a3          	sb	a5,-17(s0)
    15ac:	fef40783          	lb	a5,-17(s0)
    15b0:	fcf048e3          	bgtz	a5,1580 <prvUnlockQueue+0x1e>
    15b4:	a011                	j	15b8 <prvUnlockQueue+0x56>
    15b6:	0001                	nop
    15b8:	fdc42783          	lw	a5,-36(s0)
    15bc:	577d                	li	a4,-1
    15be:	04e782a3          	sb	a4,69(a5)
    15c2:	899ff0ef          	jal	ra,e5a <vPortExitCritical>
    15c6:	869ff0ef          	jal	ra,e2e <vPortEnterCritical>
    15ca:	fdc42783          	lw	a5,-36(s0)
    15ce:	0447c783          	lbu	a5,68(a5)
    15d2:	fef40723          	sb	a5,-18(s0)
    15d6:	a035                	j	1602 <prvUnlockQueue+0xa0>
    15d8:	fdc42783          	lw	a5,-36(s0)
    15dc:	4b9c                	lw	a5,16(a5)
    15de:	c79d                	beqz	a5,160c <prvUnlockQueue+0xaa>
    15e0:	fdc42783          	lw	a5,-36(s0)
    15e4:	07c1                	addi	a5,a5,16
    15e6:	853e                	mv	a0,a5
    15e8:	691000ef          	jal	ra,2478 <xTaskRemoveFromEventList>
    15ec:	87aa                	mv	a5,a0
    15ee:	c399                	beqz	a5,15f4 <prvUnlockQueue+0x92>
    15f0:	244010ef          	jal	ra,2834 <vTaskMissedYield>
    15f4:	fee44783          	lbu	a5,-18(s0)
    15f8:	17fd                	addi	a5,a5,-1
    15fa:	0ff7f793          	andi	a5,a5,255
    15fe:	fef40723          	sb	a5,-18(s0)
    1602:	fee40783          	lb	a5,-18(s0)
    1606:	fcf049e3          	bgtz	a5,15d8 <prvUnlockQueue+0x76>
    160a:	a011                	j	160e <prvUnlockQueue+0xac>
    160c:	0001                	nop
    160e:	fdc42783          	lw	a5,-36(s0)
    1612:	577d                	li	a4,-1
    1614:	04e78223          	sb	a4,68(a5)
    1618:	843ff0ef          	jal	ra,e5a <vPortExitCritical>
    161c:	0001                	nop
    161e:	50b2                	lw	ra,44(sp)
    1620:	5422                	lw	s0,40(sp)
    1622:	6145                	addi	sp,sp,48
    1624:	8082                	ret

00001626 <prvIsQueueEmpty>:
    1626:	7179                	addi	sp,sp,-48
    1628:	d606                	sw	ra,44(sp)
    162a:	d422                	sw	s0,40(sp)
    162c:	1800                	addi	s0,sp,48
    162e:	fca42e23          	sw	a0,-36(s0)
    1632:	ffcff0ef          	jal	ra,e2e <vPortEnterCritical>
    1636:	fdc42783          	lw	a5,-36(s0)
    163a:	5f9c                	lw	a5,56(a5)
    163c:	e789                	bnez	a5,1646 <prvIsQueueEmpty+0x20>
    163e:	4785                	li	a5,1
    1640:	fef42623          	sw	a5,-20(s0)
    1644:	a019                	j	164a <prvIsQueueEmpty+0x24>
    1646:	fe042623          	sw	zero,-20(s0)
    164a:	811ff0ef          	jal	ra,e5a <vPortExitCritical>
    164e:	fec42783          	lw	a5,-20(s0)
    1652:	853e                	mv	a0,a5
    1654:	50b2                	lw	ra,44(sp)
    1656:	5422                	lw	s0,40(sp)
    1658:	6145                	addi	sp,sp,48
    165a:	8082                	ret

0000165c <vQueueAddToRegistry>:
    165c:	7179                	addi	sp,sp,-48
    165e:	d606                	sw	ra,44(sp)
    1660:	d422                	sw	s0,40(sp)
    1662:	1800                	addi	s0,sp,48
    1664:	fca42e23          	sw	a0,-36(s0)
    1668:	fcb42c23          	sw	a1,-40(s0)
    166c:	fdc42783          	lw	a5,-36(s0)
    1670:	e395                	bnez	a5,1694 <vQueueAddToRegistry+0x38>
    1672:	6789                	lui	a5,0x2
    1674:	80078793          	addi	a5,a5,-2048 # 1800 <xTaskCreate+0x38>
    1678:	30079073          	csrw	mstatus,a5
    167c:	67a1                	lui	a5,0x8
    167e:	ea478613          	addi	a2,a5,-348 # 7ea4 <_read+0xc2>
    1682:	6785                	lui	a5,0x1
    1684:	ac878593          	addi	a1,a5,-1336 # ac8 <prvHeapInit+0x98>
    1688:	67a1                	lui	a5,0x8
    168a:	ec878513          	addi	a0,a5,-312 # 7ec8 <_read+0xe6>
    168e:	4c6050ef          	jal	ra,6b54 <iprintf>
    1692:	a001                	j	1692 <vQueueAddToRegistry+0x36>
    1694:	fe042423          	sw	zero,-24(s0)
    1698:	fd842783          	lw	a5,-40(s0)
    169c:	cfbd                	beqz	a5,171a <vQueueAddToRegistry+0xbe>
    169e:	fe042623          	sw	zero,-20(s0)
    16a2:	a0bd                	j	1710 <vQueueAddToRegistry+0xb4>
    16a4:	20003737          	lui	a4,0x20003
    16a8:	fec42783          	lw	a5,-20(s0)
    16ac:	15470713          	addi	a4,a4,340 # 20003154 <xQueueRegistry>
    16b0:	078e                	slli	a5,a5,0x3
    16b2:	97ba                	add	a5,a5,a4
    16b4:	43dc                	lw	a5,4(a5)
    16b6:	fdc42703          	lw	a4,-36(s0)
    16ba:	00f71e63          	bne	a4,a5,16d6 <vQueueAddToRegistry+0x7a>
    16be:	fec42783          	lw	a5,-20(s0)
    16c2:	00379713          	slli	a4,a5,0x3
    16c6:	200037b7          	lui	a5,0x20003
    16ca:	15478793          	addi	a5,a5,340 # 20003154 <xQueueRegistry>
    16ce:	97ba                	add	a5,a5,a4
    16d0:	fef42423          	sw	a5,-24(s0)
    16d4:	a099                	j	171a <vQueueAddToRegistry+0xbe>
    16d6:	fe842783          	lw	a5,-24(s0)
    16da:	e795                	bnez	a5,1706 <vQueueAddToRegistry+0xaa>
    16dc:	200037b7          	lui	a5,0x20003
    16e0:	fec42703          	lw	a4,-20(s0)
    16e4:	070e                	slli	a4,a4,0x3
    16e6:	15478793          	addi	a5,a5,340 # 20003154 <xQueueRegistry>
    16ea:	97ba                	add	a5,a5,a4
    16ec:	439c                	lw	a5,0(a5)
    16ee:	ef81                	bnez	a5,1706 <vQueueAddToRegistry+0xaa>
    16f0:	fec42783          	lw	a5,-20(s0)
    16f4:	00379713          	slli	a4,a5,0x3
    16f8:	200037b7          	lui	a5,0x20003
    16fc:	15478793          	addi	a5,a5,340 # 20003154 <xQueueRegistry>
    1700:	97ba                	add	a5,a5,a4
    1702:	fef42423          	sw	a5,-24(s0)
    1706:	fec42783          	lw	a5,-20(s0)
    170a:	0785                	addi	a5,a5,1
    170c:	fef42623          	sw	a5,-20(s0)
    1710:	fec42703          	lw	a4,-20(s0)
    1714:	479d                	li	a5,7
    1716:	f8e7f7e3          	bgeu	a5,a4,16a4 <vQueueAddToRegistry+0x48>
    171a:	fe842783          	lw	a5,-24(s0)
    171e:	cb99                	beqz	a5,1734 <vQueueAddToRegistry+0xd8>
    1720:	fe842783          	lw	a5,-24(s0)
    1724:	fd842703          	lw	a4,-40(s0)
    1728:	c398                	sw	a4,0(a5)
    172a:	fe842783          	lw	a5,-24(s0)
    172e:	fdc42703          	lw	a4,-36(s0)
    1732:	c3d8                	sw	a4,4(a5)
    1734:	0001                	nop
    1736:	50b2                	lw	ra,44(sp)
    1738:	5422                	lw	s0,40(sp)
    173a:	6145                	addi	sp,sp,48
    173c:	8082                	ret

0000173e <vQueueWaitForMessageRestricted>:
    173e:	7179                	addi	sp,sp,-48
    1740:	d606                	sw	ra,44(sp)
    1742:	d422                	sw	s0,40(sp)
    1744:	1800                	addi	s0,sp,48
    1746:	fca42e23          	sw	a0,-36(s0)
    174a:	fcb42c23          	sw	a1,-40(s0)
    174e:	fcc42a23          	sw	a2,-44(s0)
    1752:	fdc42783          	lw	a5,-36(s0)
    1756:	fef42623          	sw	a5,-20(s0)
    175a:	ed4ff0ef          	jal	ra,e2e <vPortEnterCritical>
    175e:	fec42783          	lw	a5,-20(s0)
    1762:	0447c783          	lbu	a5,68(a5)
    1766:	01879713          	slli	a4,a5,0x18
    176a:	8761                	srai	a4,a4,0x18
    176c:	57fd                	li	a5,-1
    176e:	00f71663          	bne	a4,a5,177a <vQueueWaitForMessageRestricted+0x3c>
    1772:	fec42783          	lw	a5,-20(s0)
    1776:	04078223          	sb	zero,68(a5)
    177a:	fec42783          	lw	a5,-20(s0)
    177e:	0457c783          	lbu	a5,69(a5)
    1782:	01879713          	slli	a4,a5,0x18
    1786:	8761                	srai	a4,a4,0x18
    1788:	57fd                	li	a5,-1
    178a:	00f71663          	bne	a4,a5,1796 <vQueueWaitForMessageRestricted+0x58>
    178e:	fec42783          	lw	a5,-20(s0)
    1792:	040782a3          	sb	zero,69(a5)
    1796:	ec4ff0ef          	jal	ra,e5a <vPortExitCritical>
    179a:	fec42783          	lw	a5,-20(s0)
    179e:	5f9c                	lw	a5,56(a5)
    17a0:	ef81                	bnez	a5,17b8 <vQueueWaitForMessageRestricted+0x7a>
    17a2:	fec42783          	lw	a5,-20(s0)
    17a6:	02478793          	addi	a5,a5,36
    17aa:	fd442603          	lw	a2,-44(s0)
    17ae:	fd842583          	lw	a1,-40(s0)
    17b2:	853e                	mv	a0,a5
    17b4:	3ff000ef          	jal	ra,23b2 <vTaskPlaceOnEventListRestricted>
    17b8:	fec42503          	lw	a0,-20(s0)
    17bc:	335d                	jal	1562 <prvUnlockQueue>
    17be:	0001                	nop
    17c0:	50b2                	lw	ra,44(sp)
    17c2:	5422                	lw	s0,40(sp)
    17c4:	6145                	addi	sp,sp,48
    17c6:	8082                	ret

000017c8 <xTaskCreate>:
    17c8:	7139                	addi	sp,sp,-64
    17ca:	de06                	sw	ra,60(sp)
    17cc:	dc22                	sw	s0,56(sp)
    17ce:	0080                	addi	s0,sp,64
    17d0:	fca42e23          	sw	a0,-36(s0)
    17d4:	fcb42c23          	sw	a1,-40(s0)
    17d8:	fcd42823          	sw	a3,-48(s0)
    17dc:	fce42623          	sw	a4,-52(s0)
    17e0:	fcf42423          	sw	a5,-56(s0)
    17e4:	87b2                	mv	a5,a2
    17e6:	fcf41b23          	sh	a5,-42(s0)
    17ea:	fd645783          	lhu	a5,-42(s0)
    17ee:	078a                	slli	a5,a5,0x2
    17f0:	853e                	mv	a0,a5
    17f2:	ef3fe0ef          	jal	ra,6e4 <pvPortMalloc>
    17f6:	fea42223          	sw	a0,-28(s0)
    17fa:	fe442783          	lw	a5,-28(s0)
    17fe:	c78d                	beqz	a5,1828 <xTaskCreate+0x60>
    1800:	06400513          	li	a0,100
    1804:	ee1fe0ef          	jal	ra,6e4 <pvPortMalloc>
    1808:	fea42623          	sw	a0,-20(s0)
    180c:	fec42783          	lw	a5,-20(s0)
    1810:	c799                	beqz	a5,181e <xTaskCreate+0x56>
    1812:	fec42783          	lw	a5,-20(s0)
    1816:	fe442703          	lw	a4,-28(s0)
    181a:	db98                	sw	a4,48(a5)
    181c:	a801                	j	182c <xTaskCreate+0x64>
    181e:	fe442503          	lw	a0,-28(s0)
    1822:	908ff0ef          	jal	ra,92a <vPortFree>
    1826:	a019                	j	182c <xTaskCreate+0x64>
    1828:	fe042623          	sw	zero,-20(s0)
    182c:	fec42783          	lw	a5,-20(s0)
    1830:	cb85                	beqz	a5,1860 <xTaskCreate+0x98>
    1832:	fd645603          	lhu	a2,-42(s0)
    1836:	4881                	li	a7,0
    1838:	fec42803          	lw	a6,-20(s0)
    183c:	fc842783          	lw	a5,-56(s0)
    1840:	fcc42703          	lw	a4,-52(s0)
    1844:	fd042683          	lw	a3,-48(s0)
    1848:	fd842583          	lw	a1,-40(s0)
    184c:	fdc42503          	lw	a0,-36(s0)
    1850:	2015                	jal	1874 <prvInitialiseNewTask>
    1852:	fec42503          	lw	a0,-20(s0)
    1856:	22cd                	jal	1a38 <prvAddNewTaskToReadyList>
    1858:	4785                	li	a5,1
    185a:	fef42423          	sw	a5,-24(s0)
    185e:	a021                	j	1866 <xTaskCreate+0x9e>
    1860:	57fd                	li	a5,-1
    1862:	fef42423          	sw	a5,-24(s0)
    1866:	fe842783          	lw	a5,-24(s0)
    186a:	853e                	mv	a0,a5
    186c:	50f2                	lw	ra,60(sp)
    186e:	5462                	lw	s0,56(sp)
    1870:	6121                	addi	sp,sp,64
    1872:	8082                	ret

00001874 <prvInitialiseNewTask>:
    1874:	7139                	addi	sp,sp,-64
    1876:	de06                	sw	ra,60(sp)
    1878:	dc22                	sw	s0,56(sp)
    187a:	0080                	addi	s0,sp,64
    187c:	fca42e23          	sw	a0,-36(s0)
    1880:	fcb42c23          	sw	a1,-40(s0)
    1884:	fcc42a23          	sw	a2,-44(s0)
    1888:	fcd42823          	sw	a3,-48(s0)
    188c:	fce42623          	sw	a4,-52(s0)
    1890:	fcf42423          	sw	a5,-56(s0)
    1894:	fd042223          	sw	a6,-60(s0)
    1898:	fd142023          	sw	a7,-64(s0)
    189c:	fc442783          	lw	a5,-60(s0)
    18a0:	5b98                	lw	a4,48(a5)
    18a2:	fd442683          	lw	a3,-44(s0)
    18a6:	400007b7          	lui	a5,0x40000
    18aa:	17fd                	addi	a5,a5,-1
    18ac:	97b6                	add	a5,a5,a3
    18ae:	078a                	slli	a5,a5,0x2
    18b0:	97ba                	add	a5,a5,a4
    18b2:	fef42423          	sw	a5,-24(s0)
    18b6:	fe842783          	lw	a5,-24(s0)
    18ba:	9bc1                	andi	a5,a5,-16
    18bc:	fef42423          	sw	a5,-24(s0)
    18c0:	fe842783          	lw	a5,-24(s0)
    18c4:	8bbd                	andi	a5,a5,15
    18c6:	c38d                	beqz	a5,18e8 <prvInitialiseNewTask+0x74>
    18c8:	6789                	lui	a5,0x2
    18ca:	80078793          	addi	a5,a5,-2048 # 1800 <xTaskCreate+0x38>
    18ce:	30079073          	csrw	mstatus,a5
    18d2:	67a1                	lui	a5,0x8
    18d4:	eec78613          	addi	a2,a5,-276 # 7eec <_read+0x10a>
    18d8:	36000593          	li	a1,864
    18dc:	67a1                	lui	a5,0x8
    18de:	f1078513          	addi	a0,a5,-240 # 7f10 <_read+0x12e>
    18e2:	272050ef          	jal	ra,6b54 <iprintf>
    18e6:	a001                	j	18e6 <prvInitialiseNewTask+0x72>
    18e8:	fd842783          	lw	a5,-40(s0)
    18ec:	cbb9                	beqz	a5,1942 <prvInitialiseNewTask+0xce>
    18ee:	fe042623          	sw	zero,-20(s0)
    18f2:	a825                	j	192a <prvInitialiseNewTask+0xb6>
    18f4:	fd842703          	lw	a4,-40(s0)
    18f8:	fec42783          	lw	a5,-20(s0)
    18fc:	97ba                	add	a5,a5,a4
    18fe:	00078703          	lb	a4,0(a5)
    1902:	fc442683          	lw	a3,-60(s0)
    1906:	fec42783          	lw	a5,-20(s0)
    190a:	97b6                	add	a5,a5,a3
    190c:	02e78a23          	sb	a4,52(a5)
    1910:	fd842703          	lw	a4,-40(s0)
    1914:	fec42783          	lw	a5,-20(s0)
    1918:	97ba                	add	a5,a5,a4
    191a:	00078783          	lb	a5,0(a5)
    191e:	cf81                	beqz	a5,1936 <prvInitialiseNewTask+0xc2>
    1920:	fec42783          	lw	a5,-20(s0)
    1924:	0785                	addi	a5,a5,1
    1926:	fef42623          	sw	a5,-20(s0)
    192a:	fec42703          	lw	a4,-20(s0)
    192e:	47fd                	li	a5,31
    1930:	fce7f2e3          	bgeu	a5,a4,18f4 <prvInitialiseNewTask+0x80>
    1934:	a011                	j	1938 <prvInitialiseNewTask+0xc4>
    1936:	0001                	nop
    1938:	fc442783          	lw	a5,-60(s0)
    193c:	040789a3          	sb	zero,83(a5)
    1940:	a029                	j	194a <prvInitialiseNewTask+0xd6>
    1942:	fc442783          	lw	a5,-60(s0)
    1946:	02078a23          	sb	zero,52(a5)
    194a:	fcc42703          	lw	a4,-52(s0)
    194e:	4799                	li	a5,6
    1950:	02e7f263          	bgeu	a5,a4,1974 <prvInitialiseNewTask+0x100>
    1954:	6789                	lui	a5,0x2
    1956:	80078793          	addi	a5,a5,-2048 # 1800 <xTaskCreate+0x38>
    195a:	30079073          	csrw	mstatus,a5
    195e:	67a1                	lui	a5,0x8
    1960:	eec78613          	addi	a2,a5,-276 # 7eec <_read+0x10a>
    1964:	39700593          	li	a1,919
    1968:	67a1                	lui	a5,0x8
    196a:	f1078513          	addi	a0,a5,-240 # 7f10 <_read+0x12e>
    196e:	1e6050ef          	jal	ra,6b54 <iprintf>
    1972:	a001                	j	1972 <prvInitialiseNewTask+0xfe>
    1974:	fcc42703          	lw	a4,-52(s0)
    1978:	4799                	li	a5,6
    197a:	00e7f563          	bgeu	a5,a4,1984 <prvInitialiseNewTask+0x110>
    197e:	4799                	li	a5,6
    1980:	fcf42623          	sw	a5,-52(s0)
    1984:	fc442783          	lw	a5,-60(s0)
    1988:	fcc42703          	lw	a4,-52(s0)
    198c:	d7d8                	sw	a4,44(a5)
    198e:	fc442783          	lw	a5,-60(s0)
    1992:	fcc42703          	lw	a4,-52(s0)
    1996:	cbf8                	sw	a4,84(a5)
    1998:	fc442783          	lw	a5,-60(s0)
    199c:	0407ac23          	sw	zero,88(a5)
    19a0:	fc442783          	lw	a5,-60(s0)
    19a4:	0791                	addi	a5,a5,4
    19a6:	853e                	mv	a0,a5
    19a8:	d62ff0ef          	jal	ra,f0a <vListInitialiseItem>
    19ac:	fc442783          	lw	a5,-60(s0)
    19b0:	07e1                	addi	a5,a5,24
    19b2:	853e                	mv	a0,a5
    19b4:	d56ff0ef          	jal	ra,f0a <vListInitialiseItem>
    19b8:	fc442783          	lw	a5,-60(s0)
    19bc:	fc442703          	lw	a4,-60(s0)
    19c0:	cb98                	sw	a4,16(a5)
    19c2:	471d                	li	a4,7
    19c4:	fcc42783          	lw	a5,-52(s0)
    19c8:	8f1d                	sub	a4,a4,a5
    19ca:	fc442783          	lw	a5,-60(s0)
    19ce:	cf98                	sw	a4,24(a5)
    19d0:	fc442783          	lw	a5,-60(s0)
    19d4:	fc442703          	lw	a4,-60(s0)
    19d8:	d3d8                	sw	a4,36(a5)
    19da:	fc442783          	lw	a5,-60(s0)
    19de:	05c78793          	addi	a5,a5,92
    19e2:	4611                	li	a2,4
    19e4:	4581                	li	a1,0
    19e6:	853e                	mv	a0,a5
    19e8:	b67fe0ef          	jal	ra,54e <memset>
    19ec:	fc442783          	lw	a5,-60(s0)
    19f0:	06078793          	addi	a5,a5,96
    19f4:	4605                	li	a2,1
    19f6:	4581                	li	a1,0
    19f8:	853e                	mv	a0,a5
    19fa:	b55fe0ef          	jal	ra,54e <memset>
    19fe:	fc442783          	lw	a5,-60(s0)
    1a02:	060780a3          	sb	zero,97(a5)
    1a06:	fd042603          	lw	a2,-48(s0)
    1a0a:	fdc42583          	lw	a1,-36(s0)
    1a0e:	fe842503          	lw	a0,-24(s0)
    1a12:	9effe0ef          	jal	ra,400 <pxPortInitialiseStack>
    1a16:	872a                	mv	a4,a0
    1a18:	fc442783          	lw	a5,-60(s0)
    1a1c:	c398                	sw	a4,0(a5)
    1a1e:	fc842783          	lw	a5,-56(s0)
    1a22:	c791                	beqz	a5,1a2e <prvInitialiseNewTask+0x1ba>
    1a24:	fc842783          	lw	a5,-56(s0)
    1a28:	fc442703          	lw	a4,-60(s0)
    1a2c:	c398                	sw	a4,0(a5)
    1a2e:	0001                	nop
    1a30:	50f2                	lw	ra,60(sp)
    1a32:	5462                	lw	s0,56(sp)
    1a34:	6121                	addi	sp,sp,64
    1a36:	8082                	ret

00001a38 <prvAddNewTaskToReadyList>:
    1a38:	7179                	addi	sp,sp,-48
    1a3a:	d606                	sw	ra,44(sp)
    1a3c:	d422                	sw	s0,40(sp)
    1a3e:	1800                	addi	s0,sp,48
    1a40:	fca42e23          	sw	a0,-36(s0)
    1a44:	beaff0ef          	jal	ra,e2e <vPortEnterCritical>
    1a48:	200007b7          	lui	a5,0x20000
    1a4c:	0d07a783          	lw	a5,208(a5) # 200000d0 <uxCurrentNumberOfTasks>
    1a50:	00178713          	addi	a4,a5,1
    1a54:	200007b7          	lui	a5,0x20000
    1a58:	0ce7a823          	sw	a4,208(a5) # 200000d0 <uxCurrentNumberOfTasks>
    1a5c:	200007b7          	lui	a5,0x20000
    1a60:	0c07a783          	lw	a5,192(a5) # 200000c0 <pxCurrentTCB>
    1a64:	e38d                	bnez	a5,1a86 <prvAddNewTaskToReadyList+0x4e>
    1a66:	200007b7          	lui	a5,0x20000
    1a6a:	fdc42703          	lw	a4,-36(s0)
    1a6e:	0ce7a023          	sw	a4,192(a5) # 200000c0 <pxCurrentTCB>
    1a72:	200007b7          	lui	a5,0x20000
    1a76:	0d07a703          	lw	a4,208(a5) # 200000d0 <uxCurrentNumberOfTasks>
    1a7a:	4785                	li	a5,1
    1a7c:	02f71a63          	bne	a4,a5,1ab0 <prvAddNewTaskToReadyList+0x78>
    1a80:	5dd000ef          	jal	ra,285c <prvInitialiseTaskLists>
    1a84:	a035                	j	1ab0 <prvAddNewTaskToReadyList+0x78>
    1a86:	200007b7          	lui	a5,0x20000
    1a8a:	0dc7a783          	lw	a5,220(a5) # 200000dc <xSchedulerRunning>
    1a8e:	e38d                	bnez	a5,1ab0 <prvAddNewTaskToReadyList+0x78>
    1a90:	200007b7          	lui	a5,0x20000
    1a94:	0c07a783          	lw	a5,192(a5) # 200000c0 <pxCurrentTCB>
    1a98:	57d8                	lw	a4,44(a5)
    1a9a:	fdc42783          	lw	a5,-36(s0)
    1a9e:	57dc                	lw	a5,44(a5)
    1aa0:	00e7e863          	bltu	a5,a4,1ab0 <prvAddNewTaskToReadyList+0x78>
    1aa4:	200007b7          	lui	a5,0x20000
    1aa8:	fdc42703          	lw	a4,-36(s0)
    1aac:	0ce7a023          	sw	a4,192(a5) # 200000c0 <pxCurrentTCB>
    1ab0:	200007b7          	lui	a5,0x20000
    1ab4:	0ec7a783          	lw	a5,236(a5) # 200000ec <uxTaskNumber>
    1ab8:	00178713          	addi	a4,a5,1
    1abc:	200007b7          	lui	a5,0x20000
    1ac0:	0ee7a623          	sw	a4,236(a5) # 200000ec <uxTaskNumber>
    1ac4:	fdc42783          	lw	a5,-36(s0)
    1ac8:	57d8                	lw	a4,44(a5)
    1aca:	200007b7          	lui	a5,0x20000
    1ace:	0d87a783          	lw	a5,216(a5) # 200000d8 <uxTopReadyPriority>
    1ad2:	00e7f963          	bgeu	a5,a4,1ae4 <prvAddNewTaskToReadyList+0xac>
    1ad6:	fdc42783          	lw	a5,-36(s0)
    1ada:	57d8                	lw	a4,44(a5)
    1adc:	200007b7          	lui	a5,0x20000
    1ae0:	0ce7ac23          	sw	a4,216(a5) # 200000d8 <uxTopReadyPriority>
    1ae4:	fdc42783          	lw	a5,-36(s0)
    1ae8:	57d8                	lw	a4,44(a5)
    1aea:	200037b7          	lui	a5,0x20003
    1aee:	19478693          	addi	a3,a5,404 # 20003194 <pxReadyTasksLists>
    1af2:	87ba                	mv	a5,a4
    1af4:	078a                	slli	a5,a5,0x2
    1af6:	97ba                	add	a5,a5,a4
    1af8:	078a                	slli	a5,a5,0x2
    1afa:	97b6                	add	a5,a5,a3
    1afc:	43dc                	lw	a5,4(a5)
    1afe:	fef42623          	sw	a5,-20(s0)
    1b02:	fdc42783          	lw	a5,-36(s0)
    1b06:	fec42703          	lw	a4,-20(s0)
    1b0a:	c798                	sw	a4,8(a5)
    1b0c:	fec42783          	lw	a5,-20(s0)
    1b10:	4798                	lw	a4,8(a5)
    1b12:	fdc42783          	lw	a5,-36(s0)
    1b16:	c7d8                	sw	a4,12(a5)
    1b18:	fec42783          	lw	a5,-20(s0)
    1b1c:	479c                	lw	a5,8(a5)
    1b1e:	fdc42703          	lw	a4,-36(s0)
    1b22:	0711                	addi	a4,a4,4
    1b24:	c3d8                	sw	a4,4(a5)
    1b26:	fdc42783          	lw	a5,-36(s0)
    1b2a:	00478713          	addi	a4,a5,4
    1b2e:	fec42783          	lw	a5,-20(s0)
    1b32:	c798                	sw	a4,8(a5)
    1b34:	fdc42783          	lw	a5,-36(s0)
    1b38:	57d8                	lw	a4,44(a5)
    1b3a:	87ba                	mv	a5,a4
    1b3c:	078a                	slli	a5,a5,0x2
    1b3e:	97ba                	add	a5,a5,a4
    1b40:	078a                	slli	a5,a5,0x2
    1b42:	20003737          	lui	a4,0x20003
    1b46:	19470713          	addi	a4,a4,404 # 20003194 <pxReadyTasksLists>
    1b4a:	973e                	add	a4,a4,a5
    1b4c:	fdc42783          	lw	a5,-36(s0)
    1b50:	cbd8                	sw	a4,20(a5)
    1b52:	fdc42783          	lw	a5,-36(s0)
    1b56:	57d8                	lw	a4,44(a5)
    1b58:	200036b7          	lui	a3,0x20003
    1b5c:	87ba                	mv	a5,a4
    1b5e:	078a                	slli	a5,a5,0x2
    1b60:	97ba                	add	a5,a5,a4
    1b62:	078a                	slli	a5,a5,0x2
    1b64:	19468693          	addi	a3,a3,404 # 20003194 <pxReadyTasksLists>
    1b68:	97b6                	add	a5,a5,a3
    1b6a:	439c                	lw	a5,0(a5)
    1b6c:	00178693          	addi	a3,a5,1
    1b70:	20003637          	lui	a2,0x20003
    1b74:	87ba                	mv	a5,a4
    1b76:	078a                	slli	a5,a5,0x2
    1b78:	97ba                	add	a5,a5,a4
    1b7a:	078a                	slli	a5,a5,0x2
    1b7c:	19460713          	addi	a4,a2,404 # 20003194 <pxReadyTasksLists>
    1b80:	97ba                	add	a5,a5,a4
    1b82:	c394                	sw	a3,0(a5)
    1b84:	ad6ff0ef          	jal	ra,e5a <vPortExitCritical>
    1b88:	200007b7          	lui	a5,0x20000
    1b8c:	0dc7a783          	lw	a5,220(a5) # 200000dc <xSchedulerRunning>
    1b90:	cf95                	beqz	a5,1bcc <prvAddNewTaskToReadyList+0x194>
    1b92:	200007b7          	lui	a5,0x20000
    1b96:	0c07a783          	lw	a5,192(a5) # 200000c0 <pxCurrentTCB>
    1b9a:	57d8                	lw	a4,44(a5)
    1b9c:	fdc42783          	lw	a5,-36(s0)
    1ba0:	57dc                	lw	a5,44(a5)
    1ba2:	02f77563          	bgeu	a4,a5,1bcc <prvAddNewTaskToReadyList+0x194>
    1ba6:	47b9                	li	a5,14
    1ba8:	fef42423          	sw	a5,-24(s0)
    1bac:	fe842783          	lw	a5,-24(s0)
    1bb0:	8bfd                	andi	a5,a5,31
    1bb2:	4705                	li	a4,1
    1bb4:	00f716b3          	sll	a3,a4,a5
    1bb8:	e000e737          	lui	a4,0xe000e
    1bbc:	fe842783          	lw	a5,-24(s0)
    1bc0:	8395                	srli	a5,a5,0x5
    1bc2:	08078793          	addi	a5,a5,128
    1bc6:	078a                	slli	a5,a5,0x2
    1bc8:	97ba                	add	a5,a5,a4
    1bca:	c394                	sw	a3,0(a5)
    1bcc:	0001                	nop
    1bce:	50b2                	lw	ra,44(sp)
    1bd0:	5422                	lw	s0,40(sp)
    1bd2:	6145                	addi	sp,sp,48
    1bd4:	8082                	ret

00001bd6 <vTaskStartScheduler>:
    1bd6:	1101                	addi	sp,sp,-32
    1bd8:	ce06                	sw	ra,28(sp)
    1bda:	cc22                	sw	s0,24(sp)
    1bdc:	1000                	addi	s0,sp,32
    1bde:	200007b7          	lui	a5,0x20000
    1be2:	0f478793          	addi	a5,a5,244 # 200000f4 <xIdleTaskHandle>
    1be6:	4701                	li	a4,0
    1be8:	4681                	li	a3,0
    1bea:	10000613          	li	a2,256
    1bee:	65a1                	lui	a1,0x8
    1bf0:	f3458593          	addi	a1,a1,-204 # 7f34 <_read+0x152>
    1bf4:	00003537          	lui	a0,0x3
    1bf8:	84c50513          	addi	a0,a0,-1972 # 284c <prvIdleTask>
    1bfc:	36f1                	jal	17c8 <xTaskCreate>
    1bfe:	fea42623          	sw	a0,-20(s0)
    1c02:	fec42703          	lw	a4,-20(s0)
    1c06:	4785                	li	a5,1
    1c08:	00f71663          	bne	a4,a5,1c14 <vTaskStartScheduler+0x3e>
    1c0c:	749000ef          	jal	ra,2b54 <xTimerCreateTimerTask>
    1c10:	fea42623          	sw	a0,-20(s0)
    1c14:	fec42703          	lw	a4,-20(s0)
    1c18:	4785                	li	a5,1
    1c1a:	02f71863          	bne	a4,a5,1c4a <vTaskStartScheduler+0x74>
    1c1e:	6789                	lui	a5,0x2
    1c20:	80078793          	addi	a5,a5,-2048 # 1800 <xTaskCreate+0x38>
    1c24:	30079073          	csrw	mstatus,a5
    1c28:	200007b7          	lui	a5,0x20000
    1c2c:	577d                	li	a4,-1
    1c2e:	0ee7a823          	sw	a4,240(a5) # 200000f0 <xNextTaskUnblockTime>
    1c32:	200007b7          	lui	a5,0x20000
    1c36:	4705                	li	a4,1
    1c38:	0ce7ae23          	sw	a4,220(a5) # 200000dc <xSchedulerRunning>
    1c3c:	200007b7          	lui	a5,0x20000
    1c40:	0c07aa23          	sw	zero,212(a5) # 200000d4 <xTickCount>
    1c44:	878ff0ef          	jal	ra,cbc <xPortStartScheduler>
    1c48:	a03d                	j	1c76 <vTaskStartScheduler+0xa0>
    1c4a:	fec42703          	lw	a4,-20(s0)
    1c4e:	57fd                	li	a5,-1
    1c50:	02f71363          	bne	a4,a5,1c76 <vTaskStartScheduler+0xa0>
    1c54:	6789                	lui	a5,0x2
    1c56:	80078793          	addi	a5,a5,-2048 # 1800 <xTaskCreate+0x38>
    1c5a:	30079073          	csrw	mstatus,a5
    1c5e:	67a1                	lui	a5,0x8
    1c60:	eec78613          	addi	a2,a5,-276 # 7eec <_read+0x10a>
    1c64:	6785                	lui	a5,0x1
    1c66:	84078593          	addi	a1,a5,-1984 # 840 <__stack_size+0x40>
    1c6a:	67a1                	lui	a5,0x8
    1c6c:	f1078513          	addi	a0,a5,-240 # 7f10 <_read+0x12e>
    1c70:	6e5040ef          	jal	ra,6b54 <iprintf>
    1c74:	a001                	j	1c74 <vTaskStartScheduler+0x9e>
    1c76:	200007b7          	lui	a5,0x20000
    1c7a:	0847a783          	lw	a5,132(a5) # 20000084 <uxTopUsedPriority>
    1c7e:	0001                	nop
    1c80:	40f2                	lw	ra,28(sp)
    1c82:	4462                	lw	s0,24(sp)
    1c84:	6105                	addi	sp,sp,32
    1c86:	8082                	ret

00001c88 <vTaskSuspendAll>:
    1c88:	1141                	addi	sp,sp,-16
    1c8a:	c622                	sw	s0,12(sp)
    1c8c:	0800                	addi	s0,sp,16
    1c8e:	200007b7          	lui	a5,0x20000
    1c92:	0f87a783          	lw	a5,248(a5) # 200000f8 <uxSchedulerSuspended>
    1c96:	00178713          	addi	a4,a5,1
    1c9a:	200007b7          	lui	a5,0x20000
    1c9e:	0ee7ac23          	sw	a4,248(a5) # 200000f8 <uxSchedulerSuspended>
    1ca2:	0001                	nop
    1ca4:	4432                	lw	s0,12(sp)
    1ca6:	0141                	addi	sp,sp,16
    1ca8:	8082                	ret

00001caa <xTaskResumeAll>:
    1caa:	7179                	addi	sp,sp,-48
    1cac:	d606                	sw	ra,44(sp)
    1cae:	d422                	sw	s0,40(sp)
    1cb0:	1800                	addi	s0,sp,48
    1cb2:	fe042623          	sw	zero,-20(s0)
    1cb6:	fe042423          	sw	zero,-24(s0)
    1cba:	200007b7          	lui	a5,0x20000
    1cbe:	0f87a783          	lw	a5,248(a5) # 200000f8 <uxSchedulerSuspended>
    1cc2:	e395                	bnez	a5,1ce6 <xTaskResumeAll+0x3c>
    1cc4:	6789                	lui	a5,0x2
    1cc6:	80078793          	addi	a5,a5,-2048 # 1800 <xTaskCreate+0x38>
    1cca:	30079073          	csrw	mstatus,a5
    1cce:	67a1                	lui	a5,0x8
    1cd0:	eec78613          	addi	a2,a5,-276 # 7eec <_read+0x10a>
    1cd4:	6785                	lui	a5,0x1
    1cd6:	8b378593          	addi	a1,a5,-1869 # 8b3 <__stack_size+0xb3>
    1cda:	67a1                	lui	a5,0x8
    1cdc:	f1078513          	addi	a0,a5,-240 # 7f10 <_read+0x12e>
    1ce0:	675040ef          	jal	ra,6b54 <iprintf>
    1ce4:	a001                	j	1ce4 <xTaskResumeAll+0x3a>
    1ce6:	948ff0ef          	jal	ra,e2e <vPortEnterCritical>
    1cea:	200007b7          	lui	a5,0x20000
    1cee:	0f87a783          	lw	a5,248(a5) # 200000f8 <uxSchedulerSuspended>
    1cf2:	fff78713          	addi	a4,a5,-1
    1cf6:	200007b7          	lui	a5,0x20000
    1cfa:	0ee7ac23          	sw	a4,248(a5) # 200000f8 <uxSchedulerSuspended>
    1cfe:	200007b7          	lui	a5,0x20000
    1d02:	0f87a783          	lw	a5,248(a5) # 200000f8 <uxSchedulerSuspended>
    1d06:	22079d63          	bnez	a5,1f40 <xTaskResumeAll+0x296>
    1d0a:	200007b7          	lui	a5,0x20000
    1d0e:	0d07a783          	lw	a5,208(a5) # 200000d0 <uxCurrentNumberOfTasks>
    1d12:	22078763          	beqz	a5,1f40 <xTaskResumeAll+0x296>
    1d16:	a255                	j	1eba <xTaskResumeAll+0x210>
    1d18:	200037b7          	lui	a5,0x20003
    1d1c:	24878793          	addi	a5,a5,584 # 20003248 <xPendingReadyList>
    1d20:	47dc                	lw	a5,12(a5)
    1d22:	47dc                	lw	a5,12(a5)
    1d24:	fef42623          	sw	a5,-20(s0)
    1d28:	fec42783          	lw	a5,-20(s0)
    1d2c:	579c                	lw	a5,40(a5)
    1d2e:	fef42023          	sw	a5,-32(s0)
    1d32:	fec42783          	lw	a5,-20(s0)
    1d36:	4fdc                	lw	a5,28(a5)
    1d38:	fec42703          	lw	a4,-20(s0)
    1d3c:	5318                	lw	a4,32(a4)
    1d3e:	c798                	sw	a4,8(a5)
    1d40:	fec42783          	lw	a5,-20(s0)
    1d44:	539c                	lw	a5,32(a5)
    1d46:	fec42703          	lw	a4,-20(s0)
    1d4a:	4f58                	lw	a4,28(a4)
    1d4c:	c3d8                	sw	a4,4(a5)
    1d4e:	fe042783          	lw	a5,-32(s0)
    1d52:	43d8                	lw	a4,4(a5)
    1d54:	fec42783          	lw	a5,-20(s0)
    1d58:	07e1                	addi	a5,a5,24
    1d5a:	00f71863          	bne	a4,a5,1d6a <xTaskResumeAll+0xc0>
    1d5e:	fec42783          	lw	a5,-20(s0)
    1d62:	5398                	lw	a4,32(a5)
    1d64:	fe042783          	lw	a5,-32(s0)
    1d68:	c3d8                	sw	a4,4(a5)
    1d6a:	fec42783          	lw	a5,-20(s0)
    1d6e:	0207a423          	sw	zero,40(a5)
    1d72:	fe042783          	lw	a5,-32(s0)
    1d76:	439c                	lw	a5,0(a5)
    1d78:	fff78713          	addi	a4,a5,-1
    1d7c:	fe042783          	lw	a5,-32(s0)
    1d80:	c398                	sw	a4,0(a5)
    1d82:	fec42783          	lw	a5,-20(s0)
    1d86:	4bdc                	lw	a5,20(a5)
    1d88:	fcf42e23          	sw	a5,-36(s0)
    1d8c:	fec42783          	lw	a5,-20(s0)
    1d90:	479c                	lw	a5,8(a5)
    1d92:	fec42703          	lw	a4,-20(s0)
    1d96:	4758                	lw	a4,12(a4)
    1d98:	c798                	sw	a4,8(a5)
    1d9a:	fec42783          	lw	a5,-20(s0)
    1d9e:	47dc                	lw	a5,12(a5)
    1da0:	fec42703          	lw	a4,-20(s0)
    1da4:	4718                	lw	a4,8(a4)
    1da6:	c3d8                	sw	a4,4(a5)
    1da8:	fdc42783          	lw	a5,-36(s0)
    1dac:	43d8                	lw	a4,4(a5)
    1dae:	fec42783          	lw	a5,-20(s0)
    1db2:	0791                	addi	a5,a5,4
    1db4:	00f71863          	bne	a4,a5,1dc4 <xTaskResumeAll+0x11a>
    1db8:	fec42783          	lw	a5,-20(s0)
    1dbc:	47d8                	lw	a4,12(a5)
    1dbe:	fdc42783          	lw	a5,-36(s0)
    1dc2:	c3d8                	sw	a4,4(a5)
    1dc4:	fec42783          	lw	a5,-20(s0)
    1dc8:	0007aa23          	sw	zero,20(a5)
    1dcc:	fdc42783          	lw	a5,-36(s0)
    1dd0:	439c                	lw	a5,0(a5)
    1dd2:	fff78713          	addi	a4,a5,-1
    1dd6:	fdc42783          	lw	a5,-36(s0)
    1dda:	c398                	sw	a4,0(a5)
    1ddc:	fec42783          	lw	a5,-20(s0)
    1de0:	57d8                	lw	a4,44(a5)
    1de2:	200007b7          	lui	a5,0x20000
    1de6:	0d87a783          	lw	a5,216(a5) # 200000d8 <uxTopReadyPriority>
    1dea:	00e7f963          	bgeu	a5,a4,1dfc <xTaskResumeAll+0x152>
    1dee:	fec42783          	lw	a5,-20(s0)
    1df2:	57d8                	lw	a4,44(a5)
    1df4:	200007b7          	lui	a5,0x20000
    1df8:	0ce7ac23          	sw	a4,216(a5) # 200000d8 <uxTopReadyPriority>
    1dfc:	fec42783          	lw	a5,-20(s0)
    1e00:	57d8                	lw	a4,44(a5)
    1e02:	200037b7          	lui	a5,0x20003
    1e06:	19478693          	addi	a3,a5,404 # 20003194 <pxReadyTasksLists>
    1e0a:	87ba                	mv	a5,a4
    1e0c:	078a                	slli	a5,a5,0x2
    1e0e:	97ba                	add	a5,a5,a4
    1e10:	078a                	slli	a5,a5,0x2
    1e12:	97b6                	add	a5,a5,a3
    1e14:	43dc                	lw	a5,4(a5)
    1e16:	fcf42c23          	sw	a5,-40(s0)
    1e1a:	fec42783          	lw	a5,-20(s0)
    1e1e:	fd842703          	lw	a4,-40(s0)
    1e22:	c798                	sw	a4,8(a5)
    1e24:	fd842783          	lw	a5,-40(s0)
    1e28:	4798                	lw	a4,8(a5)
    1e2a:	fec42783          	lw	a5,-20(s0)
    1e2e:	c7d8                	sw	a4,12(a5)
    1e30:	fd842783          	lw	a5,-40(s0)
    1e34:	479c                	lw	a5,8(a5)
    1e36:	fec42703          	lw	a4,-20(s0)
    1e3a:	0711                	addi	a4,a4,4
    1e3c:	c3d8                	sw	a4,4(a5)
    1e3e:	fec42783          	lw	a5,-20(s0)
    1e42:	00478713          	addi	a4,a5,4
    1e46:	fd842783          	lw	a5,-40(s0)
    1e4a:	c798                	sw	a4,8(a5)
    1e4c:	fec42783          	lw	a5,-20(s0)
    1e50:	57d8                	lw	a4,44(a5)
    1e52:	87ba                	mv	a5,a4
    1e54:	078a                	slli	a5,a5,0x2
    1e56:	97ba                	add	a5,a5,a4
    1e58:	078a                	slli	a5,a5,0x2
    1e5a:	20003737          	lui	a4,0x20003
    1e5e:	19470713          	addi	a4,a4,404 # 20003194 <pxReadyTasksLists>
    1e62:	973e                	add	a4,a4,a5
    1e64:	fec42783          	lw	a5,-20(s0)
    1e68:	cbd8                	sw	a4,20(a5)
    1e6a:	fec42783          	lw	a5,-20(s0)
    1e6e:	57d8                	lw	a4,44(a5)
    1e70:	200036b7          	lui	a3,0x20003
    1e74:	87ba                	mv	a5,a4
    1e76:	078a                	slli	a5,a5,0x2
    1e78:	97ba                	add	a5,a5,a4
    1e7a:	078a                	slli	a5,a5,0x2
    1e7c:	19468693          	addi	a3,a3,404 # 20003194 <pxReadyTasksLists>
    1e80:	97b6                	add	a5,a5,a3
    1e82:	439c                	lw	a5,0(a5)
    1e84:	00178693          	addi	a3,a5,1
    1e88:	20003637          	lui	a2,0x20003
    1e8c:	87ba                	mv	a5,a4
    1e8e:	078a                	slli	a5,a5,0x2
    1e90:	97ba                	add	a5,a5,a4
    1e92:	078a                	slli	a5,a5,0x2
    1e94:	19460713          	addi	a4,a2,404 # 20003194 <pxReadyTasksLists>
    1e98:	97ba                	add	a5,a5,a4
    1e9a:	c394                	sw	a3,0(a5)
    1e9c:	fec42783          	lw	a5,-20(s0)
    1ea0:	57d8                	lw	a4,44(a5)
    1ea2:	200007b7          	lui	a5,0x20000
    1ea6:	0c07a783          	lw	a5,192(a5) # 200000c0 <pxCurrentTCB>
    1eaa:	57dc                	lw	a5,44(a5)
    1eac:	00f76763          	bltu	a4,a5,1eba <xTaskResumeAll+0x210>
    1eb0:	200007b7          	lui	a5,0x20000
    1eb4:	4705                	li	a4,1
    1eb6:	0ee7a223          	sw	a4,228(a5) # 200000e4 <xYieldPending>
    1eba:	200037b7          	lui	a5,0x20003
    1ebe:	2487a783          	lw	a5,584(a5) # 20003248 <xPendingReadyList>
    1ec2:	e4079be3          	bnez	a5,1d18 <xTaskResumeAll+0x6e>
    1ec6:	fec42783          	lw	a5,-20(s0)
    1eca:	c399                	beqz	a5,1ed0 <xTaskResumeAll+0x226>
    1ecc:	2cf000ef          	jal	ra,299a <prvResetNextTaskUnblockTime>
    1ed0:	200007b7          	lui	a5,0x20000
    1ed4:	0e07a783          	lw	a5,224(a5) # 200000e0 <xPendedTicks>
    1ed8:	fef42223          	sw	a5,-28(s0)
    1edc:	fe442783          	lw	a5,-28(s0)
    1ee0:	c78d                	beqz	a5,1f0a <xTaskResumeAll+0x260>
    1ee2:	2079                	jal	1f70 <xTaskIncrementTick>
    1ee4:	87aa                	mv	a5,a0
    1ee6:	c791                	beqz	a5,1ef2 <xTaskResumeAll+0x248>
    1ee8:	200007b7          	lui	a5,0x20000
    1eec:	4705                	li	a4,1
    1eee:	0ee7a223          	sw	a4,228(a5) # 200000e4 <xYieldPending>
    1ef2:	fe442783          	lw	a5,-28(s0)
    1ef6:	17fd                	addi	a5,a5,-1
    1ef8:	fef42223          	sw	a5,-28(s0)
    1efc:	fe442783          	lw	a5,-28(s0)
    1f00:	f3ed                	bnez	a5,1ee2 <xTaskResumeAll+0x238>
    1f02:	200007b7          	lui	a5,0x20000
    1f06:	0e07a023          	sw	zero,224(a5) # 200000e0 <xPendedTicks>
    1f0a:	200007b7          	lui	a5,0x20000
    1f0e:	0e47a783          	lw	a5,228(a5) # 200000e4 <xYieldPending>
    1f12:	c79d                	beqz	a5,1f40 <xTaskResumeAll+0x296>
    1f14:	4785                	li	a5,1
    1f16:	fef42423          	sw	a5,-24(s0)
    1f1a:	47b9                	li	a5,14
    1f1c:	fcf42a23          	sw	a5,-44(s0)
    1f20:	fd442783          	lw	a5,-44(s0)
    1f24:	8bfd                	andi	a5,a5,31
    1f26:	4705                	li	a4,1
    1f28:	00f716b3          	sll	a3,a4,a5
    1f2c:	e000e737          	lui	a4,0xe000e
    1f30:	fd442783          	lw	a5,-44(s0)
    1f34:	8395                	srli	a5,a5,0x5
    1f36:	08078793          	addi	a5,a5,128
    1f3a:	078a                	slli	a5,a5,0x2
    1f3c:	97ba                	add	a5,a5,a4
    1f3e:	c394                	sw	a3,0(a5)
    1f40:	f1bfe0ef          	jal	ra,e5a <vPortExitCritical>
    1f44:	fe842783          	lw	a5,-24(s0)
    1f48:	853e                	mv	a0,a5
    1f4a:	50b2                	lw	ra,44(sp)
    1f4c:	5422                	lw	s0,40(sp)
    1f4e:	6145                	addi	sp,sp,48
    1f50:	8082                	ret

00001f52 <xTaskGetTickCount>:
    1f52:	1101                	addi	sp,sp,-32
    1f54:	ce22                	sw	s0,28(sp)
    1f56:	1000                	addi	s0,sp,32
    1f58:	200007b7          	lui	a5,0x20000
    1f5c:	0d47a783          	lw	a5,212(a5) # 200000d4 <xTickCount>
    1f60:	fef42623          	sw	a5,-20(s0)
    1f64:	fec42783          	lw	a5,-20(s0)
    1f68:	853e                	mv	a0,a5
    1f6a:	4472                	lw	s0,28(sp)
    1f6c:	6105                	addi	sp,sp,32
    1f6e:	8082                	ret

00001f70 <xTaskIncrementTick>:
    1f70:	7179                	addi	sp,sp,-48
    1f72:	d606                	sw	ra,44(sp)
    1f74:	d422                	sw	s0,40(sp)
    1f76:	1800                	addi	s0,sp,48
    1f78:	fe042623          	sw	zero,-20(s0)
    1f7c:	200007b7          	lui	a5,0x20000
    1f80:	0f87a783          	lw	a5,248(a5) # 200000f8 <uxSchedulerSuspended>
    1f84:	2c079163          	bnez	a5,2246 <xTaskIncrementTick+0x2d6>
    1f88:	200007b7          	lui	a5,0x20000
    1f8c:	0d47a783          	lw	a5,212(a5) # 200000d4 <xTickCount>
    1f90:	0785                	addi	a5,a5,1
    1f92:	fef42423          	sw	a5,-24(s0)
    1f96:	200007b7          	lui	a5,0x20000
    1f9a:	fe842703          	lw	a4,-24(s0)
    1f9e:	0ce7aa23          	sw	a4,212(a5) # 200000d4 <xTickCount>
    1fa2:	fe842783          	lw	a5,-24(s0)
    1fa6:	eba5                	bnez	a5,2016 <xTaskIncrementTick+0xa6>
    1fa8:	200007b7          	lui	a5,0x20000
    1fac:	0c47a783          	lw	a5,196(a5) # 200000c4 <pxDelayedTaskList>
    1fb0:	439c                	lw	a5,0(a5)
    1fb2:	c395                	beqz	a5,1fd6 <xTaskIncrementTick+0x66>
    1fb4:	6789                	lui	a5,0x2
    1fb6:	80078793          	addi	a5,a5,-2048 # 1800 <xTaskCreate+0x38>
    1fba:	30079073          	csrw	mstatus,a5
    1fbe:	67a1                	lui	a5,0x8
    1fc0:	eec78613          	addi	a2,a5,-276 # 7eec <_read+0x10a>
    1fc4:	6785                	lui	a5,0x1
    1fc6:	ac778593          	addi	a1,a5,-1337 # ac7 <prvHeapInit+0x97>
    1fca:	67a1                	lui	a5,0x8
    1fcc:	f1078513          	addi	a0,a5,-240 # 7f10 <_read+0x12e>
    1fd0:	385040ef          	jal	ra,6b54 <iprintf>
    1fd4:	a001                	j	1fd4 <xTaskIncrementTick+0x64>
    1fd6:	200007b7          	lui	a5,0x20000
    1fda:	0c47a783          	lw	a5,196(a5) # 200000c4 <pxDelayedTaskList>
    1fde:	fef42223          	sw	a5,-28(s0)
    1fe2:	200007b7          	lui	a5,0x20000
    1fe6:	0c87a703          	lw	a4,200(a5) # 200000c8 <pxOverflowDelayedTaskList>
    1fea:	200007b7          	lui	a5,0x20000
    1fee:	0ce7a223          	sw	a4,196(a5) # 200000c4 <pxDelayedTaskList>
    1ff2:	200007b7          	lui	a5,0x20000
    1ff6:	fe442703          	lw	a4,-28(s0)
    1ffa:	0ce7a423          	sw	a4,200(a5) # 200000c8 <pxOverflowDelayedTaskList>
    1ffe:	200007b7          	lui	a5,0x20000
    2002:	0e87a783          	lw	a5,232(a5) # 200000e8 <xNumOfOverflows>
    2006:	00178713          	addi	a4,a5,1
    200a:	200007b7          	lui	a5,0x20000
    200e:	0ee7a423          	sw	a4,232(a5) # 200000e8 <xNumOfOverflows>
    2012:	189000ef          	jal	ra,299a <prvResetNextTaskUnblockTime>
    2016:	200007b7          	lui	a5,0x20000
    201a:	0f07a783          	lw	a5,240(a5) # 200000f0 <xNextTaskUnblockTime>
    201e:	fe842703          	lw	a4,-24(s0)
    2022:	1ef76463          	bltu	a4,a5,220a <xTaskIncrementTick+0x29a>
    2026:	200007b7          	lui	a5,0x20000
    202a:	0c47a783          	lw	a5,196(a5) # 200000c4 <pxDelayedTaskList>
    202e:	439c                	lw	a5,0(a5)
    2030:	e799                	bnez	a5,203e <xTaskIncrementTick+0xce>
    2032:	200007b7          	lui	a5,0x20000
    2036:	577d                	li	a4,-1
    2038:	0ee7a823          	sw	a4,240(a5) # 200000f0 <xNextTaskUnblockTime>
    203c:	a2f9                	j	220a <xTaskIncrementTick+0x29a>
    203e:	200007b7          	lui	a5,0x20000
    2042:	0c47a783          	lw	a5,196(a5) # 200000c4 <pxDelayedTaskList>
    2046:	47dc                	lw	a5,12(a5)
    2048:	47dc                	lw	a5,12(a5)
    204a:	fef42023          	sw	a5,-32(s0)
    204e:	fe042783          	lw	a5,-32(s0)
    2052:	43dc                	lw	a5,4(a5)
    2054:	fcf42e23          	sw	a5,-36(s0)
    2058:	fe842703          	lw	a4,-24(s0)
    205c:	fdc42783          	lw	a5,-36(s0)
    2060:	00f77963          	bgeu	a4,a5,2072 <xTaskIncrementTick+0x102>
    2064:	200007b7          	lui	a5,0x20000
    2068:	fdc42703          	lw	a4,-36(s0)
    206c:	0ee7a823          	sw	a4,240(a5) # 200000f0 <xNextTaskUnblockTime>
    2070:	aa69                	j	220a <xTaskIncrementTick+0x29a>
    2072:	fe042783          	lw	a5,-32(s0)
    2076:	4bdc                	lw	a5,20(a5)
    2078:	fcf42c23          	sw	a5,-40(s0)
    207c:	fe042783          	lw	a5,-32(s0)
    2080:	479c                	lw	a5,8(a5)
    2082:	fe042703          	lw	a4,-32(s0)
    2086:	4758                	lw	a4,12(a4)
    2088:	c798                	sw	a4,8(a5)
    208a:	fe042783          	lw	a5,-32(s0)
    208e:	47dc                	lw	a5,12(a5)
    2090:	fe042703          	lw	a4,-32(s0)
    2094:	4718                	lw	a4,8(a4)
    2096:	c3d8                	sw	a4,4(a5)
    2098:	fd842783          	lw	a5,-40(s0)
    209c:	43d8                	lw	a4,4(a5)
    209e:	fe042783          	lw	a5,-32(s0)
    20a2:	0791                	addi	a5,a5,4
    20a4:	00f71863          	bne	a4,a5,20b4 <xTaskIncrementTick+0x144>
    20a8:	fe042783          	lw	a5,-32(s0)
    20ac:	47d8                	lw	a4,12(a5)
    20ae:	fd842783          	lw	a5,-40(s0)
    20b2:	c3d8                	sw	a4,4(a5)
    20b4:	fe042783          	lw	a5,-32(s0)
    20b8:	0007aa23          	sw	zero,20(a5)
    20bc:	fd842783          	lw	a5,-40(s0)
    20c0:	439c                	lw	a5,0(a5)
    20c2:	fff78713          	addi	a4,a5,-1
    20c6:	fd842783          	lw	a5,-40(s0)
    20ca:	c398                	sw	a4,0(a5)
    20cc:	fe042783          	lw	a5,-32(s0)
    20d0:	579c                	lw	a5,40(a5)
    20d2:	cfb1                	beqz	a5,212e <xTaskIncrementTick+0x1be>
    20d4:	fe042783          	lw	a5,-32(s0)
    20d8:	579c                	lw	a5,40(a5)
    20da:	fcf42a23          	sw	a5,-44(s0)
    20de:	fe042783          	lw	a5,-32(s0)
    20e2:	4fdc                	lw	a5,28(a5)
    20e4:	fe042703          	lw	a4,-32(s0)
    20e8:	5318                	lw	a4,32(a4)
    20ea:	c798                	sw	a4,8(a5)
    20ec:	fe042783          	lw	a5,-32(s0)
    20f0:	539c                	lw	a5,32(a5)
    20f2:	fe042703          	lw	a4,-32(s0)
    20f6:	4f58                	lw	a4,28(a4)
    20f8:	c3d8                	sw	a4,4(a5)
    20fa:	fd442783          	lw	a5,-44(s0)
    20fe:	43d8                	lw	a4,4(a5)
    2100:	fe042783          	lw	a5,-32(s0)
    2104:	07e1                	addi	a5,a5,24
    2106:	00f71863          	bne	a4,a5,2116 <xTaskIncrementTick+0x1a6>
    210a:	fe042783          	lw	a5,-32(s0)
    210e:	5398                	lw	a4,32(a5)
    2110:	fd442783          	lw	a5,-44(s0)
    2114:	c3d8                	sw	a4,4(a5)
    2116:	fe042783          	lw	a5,-32(s0)
    211a:	0207a423          	sw	zero,40(a5)
    211e:	fd442783          	lw	a5,-44(s0)
    2122:	439c                	lw	a5,0(a5)
    2124:	fff78713          	addi	a4,a5,-1
    2128:	fd442783          	lw	a5,-44(s0)
    212c:	c398                	sw	a4,0(a5)
    212e:	fe042783          	lw	a5,-32(s0)
    2132:	57d8                	lw	a4,44(a5)
    2134:	200007b7          	lui	a5,0x20000
    2138:	0d87a783          	lw	a5,216(a5) # 200000d8 <uxTopReadyPriority>
    213c:	00e7f963          	bgeu	a5,a4,214e <xTaskIncrementTick+0x1de>
    2140:	fe042783          	lw	a5,-32(s0)
    2144:	57d8                	lw	a4,44(a5)
    2146:	200007b7          	lui	a5,0x20000
    214a:	0ce7ac23          	sw	a4,216(a5) # 200000d8 <uxTopReadyPriority>
    214e:	fe042783          	lw	a5,-32(s0)
    2152:	57d8                	lw	a4,44(a5)
    2154:	200037b7          	lui	a5,0x20003
    2158:	19478693          	addi	a3,a5,404 # 20003194 <pxReadyTasksLists>
    215c:	87ba                	mv	a5,a4
    215e:	078a                	slli	a5,a5,0x2
    2160:	97ba                	add	a5,a5,a4
    2162:	078a                	slli	a5,a5,0x2
    2164:	97b6                	add	a5,a5,a3
    2166:	43dc                	lw	a5,4(a5)
    2168:	fcf42823          	sw	a5,-48(s0)
    216c:	fe042783          	lw	a5,-32(s0)
    2170:	fd042703          	lw	a4,-48(s0)
    2174:	c798                	sw	a4,8(a5)
    2176:	fd042783          	lw	a5,-48(s0)
    217a:	4798                	lw	a4,8(a5)
    217c:	fe042783          	lw	a5,-32(s0)
    2180:	c7d8                	sw	a4,12(a5)
    2182:	fd042783          	lw	a5,-48(s0)
    2186:	479c                	lw	a5,8(a5)
    2188:	fe042703          	lw	a4,-32(s0)
    218c:	0711                	addi	a4,a4,4
    218e:	c3d8                	sw	a4,4(a5)
    2190:	fe042783          	lw	a5,-32(s0)
    2194:	00478713          	addi	a4,a5,4
    2198:	fd042783          	lw	a5,-48(s0)
    219c:	c798                	sw	a4,8(a5)
    219e:	fe042783          	lw	a5,-32(s0)
    21a2:	57d8                	lw	a4,44(a5)
    21a4:	87ba                	mv	a5,a4
    21a6:	078a                	slli	a5,a5,0x2
    21a8:	97ba                	add	a5,a5,a4
    21aa:	078a                	slli	a5,a5,0x2
    21ac:	20003737          	lui	a4,0x20003
    21b0:	19470713          	addi	a4,a4,404 # 20003194 <pxReadyTasksLists>
    21b4:	973e                	add	a4,a4,a5
    21b6:	fe042783          	lw	a5,-32(s0)
    21ba:	cbd8                	sw	a4,20(a5)
    21bc:	fe042783          	lw	a5,-32(s0)
    21c0:	57d8                	lw	a4,44(a5)
    21c2:	200036b7          	lui	a3,0x20003
    21c6:	87ba                	mv	a5,a4
    21c8:	078a                	slli	a5,a5,0x2
    21ca:	97ba                	add	a5,a5,a4
    21cc:	078a                	slli	a5,a5,0x2
    21ce:	19468693          	addi	a3,a3,404 # 20003194 <pxReadyTasksLists>
    21d2:	97b6                	add	a5,a5,a3
    21d4:	439c                	lw	a5,0(a5)
    21d6:	00178693          	addi	a3,a5,1
    21da:	20003637          	lui	a2,0x20003
    21de:	87ba                	mv	a5,a4
    21e0:	078a                	slli	a5,a5,0x2
    21e2:	97ba                	add	a5,a5,a4
    21e4:	078a                	slli	a5,a5,0x2
    21e6:	19460713          	addi	a4,a2,404 # 20003194 <pxReadyTasksLists>
    21ea:	97ba                	add	a5,a5,a4
    21ec:	c394                	sw	a3,0(a5)
    21ee:	fe042783          	lw	a5,-32(s0)
    21f2:	57d8                	lw	a4,44(a5)
    21f4:	200007b7          	lui	a5,0x20000
    21f8:	0c07a783          	lw	a5,192(a5) # 200000c0 <pxCurrentTCB>
    21fc:	57dc                	lw	a5,44(a5)
    21fe:	e2f764e3          	bltu	a4,a5,2026 <xTaskIncrementTick+0xb6>
    2202:	4785                	li	a5,1
    2204:	fef42623          	sw	a5,-20(s0)
    2208:	bd39                	j	2026 <xTaskIncrementTick+0xb6>
    220a:	200007b7          	lui	a5,0x20000
    220e:	0c07a783          	lw	a5,192(a5) # 200000c0 <pxCurrentTCB>
    2212:	57d8                	lw	a4,44(a5)
    2214:	200036b7          	lui	a3,0x20003
    2218:	87ba                	mv	a5,a4
    221a:	078a                	slli	a5,a5,0x2
    221c:	97ba                	add	a5,a5,a4
    221e:	078a                	slli	a5,a5,0x2
    2220:	19468713          	addi	a4,a3,404 # 20003194 <pxReadyTasksLists>
    2224:	97ba                	add	a5,a5,a4
    2226:	4398                	lw	a4,0(a5)
    2228:	4785                	li	a5,1
    222a:	00e7f563          	bgeu	a5,a4,2234 <xTaskIncrementTick+0x2c4>
    222e:	4785                	li	a5,1
    2230:	fef42623          	sw	a5,-20(s0)
    2234:	200007b7          	lui	a5,0x20000
    2238:	0e47a783          	lw	a5,228(a5) # 200000e4 <xYieldPending>
    223c:	cf99                	beqz	a5,225a <xTaskIncrementTick+0x2ea>
    223e:	4785                	li	a5,1
    2240:	fef42623          	sw	a5,-20(s0)
    2244:	a819                	j	225a <xTaskIncrementTick+0x2ea>
    2246:	200007b7          	lui	a5,0x20000
    224a:	0e07a783          	lw	a5,224(a5) # 200000e0 <xPendedTicks>
    224e:	00178713          	addi	a4,a5,1
    2252:	200007b7          	lui	a5,0x20000
    2256:	0ee7a023          	sw	a4,224(a5) # 200000e0 <xPendedTicks>
    225a:	fec42783          	lw	a5,-20(s0)
    225e:	853e                	mv	a0,a5
    2260:	50b2                	lw	ra,44(sp)
    2262:	5422                	lw	s0,40(sp)
    2264:	6145                	addi	sp,sp,48
    2266:	8082                	ret

00002268 <vTaskSwitchContext>:
    2268:	1101                	addi	sp,sp,-32
    226a:	ce06                	sw	ra,28(sp)
    226c:	cc22                	sw	s0,24(sp)
    226e:	1000                	addi	s0,sp,32
    2270:	200007b7          	lui	a5,0x20000
    2274:	0f87a783          	lw	a5,248(a5) # 200000f8 <uxSchedulerSuspended>
    2278:	c799                	beqz	a5,2286 <vTaskSwitchContext+0x1e>
    227a:	200007b7          	lui	a5,0x20000
    227e:	4705                	li	a4,1
    2280:	0ee7a223          	sw	a4,228(a5) # 200000e4 <xYieldPending>
    2284:	a0d9                	j	234a <vTaskSwitchContext+0xe2>
    2286:	200007b7          	lui	a5,0x20000
    228a:	0e07a223          	sw	zero,228(a5) # 200000e4 <xYieldPending>
    228e:	200007b7          	lui	a5,0x20000
    2292:	0d87a783          	lw	a5,216(a5) # 200000d8 <uxTopReadyPriority>
    2296:	fef42623          	sw	a5,-20(s0)
    229a:	a815                	j	22ce <vTaskSwitchContext+0x66>
    229c:	fec42783          	lw	a5,-20(s0)
    22a0:	e395                	bnez	a5,22c4 <vTaskSwitchContext+0x5c>
    22a2:	6789                	lui	a5,0x2
    22a4:	80078793          	addi	a5,a5,-2048 # 1800 <xTaskCreate+0x38>
    22a8:	30079073          	csrw	mstatus,a5
    22ac:	67a1                	lui	a5,0x8
    22ae:	eec78613          	addi	a2,a5,-276 # 7eec <_read+0x10a>
    22b2:	6785                	lui	a5,0x1
    22b4:	c0278593          	addi	a1,a5,-1022 # c02 <prvInsertBlockIntoFreeList+0xc6>
    22b8:	67a1                	lui	a5,0x8
    22ba:	f1078513          	addi	a0,a5,-240 # 7f10 <_read+0x12e>
    22be:	097040ef          	jal	ra,6b54 <iprintf>
    22c2:	a001                	j	22c2 <vTaskSwitchContext+0x5a>
    22c4:	fec42783          	lw	a5,-20(s0)
    22c8:	17fd                	addi	a5,a5,-1
    22ca:	fef42623          	sw	a5,-20(s0)
    22ce:	200036b7          	lui	a3,0x20003
    22d2:	fec42703          	lw	a4,-20(s0)
    22d6:	87ba                	mv	a5,a4
    22d8:	078a                	slli	a5,a5,0x2
    22da:	97ba                	add	a5,a5,a4
    22dc:	078a                	slli	a5,a5,0x2
    22de:	19468713          	addi	a4,a3,404 # 20003194 <pxReadyTasksLists>
    22e2:	97ba                	add	a5,a5,a4
    22e4:	439c                	lw	a5,0(a5)
    22e6:	dbdd                	beqz	a5,229c <vTaskSwitchContext+0x34>
    22e8:	fec42703          	lw	a4,-20(s0)
    22ec:	87ba                	mv	a5,a4
    22ee:	078a                	slli	a5,a5,0x2
    22f0:	97ba                	add	a5,a5,a4
    22f2:	078a                	slli	a5,a5,0x2
    22f4:	20003737          	lui	a4,0x20003
    22f8:	19470713          	addi	a4,a4,404 # 20003194 <pxReadyTasksLists>
    22fc:	97ba                	add	a5,a5,a4
    22fe:	fef42423          	sw	a5,-24(s0)
    2302:	fe842783          	lw	a5,-24(s0)
    2306:	43dc                	lw	a5,4(a5)
    2308:	43d8                	lw	a4,4(a5)
    230a:	fe842783          	lw	a5,-24(s0)
    230e:	c3d8                	sw	a4,4(a5)
    2310:	fe842783          	lw	a5,-24(s0)
    2314:	43d8                	lw	a4,4(a5)
    2316:	fe842783          	lw	a5,-24(s0)
    231a:	07a1                	addi	a5,a5,8
    231c:	00f71963          	bne	a4,a5,232e <vTaskSwitchContext+0xc6>
    2320:	fe842783          	lw	a5,-24(s0)
    2324:	43dc                	lw	a5,4(a5)
    2326:	43d8                	lw	a4,4(a5)
    2328:	fe842783          	lw	a5,-24(s0)
    232c:	c3d8                	sw	a4,4(a5)
    232e:	fe842783          	lw	a5,-24(s0)
    2332:	43dc                	lw	a5,4(a5)
    2334:	47d8                	lw	a4,12(a5)
    2336:	200007b7          	lui	a5,0x20000
    233a:	0ce7a023          	sw	a4,192(a5) # 200000c0 <pxCurrentTCB>
    233e:	200007b7          	lui	a5,0x20000
    2342:	fec42703          	lw	a4,-20(s0)
    2346:	0ce7ac23          	sw	a4,216(a5) # 200000d8 <uxTopReadyPriority>
    234a:	0001                	nop
    234c:	40f2                	lw	ra,28(sp)
    234e:	4462                	lw	s0,24(sp)
    2350:	6105                	addi	sp,sp,32
    2352:	8082                	ret

00002354 <vTaskPlaceOnEventList>:
    2354:	1101                	addi	sp,sp,-32
    2356:	ce06                	sw	ra,28(sp)
    2358:	cc22                	sw	s0,24(sp)
    235a:	1000                	addi	s0,sp,32
    235c:	fea42623          	sw	a0,-20(s0)
    2360:	feb42423          	sw	a1,-24(s0)
    2364:	fec42783          	lw	a5,-20(s0)
    2368:	e395                	bnez	a5,238c <vTaskPlaceOnEventList+0x38>
    236a:	6789                	lui	a5,0x2
    236c:	80078793          	addi	a5,a5,-2048 # 1800 <xTaskCreate+0x38>
    2370:	30079073          	csrw	mstatus,a5
    2374:	67a1                	lui	a5,0x8
    2376:	eec78613          	addi	a2,a5,-276 # 7eec <_read+0x10a>
    237a:	6785                	lui	a5,0x1
    237c:	c1c78593          	addi	a1,a5,-996 # c1c <prvInsertBlockIntoFreeList+0xe0>
    2380:	67a1                	lui	a5,0x8
    2382:	f1078513          	addi	a0,a5,-240 # 7f10 <_read+0x12e>
    2386:	7ce040ef          	jal	ra,6b54 <iprintf>
    238a:	a001                	j	238a <vTaskPlaceOnEventList+0x36>
    238c:	200007b7          	lui	a5,0x20000
    2390:	0c07a783          	lw	a5,192(a5) # 200000c0 <pxCurrentTCB>
    2394:	07e1                	addi	a5,a5,24
    2396:	85be                	mv	a1,a5
    2398:	fec42503          	lw	a0,-20(s0)
    239c:	b89fe0ef          	jal	ra,f24 <vListInsert>
    23a0:	4585                	li	a1,1
    23a2:	fe842503          	lw	a0,-24(s0)
    23a6:	25a5                	jal	2a0e <prvAddCurrentTaskToDelayedList>
    23a8:	0001                	nop
    23aa:	40f2                	lw	ra,28(sp)
    23ac:	4462                	lw	s0,24(sp)
    23ae:	6105                	addi	sp,sp,32
    23b0:	8082                	ret

000023b2 <vTaskPlaceOnEventListRestricted>:
    23b2:	7179                	addi	sp,sp,-48
    23b4:	d606                	sw	ra,44(sp)
    23b6:	d422                	sw	s0,40(sp)
    23b8:	1800                	addi	s0,sp,48
    23ba:	fca42e23          	sw	a0,-36(s0)
    23be:	fcb42c23          	sw	a1,-40(s0)
    23c2:	fcc42a23          	sw	a2,-44(s0)
    23c6:	fdc42783          	lw	a5,-36(s0)
    23ca:	e395                	bnez	a5,23ee <vTaskPlaceOnEventListRestricted+0x3c>
    23cc:	6789                	lui	a5,0x2
    23ce:	80078793          	addi	a5,a5,-2048 # 1800 <xTaskCreate+0x38>
    23d2:	30079073          	csrw	mstatus,a5
    23d6:	67a1                	lui	a5,0x8
    23d8:	eec78613          	addi	a2,a5,-276 # 7eec <_read+0x10a>
    23dc:	6785                	lui	a5,0x1
    23de:	c5278593          	addi	a1,a5,-942 # c52 <vPortSetupTimerInterrupt+0x1e>
    23e2:	67a1                	lui	a5,0x8
    23e4:	f1078513          	addi	a0,a5,-240 # 7f10 <_read+0x12e>
    23e8:	76c040ef          	jal	ra,6b54 <iprintf>
    23ec:	a001                	j	23ec <vTaskPlaceOnEventListRestricted+0x3a>
    23ee:	fdc42783          	lw	a5,-36(s0)
    23f2:	43dc                	lw	a5,4(a5)
    23f4:	fef42623          	sw	a5,-20(s0)
    23f8:	200007b7          	lui	a5,0x20000
    23fc:	0c07a783          	lw	a5,192(a5) # 200000c0 <pxCurrentTCB>
    2400:	fec42703          	lw	a4,-20(s0)
    2404:	cfd8                	sw	a4,28(a5)
    2406:	200007b7          	lui	a5,0x20000
    240a:	0c07a783          	lw	a5,192(a5) # 200000c0 <pxCurrentTCB>
    240e:	fec42703          	lw	a4,-20(s0)
    2412:	4718                	lw	a4,8(a4)
    2414:	d398                	sw	a4,32(a5)
    2416:	200007b7          	lui	a5,0x20000
    241a:	0c07a703          	lw	a4,192(a5) # 200000c0 <pxCurrentTCB>
    241e:	fec42783          	lw	a5,-20(s0)
    2422:	479c                	lw	a5,8(a5)
    2424:	0761                	addi	a4,a4,24
    2426:	c3d8                	sw	a4,4(a5)
    2428:	200007b7          	lui	a5,0x20000
    242c:	0c07a783          	lw	a5,192(a5) # 200000c0 <pxCurrentTCB>
    2430:	01878713          	addi	a4,a5,24
    2434:	fec42783          	lw	a5,-20(s0)
    2438:	c798                	sw	a4,8(a5)
    243a:	200007b7          	lui	a5,0x20000
    243e:	0c07a783          	lw	a5,192(a5) # 200000c0 <pxCurrentTCB>
    2442:	fdc42703          	lw	a4,-36(s0)
    2446:	d798                	sw	a4,40(a5)
    2448:	fdc42783          	lw	a5,-36(s0)
    244c:	439c                	lw	a5,0(a5)
    244e:	00178713          	addi	a4,a5,1
    2452:	fdc42783          	lw	a5,-36(s0)
    2456:	c398                	sw	a4,0(a5)
    2458:	fd442783          	lw	a5,-44(s0)
    245c:	c781                	beqz	a5,2464 <vTaskPlaceOnEventListRestricted+0xb2>
    245e:	57fd                	li	a5,-1
    2460:	fcf42c23          	sw	a5,-40(s0)
    2464:	fd442583          	lw	a1,-44(s0)
    2468:	fd842503          	lw	a0,-40(s0)
    246c:	234d                	jal	2a0e <prvAddCurrentTaskToDelayedList>
    246e:	0001                	nop
    2470:	50b2                	lw	ra,44(sp)
    2472:	5422                	lw	s0,40(sp)
    2474:	6145                	addi	sp,sp,48
    2476:	8082                	ret

00002478 <xTaskRemoveFromEventList>:
    2478:	7139                	addi	sp,sp,-64
    247a:	de06                	sw	ra,60(sp)
    247c:	dc22                	sw	s0,56(sp)
    247e:	0080                	addi	s0,sp,64
    2480:	fca42623          	sw	a0,-52(s0)
    2484:	fcc42783          	lw	a5,-52(s0)
    2488:	47dc                	lw	a5,12(a5)
    248a:	47dc                	lw	a5,12(a5)
    248c:	fef42423          	sw	a5,-24(s0)
    2490:	fe842783          	lw	a5,-24(s0)
    2494:	e395                	bnez	a5,24b8 <xTaskRemoveFromEventList+0x40>
    2496:	6789                	lui	a5,0x2
    2498:	80078793          	addi	a5,a5,-2048 # 1800 <xTaskCreate+0x38>
    249c:	30079073          	csrw	mstatus,a5
    24a0:	67a1                	lui	a5,0x8
    24a2:	eec78613          	addi	a2,a5,-276 # 7eec <_read+0x10a>
    24a6:	6785                	lui	a5,0x1
    24a8:	c8278593          	addi	a1,a5,-894 # c82 <vPortSetupTimerInterrupt+0x4e>
    24ac:	67a1                	lui	a5,0x8
    24ae:	f1078513          	addi	a0,a5,-240 # 7f10 <_read+0x12e>
    24b2:	6a2040ef          	jal	ra,6b54 <iprintf>
    24b6:	a001                	j	24b6 <xTaskRemoveFromEventList+0x3e>
    24b8:	fe842783          	lw	a5,-24(s0)
    24bc:	579c                	lw	a5,40(a5)
    24be:	fef42223          	sw	a5,-28(s0)
    24c2:	fe842783          	lw	a5,-24(s0)
    24c6:	4fdc                	lw	a5,28(a5)
    24c8:	fe842703          	lw	a4,-24(s0)
    24cc:	5318                	lw	a4,32(a4)
    24ce:	c798                	sw	a4,8(a5)
    24d0:	fe842783          	lw	a5,-24(s0)
    24d4:	539c                	lw	a5,32(a5)
    24d6:	fe842703          	lw	a4,-24(s0)
    24da:	4f58                	lw	a4,28(a4)
    24dc:	c3d8                	sw	a4,4(a5)
    24de:	fe442783          	lw	a5,-28(s0)
    24e2:	43d8                	lw	a4,4(a5)
    24e4:	fe842783          	lw	a5,-24(s0)
    24e8:	07e1                	addi	a5,a5,24
    24ea:	00f71863          	bne	a4,a5,24fa <xTaskRemoveFromEventList+0x82>
    24ee:	fe842783          	lw	a5,-24(s0)
    24f2:	5398                	lw	a4,32(a5)
    24f4:	fe442783          	lw	a5,-28(s0)
    24f8:	c3d8                	sw	a4,4(a5)
    24fa:	fe842783          	lw	a5,-24(s0)
    24fe:	0207a423          	sw	zero,40(a5)
    2502:	fe442783          	lw	a5,-28(s0)
    2506:	439c                	lw	a5,0(a5)
    2508:	fff78713          	addi	a4,a5,-1
    250c:	fe442783          	lw	a5,-28(s0)
    2510:	c398                	sw	a4,0(a5)
    2512:	200007b7          	lui	a5,0x20000
    2516:	0f87a783          	lw	a5,248(a5) # 200000f8 <uxSchedulerSuspended>
    251a:	12079063          	bnez	a5,263a <xTaskRemoveFromEventList+0x1c2>
    251e:	fe842783          	lw	a5,-24(s0)
    2522:	4bdc                	lw	a5,20(a5)
    2524:	fef42023          	sw	a5,-32(s0)
    2528:	fe842783          	lw	a5,-24(s0)
    252c:	479c                	lw	a5,8(a5)
    252e:	fe842703          	lw	a4,-24(s0)
    2532:	4758                	lw	a4,12(a4)
    2534:	c798                	sw	a4,8(a5)
    2536:	fe842783          	lw	a5,-24(s0)
    253a:	47dc                	lw	a5,12(a5)
    253c:	fe842703          	lw	a4,-24(s0)
    2540:	4718                	lw	a4,8(a4)
    2542:	c3d8                	sw	a4,4(a5)
    2544:	fe042783          	lw	a5,-32(s0)
    2548:	43d8                	lw	a4,4(a5)
    254a:	fe842783          	lw	a5,-24(s0)
    254e:	0791                	addi	a5,a5,4
    2550:	00f71863          	bne	a4,a5,2560 <xTaskRemoveFromEventList+0xe8>
    2554:	fe842783          	lw	a5,-24(s0)
    2558:	47d8                	lw	a4,12(a5)
    255a:	fe042783          	lw	a5,-32(s0)
    255e:	c3d8                	sw	a4,4(a5)
    2560:	fe842783          	lw	a5,-24(s0)
    2564:	0007aa23          	sw	zero,20(a5)
    2568:	fe042783          	lw	a5,-32(s0)
    256c:	439c                	lw	a5,0(a5)
    256e:	fff78713          	addi	a4,a5,-1
    2572:	fe042783          	lw	a5,-32(s0)
    2576:	c398                	sw	a4,0(a5)
    2578:	fe842783          	lw	a5,-24(s0)
    257c:	57d8                	lw	a4,44(a5)
    257e:	200007b7          	lui	a5,0x20000
    2582:	0d87a783          	lw	a5,216(a5) # 200000d8 <uxTopReadyPriority>
    2586:	00e7f963          	bgeu	a5,a4,2598 <xTaskRemoveFromEventList+0x120>
    258a:	fe842783          	lw	a5,-24(s0)
    258e:	57d8                	lw	a4,44(a5)
    2590:	200007b7          	lui	a5,0x20000
    2594:	0ce7ac23          	sw	a4,216(a5) # 200000d8 <uxTopReadyPriority>
    2598:	fe842783          	lw	a5,-24(s0)
    259c:	57d8                	lw	a4,44(a5)
    259e:	200037b7          	lui	a5,0x20003
    25a2:	19478693          	addi	a3,a5,404 # 20003194 <pxReadyTasksLists>
    25a6:	87ba                	mv	a5,a4
    25a8:	078a                	slli	a5,a5,0x2
    25aa:	97ba                	add	a5,a5,a4
    25ac:	078a                	slli	a5,a5,0x2
    25ae:	97b6                	add	a5,a5,a3
    25b0:	43dc                	lw	a5,4(a5)
    25b2:	fcf42e23          	sw	a5,-36(s0)
    25b6:	fe842783          	lw	a5,-24(s0)
    25ba:	fdc42703          	lw	a4,-36(s0)
    25be:	c798                	sw	a4,8(a5)
    25c0:	fdc42783          	lw	a5,-36(s0)
    25c4:	4798                	lw	a4,8(a5)
    25c6:	fe842783          	lw	a5,-24(s0)
    25ca:	c7d8                	sw	a4,12(a5)
    25cc:	fdc42783          	lw	a5,-36(s0)
    25d0:	479c                	lw	a5,8(a5)
    25d2:	fe842703          	lw	a4,-24(s0)
    25d6:	0711                	addi	a4,a4,4
    25d8:	c3d8                	sw	a4,4(a5)
    25da:	fe842783          	lw	a5,-24(s0)
    25de:	00478713          	addi	a4,a5,4
    25e2:	fdc42783          	lw	a5,-36(s0)
    25e6:	c798                	sw	a4,8(a5)
    25e8:	fe842783          	lw	a5,-24(s0)
    25ec:	57d8                	lw	a4,44(a5)
    25ee:	87ba                	mv	a5,a4
    25f0:	078a                	slli	a5,a5,0x2
    25f2:	97ba                	add	a5,a5,a4
    25f4:	078a                	slli	a5,a5,0x2
    25f6:	20003737          	lui	a4,0x20003
    25fa:	19470713          	addi	a4,a4,404 # 20003194 <pxReadyTasksLists>
    25fe:	973e                	add	a4,a4,a5
    2600:	fe842783          	lw	a5,-24(s0)
    2604:	cbd8                	sw	a4,20(a5)
    2606:	fe842783          	lw	a5,-24(s0)
    260a:	57d8                	lw	a4,44(a5)
    260c:	200036b7          	lui	a3,0x20003
    2610:	87ba                	mv	a5,a4
    2612:	078a                	slli	a5,a5,0x2
    2614:	97ba                	add	a5,a5,a4
    2616:	078a                	slli	a5,a5,0x2
    2618:	19468693          	addi	a3,a3,404 # 20003194 <pxReadyTasksLists>
    261c:	97b6                	add	a5,a5,a3
    261e:	439c                	lw	a5,0(a5)
    2620:	00178693          	addi	a3,a5,1
    2624:	20003637          	lui	a2,0x20003
    2628:	87ba                	mv	a5,a4
    262a:	078a                	slli	a5,a5,0x2
    262c:	97ba                	add	a5,a5,a4
    262e:	078a                	slli	a5,a5,0x2
    2630:	19460713          	addi	a4,a2,404 # 20003194 <pxReadyTasksLists>
    2634:	97ba                	add	a5,a5,a4
    2636:	c394                	sw	a3,0(a5)
    2638:	a095                	j	269c <xTaskRemoveFromEventList+0x224>
    263a:	200037b7          	lui	a5,0x20003
    263e:	24878793          	addi	a5,a5,584 # 20003248 <xPendingReadyList>
    2642:	43dc                	lw	a5,4(a5)
    2644:	fcf42c23          	sw	a5,-40(s0)
    2648:	fe842783          	lw	a5,-24(s0)
    264c:	fd842703          	lw	a4,-40(s0)
    2650:	cfd8                	sw	a4,28(a5)
    2652:	fd842783          	lw	a5,-40(s0)
    2656:	4798                	lw	a4,8(a5)
    2658:	fe842783          	lw	a5,-24(s0)
    265c:	d398                	sw	a4,32(a5)
    265e:	fd842783          	lw	a5,-40(s0)
    2662:	479c                	lw	a5,8(a5)
    2664:	fe842703          	lw	a4,-24(s0)
    2668:	0761                	addi	a4,a4,24
    266a:	c3d8                	sw	a4,4(a5)
    266c:	fe842783          	lw	a5,-24(s0)
    2670:	01878713          	addi	a4,a5,24
    2674:	fd842783          	lw	a5,-40(s0)
    2678:	c798                	sw	a4,8(a5)
    267a:	fe842783          	lw	a5,-24(s0)
    267e:	20003737          	lui	a4,0x20003
    2682:	24870713          	addi	a4,a4,584 # 20003248 <xPendingReadyList>
    2686:	d798                	sw	a4,40(a5)
    2688:	200037b7          	lui	a5,0x20003
    268c:	2487a783          	lw	a5,584(a5) # 20003248 <xPendingReadyList>
    2690:	00178713          	addi	a4,a5,1
    2694:	200037b7          	lui	a5,0x20003
    2698:	24e7a423          	sw	a4,584(a5) # 20003248 <xPendingReadyList>
    269c:	fe842783          	lw	a5,-24(s0)
    26a0:	57d8                	lw	a4,44(a5)
    26a2:	200007b7          	lui	a5,0x20000
    26a6:	0c07a783          	lw	a5,192(a5) # 200000c0 <pxCurrentTCB>
    26aa:	57dc                	lw	a5,44(a5)
    26ac:	00e7fb63          	bgeu	a5,a4,26c2 <xTaskRemoveFromEventList+0x24a>
    26b0:	4785                	li	a5,1
    26b2:	fef42623          	sw	a5,-20(s0)
    26b6:	200007b7          	lui	a5,0x20000
    26ba:	4705                	li	a4,1
    26bc:	0ee7a223          	sw	a4,228(a5) # 200000e4 <xYieldPending>
    26c0:	a019                	j	26c6 <xTaskRemoveFromEventList+0x24e>
    26c2:	fe042623          	sw	zero,-20(s0)
    26c6:	fec42783          	lw	a5,-20(s0)
    26ca:	853e                	mv	a0,a5
    26cc:	50f2                	lw	ra,60(sp)
    26ce:	5462                	lw	s0,56(sp)
    26d0:	6121                	addi	sp,sp,64
    26d2:	8082                	ret

000026d4 <vTaskInternalSetTimeOutState>:
    26d4:	1101                	addi	sp,sp,-32
    26d6:	ce22                	sw	s0,28(sp)
    26d8:	1000                	addi	s0,sp,32
    26da:	fea42623          	sw	a0,-20(s0)
    26de:	200007b7          	lui	a5,0x20000
    26e2:	0e87a703          	lw	a4,232(a5) # 200000e8 <xNumOfOverflows>
    26e6:	fec42783          	lw	a5,-20(s0)
    26ea:	c398                	sw	a4,0(a5)
    26ec:	200007b7          	lui	a5,0x20000
    26f0:	0d47a703          	lw	a4,212(a5) # 200000d4 <xTickCount>
    26f4:	fec42783          	lw	a5,-20(s0)
    26f8:	c3d8                	sw	a4,4(a5)
    26fa:	0001                	nop
    26fc:	4472                	lw	s0,28(sp)
    26fe:	6105                	addi	sp,sp,32
    2700:	8082                	ret

00002702 <xTaskCheckForTimeOut>:
    2702:	7179                	addi	sp,sp,-48
    2704:	d606                	sw	ra,44(sp)
    2706:	d422                	sw	s0,40(sp)
    2708:	1800                	addi	s0,sp,48
    270a:	fca42e23          	sw	a0,-36(s0)
    270e:	fcb42c23          	sw	a1,-40(s0)
    2712:	fdc42783          	lw	a5,-36(s0)
    2716:	e395                	bnez	a5,273a <xTaskCheckForTimeOut+0x38>
    2718:	6789                	lui	a5,0x2
    271a:	80078793          	addi	a5,a5,-2048 # 1800 <xTaskCreate+0x38>
    271e:	30079073          	csrw	mstatus,a5
    2722:	67a1                	lui	a5,0x8
    2724:	eec78613          	addi	a2,a5,-276 # 7eec <_read+0x10a>
    2728:	6785                	lui	a5,0x1
    272a:	cfd78593          	addi	a1,a5,-771 # cfd <xPortStartScheduler+0x41>
    272e:	67a1                	lui	a5,0x8
    2730:	f1078513          	addi	a0,a5,-240 # 7f10 <_read+0x12e>
    2734:	420040ef          	jal	ra,6b54 <iprintf>
    2738:	a001                	j	2738 <xTaskCheckForTimeOut+0x36>
    273a:	fd842783          	lw	a5,-40(s0)
    273e:	e395                	bnez	a5,2762 <xTaskCheckForTimeOut+0x60>
    2740:	6789                	lui	a5,0x2
    2742:	80078793          	addi	a5,a5,-2048 # 1800 <xTaskCreate+0x38>
    2746:	30079073          	csrw	mstatus,a5
    274a:	67a1                	lui	a5,0x8
    274c:	eec78613          	addi	a2,a5,-276 # 7eec <_read+0x10a>
    2750:	6785                	lui	a5,0x1
    2752:	cfe78593          	addi	a1,a5,-770 # cfe <xPortStartScheduler+0x42>
    2756:	67a1                	lui	a5,0x8
    2758:	f1078513          	addi	a0,a5,-240 # 7f10 <_read+0x12e>
    275c:	3f8040ef          	jal	ra,6b54 <iprintf>
    2760:	a001                	j	2760 <xTaskCheckForTimeOut+0x5e>
    2762:	eccfe0ef          	jal	ra,e2e <vPortEnterCritical>
    2766:	200007b7          	lui	a5,0x20000
    276a:	0d47a783          	lw	a5,212(a5) # 200000d4 <xTickCount>
    276e:	fef42423          	sw	a5,-24(s0)
    2772:	fdc42783          	lw	a5,-36(s0)
    2776:	43dc                	lw	a5,4(a5)
    2778:	fe842703          	lw	a4,-24(s0)
    277c:	40f707b3          	sub	a5,a4,a5
    2780:	fef42223          	sw	a5,-28(s0)
    2784:	200007b7          	lui	a5,0x20000
    2788:	0c07a783          	lw	a5,192(a5) # 200000c0 <pxCurrentTCB>
    278c:	0617c783          	lbu	a5,97(a5)
    2790:	cb99                	beqz	a5,27a6 <xTaskCheckForTimeOut+0xa4>
    2792:	200007b7          	lui	a5,0x20000
    2796:	0c07a783          	lw	a5,192(a5) # 200000c0 <pxCurrentTCB>
    279a:	060780a3          	sb	zero,97(a5)
    279e:	4785                	li	a5,1
    27a0:	fef42623          	sw	a5,-20(s0)
    27a4:	a8bd                	j	2822 <xTaskCheckForTimeOut+0x120>
    27a6:	fd842783          	lw	a5,-40(s0)
    27aa:	4398                	lw	a4,0(a5)
    27ac:	57fd                	li	a5,-1
    27ae:	00f71563          	bne	a4,a5,27b8 <xTaskCheckForTimeOut+0xb6>
    27b2:	fe042623          	sw	zero,-20(s0)
    27b6:	a0b5                	j	2822 <xTaskCheckForTimeOut+0x120>
    27b8:	fdc42783          	lw	a5,-36(s0)
    27bc:	4398                	lw	a4,0(a5)
    27be:	200007b7          	lui	a5,0x20000
    27c2:	0e87a783          	lw	a5,232(a5) # 200000e8 <xNumOfOverflows>
    27c6:	02f70163          	beq	a4,a5,27e8 <xTaskCheckForTimeOut+0xe6>
    27ca:	fdc42783          	lw	a5,-36(s0)
    27ce:	43dc                	lw	a5,4(a5)
    27d0:	fe842703          	lw	a4,-24(s0)
    27d4:	00f76a63          	bltu	a4,a5,27e8 <xTaskCheckForTimeOut+0xe6>
    27d8:	4785                	li	a5,1
    27da:	fef42623          	sw	a5,-20(s0)
    27de:	fd842783          	lw	a5,-40(s0)
    27e2:	0007a023          	sw	zero,0(a5)
    27e6:	a835                	j	2822 <xTaskCheckForTimeOut+0x120>
    27e8:	fd842783          	lw	a5,-40(s0)
    27ec:	439c                	lw	a5,0(a5)
    27ee:	fe442703          	lw	a4,-28(s0)
    27f2:	02f77163          	bgeu	a4,a5,2814 <xTaskCheckForTimeOut+0x112>
    27f6:	fd842783          	lw	a5,-40(s0)
    27fa:	4398                	lw	a4,0(a5)
    27fc:	fe442783          	lw	a5,-28(s0)
    2800:	8f1d                	sub	a4,a4,a5
    2802:	fd842783          	lw	a5,-40(s0)
    2806:	c398                	sw	a4,0(a5)
    2808:	fdc42503          	lw	a0,-36(s0)
    280c:	35e1                	jal	26d4 <vTaskInternalSetTimeOutState>
    280e:	fe042623          	sw	zero,-20(s0)
    2812:	a801                	j	2822 <xTaskCheckForTimeOut+0x120>
    2814:	fd842783          	lw	a5,-40(s0)
    2818:	0007a023          	sw	zero,0(a5)
    281c:	4785                	li	a5,1
    281e:	fef42623          	sw	a5,-20(s0)
    2822:	e38fe0ef          	jal	ra,e5a <vPortExitCritical>
    2826:	fec42783          	lw	a5,-20(s0)
    282a:	853e                	mv	a0,a5
    282c:	50b2                	lw	ra,44(sp)
    282e:	5422                	lw	s0,40(sp)
    2830:	6145                	addi	sp,sp,48
    2832:	8082                	ret

00002834 <vTaskMissedYield>:
    2834:	1141                	addi	sp,sp,-16
    2836:	c622                	sw	s0,12(sp)
    2838:	0800                	addi	s0,sp,16
    283a:	200007b7          	lui	a5,0x20000
    283e:	4705                	li	a4,1
    2840:	0ee7a223          	sw	a4,228(a5) # 200000e4 <xYieldPending>
    2844:	0001                	nop
    2846:	4432                	lw	s0,12(sp)
    2848:	0141                	addi	sp,sp,16
    284a:	8082                	ret

0000284c <prvIdleTask>:
    284c:	1101                	addi	sp,sp,-32
    284e:	ce06                	sw	ra,28(sp)
    2850:	cc22                	sw	s0,24(sp)
    2852:	1000                	addi	s0,sp,32
    2854:	fea42623          	sw	a0,-20(s0)
    2858:	2065                	jal	2900 <prvCheckTasksWaitingTermination>
    285a:	bffd                	j	2858 <prvIdleTask+0xc>

0000285c <prvInitialiseTaskLists>:
    285c:	1101                	addi	sp,sp,-32
    285e:	ce06                	sw	ra,28(sp)
    2860:	cc22                	sw	s0,24(sp)
    2862:	1000                	addi	s0,sp,32
    2864:	fe042623          	sw	zero,-20(s0)
    2868:	a025                	j	2890 <prvInitialiseTaskLists+0x34>
    286a:	fec42703          	lw	a4,-20(s0)
    286e:	87ba                	mv	a5,a4
    2870:	078a                	slli	a5,a5,0x2
    2872:	97ba                	add	a5,a5,a4
    2874:	078a                	slli	a5,a5,0x2
    2876:	20003737          	lui	a4,0x20003
    287a:	19470713          	addi	a4,a4,404 # 20003194 <pxReadyTasksLists>
    287e:	97ba                	add	a5,a5,a4
    2880:	853e                	mv	a0,a5
    2882:	e3cfe0ef          	jal	ra,ebe <vListInitialise>
    2886:	fec42783          	lw	a5,-20(s0)
    288a:	0785                	addi	a5,a5,1
    288c:	fef42623          	sw	a5,-20(s0)
    2890:	fec42703          	lw	a4,-20(s0)
    2894:	4799                	li	a5,6
    2896:	fce7fae3          	bgeu	a5,a4,286a <prvInitialiseTaskLists+0xe>
    289a:	200037b7          	lui	a5,0x20003
    289e:	22078513          	addi	a0,a5,544 # 20003220 <xDelayedTaskList1>
    28a2:	e1cfe0ef          	jal	ra,ebe <vListInitialise>
    28a6:	200037b7          	lui	a5,0x20003
    28aa:	23478513          	addi	a0,a5,564 # 20003234 <xDelayedTaskList2>
    28ae:	e10fe0ef          	jal	ra,ebe <vListInitialise>
    28b2:	200037b7          	lui	a5,0x20003
    28b6:	24878513          	addi	a0,a5,584 # 20003248 <xPendingReadyList>
    28ba:	e04fe0ef          	jal	ra,ebe <vListInitialise>
    28be:	200037b7          	lui	a5,0x20003
    28c2:	25c78513          	addi	a0,a5,604 # 2000325c <xTasksWaitingTermination>
    28c6:	df8fe0ef          	jal	ra,ebe <vListInitialise>
    28ca:	200037b7          	lui	a5,0x20003
    28ce:	27078513          	addi	a0,a5,624 # 20003270 <xSuspendedTaskList>
    28d2:	decfe0ef          	jal	ra,ebe <vListInitialise>
    28d6:	200007b7          	lui	a5,0x20000
    28da:	20003737          	lui	a4,0x20003
    28de:	22070713          	addi	a4,a4,544 # 20003220 <xDelayedTaskList1>
    28e2:	0ce7a223          	sw	a4,196(a5) # 200000c4 <pxDelayedTaskList>
    28e6:	200007b7          	lui	a5,0x20000
    28ea:	20003737          	lui	a4,0x20003
    28ee:	23470713          	addi	a4,a4,564 # 20003234 <xDelayedTaskList2>
    28f2:	0ce7a423          	sw	a4,200(a5) # 200000c8 <pxOverflowDelayedTaskList>
    28f6:	0001                	nop
    28f8:	40f2                	lw	ra,28(sp)
    28fa:	4462                	lw	s0,24(sp)
    28fc:	6105                	addi	sp,sp,32
    28fe:	8082                	ret

00002900 <prvCheckTasksWaitingTermination>:
    2900:	1101                	addi	sp,sp,-32
    2902:	ce06                	sw	ra,28(sp)
    2904:	cc22                	sw	s0,24(sp)
    2906:	1000                	addi	s0,sp,32
    2908:	a891                	j	295c <prvCheckTasksWaitingTermination+0x5c>
    290a:	d24fe0ef          	jal	ra,e2e <vPortEnterCritical>
    290e:	200037b7          	lui	a5,0x20003
    2912:	25c78793          	addi	a5,a5,604 # 2000325c <xTasksWaitingTermination>
    2916:	47dc                	lw	a5,12(a5)
    2918:	47dc                	lw	a5,12(a5)
    291a:	fef42623          	sw	a5,-20(s0)
    291e:	fec42783          	lw	a5,-20(s0)
    2922:	0791                	addi	a5,a5,4
    2924:	853e                	mv	a0,a5
    2926:	ea0fe0ef          	jal	ra,fc6 <uxListRemove>
    292a:	200007b7          	lui	a5,0x20000
    292e:	0d07a783          	lw	a5,208(a5) # 200000d0 <uxCurrentNumberOfTasks>
    2932:	fff78713          	addi	a4,a5,-1
    2936:	200007b7          	lui	a5,0x20000
    293a:	0ce7a823          	sw	a4,208(a5) # 200000d0 <uxCurrentNumberOfTasks>
    293e:	200007b7          	lui	a5,0x20000
    2942:	0cc7a783          	lw	a5,204(a5) # 200000cc <uxDeletedTasksWaitingCleanUp>
    2946:	fff78713          	addi	a4,a5,-1
    294a:	200007b7          	lui	a5,0x20000
    294e:	0ce7a623          	sw	a4,204(a5) # 200000cc <uxDeletedTasksWaitingCleanUp>
    2952:	d08fe0ef          	jal	ra,e5a <vPortExitCritical>
    2956:	fec42503          	lw	a0,-20(s0)
    295a:	2819                	jal	2970 <prvDeleteTCB>
    295c:	200007b7          	lui	a5,0x20000
    2960:	0cc7a783          	lw	a5,204(a5) # 200000cc <uxDeletedTasksWaitingCleanUp>
    2964:	f3dd                	bnez	a5,290a <prvCheckTasksWaitingTermination+0xa>
    2966:	0001                	nop
    2968:	40f2                	lw	ra,28(sp)
    296a:	4462                	lw	s0,24(sp)
    296c:	6105                	addi	sp,sp,32
    296e:	8082                	ret

00002970 <prvDeleteTCB>:
    2970:	1101                	addi	sp,sp,-32
    2972:	ce06                	sw	ra,28(sp)
    2974:	cc22                	sw	s0,24(sp)
    2976:	1000                	addi	s0,sp,32
    2978:	fea42623          	sw	a0,-20(s0)
    297c:	fec42783          	lw	a5,-20(s0)
    2980:	5b9c                	lw	a5,48(a5)
    2982:	853e                	mv	a0,a5
    2984:	fa7fd0ef          	jal	ra,92a <vPortFree>
    2988:	fec42503          	lw	a0,-20(s0)
    298c:	f9ffd0ef          	jal	ra,92a <vPortFree>
    2990:	0001                	nop
    2992:	40f2                	lw	ra,28(sp)
    2994:	4462                	lw	s0,24(sp)
    2996:	6105                	addi	sp,sp,32
    2998:	8082                	ret

0000299a <prvResetNextTaskUnblockTime>:
    299a:	1141                	addi	sp,sp,-16
    299c:	c622                	sw	s0,12(sp)
    299e:	0800                	addi	s0,sp,16
    29a0:	200007b7          	lui	a5,0x20000
    29a4:	0c47a783          	lw	a5,196(a5) # 200000c4 <pxDelayedTaskList>
    29a8:	439c                	lw	a5,0(a5)
    29aa:	e799                	bnez	a5,29b8 <prvResetNextTaskUnblockTime+0x1e>
    29ac:	200007b7          	lui	a5,0x20000
    29b0:	577d                	li	a4,-1
    29b2:	0ee7a823          	sw	a4,240(a5) # 200000f0 <xNextTaskUnblockTime>
    29b6:	a819                	j	29cc <prvResetNextTaskUnblockTime+0x32>
    29b8:	200007b7          	lui	a5,0x20000
    29bc:	0c47a783          	lw	a5,196(a5) # 200000c4 <pxDelayedTaskList>
    29c0:	47dc                	lw	a5,12(a5)
    29c2:	4398                	lw	a4,0(a5)
    29c4:	200007b7          	lui	a5,0x20000
    29c8:	0ee7a823          	sw	a4,240(a5) # 200000f0 <xNextTaskUnblockTime>
    29cc:	0001                	nop
    29ce:	4432                	lw	s0,12(sp)
    29d0:	0141                	addi	sp,sp,16
    29d2:	8082                	ret

000029d4 <xTaskGetSchedulerState>:
    29d4:	1101                	addi	sp,sp,-32
    29d6:	ce22                	sw	s0,28(sp)
    29d8:	1000                	addi	s0,sp,32
    29da:	200007b7          	lui	a5,0x20000
    29de:	0dc7a783          	lw	a5,220(a5) # 200000dc <xSchedulerRunning>
    29e2:	e789                	bnez	a5,29ec <xTaskGetSchedulerState+0x18>
    29e4:	4785                	li	a5,1
    29e6:	fef42623          	sw	a5,-20(s0)
    29ea:	a821                	j	2a02 <xTaskGetSchedulerState+0x2e>
    29ec:	200007b7          	lui	a5,0x20000
    29f0:	0f87a783          	lw	a5,248(a5) # 200000f8 <uxSchedulerSuspended>
    29f4:	e789                	bnez	a5,29fe <xTaskGetSchedulerState+0x2a>
    29f6:	4789                	li	a5,2
    29f8:	fef42623          	sw	a5,-20(s0)
    29fc:	a019                	j	2a02 <xTaskGetSchedulerState+0x2e>
    29fe:	fe042623          	sw	zero,-20(s0)
    2a02:	fec42783          	lw	a5,-20(s0)
    2a06:	853e                	mv	a0,a5
    2a08:	4472                	lw	s0,28(sp)
    2a0a:	6105                	addi	sp,sp,32
    2a0c:	8082                	ret

00002a0e <prvAddCurrentTaskToDelayedList>:
    2a0e:	7179                	addi	sp,sp,-48
    2a10:	d606                	sw	ra,44(sp)
    2a12:	d422                	sw	s0,40(sp)
    2a14:	1800                	addi	s0,sp,48
    2a16:	fca42e23          	sw	a0,-36(s0)
    2a1a:	fcb42c23          	sw	a1,-40(s0)
    2a1e:	200007b7          	lui	a5,0x20000
    2a22:	0d47a783          	lw	a5,212(a5) # 200000d4 <xTickCount>
    2a26:	fef42623          	sw	a5,-20(s0)
    2a2a:	200007b7          	lui	a5,0x20000
    2a2e:	0c07a783          	lw	a5,192(a5) # 200000c0 <pxCurrentTCB>
    2a32:	060780a3          	sb	zero,97(a5)
    2a36:	200007b7          	lui	a5,0x20000
    2a3a:	0c07a783          	lw	a5,192(a5) # 200000c0 <pxCurrentTCB>
    2a3e:	0791                	addi	a5,a5,4
    2a40:	853e                	mv	a0,a5
    2a42:	d84fe0ef          	jal	ra,fc6 <uxListRemove>
    2a46:	fdc42703          	lw	a4,-36(s0)
    2a4a:	57fd                	li	a5,-1
    2a4c:	08f71263          	bne	a4,a5,2ad0 <prvAddCurrentTaskToDelayedList+0xc2>
    2a50:	fd842783          	lw	a5,-40(s0)
    2a54:	cfb5                	beqz	a5,2ad0 <prvAddCurrentTaskToDelayedList+0xc2>
    2a56:	200037b7          	lui	a5,0x20003
    2a5a:	27078793          	addi	a5,a5,624 # 20003270 <xSuspendedTaskList>
    2a5e:	43dc                	lw	a5,4(a5)
    2a60:	fef42423          	sw	a5,-24(s0)
    2a64:	200007b7          	lui	a5,0x20000
    2a68:	0c07a783          	lw	a5,192(a5) # 200000c0 <pxCurrentTCB>
    2a6c:	fe842703          	lw	a4,-24(s0)
    2a70:	c798                	sw	a4,8(a5)
    2a72:	200007b7          	lui	a5,0x20000
    2a76:	0c07a783          	lw	a5,192(a5) # 200000c0 <pxCurrentTCB>
    2a7a:	fe842703          	lw	a4,-24(s0)
    2a7e:	4718                	lw	a4,8(a4)
    2a80:	c7d8                	sw	a4,12(a5)
    2a82:	200007b7          	lui	a5,0x20000
    2a86:	0c07a703          	lw	a4,192(a5) # 200000c0 <pxCurrentTCB>
    2a8a:	fe842783          	lw	a5,-24(s0)
    2a8e:	479c                	lw	a5,8(a5)
    2a90:	0711                	addi	a4,a4,4
    2a92:	c3d8                	sw	a4,4(a5)
    2a94:	200007b7          	lui	a5,0x20000
    2a98:	0c07a783          	lw	a5,192(a5) # 200000c0 <pxCurrentTCB>
    2a9c:	00478713          	addi	a4,a5,4
    2aa0:	fe842783          	lw	a5,-24(s0)
    2aa4:	c798                	sw	a4,8(a5)
    2aa6:	200007b7          	lui	a5,0x20000
    2aaa:	0c07a783          	lw	a5,192(a5) # 200000c0 <pxCurrentTCB>
    2aae:	20003737          	lui	a4,0x20003
    2ab2:	27070713          	addi	a4,a4,624 # 20003270 <xSuspendedTaskList>
    2ab6:	cbd8                	sw	a4,20(a5)
    2ab8:	200037b7          	lui	a5,0x20003
    2abc:	2707a783          	lw	a5,624(a5) # 20003270 <xSuspendedTaskList>
    2ac0:	00178713          	addi	a4,a5,1
    2ac4:	200037b7          	lui	a5,0x20003
    2ac8:	26e7a823          	sw	a4,624(a5) # 20003270 <xSuspendedTaskList>
    2acc:	0001                	nop
    2ace:	a8b5                	j	2b4a <prvAddCurrentTaskToDelayedList+0x13c>
    2ad0:	fec42703          	lw	a4,-20(s0)
    2ad4:	fdc42783          	lw	a5,-36(s0)
    2ad8:	97ba                	add	a5,a5,a4
    2ada:	fef42223          	sw	a5,-28(s0)
    2ade:	200007b7          	lui	a5,0x20000
    2ae2:	0c07a783          	lw	a5,192(a5) # 200000c0 <pxCurrentTCB>
    2ae6:	fe442703          	lw	a4,-28(s0)
    2aea:	c3d8                	sw	a4,4(a5)
    2aec:	fe442703          	lw	a4,-28(s0)
    2af0:	fec42783          	lw	a5,-20(s0)
    2af4:	02f77063          	bgeu	a4,a5,2b14 <prvAddCurrentTaskToDelayedList+0x106>
    2af8:	200007b7          	lui	a5,0x20000
    2afc:	0c87a703          	lw	a4,200(a5) # 200000c8 <pxOverflowDelayedTaskList>
    2b00:	200007b7          	lui	a5,0x20000
    2b04:	0c07a783          	lw	a5,192(a5) # 200000c0 <pxCurrentTCB>
    2b08:	0791                	addi	a5,a5,4
    2b0a:	85be                	mv	a1,a5
    2b0c:	853a                	mv	a0,a4
    2b0e:	c16fe0ef          	jal	ra,f24 <vListInsert>
    2b12:	a825                	j	2b4a <prvAddCurrentTaskToDelayedList+0x13c>
    2b14:	200007b7          	lui	a5,0x20000
    2b18:	0c47a703          	lw	a4,196(a5) # 200000c4 <pxDelayedTaskList>
    2b1c:	200007b7          	lui	a5,0x20000
    2b20:	0c07a783          	lw	a5,192(a5) # 200000c0 <pxCurrentTCB>
    2b24:	0791                	addi	a5,a5,4
    2b26:	85be                	mv	a1,a5
    2b28:	853a                	mv	a0,a4
    2b2a:	bfafe0ef          	jal	ra,f24 <vListInsert>
    2b2e:	200007b7          	lui	a5,0x20000
    2b32:	0f07a783          	lw	a5,240(a5) # 200000f0 <xNextTaskUnblockTime>
    2b36:	fe442703          	lw	a4,-28(s0)
    2b3a:	00f77863          	bgeu	a4,a5,2b4a <prvAddCurrentTaskToDelayedList+0x13c>
    2b3e:	200007b7          	lui	a5,0x20000
    2b42:	fe442703          	lw	a4,-28(s0)
    2b46:	0ee7a823          	sw	a4,240(a5) # 200000f0 <xNextTaskUnblockTime>
    2b4a:	0001                	nop
    2b4c:	50b2                	lw	ra,44(sp)
    2b4e:	5422                	lw	s0,40(sp)
    2b50:	6145                	addi	sp,sp,48
    2b52:	8082                	ret

00002b54 <xTimerCreateTimerTask>:
    2b54:	1101                	addi	sp,sp,-32
    2b56:	ce06                	sw	ra,28(sp)
    2b58:	cc22                	sw	s0,24(sp)
    2b5a:	1000                	addi	s0,sp,32
    2b5c:	fe042623          	sw	zero,-20(s0)
    2b60:	2bd1                	jal	3134 <prvCheckForValidListAndQueue>
    2b62:	200007b7          	lui	a5,0x20000
    2b66:	1047a783          	lw	a5,260(a5) # 20000104 <xTimerQueue>
    2b6a:	c785                	beqz	a5,2b92 <xTimerCreateTimerTask+0x3e>
    2b6c:	200007b7          	lui	a5,0x20000
    2b70:	10878793          	addi	a5,a5,264 # 20000108 <xTimerTaskHandle>
    2b74:	4719                	li	a4,6
    2b76:	4681                	li	a3,0
    2b78:	10000613          	li	a2,256
    2b7c:	65a1                	lui	a1,0x8
    2b7e:	f3c58593          	addi	a1,a1,-196 # 7f3c <_read+0x15a>
    2b82:	00003537          	lui	a0,0x3
    2b86:	c9650513          	addi	a0,a0,-874 # 2c96 <prvTimerTask>
    2b8a:	c3ffe0ef          	jal	ra,17c8 <xTaskCreate>
    2b8e:	fea42623          	sw	a0,-20(s0)
    2b92:	fec42783          	lw	a5,-20(s0)
    2b96:	e38d                	bnez	a5,2bb8 <xTimerCreateTimerTask+0x64>
    2b98:	6789                	lui	a5,0x2
    2b9a:	80078793          	addi	a5,a5,-2048 # 1800 <xTaskCreate+0x38>
    2b9e:	30079073          	csrw	mstatus,a5
    2ba2:	67a1                	lui	a5,0x8
    2ba4:	f4478613          	addi	a2,a5,-188 # 7f44 <_read+0x162>
    2ba8:	11900593          	li	a1,281
    2bac:	67a1                	lui	a5,0x8
    2bae:	f6878513          	addi	a0,a5,-152 # 7f68 <_read+0x186>
    2bb2:	7a3030ef          	jal	ra,6b54 <iprintf>
    2bb6:	a001                	j	2bb6 <xTimerCreateTimerTask+0x62>
    2bb8:	fec42783          	lw	a5,-20(s0)
    2bbc:	853e                	mv	a0,a5
    2bbe:	40f2                	lw	ra,28(sp)
    2bc0:	4462                	lw	s0,24(sp)
    2bc2:	6105                	addi	sp,sp,32
    2bc4:	8082                	ret

00002bc6 <prvReloadTimer>:
    2bc6:	1101                	addi	sp,sp,-32
    2bc8:	ce06                	sw	ra,28(sp)
    2bca:	cc22                	sw	s0,24(sp)
    2bcc:	1000                	addi	s0,sp,32
    2bce:	fea42623          	sw	a0,-20(s0)
    2bd2:	feb42423          	sw	a1,-24(s0)
    2bd6:	fec42223          	sw	a2,-28(s0)
    2bda:	a839                	j	2bf8 <prvReloadTimer+0x32>
    2bdc:	fec42783          	lw	a5,-20(s0)
    2be0:	4f9c                	lw	a5,24(a5)
    2be2:	fe842703          	lw	a4,-24(s0)
    2be6:	97ba                	add	a5,a5,a4
    2be8:	fef42423          	sw	a5,-24(s0)
    2bec:	fec42783          	lw	a5,-20(s0)
    2bf0:	539c                	lw	a5,32(a5)
    2bf2:	fec42503          	lw	a0,-20(s0)
    2bf6:	9782                	jalr	a5
    2bf8:	fec42783          	lw	a5,-20(s0)
    2bfc:	4f98                	lw	a4,24(a5)
    2bfe:	fe842783          	lw	a5,-24(s0)
    2c02:	97ba                	add	a5,a5,a4
    2c04:	fe842683          	lw	a3,-24(s0)
    2c08:	fe442603          	lw	a2,-28(s0)
    2c0c:	85be                	mv	a1,a5
    2c0e:	fec42503          	lw	a0,-20(s0)
    2c12:	2431                	jal	2e1e <prvInsertTimerInActiveList>
    2c14:	87aa                	mv	a5,a0
    2c16:	f3f9                	bnez	a5,2bdc <prvReloadTimer+0x16>
    2c18:	0001                	nop
    2c1a:	40f2                	lw	ra,28(sp)
    2c1c:	4462                	lw	s0,24(sp)
    2c1e:	6105                	addi	sp,sp,32
    2c20:	8082                	ret

00002c22 <prvProcessExpiredTimer>:
    2c22:	7179                	addi	sp,sp,-48
    2c24:	d606                	sw	ra,44(sp)
    2c26:	d422                	sw	s0,40(sp)
    2c28:	1800                	addi	s0,sp,48
    2c2a:	fca42e23          	sw	a0,-36(s0)
    2c2e:	fcb42c23          	sw	a1,-40(s0)
    2c32:	200007b7          	lui	a5,0x20000
    2c36:	0fc7a783          	lw	a5,252(a5) # 200000fc <pxCurrentTimerList>
    2c3a:	47dc                	lw	a5,12(a5)
    2c3c:	47dc                	lw	a5,12(a5)
    2c3e:	fef42623          	sw	a5,-20(s0)
    2c42:	fec42783          	lw	a5,-20(s0)
    2c46:	0791                	addi	a5,a5,4
    2c48:	853e                	mv	a0,a5
    2c4a:	b7cfe0ef          	jal	ra,fc6 <uxListRemove>
    2c4e:	fec42783          	lw	a5,-20(s0)
    2c52:	0247c783          	lbu	a5,36(a5)
    2c56:	8b91                	andi	a5,a5,4
    2c58:	cb89                	beqz	a5,2c6a <prvProcessExpiredTimer+0x48>
    2c5a:	fd842603          	lw	a2,-40(s0)
    2c5e:	fdc42583          	lw	a1,-36(s0)
    2c62:	fec42503          	lw	a0,-20(s0)
    2c66:	3785                	jal	2bc6 <prvReloadTimer>
    2c68:	a821                	j	2c80 <prvProcessExpiredTimer+0x5e>
    2c6a:	fec42783          	lw	a5,-20(s0)
    2c6e:	0247c783          	lbu	a5,36(a5)
    2c72:	9bf9                	andi	a5,a5,-2
    2c74:	0ff7f713          	andi	a4,a5,255
    2c78:	fec42783          	lw	a5,-20(s0)
    2c7c:	02e78223          	sb	a4,36(a5)
    2c80:	fec42783          	lw	a5,-20(s0)
    2c84:	539c                	lw	a5,32(a5)
    2c86:	fec42503          	lw	a0,-20(s0)
    2c8a:	9782                	jalr	a5
    2c8c:	0001                	nop
    2c8e:	50b2                	lw	ra,44(sp)
    2c90:	5422                	lw	s0,40(sp)
    2c92:	6145                	addi	sp,sp,48
    2c94:	8082                	ret

00002c96 <prvTimerTask>:
    2c96:	7179                	addi	sp,sp,-48
    2c98:	d606                	sw	ra,44(sp)
    2c9a:	d422                	sw	s0,40(sp)
    2c9c:	1800                	addi	s0,sp,48
    2c9e:	fca42e23          	sw	a0,-36(s0)
    2ca2:	fe840793          	addi	a5,s0,-24
    2ca6:	853e                	mv	a0,a5
    2ca8:	28e1                	jal	2d80 <prvGetNextExpireTime>
    2caa:	fea42623          	sw	a0,-20(s0)
    2cae:	fe842783          	lw	a5,-24(s0)
    2cb2:	85be                	mv	a1,a5
    2cb4:	fec42503          	lw	a0,-20(s0)
    2cb8:	2019                	jal	2cbe <prvProcessTimerOrBlockTask>
    2cba:	2c21                	jal	2ed2 <prvProcessReceivedCommands>
    2cbc:	b7dd                	j	2ca2 <prvTimerTask+0xc>

00002cbe <prvProcessTimerOrBlockTask>:
    2cbe:	7179                	addi	sp,sp,-48
    2cc0:	d606                	sw	ra,44(sp)
    2cc2:	d422                	sw	s0,40(sp)
    2cc4:	1800                	addi	s0,sp,48
    2cc6:	fca42e23          	sw	a0,-36(s0)
    2cca:	fcb42c23          	sw	a1,-40(s0)
    2cce:	fbbfe0ef          	jal	ra,1c88 <vTaskSuspendAll>
    2cd2:	fe440793          	addi	a5,s0,-28
    2cd6:	853e                	mv	a0,a5
    2cd8:	28d5                	jal	2dcc <prvSampleTimeNow>
    2cda:	fea42623          	sw	a0,-20(s0)
    2cde:	fe442783          	lw	a5,-28(s0)
    2ce2:	ebc1                	bnez	a5,2d72 <prvProcessTimerOrBlockTask+0xb4>
    2ce4:	fd842783          	lw	a5,-40(s0)
    2ce8:	ef99                	bnez	a5,2d06 <prvProcessTimerOrBlockTask+0x48>
    2cea:	fdc42703          	lw	a4,-36(s0)
    2cee:	fec42783          	lw	a5,-20(s0)
    2cf2:	00e7ea63          	bltu	a5,a4,2d06 <prvProcessTimerOrBlockTask+0x48>
    2cf6:	fb5fe0ef          	jal	ra,1caa <xTaskResumeAll>
    2cfa:	fec42583          	lw	a1,-20(s0)
    2cfe:	fdc42503          	lw	a0,-36(s0)
    2d02:	3705                	jal	2c22 <prvProcessExpiredTimer>
    2d04:	a88d                	j	2d76 <prvProcessTimerOrBlockTask+0xb8>
    2d06:	fd842783          	lw	a5,-40(s0)
    2d0a:	cf81                	beqz	a5,2d22 <prvProcessTimerOrBlockTask+0x64>
    2d0c:	200007b7          	lui	a5,0x20000
    2d10:	1007a783          	lw	a5,256(a5) # 20000100 <pxOverflowTimerList>
    2d14:	439c                	lw	a5,0(a5)
    2d16:	e399                	bnez	a5,2d1c <prvProcessTimerOrBlockTask+0x5e>
    2d18:	4785                	li	a5,1
    2d1a:	a011                	j	2d1e <prvProcessTimerOrBlockTask+0x60>
    2d1c:	4781                	li	a5,0
    2d1e:	fcf42c23          	sw	a5,-40(s0)
    2d22:	200007b7          	lui	a5,0x20000
    2d26:	1047a683          	lw	a3,260(a5) # 20000104 <xTimerQueue>
    2d2a:	fdc42703          	lw	a4,-36(s0)
    2d2e:	fec42783          	lw	a5,-20(s0)
    2d32:	40f707b3          	sub	a5,a4,a5
    2d36:	fd842603          	lw	a2,-40(s0)
    2d3a:	85be                	mv	a1,a5
    2d3c:	8536                	mv	a0,a3
    2d3e:	a01fe0ef          	jal	ra,173e <vQueueWaitForMessageRestricted>
    2d42:	f69fe0ef          	jal	ra,1caa <xTaskResumeAll>
    2d46:	87aa                	mv	a5,a0
    2d48:	e79d                	bnez	a5,2d76 <prvProcessTimerOrBlockTask+0xb8>
    2d4a:	47b9                	li	a5,14
    2d4c:	fef42423          	sw	a5,-24(s0)
    2d50:	fe842783          	lw	a5,-24(s0)
    2d54:	8bfd                	andi	a5,a5,31
    2d56:	4705                	li	a4,1
    2d58:	00f716b3          	sll	a3,a4,a5
    2d5c:	e000e737          	lui	a4,0xe000e
    2d60:	fe842783          	lw	a5,-24(s0)
    2d64:	8395                	srli	a5,a5,0x5
    2d66:	08078793          	addi	a5,a5,128
    2d6a:	078a                	slli	a5,a5,0x2
    2d6c:	97ba                	add	a5,a5,a4
    2d6e:	c394                	sw	a3,0(a5)
    2d70:	a019                	j	2d76 <prvProcessTimerOrBlockTask+0xb8>
    2d72:	f39fe0ef          	jal	ra,1caa <xTaskResumeAll>
    2d76:	0001                	nop
    2d78:	50b2                	lw	ra,44(sp)
    2d7a:	5422                	lw	s0,40(sp)
    2d7c:	6145                	addi	sp,sp,48
    2d7e:	8082                	ret

00002d80 <prvGetNextExpireTime>:
    2d80:	7179                	addi	sp,sp,-48
    2d82:	d622                	sw	s0,44(sp)
    2d84:	1800                	addi	s0,sp,48
    2d86:	fca42e23          	sw	a0,-36(s0)
    2d8a:	200007b7          	lui	a5,0x20000
    2d8e:	0fc7a783          	lw	a5,252(a5) # 200000fc <pxCurrentTimerList>
    2d92:	439c                	lw	a5,0(a5)
    2d94:	e399                	bnez	a5,2d9a <prvGetNextExpireTime+0x1a>
    2d96:	4785                	li	a5,1
    2d98:	a011                	j	2d9c <prvGetNextExpireTime+0x1c>
    2d9a:	4781                	li	a5,0
    2d9c:	fdc42703          	lw	a4,-36(s0)
    2da0:	c31c                	sw	a5,0(a4)
    2da2:	fdc42783          	lw	a5,-36(s0)
    2da6:	439c                	lw	a5,0(a5)
    2da8:	eb91                	bnez	a5,2dbc <prvGetNextExpireTime+0x3c>
    2daa:	200007b7          	lui	a5,0x20000
    2dae:	0fc7a783          	lw	a5,252(a5) # 200000fc <pxCurrentTimerList>
    2db2:	47dc                	lw	a5,12(a5)
    2db4:	439c                	lw	a5,0(a5)
    2db6:	fef42623          	sw	a5,-20(s0)
    2dba:	a019                	j	2dc0 <prvGetNextExpireTime+0x40>
    2dbc:	fe042623          	sw	zero,-20(s0)
    2dc0:	fec42783          	lw	a5,-20(s0)
    2dc4:	853e                	mv	a0,a5
    2dc6:	5432                	lw	s0,44(sp)
    2dc8:	6145                	addi	sp,sp,48
    2dca:	8082                	ret

00002dcc <prvSampleTimeNow>:
    2dcc:	7179                	addi	sp,sp,-48
    2dce:	d606                	sw	ra,44(sp)
    2dd0:	d422                	sw	s0,40(sp)
    2dd2:	1800                	addi	s0,sp,48
    2dd4:	fca42e23          	sw	a0,-36(s0)
    2dd8:	97aff0ef          	jal	ra,1f52 <xTaskGetTickCount>
    2ddc:	fea42623          	sw	a0,-20(s0)
    2de0:	200007b7          	lui	a5,0x20000
    2de4:	10c7a783          	lw	a5,268(a5) # 2000010c <xLastTime.5718>
    2de8:	fec42703          	lw	a4,-20(s0)
    2dec:	00f77863          	bgeu	a4,a5,2dfc <prvSampleTimeNow+0x30>
    2df0:	24cd                	jal	30d2 <prvSwitchTimerLists>
    2df2:	fdc42783          	lw	a5,-36(s0)
    2df6:	4705                	li	a4,1
    2df8:	c398                	sw	a4,0(a5)
    2dfa:	a029                	j	2e04 <prvSampleTimeNow+0x38>
    2dfc:	fdc42783          	lw	a5,-36(s0)
    2e00:	0007a023          	sw	zero,0(a5)
    2e04:	200007b7          	lui	a5,0x20000
    2e08:	fec42703          	lw	a4,-20(s0)
    2e0c:	10e7a623          	sw	a4,268(a5) # 2000010c <xLastTime.5718>
    2e10:	fec42783          	lw	a5,-20(s0)
    2e14:	853e                	mv	a0,a5
    2e16:	50b2                	lw	ra,44(sp)
    2e18:	5422                	lw	s0,40(sp)
    2e1a:	6145                	addi	sp,sp,48
    2e1c:	8082                	ret

00002e1e <prvInsertTimerInActiveList>:
    2e1e:	7179                	addi	sp,sp,-48
    2e20:	d606                	sw	ra,44(sp)
    2e22:	d422                	sw	s0,40(sp)
    2e24:	1800                	addi	s0,sp,48
    2e26:	fca42e23          	sw	a0,-36(s0)
    2e2a:	fcb42c23          	sw	a1,-40(s0)
    2e2e:	fcc42a23          	sw	a2,-44(s0)
    2e32:	fcd42823          	sw	a3,-48(s0)
    2e36:	fe042623          	sw	zero,-20(s0)
    2e3a:	fdc42783          	lw	a5,-36(s0)
    2e3e:	fd842703          	lw	a4,-40(s0)
    2e42:	c3d8                	sw	a4,4(a5)
    2e44:	fdc42783          	lw	a5,-36(s0)
    2e48:	fdc42703          	lw	a4,-36(s0)
    2e4c:	cb98                	sw	a4,16(a5)
    2e4e:	fd842703          	lw	a4,-40(s0)
    2e52:	fd442783          	lw	a5,-44(s0)
    2e56:	02e7ec63          	bltu	a5,a4,2e8e <prvInsertTimerInActiveList+0x70>
    2e5a:	fd442703          	lw	a4,-44(s0)
    2e5e:	fd042783          	lw	a5,-48(s0)
    2e62:	8f1d                	sub	a4,a4,a5
    2e64:	fdc42783          	lw	a5,-36(s0)
    2e68:	4f9c                	lw	a5,24(a5)
    2e6a:	00f76663          	bltu	a4,a5,2e76 <prvInsertTimerInActiveList+0x58>
    2e6e:	4785                	li	a5,1
    2e70:	fef42623          	sw	a5,-20(s0)
    2e74:	a881                	j	2ec4 <prvInsertTimerInActiveList+0xa6>
    2e76:	200007b7          	lui	a5,0x20000
    2e7a:	1007a703          	lw	a4,256(a5) # 20000100 <pxOverflowTimerList>
    2e7e:	fdc42783          	lw	a5,-36(s0)
    2e82:	0791                	addi	a5,a5,4
    2e84:	85be                	mv	a1,a5
    2e86:	853a                	mv	a0,a4
    2e88:	89cfe0ef          	jal	ra,f24 <vListInsert>
    2e8c:	a825                	j	2ec4 <prvInsertTimerInActiveList+0xa6>
    2e8e:	fd442703          	lw	a4,-44(s0)
    2e92:	fd042783          	lw	a5,-48(s0)
    2e96:	00f77c63          	bgeu	a4,a5,2eae <prvInsertTimerInActiveList+0x90>
    2e9a:	fd842703          	lw	a4,-40(s0)
    2e9e:	fd042783          	lw	a5,-48(s0)
    2ea2:	00f76663          	bltu	a4,a5,2eae <prvInsertTimerInActiveList+0x90>
    2ea6:	4785                	li	a5,1
    2ea8:	fef42623          	sw	a5,-20(s0)
    2eac:	a821                	j	2ec4 <prvInsertTimerInActiveList+0xa6>
    2eae:	200007b7          	lui	a5,0x20000
    2eb2:	0fc7a703          	lw	a4,252(a5) # 200000fc <pxCurrentTimerList>
    2eb6:	fdc42783          	lw	a5,-36(s0)
    2eba:	0791                	addi	a5,a5,4
    2ebc:	85be                	mv	a1,a5
    2ebe:	853a                	mv	a0,a4
    2ec0:	864fe0ef          	jal	ra,f24 <vListInsert>
    2ec4:	fec42783          	lw	a5,-20(s0)
    2ec8:	853e                	mv	a0,a5
    2eca:	50b2                	lw	ra,44(sp)
    2ecc:	5422                	lw	s0,40(sp)
    2ece:	6145                	addi	sp,sp,48
    2ed0:	8082                	ret

00002ed2 <prvProcessReceivedCommands>:
    2ed2:	7179                	addi	sp,sp,-48
    2ed4:	d606                	sw	ra,44(sp)
    2ed6:	d422                	sw	s0,40(sp)
    2ed8:	1800                	addi	s0,sp,48
    2eda:	aac9                	j	30ac <prvProcessReceivedCommands+0x1da>
    2edc:	fd442783          	lw	a5,-44(s0)
    2ee0:	0407d663          	bgez	a5,2f2c <prvProcessReceivedCommands+0x5a>
    2ee4:	fd440793          	addi	a5,s0,-44
    2ee8:	0791                	addi	a5,a5,4
    2eea:	fef42623          	sw	a5,-20(s0)
    2eee:	fec42783          	lw	a5,-20(s0)
    2ef2:	e38d                	bnez	a5,2f14 <prvProcessReceivedCommands+0x42>
    2ef4:	6789                	lui	a5,0x2
    2ef6:	80078793          	addi	a5,a5,-2048 # 1800 <xTaskCreate+0x38>
    2efa:	30079073          	csrw	mstatus,a5
    2efe:	67a1                	lui	a5,0x8
    2f00:	f4478613          	addi	a2,a5,-188 # 7f44 <_read+0x162>
    2f04:	30600593          	li	a1,774
    2f08:	67a1                	lui	a5,0x8
    2f0a:	f6878513          	addi	a0,a5,-152 # 7f68 <_read+0x186>
    2f0e:	447030ef          	jal	ra,6b54 <iprintf>
    2f12:	a001                	j	2f12 <prvProcessReceivedCommands+0x40>
    2f14:	fec42783          	lw	a5,-20(s0)
    2f18:	4394                	lw	a3,0(a5)
    2f1a:	fec42783          	lw	a5,-20(s0)
    2f1e:	43d8                	lw	a4,4(a5)
    2f20:	fec42783          	lw	a5,-20(s0)
    2f24:	479c                	lw	a5,8(a5)
    2f26:	85be                	mv	a1,a5
    2f28:	853a                	mv	a0,a4
    2f2a:	9682                	jalr	a3
    2f2c:	fd442783          	lw	a5,-44(s0)
    2f30:	1607cd63          	bltz	a5,30aa <prvProcessReceivedCommands+0x1d8>
    2f34:	fdc42783          	lw	a5,-36(s0)
    2f38:	fef42423          	sw	a5,-24(s0)
    2f3c:	fe842783          	lw	a5,-24(s0)
    2f40:	4bdc                	lw	a5,20(a5)
    2f42:	c799                	beqz	a5,2f50 <prvProcessReceivedCommands+0x7e>
    2f44:	fe842783          	lw	a5,-24(s0)
    2f48:	0791                	addi	a5,a5,4
    2f4a:	853e                	mv	a0,a5
    2f4c:	87afe0ef          	jal	ra,fc6 <uxListRemove>
    2f50:	fd040793          	addi	a5,s0,-48
    2f54:	853e                	mv	a0,a5
    2f56:	3d9d                	jal	2dcc <prvSampleTimeNow>
    2f58:	fea42223          	sw	a0,-28(s0)
    2f5c:	fd442783          	lw	a5,-44(s0)
    2f60:	4725                	li	a4,9
    2f62:	14f76563          	bltu	a4,a5,30ac <prvProcessReceivedCommands+0x1da>
    2f66:	00279713          	slli	a4,a5,0x2
    2f6a:	67a1                	lui	a5,0x8
    2f6c:	fa078793          	addi	a5,a5,-96 # 7fa0 <_read+0x1be>
    2f70:	97ba                	add	a5,a5,a4
    2f72:	439c                	lw	a5,0(a5)
    2f74:	8782                	jr	a5
    2f76:	fe842783          	lw	a5,-24(s0)
    2f7a:	0247c783          	lbu	a5,36(a5)
    2f7e:	0017e793          	ori	a5,a5,1
    2f82:	0ff7f713          	andi	a4,a5,255
    2f86:	fe842783          	lw	a5,-24(s0)
    2f8a:	02e78223          	sb	a4,36(a5)
    2f8e:	fd842703          	lw	a4,-40(s0)
    2f92:	fe842783          	lw	a5,-24(s0)
    2f96:	4f9c                	lw	a5,24(a5)
    2f98:	97ba                	add	a5,a5,a4
    2f9a:	fd842703          	lw	a4,-40(s0)
    2f9e:	86ba                	mv	a3,a4
    2fa0:	fe442603          	lw	a2,-28(s0)
    2fa4:	85be                	mv	a1,a5
    2fa6:	fe842503          	lw	a0,-24(s0)
    2faa:	3d95                	jal	2e1e <prvInsertTimerInActiveList>
    2fac:	87aa                	mv	a5,a0
    2fae:	0e078f63          	beqz	a5,30ac <prvProcessReceivedCommands+0x1da>
    2fb2:	fe842783          	lw	a5,-24(s0)
    2fb6:	0247c783          	lbu	a5,36(a5)
    2fba:	8b91                	andi	a5,a5,4
    2fbc:	cf91                	beqz	a5,2fd8 <prvProcessReceivedCommands+0x106>
    2fbe:	fd842703          	lw	a4,-40(s0)
    2fc2:	fe842783          	lw	a5,-24(s0)
    2fc6:	4f9c                	lw	a5,24(a5)
    2fc8:	97ba                	add	a5,a5,a4
    2fca:	fe442603          	lw	a2,-28(s0)
    2fce:	85be                	mv	a1,a5
    2fd0:	fe842503          	lw	a0,-24(s0)
    2fd4:	3ecd                	jal	2bc6 <prvReloadTimer>
    2fd6:	a821                	j	2fee <prvProcessReceivedCommands+0x11c>
    2fd8:	fe842783          	lw	a5,-24(s0)
    2fdc:	0247c783          	lbu	a5,36(a5)
    2fe0:	9bf9                	andi	a5,a5,-2
    2fe2:	0ff7f713          	andi	a4,a5,255
    2fe6:	fe842783          	lw	a5,-24(s0)
    2fea:	02e78223          	sb	a4,36(a5)
    2fee:	fe842783          	lw	a5,-24(s0)
    2ff2:	539c                	lw	a5,32(a5)
    2ff4:	fe842503          	lw	a0,-24(s0)
    2ff8:	9782                	jalr	a5
    2ffa:	a84d                	j	30ac <prvProcessReceivedCommands+0x1da>
    2ffc:	fe842783          	lw	a5,-24(s0)
    3000:	0247c783          	lbu	a5,36(a5)
    3004:	9bf9                	andi	a5,a5,-2
    3006:	0ff7f713          	andi	a4,a5,255
    300a:	fe842783          	lw	a5,-24(s0)
    300e:	02e78223          	sb	a4,36(a5)
    3012:	a869                	j	30ac <prvProcessReceivedCommands+0x1da>
    3014:	fe842783          	lw	a5,-24(s0)
    3018:	0247c783          	lbu	a5,36(a5)
    301c:	0017e793          	ori	a5,a5,1
    3020:	0ff7f713          	andi	a4,a5,255
    3024:	fe842783          	lw	a5,-24(s0)
    3028:	02e78223          	sb	a4,36(a5)
    302c:	fd842703          	lw	a4,-40(s0)
    3030:	fe842783          	lw	a5,-24(s0)
    3034:	cf98                	sw	a4,24(a5)
    3036:	fe842783          	lw	a5,-24(s0)
    303a:	4f9c                	lw	a5,24(a5)
    303c:	e38d                	bnez	a5,305e <prvProcessReceivedCommands+0x18c>
    303e:	6789                	lui	a5,0x2
    3040:	80078793          	addi	a5,a5,-2048 # 1800 <xTaskCreate+0x38>
    3044:	30079073          	csrw	mstatus,a5
    3048:	67a1                	lui	a5,0x8
    304a:	f4478613          	addi	a2,a5,-188 # 7f44 <_read+0x162>
    304e:	35900593          	li	a1,857
    3052:	67a1                	lui	a5,0x8
    3054:	f6878513          	addi	a0,a5,-152 # 7f68 <_read+0x186>
    3058:	2fd030ef          	jal	ra,6b54 <iprintf>
    305c:	a001                	j	305c <prvProcessReceivedCommands+0x18a>
    305e:	fe842783          	lw	a5,-24(s0)
    3062:	4f98                	lw	a4,24(a5)
    3064:	fe442783          	lw	a5,-28(s0)
    3068:	97ba                	add	a5,a5,a4
    306a:	fe442683          	lw	a3,-28(s0)
    306e:	fe442603          	lw	a2,-28(s0)
    3072:	85be                	mv	a1,a5
    3074:	fe842503          	lw	a0,-24(s0)
    3078:	335d                	jal	2e1e <prvInsertTimerInActiveList>
    307a:	a80d                	j	30ac <prvProcessReceivedCommands+0x1da>
    307c:	fe842783          	lw	a5,-24(s0)
    3080:	0247c783          	lbu	a5,36(a5)
    3084:	8b89                	andi	a5,a5,2
    3086:	e791                	bnez	a5,3092 <prvProcessReceivedCommands+0x1c0>
    3088:	fe842503          	lw	a0,-24(s0)
    308c:	89ffd0ef          	jal	ra,92a <vPortFree>
    3090:	a831                	j	30ac <prvProcessReceivedCommands+0x1da>
    3092:	fe842783          	lw	a5,-24(s0)
    3096:	0247c783          	lbu	a5,36(a5)
    309a:	9bf9                	andi	a5,a5,-2
    309c:	0ff7f713          	andi	a4,a5,255
    30a0:	fe842783          	lw	a5,-24(s0)
    30a4:	02e78223          	sb	a4,36(a5)
    30a8:	a011                	j	30ac <prvProcessReceivedCommands+0x1da>
    30aa:	0001                	nop
    30ac:	200007b7          	lui	a5,0x20000
    30b0:	1047a783          	lw	a5,260(a5) # 20000104 <xTimerQueue>
    30b4:	fd440713          	addi	a4,s0,-44
    30b8:	4601                	li	a2,0
    30ba:	85ba                	mv	a1,a4
    30bc:	853e                	mv	a0,a5
    30be:	a1efe0ef          	jal	ra,12dc <xQueueReceive>
    30c2:	87aa                	mv	a5,a0
    30c4:	e0079ce3          	bnez	a5,2edc <prvProcessReceivedCommands+0xa>
    30c8:	0001                	nop
    30ca:	50b2                	lw	ra,44(sp)
    30cc:	5422                	lw	s0,40(sp)
    30ce:	6145                	addi	sp,sp,48
    30d0:	8082                	ret

000030d2 <prvSwitchTimerLists>:
    30d2:	1101                	addi	sp,sp,-32
    30d4:	ce06                	sw	ra,28(sp)
    30d6:	cc22                	sw	s0,24(sp)
    30d8:	1000                	addi	s0,sp,32
    30da:	a831                	j	30f6 <prvSwitchTimerLists+0x24>
    30dc:	200007b7          	lui	a5,0x20000
    30e0:	0fc7a783          	lw	a5,252(a5) # 200000fc <pxCurrentTimerList>
    30e4:	47dc                	lw	a5,12(a5)
    30e6:	439c                	lw	a5,0(a5)
    30e8:	fef42623          	sw	a5,-20(s0)
    30ec:	55fd                	li	a1,-1
    30ee:	fec42503          	lw	a0,-20(s0)
    30f2:	b31ff0ef          	jal	ra,2c22 <prvProcessExpiredTimer>
    30f6:	200007b7          	lui	a5,0x20000
    30fa:	0fc7a783          	lw	a5,252(a5) # 200000fc <pxCurrentTimerList>
    30fe:	439c                	lw	a5,0(a5)
    3100:	fff1                	bnez	a5,30dc <prvSwitchTimerLists+0xa>
    3102:	200007b7          	lui	a5,0x20000
    3106:	0fc7a783          	lw	a5,252(a5) # 200000fc <pxCurrentTimerList>
    310a:	fef42423          	sw	a5,-24(s0)
    310e:	200007b7          	lui	a5,0x20000
    3112:	1007a703          	lw	a4,256(a5) # 20000100 <pxOverflowTimerList>
    3116:	200007b7          	lui	a5,0x20000
    311a:	0ee7ae23          	sw	a4,252(a5) # 200000fc <pxCurrentTimerList>
    311e:	200007b7          	lui	a5,0x20000
    3122:	fe842703          	lw	a4,-24(s0)
    3126:	10e7a023          	sw	a4,256(a5) # 20000100 <pxOverflowTimerList>
    312a:	0001                	nop
    312c:	40f2                	lw	ra,28(sp)
    312e:	4462                	lw	s0,24(sp)
    3130:	6105                	addi	sp,sp,32
    3132:	8082                	ret

00003134 <prvCheckForValidListAndQueue>:
    3134:	1141                	addi	sp,sp,-16
    3136:	c606                	sw	ra,12(sp)
    3138:	c422                	sw	s0,8(sp)
    313a:	0800                	addi	s0,sp,16
    313c:	cf3fd0ef          	jal	ra,e2e <vPortEnterCritical>
    3140:	200007b7          	lui	a5,0x20000
    3144:	1047a783          	lw	a5,260(a5) # 20000104 <xTimerQueue>
    3148:	e7b5                	bnez	a5,31b4 <prvCheckForValidListAndQueue+0x80>
    314a:	200037b7          	lui	a5,0x20003
    314e:	28478513          	addi	a0,a5,644 # 20003284 <xActiveTimerList1>
    3152:	d6dfd0ef          	jal	ra,ebe <vListInitialise>
    3156:	200037b7          	lui	a5,0x20003
    315a:	29878513          	addi	a0,a5,664 # 20003298 <xActiveTimerList2>
    315e:	d61fd0ef          	jal	ra,ebe <vListInitialise>
    3162:	200007b7          	lui	a5,0x20000
    3166:	20003737          	lui	a4,0x20003
    316a:	28470713          	addi	a4,a4,644 # 20003284 <xActiveTimerList1>
    316e:	0ee7ae23          	sw	a4,252(a5) # 200000fc <pxCurrentTimerList>
    3172:	200007b7          	lui	a5,0x20000
    3176:	20003737          	lui	a4,0x20003
    317a:	29870713          	addi	a4,a4,664 # 20003298 <xActiveTimerList2>
    317e:	10e7a023          	sw	a4,256(a5) # 20000100 <pxOverflowTimerList>
    3182:	4601                	li	a2,0
    3184:	45c1                	li	a1,16
    3186:	4511                	li	a0,4
    3188:	820fe0ef          	jal	ra,11a8 <xQueueGenericCreate>
    318c:	872a                	mv	a4,a0
    318e:	200007b7          	lui	a5,0x20000
    3192:	10e7a223          	sw	a4,260(a5) # 20000104 <xTimerQueue>
    3196:	200007b7          	lui	a5,0x20000
    319a:	1047a783          	lw	a5,260(a5) # 20000104 <xTimerQueue>
    319e:	cb99                	beqz	a5,31b4 <prvCheckForValidListAndQueue+0x80>
    31a0:	200007b7          	lui	a5,0x20000
    31a4:	1047a703          	lw	a4,260(a5) # 20000104 <xTimerQueue>
    31a8:	67a1                	lui	a5,0x8
    31aa:	f8c78593          	addi	a1,a5,-116 # 7f8c <_read+0x1aa>
    31ae:	853a                	mv	a0,a4
    31b0:	cacfe0ef          	jal	ra,165c <vQueueAddToRegistry>
    31b4:	ca7fd0ef          	jal	ra,e5a <vPortExitCritical>
    31b8:	0001                	nop
    31ba:	40b2                	lw	ra,12(sp)
    31bc:	4422                	lw	s0,8(sp)
    31be:	0141                	addi	sp,sp,16
    31c0:	8082                	ret

000031c2 <MCAL_WRAPEPR_SPI_POLL_TRANSFER>:
    31c2:	c52d                	beqz	a0,322c <MCAL_WRAPEPR_SPI_POLL_TRANSFER+0x6a>
    31c4:	b40fd2ef          	jal	t0,504 <__riscv_save_4>
    31c8:	842a                	mv	s0,a0
    31ca:	892e                	mv	s2,a1
    31cc:	4505                	li	a0,1
    31ce:	cd91                	beqz	a1,31ea <MCAL_WRAPEPR_SPI_POLL_TRANSFER+0x28>
    31d0:	00845583          	lhu	a1,8(s0)
    31d4:	4048                	lw	a0,4(s0)
    31d6:	84b2                	mv	s1,a2
    31d8:	89b6                	mv	s3,a3
    31da:	4a05                	li	s4,1
    31dc:	2379                	jal	376a <GPIO_ResetBits>
    31de:	e881                	bnez	s1,31ee <MCAL_WRAPEPR_SPI_POLL_TRANSFER+0x2c>
    31e0:	4048                	lw	a0,4(s0)
    31e2:	00845583          	lhu	a1,8(s0)
    31e6:	2389                	jal	3728 <GPIO_SetBits>
    31e8:	4501                	li	a0,0
    31ea:	b4efd06f          	j	538 <__riscv_restore_4>
    31ee:	00094583          	lbu	a1,0(s2)
    31f2:	4008                	lw	a0,0(s0)
    31f4:	7af000ef          	jal	ra,41a2 <SPI_I2S_SendData>
    31f8:	4008                	lw	a0,0(s0)
    31fa:	4589                	li	a1,2
    31fc:	7e9000ef          	jal	ra,41e4 <SPI_I2S_GetFlagStatus>
    3200:	ff451ce3          	bne	a0,s4,31f8 <MCAL_WRAPEPR_SPI_POLL_TRANSFER+0x36>
    3204:	4008                	lw	a0,0(s0)
    3206:	08000593          	li	a1,128
    320a:	7db000ef          	jal	ra,41e4 <SPI_I2S_GetFlagStatus>
    320e:	ff450be3          	beq	a0,s4,3204 <MCAL_WRAPEPR_SPI_POLL_TRANSFER+0x42>
    3212:	0905                	addi	s2,s2,1
    3214:	00098863          	beqz	s3,3224 <MCAL_WRAPEPR_SPI_POLL_TRANSFER+0x62>
    3218:	4008                	lw	a0,0(s0)
    321a:	0985                	addi	s3,s3,1
    321c:	7ab000ef          	jal	ra,41c6 <SPI_I2S_ReceiveData>
    3220:	fea98fa3          	sb	a0,-1(s3)
    3224:	14fd                	addi	s1,s1,-1
    3226:	04c2                	slli	s1,s1,0x10
    3228:	80c1                	srli	s1,s1,0x10
    322a:	bf55                	j	31de <MCAL_WRAPEPR_SPI_POLL_TRANSFER+0x1c>
    322c:	4505                	li	a0,1
    322e:	8082                	ret

00003230 <I2C_start_transmission>:
    3230:	ad4fd2ef          	jal	t0,504 <__riscv_save_4>
    3234:	84aa                	mv	s1,a0
    3236:	c5a5                	beqz	a1,329e <I2C_start_transmission+0x6e>
    3238:	00030437          	lui	s0,0x30
    323c:	0409                	addi	s0,s0,2
    323e:	4a05                	li	s4,1
    3240:	40006937          	lui	s2,0x40006
    3244:	80090993          	addi	s3,s2,-2048 # 40005800 <__freertos_irq_stack_top+0x20000800>
    3248:	000205b7          	lui	a1,0x20
    324c:	854e                	mv	a0,s3
    324e:	23f000ef          	jal	ra,3c8c <I2C_GetFlagStatus>
    3252:	f97d                	bnez	a0,3248 <I2C_start_transmission+0x18>
    3254:	80090513          	addi	a0,s2,-2048
    3258:	4585                	li	a1,1
    325a:	00030937          	lui	s2,0x30
    325e:	400069b7          	lui	s3,0x40006
    3262:	7e6000ef          	jal	ra,3a48 <I2C_GenerateSTART>
    3266:	0905                	addi	s2,s2,1
    3268:	80098a93          	addi	s5,s3,-2048 # 40005800 <__freertos_irq_stack_top+0x20000800>
    326c:	85ca                	mv	a1,s2
    326e:	8556                	mv	a0,s5
    3270:	195000ef          	jal	ra,3c04 <I2C_CheckEvent>
    3274:	dd65                	beqz	a0,326c <I2C_start_transmission+0x3c>
    3276:	00149593          	slli	a1,s1,0x1
    327a:	8652                	mv	a2,s4
    327c:	0fe5f593          	andi	a1,a1,254
    3280:	80098513          	addi	a0,s3,-2048
    3284:	400064b7          	lui	s1,0x40006
    3288:	0c1000ef          	jal	ra,3b48 <I2C_Send7bitAddress>
    328c:	80048493          	addi	s1,s1,-2048 # 40005800 <__freertos_irq_stack_top+0x20000800>
    3290:	85a2                	mv	a1,s0
    3292:	8526                	mv	a0,s1
    3294:	171000ef          	jal	ra,3c04 <I2C_CheckEvent>
    3298:	dd65                	beqz	a0,3290 <I2C_start_transmission+0x60>
    329a:	a9efd06f          	j	538 <__riscv_restore_4>
    329e:	00070437          	lui	s0,0x70
    32a2:	08240413          	addi	s0,s0,130 # 70082 <_data_lma+0x67dde>
    32a6:	4a01                	li	s4,0
    32a8:	bf61                	j	3240 <I2C_start_transmission+0x10>

000032aa <I2C_write>:
    32aa:	a5afd2ef          	jal	t0,504 <__riscv_save_4>
    32ae:	10000437          	lui	s0,0x10000
    32b2:	400064b7          	lui	s1,0x40006
    32b6:	892a                	mv	s2,a0
    32b8:	08040413          	addi	s0,s0,128 # 10000080 <_data_lma+0xfff7ddc>
    32bc:	80048a13          	addi	s4,s1,-2048 # 40005800 <__freertos_irq_stack_top+0x20000800>
    32c0:	4985                	li	s3,1
    32c2:	85a2                	mv	a1,s0
    32c4:	8552                	mv	a0,s4
    32c6:	1c7000ef          	jal	ra,3c8c <I2C_GetFlagStatus>
    32ca:	ff351ce3          	bne	a0,s3,32c2 <I2C_write+0x18>
    32ce:	85ca                	mv	a1,s2
    32d0:	80048513          	addi	a0,s1,-2048
    32d4:	029000ef          	jal	ra,3afc <I2C_SendData>
    32d8:	a60fd06f          	j	538 <__riscv_restore_4>

000032dc <I2C_stop>:
    32dc:	a28fd2ef          	jal	t0,504 <__riscv_save_4>
    32e0:	10000437          	lui	s0,0x10000
    32e4:	400064b7          	lui	s1,0x40006
    32e8:	08040413          	addi	s0,s0,128 # 10000080 <_data_lma+0xfff7ddc>
    32ec:	80048993          	addi	s3,s1,-2048 # 40005800 <__freertos_irq_stack_top+0x20000800>
    32f0:	4905                	li	s2,1
    32f2:	85a2                	mv	a1,s0
    32f4:	854e                	mv	a0,s3
    32f6:	197000ef          	jal	ra,3c8c <I2C_GetFlagStatus>
    32fa:	ff251ce3          	bne	a0,s2,32f2 <I2C_stop+0x16>
    32fe:	4585                	li	a1,1
    3300:	80048513          	addi	a0,s1,-2048
    3304:	2f79                	jal	3aa2 <I2C_GenerateSTOP>
    3306:	a32fd06f          	j	538 <__riscv_restore_4>

0000330a <I2C_read>:
    330a:	200006b7          	lui	a3,0x20000
    330e:	11068693          	addi	a3,a3,272 # 20000110 <i.4728>
    3312:	0006c783          	lbu	a5,0(a3)
    3316:	20000737          	lui	a4,0x20000
    331a:	11c70713          	addi	a4,a4,284 # 2000011c <RxData>
    331e:	973e                	add	a4,a4,a5
    3320:	4619                	li	a2,6
    3322:	0785                	addi	a5,a5,1
    3324:	02c7e7b3          	rem	a5,a5,a2
    3328:	00074503          	lbu	a0,0(a4)
    332c:	00f68023          	sb	a5,0(a3)
    3330:	8082                	ret

00003332 <I2C_requestFrom>:
    3332:	9d2fd2ef          	jal	t0,504 <__riscv_save_4>
    3336:	4585                	li	a1,1
    3338:	10000937          	lui	s2,0x10000
    333c:	400064b7          	lui	s1,0x40006
    3340:	200009b7          	lui	s3,0x20000
    3344:	35f5                	jal	3230 <I2C_start_transmission>
    3346:	4401                	li	s0,0
    3348:	04090913          	addi	s2,s2,64 # 10000040 <_data_lma+0xfff7d9c>
    334c:	80048493          	addi	s1,s1,-2048 # 40005800 <__freertos_irq_stack_top+0x20000800>
    3350:	11c98993          	addi	s3,s3,284 # 2000011c <RxData>
    3354:	4a95                	li	s5,5
    3356:	4a19                	li	s4,6
    3358:	85ca                	mv	a1,s2
    335a:	8526                	mv	a0,s1
    335c:	131000ef          	jal	ra,3c8c <I2C_GetFlagStatus>
    3360:	c911                	beqz	a0,3374 <I2C_requestFrom+0x42>
    3362:	8526                	mv	a0,s1
    3364:	27c9                	jal	3b26 <I2C_ReceiveData>
    3366:	013407b3          	add	a5,s0,s3
    336a:	0405                	addi	s0,s0,1
    336c:	00a78023          	sb	a0,0(a5)
    3370:	0ff47413          	andi	s0,s0,255
    3374:	01541963          	bne	s0,s5,3386 <I2C_requestFrom+0x54>
    3378:	6585                	lui	a1,0x1
    337a:	80058593          	addi	a1,a1,-2048 # 800 <__stack_size>
    337e:	8526                	mv	a0,s1
    3380:	019000ef          	jal	ra,3b98 <I2C_NACKPositionConfig>
    3384:	bfd1                	j	3358 <I2C_requestFrom+0x26>
    3386:	fd4419e3          	bne	s0,s4,3358 <I2C_requestFrom+0x26>
    338a:	10000437          	lui	s0,0x10000
    338e:	400064b7          	lui	s1,0x40006
    3392:	04040413          	addi	s0,s0,64 # 10000040 <_data_lma+0xfff7d9c>
    3396:	80048993          	addi	s3,s1,-2048 # 40005800 <__freertos_irq_stack_top+0x20000800>
    339a:	4905                	li	s2,1
    339c:	85a2                	mv	a1,s0
    339e:	854e                	mv	a0,s3
    33a0:	0ed000ef          	jal	ra,3c8c <I2C_GetFlagStatus>
    33a4:	ff251ce3          	bne	a0,s2,339c <I2C_requestFrom+0x6a>
    33a8:	80048513          	addi	a0,s1,-2048
    33ac:	4585                	li	a1,1
    33ae:	2dd5                	jal	3aa2 <I2C_GenerateSTOP>
    33b0:	4519                	li	a0,6
    33b2:	986fd06f          	j	538 <__riscv_restore_4>
    33b6:	a001                	j	33b6 <I2C_requestFrom+0x84>
    33b8:	a001                	j	33b8 <I2C_requestFrom+0x86>

000033ba <Ecall_M_Mode_Handler>:
    33ba:	a001                	j	33ba <Ecall_M_Mode_Handler>

000033bc <Ecall_U_Mode_Handler>:
    33bc:	a001                	j	33bc <Ecall_U_Mode_Handler>

000033be <Break_Point_Handler>:
    33be:	a001                	j	33be <Break_Point_Handler>
    33c0:	a001                	j	33c0 <Break_Point_Handler+0x2>
    33c2:	a001                	j	33c2 <Break_Point_Handler+0x4>

000033c4 <WWDG_IRQHandler>:
    33c4:	a001                	j	33c4 <WWDG_IRQHandler>

000033c6 <PVD_IRQHandler>:
    33c6:	a001                	j	33c6 <PVD_IRQHandler>

000033c8 <TAMPER_IRQHandler>:
    33c8:	a001                	j	33c8 <TAMPER_IRQHandler>

000033ca <RTC_IRQHandler>:
    33ca:	a001                	j	33ca <RTC_IRQHandler>

000033cc <FLASH_IRQHandler>:
    33cc:	a001                	j	33cc <FLASH_IRQHandler>

000033ce <RCC_IRQHandler>:
    33ce:	a001                	j	33ce <RCC_IRQHandler>

000033d0 <EXTI0_IRQHandler>:
    33d0:	a001                	j	33d0 <EXTI0_IRQHandler>

000033d2 <EXTI1_IRQHandler>:
    33d2:	a001                	j	33d2 <EXTI1_IRQHandler>

000033d4 <EXTI2_IRQHandler>:
    33d4:	a001                	j	33d4 <EXTI2_IRQHandler>

000033d6 <EXTI3_IRQHandler>:
    33d6:	a001                	j	33d6 <EXTI3_IRQHandler>

000033d8 <EXTI4_IRQHandler>:
    33d8:	a001                	j	33d8 <EXTI4_IRQHandler>

000033da <DMA1_Channel1_IRQHandler>:
    33da:	a001                	j	33da <DMA1_Channel1_IRQHandler>

000033dc <DMA1_Channel2_IRQHandler>:
    33dc:	a001                	j	33dc <DMA1_Channel2_IRQHandler>

000033de <DMA1_Channel3_IRQHandler>:
    33de:	a001                	j	33de <DMA1_Channel3_IRQHandler>

000033e0 <DMA1_Channel4_IRQHandler>:
    33e0:	a001                	j	33e0 <DMA1_Channel4_IRQHandler>

000033e2 <DMA1_Channel5_IRQHandler>:
    33e2:	a001                	j	33e2 <DMA1_Channel5_IRQHandler>

000033e4 <DMA1_Channel6_IRQHandler>:
    33e4:	a001                	j	33e4 <DMA1_Channel6_IRQHandler>

000033e6 <DMA1_Channel7_IRQHandler>:
    33e6:	a001                	j	33e6 <DMA1_Channel7_IRQHandler>

000033e8 <ADC1_2_IRQHandler>:
    33e8:	a001                	j	33e8 <ADC1_2_IRQHandler>

000033ea <USB_HP_CAN1_TX_IRQHandler>:
    33ea:	a001                	j	33ea <USB_HP_CAN1_TX_IRQHandler>

000033ec <USB_LP_CAN1_RX0_IRQHandler>:
    33ec:	a001                	j	33ec <USB_LP_CAN1_RX0_IRQHandler>

000033ee <CAN1_RX1_IRQHandler>:
    33ee:	a001                	j	33ee <CAN1_RX1_IRQHandler>

000033f0 <CAN1_SCE_IRQHandler>:
    33f0:	a001                	j	33f0 <CAN1_SCE_IRQHandler>

000033f2 <EXTI9_5_IRQHandler>:
    33f2:	a001                	j	33f2 <EXTI9_5_IRQHandler>

000033f4 <TIM1_BRK_IRQHandler>:
    33f4:	a001                	j	33f4 <TIM1_BRK_IRQHandler>

000033f6 <TIM1_UP_IRQHandler>:
    33f6:	a001                	j	33f6 <TIM1_UP_IRQHandler>

000033f8 <TIM1_TRG_COM_IRQHandler>:
    33f8:	a001                	j	33f8 <TIM1_TRG_COM_IRQHandler>

000033fa <TIM1_CC_IRQHandler>:
    33fa:	a001                	j	33fa <TIM1_CC_IRQHandler>

000033fc <TIM2_IRQHandler>:
    33fc:	a001                	j	33fc <TIM2_IRQHandler>

000033fe <TIM3_IRQHandler>:
    33fe:	a001                	j	33fe <TIM3_IRQHandler>

00003400 <TIM4_IRQHandler>:
    3400:	a001                	j	3400 <TIM4_IRQHandler>

00003402 <I2C1_EV_IRQHandler>:
    3402:	a001                	j	3402 <I2C1_EV_IRQHandler>

00003404 <I2C1_ER_IRQHandler>:
    3404:	a001                	j	3404 <I2C1_ER_IRQHandler>

00003406 <I2C2_EV_IRQHandler>:
    3406:	a001                	j	3406 <I2C2_EV_IRQHandler>

00003408 <I2C2_ER_IRQHandler>:
    3408:	a001                	j	3408 <I2C2_ER_IRQHandler>

0000340a <SPI1_IRQHandler>:
    340a:	a001                	j	340a <SPI1_IRQHandler>

0000340c <SPI2_IRQHandler>:
    340c:	a001                	j	340c <SPI2_IRQHandler>

0000340e <USART1_IRQHandler>:
    340e:	a001                	j	340e <USART1_IRQHandler>

00003410 <USART2_IRQHandler>:
    3410:	a001                	j	3410 <USART2_IRQHandler>

00003412 <USART3_IRQHandler>:
    3412:	a001                	j	3412 <USART3_IRQHandler>

00003414 <EXTI15_10_IRQHandler>:
    3414:	a001                	j	3414 <EXTI15_10_IRQHandler>

00003416 <RTCAlarm_IRQHandler>:
    3416:	a001                	j	3416 <RTCAlarm_IRQHandler>

00003418 <USBWakeUp_IRQHandler>:
    3418:	a001                	j	3418 <USBWakeUp_IRQHandler>

0000341a <USBHD_IRQHandler>:
    341a:	a001                	j	341a <USBHD_IRQHandler>

0000341c <USBHDWakeUp_IRQHandler>:
    341c:	a001                	j	341c <USBHDWakeUp_IRQHandler>

0000341e <UART4_IRQHandler>:
    341e:	a001                	j	341e <UART4_IRQHandler>

00003420 <DMA1_Channel8_IRQHandler>:
    3420:	a001                	j	3420 <DMA1_Channel8_IRQHandler>

00003422 <handle_reset>:
    3422:	1fffd197          	auipc	gp,0x1fffd
    3426:	45e18193          	addi	gp,gp,1118 # 20000880 <__global_pointer$>
    342a:	20002117          	auipc	sp,0x20002
    342e:	bd610113          	addi	sp,sp,-1066 # 20005000 <__freertos_irq_stack_top>
    3432:	00005517          	auipc	a0,0x5
    3436:	e7250513          	addi	a0,a0,-398 # 82a4 <_data_lma>
    343a:	1fffd597          	auipc	a1,0x1fffd
    343e:	bc658593          	addi	a1,a1,-1082 # 20000000 <_data_vma>
    3442:	82018613          	addi	a2,gp,-2016 # 200000a0 <_edata>
    3446:	00c5fa63          	bgeu	a1,a2,345a <handle_reset+0x38>
    344a:	00052283          	lw	t0,0(a0)
    344e:	0055a023          	sw	t0,0(a1)
    3452:	0511                	addi	a0,a0,4
    3454:	0591                	addi	a1,a1,4
    3456:	fec5eae3          	bltu	a1,a2,344a <handle_reset+0x28>
    345a:	1fffd517          	auipc	a0,0x1fffd
    345e:	c4650513          	addi	a0,a0,-954 # 200000a0 <_edata>
    3462:	20000597          	auipc	a1,0x20000
    3466:	e8258593          	addi	a1,a1,-382 # 200032e4 <_ebss>
    346a:	00b57763          	bgeu	a0,a1,3478 <handle_reset+0x56>
    346e:	00052023          	sw	zero,0(a0)
    3472:	0511                	addi	a0,a0,4
    3474:	feb56de3          	bltu	a0,a1,346e <handle_reset+0x4c>
    3478:	42fd                	li	t0,31
    347a:	bc029073          	csrw	0xbc0,t0
    347e:	4289                	li	t0,2
    3480:	80429073          	csrw	0x804,t0
    3484:	000022b7          	lui	t0,0x2
    3488:	80028293          	addi	t0,t0,-2048 # 1800 <xTaskCreate+0x38>
    348c:	3002a073          	csrs	mstatus,t0
    3490:	ffffd297          	auipc	t0,0xffffd
    3494:	ba828293          	addi	t0,t0,-1112 # 38 <_einit>
    3498:	0032e293          	ori	t0,t0,3
    349c:	30529073          	csrw	mtvec,t0
    34a0:	37c010ef          	jal	ra,481c <SystemInit>
    34a4:	00002297          	auipc	t0,0x2
    34a8:	c8028293          	addi	t0,t0,-896 # 5124 <main>
    34ac:	34129073          	csrw	mepc,t0
    34b0:	30200073          	mret

000034b4 <GPIO_Init>:
    34b4:	7139                	addi	sp,sp,-64
    34b6:	de22                	sw	s0,60(sp)
    34b8:	0080                	addi	s0,sp,64
    34ba:	fca42623          	sw	a0,-52(s0)
    34be:	fcb42423          	sw	a1,-56(s0)
    34c2:	fe042623          	sw	zero,-20(s0)
    34c6:	fe042023          	sw	zero,-32(s0)
    34ca:	fe042423          	sw	zero,-24(s0)
    34ce:	fc042e23          	sw	zero,-36(s0)
    34d2:	fe042223          	sw	zero,-28(s0)
    34d6:	fc042c23          	sw	zero,-40(s0)
    34da:	fc842783          	lw	a5,-56(s0)
    34de:	479c                	lw	a5,8(a5)
    34e0:	8bbd                	andi	a5,a5,15
    34e2:	fef42623          	sw	a5,-20(s0)
    34e6:	fc842783          	lw	a5,-56(s0)
    34ea:	479c                	lw	a5,8(a5)
    34ec:	8bc1                	andi	a5,a5,16
    34ee:	cb89                	beqz	a5,3500 <GPIO_Init+0x4c>
    34f0:	fc842783          	lw	a5,-56(s0)
    34f4:	43dc                	lw	a5,4(a5)
    34f6:	fec42703          	lw	a4,-20(s0)
    34fa:	8fd9                	or	a5,a5,a4
    34fc:	fef42623          	sw	a5,-20(s0)
    3500:	400227b7          	lui	a5,0x40022
    3504:	03078793          	addi	a5,a5,48 # 40022030 <__freertos_irq_stack_top+0x2001d030>
    3508:	4398                	lw	a4,0(a5)
    350a:	0f0007b7          	lui	a5,0xf000
    350e:	8ff9                	and	a5,a5,a4
    3510:	e791                	bnez	a5,351c <GPIO_Init+0x68>
    3512:	200007b7          	lui	a5,0x20000
    3516:	4705                	li	a4,1
    3518:	10e788a3          	sb	a4,273(a5) # 20000111 <MCU_Version>
    351c:	fcc42703          	lw	a4,-52(s0)
    3520:	400117b7          	lui	a5,0x40011
    3524:	02f71363          	bne	a4,a5,354a <GPIO_Init+0x96>
    3528:	200007b7          	lui	a5,0x20000
    352c:	1117c783          	lbu	a5,273(a5) # 20000111 <MCU_Version>
    3530:	cf89                	beqz	a5,354a <GPIO_Init+0x96>
    3532:	fc842783          	lw	a5,-56(s0)
    3536:	0007d783          	lhu	a5,0(a5)
    353a:	83b5                	srli	a5,a5,0xd
    353c:	01079713          	slli	a4,a5,0x10
    3540:	8341                	srli	a4,a4,0x10
    3542:	fc842783          	lw	a5,-56(s0)
    3546:	00e79023          	sh	a4,0(a5)
    354a:	fc842783          	lw	a5,-56(s0)
    354e:	0007d783          	lhu	a5,0(a5)
    3552:	0ff7f793          	andi	a5,a5,255
    3556:	cff1                	beqz	a5,3632 <GPIO_Init+0x17e>
    3558:	fcc42783          	lw	a5,-52(s0)
    355c:	439c                	lw	a5,0(a5)
    355e:	fef42223          	sw	a5,-28(s0)
    3562:	fe042423          	sw	zero,-24(s0)
    3566:	a865                	j	361e <GPIO_Init+0x16a>
    3568:	fe842783          	lw	a5,-24(s0)
    356c:	4705                	li	a4,1
    356e:	00f717b3          	sll	a5,a4,a5
    3572:	fcf42e23          	sw	a5,-36(s0)
    3576:	fc842783          	lw	a5,-56(s0)
    357a:	0007d783          	lhu	a5,0(a5)
    357e:	873e                	mv	a4,a5
    3580:	fdc42783          	lw	a5,-36(s0)
    3584:	8ff9                	and	a5,a5,a4
    3586:	fef42023          	sw	a5,-32(s0)
    358a:	fe042703          	lw	a4,-32(s0)
    358e:	fdc42783          	lw	a5,-36(s0)
    3592:	08f71163          	bne	a4,a5,3614 <GPIO_Init+0x160>
    3596:	fe842783          	lw	a5,-24(s0)
    359a:	078a                	slli	a5,a5,0x2
    359c:	fcf42e23          	sw	a5,-36(s0)
    35a0:	fdc42783          	lw	a5,-36(s0)
    35a4:	473d                	li	a4,15
    35a6:	00f717b3          	sll	a5,a4,a5
    35aa:	fcf42c23          	sw	a5,-40(s0)
    35ae:	fd842783          	lw	a5,-40(s0)
    35b2:	fff7c793          	not	a5,a5
    35b6:	fe442703          	lw	a4,-28(s0)
    35ba:	8ff9                	and	a5,a5,a4
    35bc:	fef42223          	sw	a5,-28(s0)
    35c0:	fdc42783          	lw	a5,-36(s0)
    35c4:	fec42703          	lw	a4,-20(s0)
    35c8:	00f717b3          	sll	a5,a4,a5
    35cc:	fe442703          	lw	a4,-28(s0)
    35d0:	8fd9                	or	a5,a5,a4
    35d2:	fef42223          	sw	a5,-28(s0)
    35d6:	fc842783          	lw	a5,-56(s0)
    35da:	4798                	lw	a4,8(a5)
    35dc:	02800793          	li	a5,40
    35e0:	00f71b63          	bne	a4,a5,35f6 <GPIO_Init+0x142>
    35e4:	fe842783          	lw	a5,-24(s0)
    35e8:	4705                	li	a4,1
    35ea:	00f71733          	sll	a4,a4,a5
    35ee:	fcc42783          	lw	a5,-52(s0)
    35f2:	cbd8                	sw	a4,20(a5)
    35f4:	a005                	j	3614 <GPIO_Init+0x160>
    35f6:	fc842783          	lw	a5,-56(s0)
    35fa:	4798                	lw	a4,8(a5)
    35fc:	04800793          	li	a5,72
    3600:	00f71a63          	bne	a4,a5,3614 <GPIO_Init+0x160>
    3604:	fe842783          	lw	a5,-24(s0)
    3608:	4705                	li	a4,1
    360a:	00f71733          	sll	a4,a4,a5
    360e:	fcc42783          	lw	a5,-52(s0)
    3612:	cb98                	sw	a4,16(a5)
    3614:	fe842783          	lw	a5,-24(s0)
    3618:	0785                	addi	a5,a5,1
    361a:	fef42423          	sw	a5,-24(s0)
    361e:	fe842703          	lw	a4,-24(s0)
    3622:	479d                	li	a5,7
    3624:	f4e7f2e3          	bgeu	a5,a4,3568 <GPIO_Init+0xb4>
    3628:	fcc42783          	lw	a5,-52(s0)
    362c:	fe442703          	lw	a4,-28(s0)
    3630:	c398                	sw	a4,0(a5)
    3632:	fc842783          	lw	a5,-56(s0)
    3636:	0007d703          	lhu	a4,0(a5)
    363a:	0ff00793          	li	a5,255
    363e:	0ee7f163          	bgeu	a5,a4,3720 <GPIO_Init+0x26c>
    3642:	fcc42783          	lw	a5,-52(s0)
    3646:	43dc                	lw	a5,4(a5)
    3648:	fef42223          	sw	a5,-28(s0)
    364c:	fe042423          	sw	zero,-24(s0)
    3650:	a875                	j	370c <GPIO_Init+0x258>
    3652:	fe842783          	lw	a5,-24(s0)
    3656:	07a1                	addi	a5,a5,8
    3658:	4705                	li	a4,1
    365a:	00f717b3          	sll	a5,a4,a5
    365e:	fcf42e23          	sw	a5,-36(s0)
    3662:	fc842783          	lw	a5,-56(s0)
    3666:	0007d783          	lhu	a5,0(a5)
    366a:	873e                	mv	a4,a5
    366c:	fdc42783          	lw	a5,-36(s0)
    3670:	8ff9                	and	a5,a5,a4
    3672:	fef42023          	sw	a5,-32(s0)
    3676:	fe042703          	lw	a4,-32(s0)
    367a:	fdc42783          	lw	a5,-36(s0)
    367e:	08f71263          	bne	a4,a5,3702 <GPIO_Init+0x24e>
    3682:	fe842783          	lw	a5,-24(s0)
    3686:	078a                	slli	a5,a5,0x2
    3688:	fcf42e23          	sw	a5,-36(s0)
    368c:	fdc42783          	lw	a5,-36(s0)
    3690:	473d                	li	a4,15
    3692:	00f717b3          	sll	a5,a4,a5
    3696:	fcf42c23          	sw	a5,-40(s0)
    369a:	fd842783          	lw	a5,-40(s0)
    369e:	fff7c793          	not	a5,a5
    36a2:	fe442703          	lw	a4,-28(s0)
    36a6:	8ff9                	and	a5,a5,a4
    36a8:	fef42223          	sw	a5,-28(s0)
    36ac:	fdc42783          	lw	a5,-36(s0)
    36b0:	fec42703          	lw	a4,-20(s0)
    36b4:	00f717b3          	sll	a5,a4,a5
    36b8:	fe442703          	lw	a4,-28(s0)
    36bc:	8fd9                	or	a5,a5,a4
    36be:	fef42223          	sw	a5,-28(s0)
    36c2:	fc842783          	lw	a5,-56(s0)
    36c6:	4798                	lw	a4,8(a5)
    36c8:	02800793          	li	a5,40
    36cc:	00f71b63          	bne	a4,a5,36e2 <GPIO_Init+0x22e>
    36d0:	fe842783          	lw	a5,-24(s0)
    36d4:	07a1                	addi	a5,a5,8
    36d6:	4705                	li	a4,1
    36d8:	00f71733          	sll	a4,a4,a5
    36dc:	fcc42783          	lw	a5,-52(s0)
    36e0:	cbd8                	sw	a4,20(a5)
    36e2:	fc842783          	lw	a5,-56(s0)
    36e6:	4798                	lw	a4,8(a5)
    36e8:	04800793          	li	a5,72
    36ec:	00f71b63          	bne	a4,a5,3702 <GPIO_Init+0x24e>
    36f0:	fe842783          	lw	a5,-24(s0)
    36f4:	07a1                	addi	a5,a5,8
    36f6:	4705                	li	a4,1
    36f8:	00f71733          	sll	a4,a4,a5
    36fc:	fcc42783          	lw	a5,-52(s0)
    3700:	cb98                	sw	a4,16(a5)
    3702:	fe842783          	lw	a5,-24(s0)
    3706:	0785                	addi	a5,a5,1
    3708:	fef42423          	sw	a5,-24(s0)
    370c:	fe842703          	lw	a4,-24(s0)
    3710:	479d                	li	a5,7
    3712:	f4e7f0e3          	bgeu	a5,a4,3652 <GPIO_Init+0x19e>
    3716:	fcc42783          	lw	a5,-52(s0)
    371a:	fe442703          	lw	a4,-28(s0)
    371e:	c3d8                	sw	a4,4(a5)
    3720:	0001                	nop
    3722:	5472                	lw	s0,60(sp)
    3724:	6121                	addi	sp,sp,64
    3726:	8082                	ret

00003728 <GPIO_SetBits>:
    3728:	1101                	addi	sp,sp,-32
    372a:	ce22                	sw	s0,28(sp)
    372c:	1000                	addi	s0,sp,32
    372e:	fea42623          	sw	a0,-20(s0)
    3732:	87ae                	mv	a5,a1
    3734:	fef41523          	sh	a5,-22(s0)
    3738:	fec42703          	lw	a4,-20(s0)
    373c:	400117b7          	lui	a5,0x40011
    3740:	00f71c63          	bne	a4,a5,3758 <GPIO_SetBits+0x30>
    3744:	200007b7          	lui	a5,0x20000
    3748:	1117c783          	lbu	a5,273(a5) # 20000111 <MCU_Version>
    374c:	c791                	beqz	a5,3758 <GPIO_SetBits+0x30>
    374e:	fea45783          	lhu	a5,-22(s0)
    3752:	83b5                	srli	a5,a5,0xd
    3754:	fef41523          	sh	a5,-22(s0)
    3758:	fea45703          	lhu	a4,-22(s0)
    375c:	fec42783          	lw	a5,-20(s0)
    3760:	cb98                	sw	a4,16(a5)
    3762:	0001                	nop
    3764:	4472                	lw	s0,28(sp)
    3766:	6105                	addi	sp,sp,32
    3768:	8082                	ret

0000376a <GPIO_ResetBits>:
    376a:	1101                	addi	sp,sp,-32
    376c:	ce22                	sw	s0,28(sp)
    376e:	1000                	addi	s0,sp,32
    3770:	fea42623          	sw	a0,-20(s0)
    3774:	87ae                	mv	a5,a1
    3776:	fef41523          	sh	a5,-22(s0)
    377a:	fec42703          	lw	a4,-20(s0)
    377e:	400117b7          	lui	a5,0x40011
    3782:	00f71c63          	bne	a4,a5,379a <GPIO_ResetBits+0x30>
    3786:	200007b7          	lui	a5,0x20000
    378a:	1117c783          	lbu	a5,273(a5) # 20000111 <MCU_Version>
    378e:	c791                	beqz	a5,379a <GPIO_ResetBits+0x30>
    3790:	fea45783          	lhu	a5,-22(s0)
    3794:	83b5                	srli	a5,a5,0xd
    3796:	fef41523          	sh	a5,-22(s0)
    379a:	fea45703          	lhu	a4,-22(s0)
    379e:	fec42783          	lw	a5,-20(s0)
    37a2:	cbd8                	sw	a4,20(a5)
    37a4:	0001                	nop
    37a6:	4472                	lw	s0,28(sp)
    37a8:	6105                	addi	sp,sp,32
    37aa:	8082                	ret

000037ac <I2C_Init>:
    37ac:	7139                	addi	sp,sp,-64
    37ae:	de06                	sw	ra,60(sp)
    37b0:	dc22                	sw	s0,56(sp)
    37b2:	0080                	addi	s0,sp,64
    37b4:	fca42623          	sw	a0,-52(s0)
    37b8:	fcb42423          	sw	a1,-56(s0)
    37bc:	fe041723          	sh	zero,-18(s0)
    37c0:	fe041523          	sh	zero,-22(s0)
    37c4:	4791                	li	a5,4
    37c6:	fef41623          	sh	a5,-20(s0)
    37ca:	007a17b7          	lui	a5,0x7a1
    37ce:	20078793          	addi	a5,a5,512 # 7a1200 <_data_lma+0x798f5c>
    37d2:	fef42223          	sw	a5,-28(s0)
    37d6:	fcc42783          	lw	a5,-52(s0)
    37da:	0047d783          	lhu	a5,4(a5)
    37de:	fef41723          	sh	a5,-18(s0)
    37e2:	fee45783          	lhu	a5,-18(s0)
    37e6:	fc07f793          	andi	a5,a5,-64
    37ea:	fef41723          	sh	a5,-18(s0)
    37ee:	fd040793          	addi	a5,s0,-48
    37f2:	853e                	mv	a0,a5
    37f4:	2b3d                	jal	3d32 <RCC_GetClocksFreq>
    37f6:	fd842783          	lw	a5,-40(s0)
    37fa:	fef42223          	sw	a5,-28(s0)
    37fe:	fd842783          	lw	a5,-40(s0)
    3802:	fef42223          	sw	a5,-28(s0)
    3806:	fe442703          	lw	a4,-28(s0)
    380a:	000f47b7          	lui	a5,0xf4
    380e:	24078793          	addi	a5,a5,576 # f4240 <_data_lma+0xebf9c>
    3812:	02f757b3          	divu	a5,a4,a5
    3816:	fef41523          	sh	a5,-22(s0)
    381a:	fee45703          	lhu	a4,-18(s0)
    381e:	fea45783          	lhu	a5,-22(s0)
    3822:	8fd9                	or	a5,a5,a4
    3824:	fef41723          	sh	a5,-18(s0)
    3828:	fcc42783          	lw	a5,-52(s0)
    382c:	fee45703          	lhu	a4,-18(s0)
    3830:	00e79223          	sh	a4,4(a5)
    3834:	fcc42783          	lw	a5,-52(s0)
    3838:	0007d783          	lhu	a5,0(a5)
    383c:	07c2                	slli	a5,a5,0x10
    383e:	83c1                	srli	a5,a5,0x10
    3840:	9bf9                	andi	a5,a5,-2
    3842:	01079713          	slli	a4,a5,0x10
    3846:	8341                	srli	a4,a4,0x10
    3848:	fcc42783          	lw	a5,-52(s0)
    384c:	00e79023          	sh	a4,0(a5)
    3850:	fe041723          	sh	zero,-18(s0)
    3854:	fc842783          	lw	a5,-56(s0)
    3858:	4398                	lw	a4,0(a5)
    385a:	67e1                	lui	a5,0x18
    385c:	6a078793          	addi	a5,a5,1696 # 186a0 <_data_lma+0x103fc>
    3860:	04e7e663          	bltu	a5,a4,38ac <I2C_Init+0x100>
    3864:	fc842783          	lw	a5,-56(s0)
    3868:	439c                	lw	a5,0(a5)
    386a:	0786                	slli	a5,a5,0x1
    386c:	fe442703          	lw	a4,-28(s0)
    3870:	02f757b3          	divu	a5,a4,a5
    3874:	fef41623          	sh	a5,-20(s0)
    3878:	fec45703          	lhu	a4,-20(s0)
    387c:	478d                	li	a5,3
    387e:	00e7e563          	bltu	a5,a4,3888 <I2C_Init+0xdc>
    3882:	4791                	li	a5,4
    3884:	fef41623          	sh	a5,-20(s0)
    3888:	fee45703          	lhu	a4,-18(s0)
    388c:	fec45783          	lhu	a5,-20(s0)
    3890:	8fd9                	or	a5,a5,a4
    3892:	fef41723          	sh	a5,-18(s0)
    3896:	fea45783          	lhu	a5,-22(s0)
    389a:	0785                	addi	a5,a5,1
    389c:	01079713          	slli	a4,a5,0x10
    38a0:	8341                	srli	a4,a4,0x10
    38a2:	fcc42783          	lw	a5,-52(s0)
    38a6:	02e79023          	sh	a4,32(a5)
    38aa:	a075                	j	3956 <I2C_Init+0x1aa>
    38ac:	fc842783          	lw	a5,-56(s0)
    38b0:	0067d703          	lhu	a4,6(a5)
    38b4:	67b1                	lui	a5,0xc
    38b6:	17fd                	addi	a5,a5,-1
    38b8:	00f71f63          	bne	a4,a5,38d6 <I2C_Init+0x12a>
    38bc:	fc842783          	lw	a5,-56(s0)
    38c0:	4398                	lw	a4,0(a5)
    38c2:	87ba                	mv	a5,a4
    38c4:	0786                	slli	a5,a5,0x1
    38c6:	97ba                	add	a5,a5,a4
    38c8:	fe442703          	lw	a4,-28(s0)
    38cc:	02f757b3          	divu	a5,a4,a5
    38d0:	fef41623          	sh	a5,-20(s0)
    38d4:	a02d                	j	38fe <I2C_Init+0x152>
    38d6:	fc842783          	lw	a5,-56(s0)
    38da:	4398                	lw	a4,0(a5)
    38dc:	87ba                	mv	a5,a4
    38de:	0786                	slli	a5,a5,0x1
    38e0:	97ba                	add	a5,a5,a4
    38e2:	078e                	slli	a5,a5,0x3
    38e4:	97ba                	add	a5,a5,a4
    38e6:	fe442703          	lw	a4,-28(s0)
    38ea:	02f757b3          	divu	a5,a4,a5
    38ee:	fef41623          	sh	a5,-20(s0)
    38f2:	fec45703          	lhu	a4,-20(s0)
    38f6:	6791                	lui	a5,0x4
    38f8:	8fd9                	or	a5,a5,a4
    38fa:	fef41623          	sh	a5,-20(s0)
    38fe:	fec45703          	lhu	a4,-20(s0)
    3902:	6785                	lui	a5,0x1
    3904:	17fd                	addi	a5,a5,-1
    3906:	8ff9                	and	a5,a5,a4
    3908:	e799                	bnez	a5,3916 <I2C_Init+0x16a>
    390a:	fec45783          	lhu	a5,-20(s0)
    390e:	0017e793          	ori	a5,a5,1
    3912:	fef41623          	sh	a5,-20(s0)
    3916:	fec45703          	lhu	a4,-20(s0)
    391a:	fee45783          	lhu	a5,-18(s0)
    391e:	8fd9                	or	a5,a5,a4
    3920:	01079713          	slli	a4,a5,0x10
    3924:	8341                	srli	a4,a4,0x10
    3926:	77e1                	lui	a5,0xffff8
    3928:	8fd9                	or	a5,a5,a4
    392a:	fef41723          	sh	a5,-18(s0)
    392e:	fea45703          	lhu	a4,-22(s0)
    3932:	12c00793          	li	a5,300
    3936:	02f70733          	mul	a4,a4,a5
    393a:	3e800793          	li	a5,1000
    393e:	02f747b3          	div	a5,a4,a5
    3942:	07c2                	slli	a5,a5,0x10
    3944:	83c1                	srli	a5,a5,0x10
    3946:	0785                	addi	a5,a5,1
    3948:	01079713          	slli	a4,a5,0x10
    394c:	8341                	srli	a4,a4,0x10
    394e:	fcc42783          	lw	a5,-52(s0)
    3952:	02e79023          	sh	a4,32(a5) # ffff8020 <__freertos_irq_stack_top+0xdfff3020>
    3956:	fcc42783          	lw	a5,-52(s0)
    395a:	fee45703          	lhu	a4,-18(s0)
    395e:	00e79e23          	sh	a4,28(a5)
    3962:	fcc42783          	lw	a5,-52(s0)
    3966:	0007d783          	lhu	a5,0(a5)
    396a:	07c2                	slli	a5,a5,0x10
    396c:	83c1                	srli	a5,a5,0x10
    396e:	0017e793          	ori	a5,a5,1
    3972:	01079713          	slli	a4,a5,0x10
    3976:	8341                	srli	a4,a4,0x10
    3978:	fcc42783          	lw	a5,-52(s0)
    397c:	00e79023          	sh	a4,0(a5)
    3980:	fcc42783          	lw	a5,-52(s0)
    3984:	0007d783          	lhu	a5,0(a5)
    3988:	fef41723          	sh	a5,-18(s0)
    398c:	fee45783          	lhu	a5,-18(s0)
    3990:	bf57f793          	andi	a5,a5,-1035
    3994:	fef41723          	sh	a5,-18(s0)
    3998:	fc842783          	lw	a5,-56(s0)
    399c:	0047d703          	lhu	a4,4(a5)
    39a0:	fc842783          	lw	a5,-56(s0)
    39a4:	00a7d783          	lhu	a5,10(a5)
    39a8:	8fd9                	or	a5,a5,a4
    39aa:	01079713          	slli	a4,a5,0x10
    39ae:	8341                	srli	a4,a4,0x10
    39b0:	fee45783          	lhu	a5,-18(s0)
    39b4:	8fd9                	or	a5,a5,a4
    39b6:	fef41723          	sh	a5,-18(s0)
    39ba:	fcc42783          	lw	a5,-52(s0)
    39be:	fee45703          	lhu	a4,-18(s0)
    39c2:	00e79023          	sh	a4,0(a5)
    39c6:	fc842783          	lw	a5,-56(s0)
    39ca:	00c7d703          	lhu	a4,12(a5)
    39ce:	fc842783          	lw	a5,-56(s0)
    39d2:	0087d783          	lhu	a5,8(a5)
    39d6:	8fd9                	or	a5,a5,a4
    39d8:	01079713          	slli	a4,a5,0x10
    39dc:	8341                	srli	a4,a4,0x10
    39de:	fcc42783          	lw	a5,-52(s0)
    39e2:	00e79423          	sh	a4,8(a5)
    39e6:	0001                	nop
    39e8:	50f2                	lw	ra,60(sp)
    39ea:	5462                	lw	s0,56(sp)
    39ec:	6121                	addi	sp,sp,64
    39ee:	8082                	ret

000039f0 <I2C_Cmd>:
    39f0:	1101                	addi	sp,sp,-32
    39f2:	ce22                	sw	s0,28(sp)
    39f4:	1000                	addi	s0,sp,32
    39f6:	fea42623          	sw	a0,-20(s0)
    39fa:	feb42423          	sw	a1,-24(s0)
    39fe:	fe842783          	lw	a5,-24(s0)
    3a02:	c38d                	beqz	a5,3a24 <I2C_Cmd+0x34>
    3a04:	fec42783          	lw	a5,-20(s0)
    3a08:	0007d783          	lhu	a5,0(a5)
    3a0c:	07c2                	slli	a5,a5,0x10
    3a0e:	83c1                	srli	a5,a5,0x10
    3a10:	0017e793          	ori	a5,a5,1
    3a14:	01079713          	slli	a4,a5,0x10
    3a18:	8341                	srli	a4,a4,0x10
    3a1a:	fec42783          	lw	a5,-20(s0)
    3a1e:	00e79023          	sh	a4,0(a5)
    3a22:	a839                	j	3a40 <I2C_Cmd+0x50>
    3a24:	fec42783          	lw	a5,-20(s0)
    3a28:	0007d783          	lhu	a5,0(a5)
    3a2c:	07c2                	slli	a5,a5,0x10
    3a2e:	83c1                	srli	a5,a5,0x10
    3a30:	9bf9                	andi	a5,a5,-2
    3a32:	01079713          	slli	a4,a5,0x10
    3a36:	8341                	srli	a4,a4,0x10
    3a38:	fec42783          	lw	a5,-20(s0)
    3a3c:	00e79023          	sh	a4,0(a5)
    3a40:	0001                	nop
    3a42:	4472                	lw	s0,28(sp)
    3a44:	6105                	addi	sp,sp,32
    3a46:	8082                	ret

00003a48 <I2C_GenerateSTART>:
    3a48:	1101                	addi	sp,sp,-32
    3a4a:	ce22                	sw	s0,28(sp)
    3a4c:	1000                	addi	s0,sp,32
    3a4e:	fea42623          	sw	a0,-20(s0)
    3a52:	feb42423          	sw	a1,-24(s0)
    3a56:	fe842783          	lw	a5,-24(s0)
    3a5a:	c38d                	beqz	a5,3a7c <I2C_GenerateSTART+0x34>
    3a5c:	fec42783          	lw	a5,-20(s0)
    3a60:	0007d783          	lhu	a5,0(a5)
    3a64:	07c2                	slli	a5,a5,0x10
    3a66:	83c1                	srli	a5,a5,0x10
    3a68:	1007e793          	ori	a5,a5,256
    3a6c:	01079713          	slli	a4,a5,0x10
    3a70:	8341                	srli	a4,a4,0x10
    3a72:	fec42783          	lw	a5,-20(s0)
    3a76:	00e79023          	sh	a4,0(a5)
    3a7a:	a005                	j	3a9a <I2C_GenerateSTART+0x52>
    3a7c:	fec42783          	lw	a5,-20(s0)
    3a80:	0007d783          	lhu	a5,0(a5)
    3a84:	07c2                	slli	a5,a5,0x10
    3a86:	83c1                	srli	a5,a5,0x10
    3a88:	eff7f793          	andi	a5,a5,-257
    3a8c:	01079713          	slli	a4,a5,0x10
    3a90:	8341                	srli	a4,a4,0x10
    3a92:	fec42783          	lw	a5,-20(s0)
    3a96:	00e79023          	sh	a4,0(a5)
    3a9a:	0001                	nop
    3a9c:	4472                	lw	s0,28(sp)
    3a9e:	6105                	addi	sp,sp,32
    3aa0:	8082                	ret

00003aa2 <I2C_GenerateSTOP>:
    3aa2:	1101                	addi	sp,sp,-32
    3aa4:	ce22                	sw	s0,28(sp)
    3aa6:	1000                	addi	s0,sp,32
    3aa8:	fea42623          	sw	a0,-20(s0)
    3aac:	feb42423          	sw	a1,-24(s0)
    3ab0:	fe842783          	lw	a5,-24(s0)
    3ab4:	c38d                	beqz	a5,3ad6 <I2C_GenerateSTOP+0x34>
    3ab6:	fec42783          	lw	a5,-20(s0)
    3aba:	0007d783          	lhu	a5,0(a5)
    3abe:	07c2                	slli	a5,a5,0x10
    3ac0:	83c1                	srli	a5,a5,0x10
    3ac2:	2007e793          	ori	a5,a5,512
    3ac6:	01079713          	slli	a4,a5,0x10
    3aca:	8341                	srli	a4,a4,0x10
    3acc:	fec42783          	lw	a5,-20(s0)
    3ad0:	00e79023          	sh	a4,0(a5)
    3ad4:	a005                	j	3af4 <I2C_GenerateSTOP+0x52>
    3ad6:	fec42783          	lw	a5,-20(s0)
    3ada:	0007d783          	lhu	a5,0(a5)
    3ade:	07c2                	slli	a5,a5,0x10
    3ae0:	83c1                	srli	a5,a5,0x10
    3ae2:	dff7f793          	andi	a5,a5,-513
    3ae6:	01079713          	slli	a4,a5,0x10
    3aea:	8341                	srli	a4,a4,0x10
    3aec:	fec42783          	lw	a5,-20(s0)
    3af0:	00e79023          	sh	a4,0(a5)
    3af4:	0001                	nop
    3af6:	4472                	lw	s0,28(sp)
    3af8:	6105                	addi	sp,sp,32
    3afa:	8082                	ret

00003afc <I2C_SendData>:
    3afc:	1101                	addi	sp,sp,-32
    3afe:	ce22                	sw	s0,28(sp)
    3b00:	1000                	addi	s0,sp,32
    3b02:	fea42623          	sw	a0,-20(s0)
    3b06:	87ae                	mv	a5,a1
    3b08:	fef405a3          	sb	a5,-21(s0)
    3b0c:	feb44783          	lbu	a5,-21(s0)
    3b10:	01079713          	slli	a4,a5,0x10
    3b14:	8341                	srli	a4,a4,0x10
    3b16:	fec42783          	lw	a5,-20(s0)
    3b1a:	00e79823          	sh	a4,16(a5)
    3b1e:	0001                	nop
    3b20:	4472                	lw	s0,28(sp)
    3b22:	6105                	addi	sp,sp,32
    3b24:	8082                	ret

00003b26 <I2C_ReceiveData>:
    3b26:	1101                	addi	sp,sp,-32
    3b28:	ce22                	sw	s0,28(sp)
    3b2a:	1000                	addi	s0,sp,32
    3b2c:	fea42623          	sw	a0,-20(s0)
    3b30:	fec42783          	lw	a5,-20(s0)
    3b34:	0107d783          	lhu	a5,16(a5)
    3b38:	07c2                	slli	a5,a5,0x10
    3b3a:	83c1                	srli	a5,a5,0x10
    3b3c:	0ff7f793          	andi	a5,a5,255
    3b40:	853e                	mv	a0,a5
    3b42:	4472                	lw	s0,28(sp)
    3b44:	6105                	addi	sp,sp,32
    3b46:	8082                	ret

00003b48 <I2C_Send7bitAddress>:
    3b48:	1101                	addi	sp,sp,-32
    3b4a:	ce22                	sw	s0,28(sp)
    3b4c:	1000                	addi	s0,sp,32
    3b4e:	fea42623          	sw	a0,-20(s0)
    3b52:	87ae                	mv	a5,a1
    3b54:	8732                	mv	a4,a2
    3b56:	fef405a3          	sb	a5,-21(s0)
    3b5a:	87ba                	mv	a5,a4
    3b5c:	fef40523          	sb	a5,-22(s0)
    3b60:	fea44783          	lbu	a5,-22(s0)
    3b64:	cb81                	beqz	a5,3b74 <I2C_Send7bitAddress+0x2c>
    3b66:	feb44783          	lbu	a5,-21(s0)
    3b6a:	0017e793          	ori	a5,a5,1
    3b6e:	fef405a3          	sb	a5,-21(s0)
    3b72:	a031                	j	3b7e <I2C_Send7bitAddress+0x36>
    3b74:	feb44783          	lbu	a5,-21(s0)
    3b78:	9bf9                	andi	a5,a5,-2
    3b7a:	fef405a3          	sb	a5,-21(s0)
    3b7e:	feb44783          	lbu	a5,-21(s0)
    3b82:	01079713          	slli	a4,a5,0x10
    3b86:	8341                	srli	a4,a4,0x10
    3b88:	fec42783          	lw	a5,-20(s0)
    3b8c:	00e79823          	sh	a4,16(a5)
    3b90:	0001                	nop
    3b92:	4472                	lw	s0,28(sp)
    3b94:	6105                	addi	sp,sp,32
    3b96:	8082                	ret

00003b98 <I2C_NACKPositionConfig>:
    3b98:	1101                	addi	sp,sp,-32
    3b9a:	ce22                	sw	s0,28(sp)
    3b9c:	1000                	addi	s0,sp,32
    3b9e:	fea42623          	sw	a0,-20(s0)
    3ba2:	87ae                	mv	a5,a1
    3ba4:	fef41523          	sh	a5,-22(s0)
    3ba8:	fea45783          	lhu	a5,-22(s0)
    3bac:	80078793          	addi	a5,a5,-2048
    3bb0:	e785                	bnez	a5,3bd8 <I2C_NACKPositionConfig+0x40>
    3bb2:	fec42783          	lw	a5,-20(s0)
    3bb6:	0007d783          	lhu	a5,0(a5)
    3bba:	01079713          	slli	a4,a5,0x10
    3bbe:	8341                	srli	a4,a4,0x10
    3bc0:	6785                	lui	a5,0x1
    3bc2:	80078793          	addi	a5,a5,-2048 # 800 <__stack_size>
    3bc6:	8fd9                	or	a5,a5,a4
    3bc8:	01079713          	slli	a4,a5,0x10
    3bcc:	8341                	srli	a4,a4,0x10
    3bce:	fec42783          	lw	a5,-20(s0)
    3bd2:	00e79023          	sh	a4,0(a5)
    3bd6:	a01d                	j	3bfc <I2C_NACKPositionConfig+0x64>
    3bd8:	fec42783          	lw	a5,-20(s0)
    3bdc:	0007d783          	lhu	a5,0(a5)
    3be0:	01079713          	slli	a4,a5,0x10
    3be4:	8341                	srli	a4,a4,0x10
    3be6:	77fd                	lui	a5,0xfffff
    3be8:	7ff78793          	addi	a5,a5,2047 # fffff7ff <__freertos_irq_stack_top+0xdfffa7ff>
    3bec:	8ff9                	and	a5,a5,a4
    3bee:	01079713          	slli	a4,a5,0x10
    3bf2:	8341                	srli	a4,a4,0x10
    3bf4:	fec42783          	lw	a5,-20(s0)
    3bf8:	00e79023          	sh	a4,0(a5)
    3bfc:	0001                	nop
    3bfe:	4472                	lw	s0,28(sp)
    3c00:	6105                	addi	sp,sp,32
    3c02:	8082                	ret

00003c04 <I2C_CheckEvent>:
    3c04:	7179                	addi	sp,sp,-48
    3c06:	d622                	sw	s0,44(sp)
    3c08:	1800                	addi	s0,sp,48
    3c0a:	fca42e23          	sw	a0,-36(s0)
    3c0e:	fcb42c23          	sw	a1,-40(s0)
    3c12:	fe042423          	sw	zero,-24(s0)
    3c16:	fe042223          	sw	zero,-28(s0)
    3c1a:	fe042023          	sw	zero,-32(s0)
    3c1e:	fe042623          	sw	zero,-20(s0)
    3c22:	fdc42783          	lw	a5,-36(s0)
    3c26:	0147d783          	lhu	a5,20(a5)
    3c2a:	07c2                	slli	a5,a5,0x10
    3c2c:	83c1                	srli	a5,a5,0x10
    3c2e:	fef42223          	sw	a5,-28(s0)
    3c32:	fdc42783          	lw	a5,-36(s0)
    3c36:	0187d783          	lhu	a5,24(a5)
    3c3a:	07c2                	slli	a5,a5,0x10
    3c3c:	83c1                	srli	a5,a5,0x10
    3c3e:	fef42023          	sw	a5,-32(s0)
    3c42:	fe042783          	lw	a5,-32(s0)
    3c46:	07c2                	slli	a5,a5,0x10
    3c48:	fef42023          	sw	a5,-32(s0)
    3c4c:	fe442703          	lw	a4,-28(s0)
    3c50:	fe042783          	lw	a5,-32(s0)
    3c54:	8f5d                	or	a4,a4,a5
    3c56:	010007b7          	lui	a5,0x1000
    3c5a:	17fd                	addi	a5,a5,-1
    3c5c:	8ff9                	and	a5,a5,a4
    3c5e:	fef42423          	sw	a5,-24(s0)
    3c62:	fe842703          	lw	a4,-24(s0)
    3c66:	fd842783          	lw	a5,-40(s0)
    3c6a:	8ff9                	and	a5,a5,a4
    3c6c:	fd842703          	lw	a4,-40(s0)
    3c70:	00f71663          	bne	a4,a5,3c7c <I2C_CheckEvent+0x78>
    3c74:	4785                	li	a5,1
    3c76:	fef42623          	sw	a5,-20(s0)
    3c7a:	a019                	j	3c80 <I2C_CheckEvent+0x7c>
    3c7c:	fe042623          	sw	zero,-20(s0)
    3c80:	fec42783          	lw	a5,-20(s0)
    3c84:	853e                	mv	a0,a5
    3c86:	5432                	lw	s0,44(sp)
    3c88:	6145                	addi	sp,sp,48
    3c8a:	8082                	ret

00003c8c <I2C_GetFlagStatus>:
    3c8c:	7179                	addi	sp,sp,-48
    3c8e:	d622                	sw	s0,44(sp)
    3c90:	1800                	addi	s0,sp,48
    3c92:	fca42e23          	sw	a0,-36(s0)
    3c96:	fcb42c23          	sw	a1,-40(s0)
    3c9a:	fe042623          	sw	zero,-20(s0)
    3c9e:	fe042423          	sw	zero,-24(s0)
    3ca2:	fe042223          	sw	zero,-28(s0)
    3ca6:	fdc42783          	lw	a5,-36(s0)
    3caa:	fef42223          	sw	a5,-28(s0)
    3cae:	fd842783          	lw	a5,-40(s0)
    3cb2:	83f1                	srli	a5,a5,0x1c
    3cb4:	fef42423          	sw	a5,-24(s0)
    3cb8:	fd842703          	lw	a4,-40(s0)
    3cbc:	010007b7          	lui	a5,0x1000
    3cc0:	17fd                	addi	a5,a5,-1
    3cc2:	8ff9                	and	a5,a5,a4
    3cc4:	fcf42c23          	sw	a5,-40(s0)
    3cc8:	fe842783          	lw	a5,-24(s0)
    3ccc:	c799                	beqz	a5,3cda <I2C_GetFlagStatus+0x4e>
    3cce:	fe442783          	lw	a5,-28(s0)
    3cd2:	07d1                	addi	a5,a5,20
    3cd4:	fef42223          	sw	a5,-28(s0)
    3cd8:	a819                	j	3cee <I2C_GetFlagStatus+0x62>
    3cda:	fd842783          	lw	a5,-40(s0)
    3cde:	83c1                	srli	a5,a5,0x10
    3ce0:	fcf42c23          	sw	a5,-40(s0)
    3ce4:	fe442783          	lw	a5,-28(s0)
    3ce8:	07e1                	addi	a5,a5,24
    3cea:	fef42223          	sw	a5,-28(s0)
    3cee:	fe442783          	lw	a5,-28(s0)
    3cf2:	4398                	lw	a4,0(a5)
    3cf4:	fd842783          	lw	a5,-40(s0)
    3cf8:	8ff9                	and	a5,a5,a4
    3cfa:	c789                	beqz	a5,3d04 <I2C_GetFlagStatus+0x78>
    3cfc:	4785                	li	a5,1
    3cfe:	fef42623          	sw	a5,-20(s0)
    3d02:	a019                	j	3d08 <I2C_GetFlagStatus+0x7c>
    3d04:	fe042623          	sw	zero,-20(s0)
    3d08:	fec42783          	lw	a5,-20(s0)
    3d0c:	853e                	mv	a0,a5
    3d0e:	5432                	lw	s0,44(sp)
    3d10:	6145                	addi	sp,sp,48
    3d12:	8082                	ret

00003d14 <NVIC_PriorityGroupConfig>:
    3d14:	1101                	addi	sp,sp,-32
    3d16:	ce22                	sw	s0,28(sp)
    3d18:	1000                	addi	s0,sp,32
    3d1a:	fea42623          	sw	a0,-20(s0)
    3d1e:	200007b7          	lui	a5,0x20000
    3d22:	fec42703          	lw	a4,-20(s0)
    3d26:	10e7aa23          	sw	a4,276(a5) # 20000114 <NVIC_Priority_Group>
    3d2a:	0001                	nop
    3d2c:	4472                	lw	s0,28(sp)
    3d2e:	6105                	addi	sp,sp,32
    3d30:	8082                	ret

00003d32 <RCC_GetClocksFreq>:
    3d32:	7179                	addi	sp,sp,-48
    3d34:	d622                	sw	s0,44(sp)
    3d36:	1800                	addi	s0,sp,48
    3d38:	fca42e23          	sw	a0,-36(s0)
    3d3c:	fe042423          	sw	zero,-24(s0)
    3d40:	fe042623          	sw	zero,-20(s0)
    3d44:	fe042223          	sw	zero,-28(s0)
    3d48:	fe042023          	sw	zero,-32(s0)
    3d4c:	400217b7          	lui	a5,0x40021
    3d50:	43dc                	lw	a5,4(a5)
    3d52:	8bb1                	andi	a5,a5,12
    3d54:	fef42423          	sw	a5,-24(s0)
    3d58:	fe842703          	lw	a4,-24(s0)
    3d5c:	4791                	li	a5,4
    3d5e:	02f70263          	beq	a4,a5,3d82 <RCC_GetClocksFreq+0x50>
    3d62:	fe842703          	lw	a4,-24(s0)
    3d66:	47a1                	li	a5,8
    3d68:	02f70563          	beq	a4,a5,3d92 <RCC_GetClocksFreq+0x60>
    3d6c:	fe842783          	lw	a5,-24(s0)
    3d70:	eff9                	bnez	a5,3e4e <RCC_GetClocksFreq+0x11c>
    3d72:	fdc42783          	lw	a5,-36(s0)
    3d76:	007a1737          	lui	a4,0x7a1
    3d7a:	20070713          	addi	a4,a4,512 # 7a1200 <_data_lma+0x798f5c>
    3d7e:	c398                	sw	a4,0(a5)
    3d80:	a8f9                	j	3e5e <RCC_GetClocksFreq+0x12c>
    3d82:	fdc42783          	lw	a5,-36(s0)
    3d86:	007a1737          	lui	a4,0x7a1
    3d8a:	20070713          	addi	a4,a4,512 # 7a1200 <_data_lma+0x798f5c>
    3d8e:	c398                	sw	a4,0(a5)
    3d90:	a0f9                	j	3e5e <RCC_GetClocksFreq+0x12c>
    3d92:	400217b7          	lui	a5,0x40021
    3d96:	43d8                	lw	a4,4(a5)
    3d98:	003c07b7          	lui	a5,0x3c0
    3d9c:	8ff9                	and	a5,a5,a4
    3d9e:	fef42623          	sw	a5,-20(s0)
    3da2:	400217b7          	lui	a5,0x40021
    3da6:	43d8                	lw	a4,4(a5)
    3da8:	67c1                	lui	a5,0x10
    3daa:	8ff9                	and	a5,a5,a4
    3dac:	fef42223          	sw	a5,-28(s0)
    3db0:	fec42783          	lw	a5,-20(s0)
    3db4:	83c9                	srli	a5,a5,0x12
    3db6:	0789                	addi	a5,a5,2
    3db8:	fef42623          	sw	a5,-20(s0)
    3dbc:	fec42703          	lw	a4,-20(s0)
    3dc0:	47c5                	li	a5,17
    3dc2:	00f71563          	bne	a4,a5,3dcc <RCC_GetClocksFreq+0x9a>
    3dc6:	47c9                	li	a5,18
    3dc8:	fef42623          	sw	a5,-20(s0)
    3dcc:	fe442783          	lw	a5,-28(s0)
    3dd0:	e3a1                	bnez	a5,3e10 <RCC_GetClocksFreq+0xde>
    3dd2:	400247b7          	lui	a5,0x40024
    3dd6:	80078793          	addi	a5,a5,-2048 # 40023800 <__freertos_irq_stack_top+0x2001e800>
    3dda:	439c                	lw	a5,0(a5)
    3ddc:	8bc1                	andi	a5,a5,16
    3dde:	cf89                	beqz	a5,3df8 <RCC_GetClocksFreq+0xc6>
    3de0:	fec42703          	lw	a4,-20(s0)
    3de4:	007a17b7          	lui	a5,0x7a1
    3de8:	20078793          	addi	a5,a5,512 # 7a1200 <_data_lma+0x798f5c>
    3dec:	02f70733          	mul	a4,a4,a5
    3df0:	fdc42783          	lw	a5,-36(s0)
    3df4:	c398                	sw	a4,0(a5)
    3df6:	a0a5                	j	3e5e <RCC_GetClocksFreq+0x12c>
    3df8:	fec42703          	lw	a4,-20(s0)
    3dfc:	003d17b7          	lui	a5,0x3d1
    3e00:	90078793          	addi	a5,a5,-1792 # 3d0900 <_data_lma+0x3c865c>
    3e04:	02f70733          	mul	a4,a4,a5
    3e08:	fdc42783          	lw	a5,-36(s0)
    3e0c:	c398                	sw	a4,0(a5)
    3e0e:	a881                	j	3e5e <RCC_GetClocksFreq+0x12c>
    3e10:	400217b7          	lui	a5,0x40021
    3e14:	43d8                	lw	a4,4(a5)
    3e16:	000207b7          	lui	a5,0x20
    3e1a:	8ff9                	and	a5,a5,a4
    3e1c:	cf89                	beqz	a5,3e36 <RCC_GetClocksFreq+0x104>
    3e1e:	fec42703          	lw	a4,-20(s0)
    3e22:	003d17b7          	lui	a5,0x3d1
    3e26:	90078793          	addi	a5,a5,-1792 # 3d0900 <_data_lma+0x3c865c>
    3e2a:	02f70733          	mul	a4,a4,a5
    3e2e:	fdc42783          	lw	a5,-36(s0)
    3e32:	c398                	sw	a4,0(a5)
    3e34:	a02d                	j	3e5e <RCC_GetClocksFreq+0x12c>
    3e36:	fec42703          	lw	a4,-20(s0)
    3e3a:	007a17b7          	lui	a5,0x7a1
    3e3e:	20078793          	addi	a5,a5,512 # 7a1200 <_data_lma+0x798f5c>
    3e42:	02f70733          	mul	a4,a4,a5
    3e46:	fdc42783          	lw	a5,-36(s0)
    3e4a:	c398                	sw	a4,0(a5)
    3e4c:	a809                	j	3e5e <RCC_GetClocksFreq+0x12c>
    3e4e:	fdc42783          	lw	a5,-36(s0)
    3e52:	007a1737          	lui	a4,0x7a1
    3e56:	20070713          	addi	a4,a4,512 # 7a1200 <_data_lma+0x798f5c>
    3e5a:	c398                	sw	a4,0(a5)
    3e5c:	0001                	nop
    3e5e:	400217b7          	lui	a5,0x40021
    3e62:	43dc                	lw	a5,4(a5)
    3e64:	0f07f793          	andi	a5,a5,240
    3e68:	fef42423          	sw	a5,-24(s0)
    3e6c:	fe842783          	lw	a5,-24(s0)
    3e70:	8391                	srli	a5,a5,0x4
    3e72:	fef42423          	sw	a5,-24(s0)
    3e76:	200007b7          	lui	a5,0x20000
    3e7a:	00078713          	mv	a4,a5
    3e7e:	fe842783          	lw	a5,-24(s0)
    3e82:	97ba                	add	a5,a5,a4
    3e84:	0007c783          	lbu	a5,0(a5) # 20000000 <_data_vma>
    3e88:	0ff7f793          	andi	a5,a5,255
    3e8c:	fef42023          	sw	a5,-32(s0)
    3e90:	fdc42783          	lw	a5,-36(s0)
    3e94:	4398                	lw	a4,0(a5)
    3e96:	fe042783          	lw	a5,-32(s0)
    3e9a:	00f75733          	srl	a4,a4,a5
    3e9e:	fdc42783          	lw	a5,-36(s0)
    3ea2:	c3d8                	sw	a4,4(a5)
    3ea4:	400217b7          	lui	a5,0x40021
    3ea8:	43dc                	lw	a5,4(a5)
    3eaa:	7007f793          	andi	a5,a5,1792
    3eae:	fef42423          	sw	a5,-24(s0)
    3eb2:	fe842783          	lw	a5,-24(s0)
    3eb6:	83a1                	srli	a5,a5,0x8
    3eb8:	fef42423          	sw	a5,-24(s0)
    3ebc:	200007b7          	lui	a5,0x20000
    3ec0:	00078713          	mv	a4,a5
    3ec4:	fe842783          	lw	a5,-24(s0)
    3ec8:	97ba                	add	a5,a5,a4
    3eca:	0007c783          	lbu	a5,0(a5) # 20000000 <_data_vma>
    3ece:	0ff7f793          	andi	a5,a5,255
    3ed2:	fef42023          	sw	a5,-32(s0)
    3ed6:	fdc42783          	lw	a5,-36(s0)
    3eda:	43d8                	lw	a4,4(a5)
    3edc:	fe042783          	lw	a5,-32(s0)
    3ee0:	00f75733          	srl	a4,a4,a5
    3ee4:	fdc42783          	lw	a5,-36(s0)
    3ee8:	c798                	sw	a4,8(a5)
    3eea:	400217b7          	lui	a5,0x40021
    3eee:	43d8                	lw	a4,4(a5)
    3ef0:	6791                	lui	a5,0x4
    3ef2:	80078793          	addi	a5,a5,-2048 # 3800 <I2C_Init+0x54>
    3ef6:	8ff9                	and	a5,a5,a4
    3ef8:	fef42423          	sw	a5,-24(s0)
    3efc:	fe842783          	lw	a5,-24(s0)
    3f00:	83ad                	srli	a5,a5,0xb
    3f02:	fef42423          	sw	a5,-24(s0)
    3f06:	200007b7          	lui	a5,0x20000
    3f0a:	00078713          	mv	a4,a5
    3f0e:	fe842783          	lw	a5,-24(s0)
    3f12:	97ba                	add	a5,a5,a4
    3f14:	0007c783          	lbu	a5,0(a5) # 20000000 <_data_vma>
    3f18:	0ff7f793          	andi	a5,a5,255
    3f1c:	fef42023          	sw	a5,-32(s0)
    3f20:	fdc42783          	lw	a5,-36(s0)
    3f24:	43d8                	lw	a4,4(a5)
    3f26:	fe042783          	lw	a5,-32(s0)
    3f2a:	00f75733          	srl	a4,a4,a5
    3f2e:	fdc42783          	lw	a5,-36(s0)
    3f32:	c7d8                	sw	a4,12(a5)
    3f34:	400217b7          	lui	a5,0x40021
    3f38:	43d8                	lw	a4,4(a5)
    3f3a:	67b1                	lui	a5,0xc
    3f3c:	8ff9                	and	a5,a5,a4
    3f3e:	fef42423          	sw	a5,-24(s0)
    3f42:	fe842783          	lw	a5,-24(s0)
    3f46:	83b9                	srli	a5,a5,0xe
    3f48:	fef42423          	sw	a5,-24(s0)
    3f4c:	80818713          	addi	a4,gp,-2040 # 20000088 <ADCPrescTable>
    3f50:	fe842783          	lw	a5,-24(s0)
    3f54:	97ba                	add	a5,a5,a4
    3f56:	0007c783          	lbu	a5,0(a5) # c000 <_data_lma+0x3d5c>
    3f5a:	0ff7f793          	andi	a5,a5,255
    3f5e:	fef42023          	sw	a5,-32(s0)
    3f62:	fdc42783          	lw	a5,-36(s0)
    3f66:	47d8                	lw	a4,12(a5)
    3f68:	fe042783          	lw	a5,-32(s0)
    3f6c:	02f75733          	divu	a4,a4,a5
    3f70:	fdc42783          	lw	a5,-36(s0)
    3f74:	cb98                	sw	a4,16(a5)
    3f76:	0001                	nop
    3f78:	5432                	lw	s0,44(sp)
    3f7a:	6145                	addi	sp,sp,48
    3f7c:	8082                	ret

00003f7e <RCC_AHBPeriphClockCmd>:
    3f7e:	1101                	addi	sp,sp,-32
    3f80:	ce22                	sw	s0,28(sp)
    3f82:	1000                	addi	s0,sp,32
    3f84:	fea42623          	sw	a0,-20(s0)
    3f88:	feb42423          	sw	a1,-24(s0)
    3f8c:	fe842783          	lw	a5,-24(s0)
    3f90:	cb99                	beqz	a5,3fa6 <RCC_AHBPeriphClockCmd+0x28>
    3f92:	400217b7          	lui	a5,0x40021
    3f96:	4bd4                	lw	a3,20(a5)
    3f98:	400217b7          	lui	a5,0x40021
    3f9c:	fec42703          	lw	a4,-20(s0)
    3fa0:	8f55                	or	a4,a4,a3
    3fa2:	cbd8                	sw	a4,20(a5)
    3fa4:	a821                	j	3fbc <RCC_AHBPeriphClockCmd+0x3e>
    3fa6:	400217b7          	lui	a5,0x40021
    3faa:	4bd4                	lw	a3,20(a5)
    3fac:	fec42783          	lw	a5,-20(s0)
    3fb0:	fff7c713          	not	a4,a5
    3fb4:	400217b7          	lui	a5,0x40021
    3fb8:	8f75                	and	a4,a4,a3
    3fba:	cbd8                	sw	a4,20(a5)
    3fbc:	0001                	nop
    3fbe:	4472                	lw	s0,28(sp)
    3fc0:	6105                	addi	sp,sp,32
    3fc2:	8082                	ret

00003fc4 <RCC_APB2PeriphClockCmd>:
    3fc4:	1101                	addi	sp,sp,-32
    3fc6:	ce22                	sw	s0,28(sp)
    3fc8:	1000                	addi	s0,sp,32
    3fca:	fea42623          	sw	a0,-20(s0)
    3fce:	feb42423          	sw	a1,-24(s0)
    3fd2:	fe842783          	lw	a5,-24(s0)
    3fd6:	cb99                	beqz	a5,3fec <RCC_APB2PeriphClockCmd+0x28>
    3fd8:	400217b7          	lui	a5,0x40021
    3fdc:	4f94                	lw	a3,24(a5)
    3fde:	400217b7          	lui	a5,0x40021
    3fe2:	fec42703          	lw	a4,-20(s0)
    3fe6:	8f55                	or	a4,a4,a3
    3fe8:	cf98                	sw	a4,24(a5)
    3fea:	a821                	j	4002 <RCC_APB2PeriphClockCmd+0x3e>
    3fec:	400217b7          	lui	a5,0x40021
    3ff0:	4f94                	lw	a3,24(a5)
    3ff2:	fec42783          	lw	a5,-20(s0)
    3ff6:	fff7c713          	not	a4,a5
    3ffa:	400217b7          	lui	a5,0x40021
    3ffe:	8f75                	and	a4,a4,a3
    4000:	cf98                	sw	a4,24(a5)
    4002:	0001                	nop
    4004:	4472                	lw	s0,28(sp)
    4006:	6105                	addi	sp,sp,32
    4008:	8082                	ret

0000400a <RCC_APB1PeriphClockCmd>:
    400a:	1101                	addi	sp,sp,-32
    400c:	ce22                	sw	s0,28(sp)
    400e:	1000                	addi	s0,sp,32
    4010:	fea42623          	sw	a0,-20(s0)
    4014:	feb42423          	sw	a1,-24(s0)
    4018:	fe842783          	lw	a5,-24(s0)
    401c:	cb99                	beqz	a5,4032 <RCC_APB1PeriphClockCmd+0x28>
    401e:	400217b7          	lui	a5,0x40021
    4022:	4fd4                	lw	a3,28(a5)
    4024:	400217b7          	lui	a5,0x40021
    4028:	fec42703          	lw	a4,-20(s0)
    402c:	8f55                	or	a4,a4,a3
    402e:	cfd8                	sw	a4,28(a5)
    4030:	a821                	j	4048 <RCC_APB1PeriphClockCmd+0x3e>
    4032:	400217b7          	lui	a5,0x40021
    4036:	4fd4                	lw	a3,28(a5)
    4038:	fec42783          	lw	a5,-20(s0)
    403c:	fff7c713          	not	a4,a5
    4040:	400217b7          	lui	a5,0x40021
    4044:	8f75                	and	a4,a4,a3
    4046:	cfd8                	sw	a4,28(a5)
    4048:	0001                	nop
    404a:	4472                	lw	s0,28(sp)
    404c:	6105                	addi	sp,sp,32
    404e:	8082                	ret

00004050 <SPI_Init>:
    4050:	7179                	addi	sp,sp,-48
    4052:	d622                	sw	s0,44(sp)
    4054:	1800                	addi	s0,sp,48
    4056:	fca42e23          	sw	a0,-36(s0)
    405a:	fcb42c23          	sw	a1,-40(s0)
    405e:	fe041723          	sh	zero,-18(s0)
    4062:	fdc42783          	lw	a5,-36(s0)
    4066:	0007d783          	lhu	a5,0(a5) # 40021000 <__freertos_irq_stack_top+0x2001c000>
    406a:	fef41723          	sh	a5,-18(s0)
    406e:	fee45703          	lhu	a4,-18(s0)
    4072:	678d                	lui	a5,0x3
    4074:	04078793          	addi	a5,a5,64 # 3040 <prvProcessReceivedCommands+0x16e>
    4078:	8ff9                	and	a5,a5,a4
    407a:	fef41723          	sh	a5,-18(s0)
    407e:	fd842783          	lw	a5,-40(s0)
    4082:	0007d703          	lhu	a4,0(a5)
    4086:	fd842783          	lw	a5,-40(s0)
    408a:	0027d783          	lhu	a5,2(a5)
    408e:	8fd9                	or	a5,a5,a4
    4090:	01079713          	slli	a4,a5,0x10
    4094:	8341                	srli	a4,a4,0x10
    4096:	fd842783          	lw	a5,-40(s0)
    409a:	0047d783          	lhu	a5,4(a5)
    409e:	8fd9                	or	a5,a5,a4
    40a0:	01079713          	slli	a4,a5,0x10
    40a4:	8341                	srli	a4,a4,0x10
    40a6:	fd842783          	lw	a5,-40(s0)
    40aa:	0067d783          	lhu	a5,6(a5)
    40ae:	8fd9                	or	a5,a5,a4
    40b0:	01079713          	slli	a4,a5,0x10
    40b4:	8341                	srli	a4,a4,0x10
    40b6:	fd842783          	lw	a5,-40(s0)
    40ba:	0087d783          	lhu	a5,8(a5)
    40be:	8fd9                	or	a5,a5,a4
    40c0:	01079713          	slli	a4,a5,0x10
    40c4:	8341                	srli	a4,a4,0x10
    40c6:	fd842783          	lw	a5,-40(s0)
    40ca:	00a7d783          	lhu	a5,10(a5)
    40ce:	8fd9                	or	a5,a5,a4
    40d0:	01079713          	slli	a4,a5,0x10
    40d4:	8341                	srli	a4,a4,0x10
    40d6:	fd842783          	lw	a5,-40(s0)
    40da:	00c7d783          	lhu	a5,12(a5)
    40de:	8fd9                	or	a5,a5,a4
    40e0:	01079713          	slli	a4,a5,0x10
    40e4:	8341                	srli	a4,a4,0x10
    40e6:	fd842783          	lw	a5,-40(s0)
    40ea:	00e7d783          	lhu	a5,14(a5)
    40ee:	8fd9                	or	a5,a5,a4
    40f0:	01079713          	slli	a4,a5,0x10
    40f4:	8341                	srli	a4,a4,0x10
    40f6:	fee45783          	lhu	a5,-18(s0)
    40fa:	8fd9                	or	a5,a5,a4
    40fc:	fef41723          	sh	a5,-18(s0)
    4100:	fdc42783          	lw	a5,-36(s0)
    4104:	fee45703          	lhu	a4,-18(s0)
    4108:	00e79023          	sh	a4,0(a5)
    410c:	fdc42783          	lw	a5,-36(s0)
    4110:	01c7d783          	lhu	a5,28(a5)
    4114:	01079713          	slli	a4,a5,0x10
    4118:	8341                	srli	a4,a4,0x10
    411a:	77fd                	lui	a5,0xfffff
    411c:	7ff78793          	addi	a5,a5,2047 # fffff7ff <__freertos_irq_stack_top+0xdfffa7ff>
    4120:	8ff9                	and	a5,a5,a4
    4122:	01079713          	slli	a4,a5,0x10
    4126:	8341                	srli	a4,a4,0x10
    4128:	fdc42783          	lw	a5,-36(s0)
    412c:	00e79e23          	sh	a4,28(a5)
    4130:	fd842783          	lw	a5,-40(s0)
    4134:	0107d703          	lhu	a4,16(a5)
    4138:	fdc42783          	lw	a5,-36(s0)
    413c:	00e79823          	sh	a4,16(a5)
    4140:	0001                	nop
    4142:	5432                	lw	s0,44(sp)
    4144:	6145                	addi	sp,sp,48
    4146:	8082                	ret

00004148 <SPI_Cmd>:
    4148:	1101                	addi	sp,sp,-32
    414a:	ce22                	sw	s0,28(sp)
    414c:	1000                	addi	s0,sp,32
    414e:	fea42623          	sw	a0,-20(s0)
    4152:	feb42423          	sw	a1,-24(s0)
    4156:	fe842783          	lw	a5,-24(s0)
    415a:	c38d                	beqz	a5,417c <SPI_Cmd+0x34>
    415c:	fec42783          	lw	a5,-20(s0)
    4160:	0007d783          	lhu	a5,0(a5)
    4164:	07c2                	slli	a5,a5,0x10
    4166:	83c1                	srli	a5,a5,0x10
    4168:	0407e793          	ori	a5,a5,64
    416c:	01079713          	slli	a4,a5,0x10
    4170:	8341                	srli	a4,a4,0x10
    4172:	fec42783          	lw	a5,-20(s0)
    4176:	00e79023          	sh	a4,0(a5)
    417a:	a005                	j	419a <SPI_Cmd+0x52>
    417c:	fec42783          	lw	a5,-20(s0)
    4180:	0007d783          	lhu	a5,0(a5)
    4184:	07c2                	slli	a5,a5,0x10
    4186:	83c1                	srli	a5,a5,0x10
    4188:	fbf7f793          	andi	a5,a5,-65
    418c:	01079713          	slli	a4,a5,0x10
    4190:	8341                	srli	a4,a4,0x10
    4192:	fec42783          	lw	a5,-20(s0)
    4196:	00e79023          	sh	a4,0(a5)
    419a:	0001                	nop
    419c:	4472                	lw	s0,28(sp)
    419e:	6105                	addi	sp,sp,32
    41a0:	8082                	ret

000041a2 <SPI_I2S_SendData>:
    41a2:	1101                	addi	sp,sp,-32
    41a4:	ce22                	sw	s0,28(sp)
    41a6:	1000                	addi	s0,sp,32
    41a8:	fea42623          	sw	a0,-20(s0)
    41ac:	87ae                	mv	a5,a1
    41ae:	fef41523          	sh	a5,-22(s0)
    41b2:	fec42783          	lw	a5,-20(s0)
    41b6:	fea45703          	lhu	a4,-22(s0)
    41ba:	00e79623          	sh	a4,12(a5)
    41be:	0001                	nop
    41c0:	4472                	lw	s0,28(sp)
    41c2:	6105                	addi	sp,sp,32
    41c4:	8082                	ret

000041c6 <SPI_I2S_ReceiveData>:
    41c6:	1101                	addi	sp,sp,-32
    41c8:	ce22                	sw	s0,28(sp)
    41ca:	1000                	addi	s0,sp,32
    41cc:	fea42623          	sw	a0,-20(s0)
    41d0:	fec42783          	lw	a5,-20(s0)
    41d4:	00c7d783          	lhu	a5,12(a5)
    41d8:	07c2                	slli	a5,a5,0x10
    41da:	83c1                	srli	a5,a5,0x10
    41dc:	853e                	mv	a0,a5
    41de:	4472                	lw	s0,28(sp)
    41e0:	6105                	addi	sp,sp,32
    41e2:	8082                	ret

000041e4 <SPI_I2S_GetFlagStatus>:
    41e4:	7179                	addi	sp,sp,-48
    41e6:	d622                	sw	s0,44(sp)
    41e8:	1800                	addi	s0,sp,48
    41ea:	fca42e23          	sw	a0,-36(s0)
    41ee:	87ae                	mv	a5,a1
    41f0:	fcf41d23          	sh	a5,-38(s0)
    41f4:	fe042623          	sw	zero,-20(s0)
    41f8:	fdc42783          	lw	a5,-36(s0)
    41fc:	0087d783          	lhu	a5,8(a5)
    4200:	01079713          	slli	a4,a5,0x10
    4204:	8341                	srli	a4,a4,0x10
    4206:	fda45783          	lhu	a5,-38(s0)
    420a:	8ff9                	and	a5,a5,a4
    420c:	07c2                	slli	a5,a5,0x10
    420e:	83c1                	srli	a5,a5,0x10
    4210:	c789                	beqz	a5,421a <SPI_I2S_GetFlagStatus+0x36>
    4212:	4785                	li	a5,1
    4214:	fef42623          	sw	a5,-20(s0)
    4218:	a019                	j	421e <SPI_I2S_GetFlagStatus+0x3a>
    421a:	fe042623          	sw	zero,-20(s0)
    421e:	fec42783          	lw	a5,-20(s0)
    4222:	853e                	mv	a0,a5
    4224:	5432                	lw	s0,44(sp)
    4226:	6145                	addi	sp,sp,48
    4228:	8082                	ret

0000422a <USART_SendData>:
    422a:	1101                	addi	sp,sp,-32
    422c:	ce22                	sw	s0,28(sp)
    422e:	1000                	addi	s0,sp,32
    4230:	fea42623          	sw	a0,-20(s0)
    4234:	87ae                	mv	a5,a1
    4236:	fef41523          	sh	a5,-22(s0)
    423a:	fea45783          	lhu	a5,-22(s0)
    423e:	1ff7f793          	andi	a5,a5,511
    4242:	01079713          	slli	a4,a5,0x10
    4246:	8341                	srli	a4,a4,0x10
    4248:	fec42783          	lw	a5,-20(s0)
    424c:	00e79223          	sh	a4,4(a5)
    4250:	0001                	nop
    4252:	4472                	lw	s0,28(sp)
    4254:	6105                	addi	sp,sp,32
    4256:	8082                	ret

00004258 <USART_GetFlagStatus>:
    4258:	7179                	addi	sp,sp,-48
    425a:	d622                	sw	s0,44(sp)
    425c:	1800                	addi	s0,sp,48
    425e:	fca42e23          	sw	a0,-36(s0)
    4262:	87ae                	mv	a5,a1
    4264:	fcf41d23          	sh	a5,-38(s0)
    4268:	fe042623          	sw	zero,-20(s0)
    426c:	fdc42783          	lw	a5,-36(s0)
    4270:	0007d783          	lhu	a5,0(a5)
    4274:	01079713          	slli	a4,a5,0x10
    4278:	8341                	srli	a4,a4,0x10
    427a:	fda45783          	lhu	a5,-38(s0)
    427e:	8ff9                	and	a5,a5,a4
    4280:	07c2                	slli	a5,a5,0x10
    4282:	83c1                	srli	a5,a5,0x10
    4284:	c789                	beqz	a5,428e <USART_GetFlagStatus+0x36>
    4286:	4785                	li	a5,1
    4288:	fef42623          	sw	a5,-20(s0)
    428c:	a019                	j	4292 <USART_GetFlagStatus+0x3a>
    428e:	fe042623          	sw	zero,-20(s0)
    4292:	fec42783          	lw	a5,-20(s0)
    4296:	853e                	mv	a0,a5
    4298:	5432                	lw	s0,44(sp)
    429a:	6145                	addi	sp,sp,48
    429c:	8082                	ret

0000429e <Delay_Ms>:
    429e:	7179                	addi	sp,sp,-48
    42a0:	d622                	sw	s0,44(sp)
    42a2:	1800                	addi	s0,sp,48
    42a4:	fca42e23          	sw	a0,-36(s0)
    42a8:	e000f737          	lui	a4,0xe000f
    42ac:	4354                	lw	a3,4(a4)
    42ae:	e000f737          	lui	a4,0xe000f
    42b2:	9af9                	andi	a3,a3,-2
    42b4:	c354                	sw	a3,4(a4)
    42b6:	20000737          	lui	a4,0x20000
    42ba:	11875703          	lhu	a4,280(a4) # 20000118 <p_ms>
    42be:	86ba                	mv	a3,a4
    42c0:	fdc42703          	lw	a4,-36(s0)
    42c4:	02d70733          	mul	a4,a4,a3
    42c8:	fee42623          	sw	a4,-20(s0)
    42cc:	e000f737          	lui	a4,0xe000f
    42d0:	fec42683          	lw	a3,-20(s0)
    42d4:	87b6                	mv	a5,a3
    42d6:	4801                	li	a6,0
    42d8:	cb1c                	sw	a5,16(a4)
    42da:	01072a23          	sw	a6,20(a4) # e000f014 <__freertos_irq_stack_top+0xc000a014>
    42de:	e000f7b7          	lui	a5,0xe000f
    42e2:	4398                	lw	a4,0(a5)
    42e4:	e000f7b7          	lui	a5,0xe000f
    42e8:	01076713          	ori	a4,a4,16
    42ec:	c398                	sw	a4,0(a5)
    42ee:	e000f7b7          	lui	a5,0xe000f
    42f2:	4398                	lw	a4,0(a5)
    42f4:	e000f7b7          	lui	a5,0xe000f
    42f8:	02176713          	ori	a4,a4,33
    42fc:	c398                	sw	a4,0(a5)
    42fe:	0001                	nop
    4300:	e000f7b7          	lui	a5,0xe000f
    4304:	43dc                	lw	a5,4(a5)
    4306:	0017f713          	andi	a4,a5,1
    430a:	4785                	li	a5,1
    430c:	fef71ae3          	bne	a4,a5,4300 <Delay_Ms+0x62>
    4310:	e000f7b7          	lui	a5,0xe000f
    4314:	4398                	lw	a4,0(a5)
    4316:	e000f7b7          	lui	a5,0xe000f
    431a:	9b79                	andi	a4,a4,-2
    431c:	c398                	sw	a4,0(a5)
    431e:	0001                	nop
    4320:	5432                	lw	s0,44(sp)
    4322:	6145                	addi	sp,sp,48
    4324:	8082                	ret

00004326 <_write>:
    4326:	7179                	addi	sp,sp,-48
    4328:	d606                	sw	ra,44(sp)
    432a:	d422                	sw	s0,40(sp)
    432c:	1800                	addi	s0,sp,48
    432e:	fca42e23          	sw	a0,-36(s0)
    4332:	fcb42c23          	sw	a1,-40(s0)
    4336:	fcc42a23          	sw	a2,-44(s0)
    433a:	fe042623          	sw	zero,-20(s0)
    433e:	a081                	j	437e <_write+0x58>
    4340:	0001                	nop
    4342:	04000593          	li	a1,64
    4346:	400147b7          	lui	a5,0x40014
    434a:	80078513          	addi	a0,a5,-2048 # 40013800 <__freertos_irq_stack_top+0x2000e800>
    434e:	3729                	jal	4258 <USART_GetFlagStatus>
    4350:	87aa                	mv	a5,a0
    4352:	dbe5                	beqz	a5,4342 <_write+0x1c>
    4354:	fd842783          	lw	a5,-40(s0)
    4358:	00178713          	addi	a4,a5,1
    435c:	fce42c23          	sw	a4,-40(s0)
    4360:	00078783          	lb	a5,0(a5)
    4364:	07c2                	slli	a5,a5,0x10
    4366:	83c1                	srli	a5,a5,0x10
    4368:	85be                	mv	a1,a5
    436a:	400147b7          	lui	a5,0x40014
    436e:	80078513          	addi	a0,a5,-2048 # 40013800 <__freertos_irq_stack_top+0x2000e800>
    4372:	3d65                	jal	422a <USART_SendData>
    4374:	fec42783          	lw	a5,-20(s0)
    4378:	0785                	addi	a5,a5,1
    437a:	fef42623          	sw	a5,-20(s0)
    437e:	fec42703          	lw	a4,-20(s0)
    4382:	fd442783          	lw	a5,-44(s0)
    4386:	faf74de3          	blt	a4,a5,4340 <_write+0x1a>
    438a:	fd442783          	lw	a5,-44(s0)
    438e:	853e                	mv	a0,a5
    4390:	50b2                	lw	ra,44(sp)
    4392:	5422                	lw	s0,40(sp)
    4394:	6145                	addi	sp,sp,48
    4396:	8082                	ret

00004398 <_sbrk>:
    4398:	1101                	addi	sp,sp,-32
    439a:	ce22                	sw	s0,28(sp)
    439c:	1000                	addi	s0,sp,32
    439e:	fea42623          	sw	a0,-20(s0)
    43a2:	80c1a703          	lw	a4,-2036(gp) # 2000008c <curbrk.4666>
    43a6:	fec42783          	lw	a5,-20(s0)
    43aa:	973e                	add	a4,a4,a5
    43ac:	200037b7          	lui	a5,0x20003
    43b0:	2e478793          	addi	a5,a5,740 # 200032e4 <_ebss>
    43b4:	00f76d63          	bltu	a4,a5,43ce <_sbrk+0x36>
    43b8:	80c1a703          	lw	a4,-2036(gp) # 2000008c <curbrk.4666>
    43bc:	fec42783          	lw	a5,-20(s0)
    43c0:	973e                	add	a4,a4,a5
    43c2:	200057b7          	lui	a5,0x20005
    43c6:	80078793          	addi	a5,a5,-2048 # 20004800 <_heap_end>
    43ca:	00e7f463          	bgeu	a5,a4,43d2 <_sbrk+0x3a>
    43ce:	57fd                	li	a5,-1
    43d0:	a839                	j	43ee <_sbrk+0x56>
    43d2:	80c1a703          	lw	a4,-2036(gp) # 2000008c <curbrk.4666>
    43d6:	fec42783          	lw	a5,-20(s0)
    43da:	973e                	add	a4,a4,a5
    43dc:	80e1a623          	sw	a4,-2036(gp) # 2000008c <curbrk.4666>
    43e0:	80c1a703          	lw	a4,-2036(gp) # 2000008c <curbrk.4666>
    43e4:	fec42783          	lw	a5,-20(s0)
    43e8:	40f007b3          	neg	a5,a5
    43ec:	97ba                	add	a5,a5,a4
    43ee:	853e                	mv	a0,a5
    43f0:	4472                	lw	s0,28(sp)
    43f2:	6105                	addi	sp,sp,32
    43f4:	8082                	ret

000043f6 <MCAL_Config_ConfigAllPins>:
    43f6:	8f8fc2ef          	jal	t0,4ee <__riscv_save_12>
    43fa:	7139                	addi	sp,sp,-64
    43fc:	4581                	li	a1,0
    43fe:	4505                	li	a0,1
    4400:	b7fff0ef          	jal	ra,3f7e <RCC_AHBPeriphClockCmd>
    4404:	4581                	li	a1,0
    4406:	4509                	li	a0,2
    4408:	b77ff0ef          	jal	ra,3f7e <RCC_AHBPeriphClockCmd>
    440c:	4581                	li	a1,0
    440e:	4511                	li	a0,4
    4410:	b6fff0ef          	jal	ra,3f7e <RCC_AHBPeriphClockCmd>
    4414:	4581                	li	a1,0
    4416:	04000513          	li	a0,64
    441a:	b65ff0ef          	jal	ra,3f7e <RCC_AHBPeriphClockCmd>
    441e:	4581                	li	a1,0
    4420:	6505                	lui	a0,0x1
    4422:	b5dff0ef          	jal	ra,3f7e <RCC_AHBPeriphClockCmd>
    4426:	4581                	li	a1,0
    4428:	4505                	li	a0,1
    442a:	b9bff0ef          	jal	ra,3fc4 <RCC_APB2PeriphClockCmd>
    442e:	4585                	li	a1,1
    4430:	4511                	li	a0,4
    4432:	b93ff0ef          	jal	ra,3fc4 <RCC_APB2PeriphClockCmd>
    4436:	4585                	li	a1,1
    4438:	4521                	li	a0,8
    443a:	b8bff0ef          	jal	ra,3fc4 <RCC_APB2PeriphClockCmd>
    443e:	4585                	li	a1,1
    4440:	4541                	li	a0,16
    4442:	b83ff0ef          	jal	ra,3fc4 <RCC_APB2PeriphClockCmd>
    4446:	4581                	li	a1,0
    4448:	20000513          	li	a0,512
    444c:	b79ff0ef          	jal	ra,3fc4 <RCC_APB2PeriphClockCmd>
    4450:	4581                	li	a1,0
    4452:	40000513          	li	a0,1024
    4456:	b6fff0ef          	jal	ra,3fc4 <RCC_APB2PeriphClockCmd>
    445a:	6985                	lui	s3,0x1
    445c:	80098513          	addi	a0,s3,-2048 # 800 <__stack_size>
    4460:	4581                	li	a1,0
    4462:	b63ff0ef          	jal	ra,3fc4 <RCC_APB2PeriphClockCmd>
    4466:	4585                	li	a1,1
    4468:	6505                	lui	a0,0x1
    446a:	b5bff0ef          	jal	ra,3fc4 <RCC_APB2PeriphClockCmd>
    446e:	4581                	li	a1,0
    4470:	6509                	lui	a0,0x2
    4472:	b53ff0ef          	jal	ra,3fc4 <RCC_APB2PeriphClockCmd>
    4476:	4581                	li	a1,0
    4478:	6511                	lui	a0,0x4
    447a:	b4bff0ef          	jal	ra,3fc4 <RCC_APB2PeriphClockCmd>
    447e:	4581                	li	a1,0
    4480:	4505                	li	a0,1
    4482:	b89ff0ef          	jal	ra,400a <RCC_APB1PeriphClockCmd>
    4486:	4581                	li	a1,0
    4488:	4509                	li	a0,2
    448a:	b81ff0ef          	jal	ra,400a <RCC_APB1PeriphClockCmd>
    448e:	4581                	li	a1,0
    4490:	4511                	li	a0,4
    4492:	b79ff0ef          	jal	ra,400a <RCC_APB1PeriphClockCmd>
    4496:	4581                	li	a1,0
    4498:	4521                	li	a0,8
    449a:	b71ff0ef          	jal	ra,400a <RCC_APB1PeriphClockCmd>
    449e:	80098513          	addi	a0,s3,-2048
    44a2:	4581                	li	a1,0
    44a4:	b67ff0ef          	jal	ra,400a <RCC_APB1PeriphClockCmd>
    44a8:	4581                	li	a1,0
    44aa:	6511                	lui	a0,0x4
    44ac:	b5fff0ef          	jal	ra,400a <RCC_APB1PeriphClockCmd>
    44b0:	4581                	li	a1,0
    44b2:	00020537          	lui	a0,0x20
    44b6:	b55ff0ef          	jal	ra,400a <RCC_APB1PeriphClockCmd>
    44ba:	4581                	li	a1,0
    44bc:	00040537          	lui	a0,0x40
    44c0:	b4bff0ef          	jal	ra,400a <RCC_APB1PeriphClockCmd>
    44c4:	4581                	li	a1,0
    44c6:	00080537          	lui	a0,0x80
    44ca:	b41ff0ef          	jal	ra,400a <RCC_APB1PeriphClockCmd>
    44ce:	4581                	li	a1,0
    44d0:	00200537          	lui	a0,0x200
    44d4:	b37ff0ef          	jal	ra,400a <RCC_APB1PeriphClockCmd>
    44d8:	4585                	li	a1,1
    44da:	00400537          	lui	a0,0x400
    44de:	b2dff0ef          	jal	ra,400a <RCC_APB1PeriphClockCmd>
    44e2:	4581                	li	a1,0
    44e4:	00800537          	lui	a0,0x800
    44e8:	b23ff0ef          	jal	ra,400a <RCC_APB1PeriphClockCmd>
    44ec:	4581                	li	a1,0
    44ee:	02000537          	lui	a0,0x2000
    44f2:	b19ff0ef          	jal	ra,400a <RCC_APB1PeriphClockCmd>
    44f6:	4581                	li	a1,0
    44f8:	08000537          	lui	a0,0x8000
    44fc:	b0fff0ef          	jal	ra,400a <RCC_APB1PeriphClockCmd>
    4500:	4581                	li	a1,0
    4502:	10000537          	lui	a0,0x10000
    4506:	b05ff0ef          	jal	ra,400a <RCC_APB1PeriphClockCmd>
    450a:	65a1                	lui	a1,0x8
    450c:	4631                	li	a2,12
    450e:	f9458593          	addi	a1,a1,-108 # 7f94 <_read+0x1b2>
    4512:	1048                	addi	a0,sp,36
    4514:	40011437          	lui	s0,0x40011
    4518:	586020ef          	jal	ra,6a9e <memcpy>
    451c:	04800c13          	li	s8,72
    4520:	104c                	addi	a1,sp,36
    4522:	80040513          	addi	a0,s0,-2048 # 40010800 <__freertos_irq_stack_top+0x2000b800>
    4526:	d662                	sw	s8,44(sp)
    4528:	f8dfe0ef          	jal	ra,34b4 <GPIO_Init>
    452c:	44e1                	li	s1,24
    452e:	4889                	li	a7,2
    4530:	104c                	addi	a1,sp,36
    4532:	80040513          	addi	a0,s0,-2048
    4536:	03111223          	sh	a7,36(sp)
    453a:	ce46                	sw	a7,28(sp)
    453c:	d626                	sw	s1,44(sp)
    453e:	f77fe0ef          	jal	ra,34b4 <GPIO_Init>
    4542:	4791                	li	a5,4
    4544:	104c                	addi	a1,sp,36
    4546:	80040513          	addi	a0,s0,-2048
    454a:	02f11223          	sh	a5,36(sp)
    454e:	d626                	sw	s1,44(sp)
    4550:	f65fe0ef          	jal	ra,34b4 <GPIO_Init>
    4554:	4821                	li	a6,8
    4556:	104c                	addi	a1,sp,36
    4558:	80040513          	addi	a0,s0,-2048
    455c:	03011223          	sh	a6,36(sp)
    4560:	cc42                	sw	a6,24(sp)
    4562:	d626                	sw	s1,44(sp)
    4564:	f51fe0ef          	jal	ra,34b4 <GPIO_Init>
    4568:	4641                	li	a2,16
    456a:	104c                	addi	a1,sp,36
    456c:	80040513          	addi	a0,s0,-2048
    4570:	02c11223          	sh	a2,36(sp)
    4574:	ca32                	sw	a2,20(sp)
    4576:	d602                	sw	zero,44(sp)
    4578:	f3dfe0ef          	jal	ra,34b4 <GPIO_Init>
    457c:	02000693          	li	a3,32
    4580:	104c                	addi	a1,sp,36
    4582:	80040513          	addi	a0,s0,-2048
    4586:	02d11223          	sh	a3,36(sp)
    458a:	c836                	sw	a3,16(sp)
    458c:	d626                	sw	s1,44(sp)
    458e:	f27fe0ef          	jal	ra,34b4 <GPIO_Init>
    4592:	04000713          	li	a4,64
    4596:	4911                	li	s2,4
    4598:	104c                	addi	a1,sp,36
    459a:	80040513          	addi	a0,s0,-2048
    459e:	02e11223          	sh	a4,36(sp)
    45a2:	c63a                	sw	a4,12(sp)
    45a4:	d64a                	sw	s2,44(sp)
    45a6:	f0ffe0ef          	jal	ra,34b4 <GPIO_Init>
    45aa:	08000793          	li	a5,128
    45ae:	104c                	addi	a1,sp,36
    45b0:	80040513          	addi	a0,s0,-2048
    45b4:	02f11223          	sh	a5,36(sp)
    45b8:	c43e                	sw	a5,8(sp)
    45ba:	d626                	sw	s1,44(sp)
    45bc:	ef9fe0ef          	jal	ra,34b4 <GPIO_Init>
    45c0:	10000d93          	li	s11,256
    45c4:	104c                	addi	a1,sp,36
    45c6:	80040513          	addi	a0,s0,-2048
    45ca:	d64a                	sw	s2,44(sp)
    45cc:	03b11223          	sh	s11,36(sp)
    45d0:	ee5fe0ef          	jal	ra,34b4 <GPIO_Init>
    45d4:	20000d13          	li	s10,512
    45d8:	104c                	addi	a1,sp,36
    45da:	80040513          	addi	a0,s0,-2048
    45de:	d626                	sw	s1,44(sp)
    45e0:	03a11223          	sh	s10,36(sp)
    45e4:	ed1fe0ef          	jal	ra,34b4 <GPIO_Init>
    45e8:	40000c93          	li	s9,1024
    45ec:	104c                	addi	a1,sp,36
    45ee:	80040513          	addi	a0,s0,-2048
    45f2:	d626                	sw	s1,44(sp)
    45f4:	03911223          	sh	s9,36(sp)
    45f8:	6a05                	lui	s4,0x1
    45fa:	ebbfe0ef          	jal	ra,34b4 <GPIO_Init>
    45fe:	800a0a13          	addi	s4,s4,-2048 # 800 <__stack_size>
    4602:	104c                	addi	a1,sp,36
    4604:	80040513          	addi	a0,s0,-2048
    4608:	d626                	sw	s1,44(sp)
    460a:	03411223          	sh	s4,36(sp)
    460e:	ea7fe0ef          	jal	ra,34b4 <GPIO_Init>
    4612:	02800593          	li	a1,40
    4616:	d62e                	sw	a1,44(sp)
    4618:	80040513          	addi	a0,s0,-2048
    461c:	104c                	addi	a1,sp,36
    461e:	03311223          	sh	s3,36(sp)
    4622:	e93fe0ef          	jal	ra,34b4 <GPIO_Init>
    4626:	6b89                	lui	s7,0x2
    4628:	104c                	addi	a1,sp,36
    462a:	80040513          	addi	a0,s0,-2048
    462e:	d64a                	sw	s2,44(sp)
    4630:	03711223          	sh	s7,36(sp)
    4634:	e81fe0ef          	jal	ra,34b4 <GPIO_Init>
    4638:	6b11                	lui	s6,0x4
    463a:	104c                	addi	a1,sp,36
    463c:	80040513          	addi	a0,s0,-2048
    4640:	d64a                	sw	s2,44(sp)
    4642:	03611223          	sh	s6,36(sp)
    4646:	e6ffe0ef          	jal	ra,34b4 <GPIO_Init>
    464a:	7ae1                	lui	s5,0xffff8
    464c:	104c                	addi	a1,sp,36
    464e:	80040513          	addi	a0,s0,-2048
    4652:	d626                	sw	s1,44(sp)
    4654:	03511223          	sh	s5,36(sp)
    4658:	e5dfe0ef          	jal	ra,34b4 <GPIO_Init>
    465c:	4585                	li	a1,1
    465e:	02b11223          	sh	a1,36(sp)
    4662:	c0040513          	addi	a0,s0,-1024
    4666:	104c                	addi	a1,sp,36
    4668:	d626                	sw	s1,44(sp)
    466a:	e4bfe0ef          	jal	ra,34b4 <GPIO_Init>
    466e:	48f2                	lw	a7,28(sp)
    4670:	104c                	addi	a1,sp,36
    4672:	c0040513          	addi	a0,s0,-1024
    4676:	03111223          	sh	a7,36(sp)
    467a:	d626                	sw	s1,44(sp)
    467c:	e39fe0ef          	jal	ra,34b4 <GPIO_Init>
    4680:	104c                	addi	a1,sp,36
    4682:	c0040513          	addi	a0,s0,-1024
    4686:	d626                	sw	s1,44(sp)
    4688:	03211223          	sh	s2,36(sp)
    468c:	e29fe0ef          	jal	ra,34b4 <GPIO_Init>
    4690:	4862                	lw	a6,24(sp)
    4692:	104c                	addi	a1,sp,36
    4694:	c0040513          	addi	a0,s0,-1024
    4698:	03011223          	sh	a6,36(sp)
    469c:	d626                	sw	s1,44(sp)
    469e:	e17fe0ef          	jal	ra,34b4 <GPIO_Init>
    46a2:	4652                	lw	a2,20(sp)
    46a4:	104c                	addi	a1,sp,36
    46a6:	c0040513          	addi	a0,s0,-1024
    46aa:	02c11223          	sh	a2,36(sp)
    46ae:	d626                	sw	s1,44(sp)
    46b0:	e05fe0ef          	jal	ra,34b4 <GPIO_Init>
    46b4:	46c2                	lw	a3,16(sp)
    46b6:	104c                	addi	a1,sp,36
    46b8:	c0040513          	addi	a0,s0,-1024
    46bc:	02d11223          	sh	a3,36(sp)
    46c0:	d64a                	sw	s2,44(sp)
    46c2:	df3fe0ef          	jal	ra,34b4 <GPIO_Init>
    46c6:	4732                	lw	a4,12(sp)
    46c8:	104c                	addi	a1,sp,36
    46ca:	c0040513          	addi	a0,s0,-1024
    46ce:	02e11223          	sh	a4,36(sp)
    46d2:	d626                	sw	s1,44(sp)
    46d4:	de1fe0ef          	jal	ra,34b4 <GPIO_Init>
    46d8:	47a2                	lw	a5,8(sp)
    46da:	104c                	addi	a1,sp,36
    46dc:	c0040513          	addi	a0,s0,-1024
    46e0:	02f11223          	sh	a5,36(sp)
    46e4:	d626                	sw	s1,44(sp)
    46e6:	dcffe0ef          	jal	ra,34b4 <GPIO_Init>
    46ea:	104c                	addi	a1,sp,36
    46ec:	c0040513          	addi	a0,s0,-1024
    46f0:	d626                	sw	s1,44(sp)
    46f2:	03b11223          	sh	s11,36(sp)
    46f6:	dbffe0ef          	jal	ra,34b4 <GPIO_Init>
    46fa:	104c                	addi	a1,sp,36
    46fc:	c0040513          	addi	a0,s0,-1024
    4700:	d626                	sw	s1,44(sp)
    4702:	03a11223          	sh	s10,36(sp)
    4706:	daffe0ef          	jal	ra,34b4 <GPIO_Init>
    470a:	44f1                	li	s1,28
    470c:	104c                	addi	a1,sp,36
    470e:	c0040513          	addi	a0,s0,-1024
    4712:	d626                	sw	s1,44(sp)
    4714:	03911223          	sh	s9,36(sp)
    4718:	d9dfe0ef          	jal	ra,34b4 <GPIO_Init>
    471c:	104c                	addi	a1,sp,36
    471e:	c0040513          	addi	a0,s0,-1024
    4722:	d626                	sw	s1,44(sp)
    4724:	03411223          	sh	s4,36(sp)
    4728:	d8dfe0ef          	jal	ra,34b4 <GPIO_Init>
    472c:	104c                	addi	a1,sp,36
    472e:	c0040513          	addi	a0,s0,-1024
    4732:	d662                	sw	s8,44(sp)
    4734:	03311223          	sh	s3,36(sp)
    4738:	d7dfe0ef          	jal	ra,34b4 <GPIO_Init>
    473c:	104c                	addi	a1,sp,36
    473e:	c0040513          	addi	a0,s0,-1024
    4742:	d64a                	sw	s2,44(sp)
    4744:	03711223          	sh	s7,36(sp)
    4748:	d6dfe0ef          	jal	ra,34b4 <GPIO_Init>
    474c:	104c                	addi	a1,sp,36
    474e:	c0040513          	addi	a0,s0,-1024
    4752:	d64a                	sw	s2,44(sp)
    4754:	03611223          	sh	s6,36(sp)
    4758:	d5dfe0ef          	jal	ra,34b4 <GPIO_Init>
    475c:	104c                	addi	a1,sp,36
    475e:	c0040513          	addi	a0,s0,-1024
    4762:	d64a                	sw	s2,44(sp)
    4764:	03511223          	sh	s5,36(sp)
    4768:	d4dfe0ef          	jal	ra,34b4 <GPIO_Init>
    476c:	44c1                	li	s1,16
    476e:	104c                	addi	a1,sp,36
    4770:	40011537          	lui	a0,0x40011
    4774:	d626                	sw	s1,44(sp)
    4776:	03611223          	sh	s6,36(sp)
    477a:	d3bfe0ef          	jal	ra,34b4 <GPIO_Init>
    477e:	104c                	addi	a1,sp,36
    4780:	40011537          	lui	a0,0x40011
    4784:	d626                	sw	s1,44(sp)
    4786:	03511223          	sh	s5,36(sp)
    478a:	200034b7          	lui	s1,0x20003
    478e:	d27fe0ef          	jal	ra,34b4 <GPIO_Init>
    4792:	2ac48493          	addi	s1,s1,684 # 200032ac <MCAL_CFG_adxlSPI>
    4796:	400137b7          	lui	a5,0x40013
    479a:	c09c                	sw	a5,0(s1)
    479c:	10400793          	li	a5,260
    47a0:	c4dc                	sw	a5,12(s1)
    47a2:	67c1                	lui	a5,0x10
    47a4:	0789                	addi	a5,a5,2
    47a6:	c89c                	sw	a5,16(s1)
    47a8:	003807b7          	lui	a5,0x380
    47ac:	20078793          	addi	a5,a5,512 # 380200 <_data_lma+0x377f5c>
    47b0:	c0c0                	sw	s0,4(s1)
    47b2:	c8dc                	sw	a5,20(s1)
    47b4:	6411                	lui	s0,0x4
    47b6:	000507b7          	lui	a5,0x50
    47ba:	cc9c                	sw	a5,24(s1)
    47bc:	c480                	sw	s0,8(s1)
    47be:	00a48593          	addi	a1,s1,10
    47c2:	40013537          	lui	a0,0x40013
    47c6:	88bff0ef          	jal	ra,4050 <SPI_Init>
    47ca:	4585                	li	a1,1
    47cc:	40013537          	lui	a0,0x40013
    47d0:	979ff0ef          	jal	ra,4148 <SPI_Cmd>
    47d4:	0084d583          	lhu	a1,8(s1)
    47d8:	40c8                	lw	a0,4(s1)
    47da:	f4ffe0ef          	jal	ra,3728 <GPIO_SetBits>
    47de:	000627b7          	lui	a5,0x62
    47e2:	a8078793          	addi	a5,a5,-1408 # 61a80 <_data_lma+0x597dc>
    47e6:	d83e                	sw	a5,48(sp)
    47e8:	bfff07b7          	lui	a5,0xbfff0
    47ec:	da3e                	sw	a5,52(sp)
    47ee:	02811e23          	sh	s0,60(sp)
    47f2:	040007b7          	lui	a5,0x4000
    47f6:	40006437          	lui	s0,0x40006
    47fa:	02f78793          	addi	a5,a5,47 # 400002f <_data_lma+0x3ff7d8b>
    47fe:	180c                	addi	a1,sp,48
    4800:	80040513          	addi	a0,s0,-2048 # 40005800 <__freertos_irq_stack_top+0x20000800>
    4804:	dc3e                	sw	a5,56(sp)
    4806:	fa7fe0ef          	jal	ra,37ac <I2C_Init>
    480a:	80040513          	addi	a0,s0,-2048
    480e:	4585                	li	a1,1
    4810:	9e0ff0ef          	jal	ra,39f0 <I2C_Cmd>
    4814:	4501                	li	a0,0
    4816:	6121                	addi	sp,sp,64
    4818:	d13fb06f          	j	52a <__riscv_restore_12>

0000481c <SystemInit>:
    481c:	1141                	addi	sp,sp,-16
    481e:	c606                	sw	ra,12(sp)
    4820:	c422                	sw	s0,8(sp)
    4822:	0800                	addi	s0,sp,16
    4824:	400217b7          	lui	a5,0x40021
    4828:	4398                	lw	a4,0(a5)
    482a:	400217b7          	lui	a5,0x40021
    482e:	00176713          	ori	a4,a4,1
    4832:	c398                	sw	a4,0(a5)
    4834:	400217b7          	lui	a5,0x40021
    4838:	43d4                	lw	a3,4(a5)
    483a:	400217b7          	lui	a5,0x40021
    483e:	f8ff0737          	lui	a4,0xf8ff0
    4842:	8f75                	and	a4,a4,a3
    4844:	c3d8                	sw	a4,4(a5)
    4846:	400217b7          	lui	a5,0x40021
    484a:	4394                	lw	a3,0(a5)
    484c:	400217b7          	lui	a5,0x40021
    4850:	fef70737          	lui	a4,0xfef70
    4854:	177d                	addi	a4,a4,-1
    4856:	8f75                	and	a4,a4,a3
    4858:	c398                	sw	a4,0(a5)
    485a:	400217b7          	lui	a5,0x40021
    485e:	4394                	lw	a3,0(a5)
    4860:	400217b7          	lui	a5,0x40021
    4864:	fffc0737          	lui	a4,0xfffc0
    4868:	177d                	addi	a4,a4,-1
    486a:	8f75                	and	a4,a4,a3
    486c:	c398                	sw	a4,0(a5)
    486e:	400217b7          	lui	a5,0x40021
    4872:	43d4                	lw	a3,4(a5)
    4874:	400217b7          	lui	a5,0x40021
    4878:	ff810737          	lui	a4,0xff810
    487c:	177d                	addi	a4,a4,-1
    487e:	8f75                	and	a4,a4,a3
    4880:	c3d8                	sw	a4,4(a5)
    4882:	400217b7          	lui	a5,0x40021
    4886:	009f0737          	lui	a4,0x9f0
    488a:	c798                	sw	a4,8(a5)
    488c:	2aad                	jal	4a06 <SetSysClock>
    488e:	0001                	nop
    4890:	40b2                	lw	ra,12(sp)
    4892:	4422                	lw	s0,8(sp)
    4894:	0141                	addi	sp,sp,16
    4896:	8082                	ret

00004898 <SystemCoreClockUpdate>:
    4898:	1101                	addi	sp,sp,-32
    489a:	ce22                	sw	s0,28(sp)
    489c:	1000                	addi	s0,sp,32
    489e:	fe042423          	sw	zero,-24(s0)
    48a2:	fe042623          	sw	zero,-20(s0)
    48a6:	fe042223          	sw	zero,-28(s0)
    48aa:	fe042023          	sw	zero,-32(s0)
    48ae:	400217b7          	lui	a5,0x40021
    48b2:	43dc                	lw	a5,4(a5)
    48b4:	8bb1                	andi	a5,a5,12
    48b6:	fef42423          	sw	a5,-24(s0)
    48ba:	fe842703          	lw	a4,-24(s0)
    48be:	4791                	li	a5,4
    48c0:	02f70263          	beq	a4,a5,48e4 <SystemCoreClockUpdate+0x4c>
    48c4:	fe842703          	lw	a4,-24(s0)
    48c8:	47a1                	li	a5,8
    48ca:	02f70463          	beq	a4,a5,48f2 <SystemCoreClockUpdate+0x5a>
    48ce:	fe842783          	lw	a5,-24(s0)
    48d2:	0e079563          	bnez	a5,49bc <SystemCoreClockUpdate+0x124>
    48d6:	007a1737          	lui	a4,0x7a1
    48da:	20070713          	addi	a4,a4,512 # 7a1200 <_data_lma+0x798f5c>
    48de:	80e1a823          	sw	a4,-2032(gp) # 20000090 <SystemCoreClock>
    48e2:	a0ed                	j	49cc <SystemCoreClockUpdate+0x134>
    48e4:	007a1737          	lui	a4,0x7a1
    48e8:	20070713          	addi	a4,a4,512 # 7a1200 <_data_lma+0x798f5c>
    48ec:	80e1a823          	sw	a4,-2032(gp) # 20000090 <SystemCoreClock>
    48f0:	a8f1                	j	49cc <SystemCoreClockUpdate+0x134>
    48f2:	400217b7          	lui	a5,0x40021
    48f6:	43d8                	lw	a4,4(a5)
    48f8:	003c07b7          	lui	a5,0x3c0
    48fc:	8ff9                	and	a5,a5,a4
    48fe:	fef42623          	sw	a5,-20(s0)
    4902:	400217b7          	lui	a5,0x40021
    4906:	43d8                	lw	a4,4(a5)
    4908:	67c1                	lui	a5,0x10
    490a:	8ff9                	and	a5,a5,a4
    490c:	fef42223          	sw	a5,-28(s0)
    4910:	fec42783          	lw	a5,-20(s0)
    4914:	83c9                	srli	a5,a5,0x12
    4916:	0789                	addi	a5,a5,2
    4918:	fef42623          	sw	a5,-20(s0)
    491c:	fec42703          	lw	a4,-20(s0)
    4920:	47c5                	li	a5,17
    4922:	00f71563          	bne	a4,a5,492c <SystemCoreClockUpdate+0x94>
    4926:	47c9                	li	a5,18
    4928:	fef42623          	sw	a5,-20(s0)
    492c:	fe442783          	lw	a5,-28(s0)
    4930:	ef95                	bnez	a5,496c <SystemCoreClockUpdate+0xd4>
    4932:	400247b7          	lui	a5,0x40024
    4936:	80078793          	addi	a5,a5,-2048 # 40023800 <__freertos_irq_stack_top+0x2001e800>
    493a:	439c                	lw	a5,0(a5)
    493c:	8bc1                	andi	a5,a5,16
    493e:	cf81                	beqz	a5,4956 <SystemCoreClockUpdate+0xbe>
    4940:	fec42703          	lw	a4,-20(s0)
    4944:	007a17b7          	lui	a5,0x7a1
    4948:	20078793          	addi	a5,a5,512 # 7a1200 <_data_lma+0x798f5c>
    494c:	02f70733          	mul	a4,a4,a5
    4950:	80e1a823          	sw	a4,-2032(gp) # 20000090 <SystemCoreClock>
    4954:	a881                	j	49a4 <SystemCoreClockUpdate+0x10c>
    4956:	fec42703          	lw	a4,-20(s0)
    495a:	003d17b7          	lui	a5,0x3d1
    495e:	90078793          	addi	a5,a5,-1792 # 3d0900 <_data_lma+0x3c865c>
    4962:	02f70733          	mul	a4,a4,a5
    4966:	80e1a823          	sw	a4,-2032(gp) # 20000090 <SystemCoreClock>
    496a:	a82d                	j	49a4 <SystemCoreClockUpdate+0x10c>
    496c:	400217b7          	lui	a5,0x40021
    4970:	43d8                	lw	a4,4(a5)
    4972:	000207b7          	lui	a5,0x20
    4976:	8ff9                	and	a5,a5,a4
    4978:	cf81                	beqz	a5,4990 <SystemCoreClockUpdate+0xf8>
    497a:	fec42703          	lw	a4,-20(s0)
    497e:	003d17b7          	lui	a5,0x3d1
    4982:	90078793          	addi	a5,a5,-1792 # 3d0900 <_data_lma+0x3c865c>
    4986:	02f70733          	mul	a4,a4,a5
    498a:	80e1a823          	sw	a4,-2032(gp) # 20000090 <SystemCoreClock>
    498e:	a819                	j	49a4 <SystemCoreClockUpdate+0x10c>
    4990:	fec42703          	lw	a4,-20(s0)
    4994:	007a17b7          	lui	a5,0x7a1
    4998:	20078793          	addi	a5,a5,512 # 7a1200 <_data_lma+0x798f5c>
    499c:	02f70733          	mul	a4,a4,a5
    49a0:	80e1a823          	sw	a4,-2032(gp) # 20000090 <SystemCoreClock>
    49a4:	fe042703          	lw	a4,-32(s0)
    49a8:	4785                	li	a5,1
    49aa:	02f71063          	bne	a4,a5,49ca <SystemCoreClockUpdate+0x132>
    49ae:	8101a783          	lw	a5,-2032(gp) # 20000090 <SystemCoreClock>
    49b2:	0017d713          	srli	a4,a5,0x1
    49b6:	80e1a823          	sw	a4,-2032(gp) # 20000090 <SystemCoreClock>
    49ba:	a801                	j	49ca <SystemCoreClockUpdate+0x132>
    49bc:	007a1737          	lui	a4,0x7a1
    49c0:	20070713          	addi	a4,a4,512 # 7a1200 <_data_lma+0x798f5c>
    49c4:	80e1a823          	sw	a4,-2032(gp) # 20000090 <SystemCoreClock>
    49c8:	a011                	j	49cc <SystemCoreClockUpdate+0x134>
    49ca:	0001                	nop
    49cc:	400217b7          	lui	a5,0x40021
    49d0:	43dc                	lw	a5,4(a5)
    49d2:	8391                	srli	a5,a5,0x4
    49d4:	00f7f713          	andi	a4,a5,15
    49d8:	200007b7          	lui	a5,0x20000
    49dc:	01078793          	addi	a5,a5,16 # 20000010 <AHBPrescTable>
    49e0:	97ba                	add	a5,a5,a4
    49e2:	0007c783          	lbu	a5,0(a5)
    49e6:	0ff7f793          	andi	a5,a5,255
    49ea:	fef42423          	sw	a5,-24(s0)
    49ee:	8101a703          	lw	a4,-2032(gp) # 20000090 <SystemCoreClock>
    49f2:	fe842783          	lw	a5,-24(s0)
    49f6:	00f75733          	srl	a4,a4,a5
    49fa:	80e1a823          	sw	a4,-2032(gp) # 20000090 <SystemCoreClock>
    49fe:	0001                	nop
    4a00:	4472                	lw	s0,28(sp)
    4a02:	6105                	addi	sp,sp,32
    4a04:	8082                	ret

00004a06 <SetSysClock>:
    4a06:	1141                	addi	sp,sp,-16
    4a08:	c606                	sw	ra,12(sp)
    4a0a:	c422                	sw	s0,8(sp)
    4a0c:	0800                	addi	s0,sp,16
    4a0e:	2031                	jal	4a1a <SetSysClockTo144_HSE>
    4a10:	0001                	nop
    4a12:	40b2                	lw	ra,12(sp)
    4a14:	4422                	lw	s0,8(sp)
    4a16:	0141                	addi	sp,sp,16
    4a18:	8082                	ret

00004a1a <SetSysClockTo144_HSE>:
    4a1a:	1101                	addi	sp,sp,-32
    4a1c:	ce22                	sw	s0,28(sp)
    4a1e:	1000                	addi	s0,sp,32
    4a20:	fe042623          	sw	zero,-20(s0)
    4a24:	fe042423          	sw	zero,-24(s0)
    4a28:	400217b7          	lui	a5,0x40021
    4a2c:	4394                	lw	a3,0(a5)
    4a2e:	400217b7          	lui	a5,0x40021
    4a32:	6741                	lui	a4,0x10
    4a34:	8f55                	or	a4,a4,a3
    4a36:	c398                	sw	a4,0(a5)
    4a38:	400217b7          	lui	a5,0x40021
    4a3c:	4398                	lw	a4,0(a5)
    4a3e:	000207b7          	lui	a5,0x20
    4a42:	8ff9                	and	a5,a5,a4
    4a44:	fef42423          	sw	a5,-24(s0)
    4a48:	fec42783          	lw	a5,-20(s0)
    4a4c:	0785                	addi	a5,a5,1
    4a4e:	fef42623          	sw	a5,-20(s0)
    4a52:	fe842783          	lw	a5,-24(s0)
    4a56:	e791                	bnez	a5,4a62 <SetSysClockTo144_HSE+0x48>
    4a58:	fec42703          	lw	a4,-20(s0)
    4a5c:	6785                	lui	a5,0x1
    4a5e:	fcf71de3          	bne	a4,a5,4a38 <SetSysClockTo144_HSE+0x1e>
    4a62:	400217b7          	lui	a5,0x40021
    4a66:	4398                	lw	a4,0(a5)
    4a68:	000207b7          	lui	a5,0x20
    4a6c:	8ff9                	and	a5,a5,a4
    4a6e:	c789                	beqz	a5,4a78 <SetSysClockTo144_HSE+0x5e>
    4a70:	4785                	li	a5,1
    4a72:	fef42423          	sw	a5,-24(s0)
    4a76:	a019                	j	4a7c <SetSysClockTo144_HSE+0x62>
    4a78:	fe042423          	sw	zero,-24(s0)
    4a7c:	fe842703          	lw	a4,-24(s0)
    4a80:	4785                	li	a5,1
    4a82:	0af71063          	bne	a4,a5,4b22 <SetSysClockTo144_HSE+0x108>
    4a86:	40021737          	lui	a4,0x40021
    4a8a:	400217b7          	lui	a5,0x40021
    4a8e:	4358                	lw	a4,4(a4)
    4a90:	c3d8                	sw	a4,4(a5)
    4a92:	40021737          	lui	a4,0x40021
    4a96:	400217b7          	lui	a5,0x40021
    4a9a:	4358                	lw	a4,4(a4)
    4a9c:	c3d8                	sw	a4,4(a5)
    4a9e:	40021737          	lui	a4,0x40021
    4aa2:	400217b7          	lui	a5,0x40021
    4aa6:	4358                	lw	a4,4(a4)
    4aa8:	c3d8                	sw	a4,4(a5)
    4aaa:	400217b7          	lui	a5,0x40021
    4aae:	43d4                	lw	a3,4(a5)
    4ab0:	400217b7          	lui	a5,0x40021
    4ab4:	ffc10737          	lui	a4,0xffc10
    4ab8:	177d                	addi	a4,a4,-1
    4aba:	8f75                	and	a4,a4,a3
    4abc:	c3d8                	sw	a4,4(a5)
    4abe:	400217b7          	lui	a5,0x40021
    4ac2:	43d4                	lw	a3,4(a5)
    4ac4:	400217b7          	lui	a5,0x40021
    4ac8:	003d0737          	lui	a4,0x3d0
    4acc:	8f55                	or	a4,a4,a3
    4ace:	c3d8                	sw	a4,4(a5)
    4ad0:	400217b7          	lui	a5,0x40021
    4ad4:	4394                	lw	a3,0(a5)
    4ad6:	400217b7          	lui	a5,0x40021
    4ada:	01000737          	lui	a4,0x1000
    4ade:	8f55                	or	a4,a4,a3
    4ae0:	c398                	sw	a4,0(a5)
    4ae2:	0001                	nop
    4ae4:	400217b7          	lui	a5,0x40021
    4ae8:	4398                	lw	a4,0(a5)
    4aea:	020007b7          	lui	a5,0x2000
    4aee:	8ff9                	and	a5,a5,a4
    4af0:	dbf5                	beqz	a5,4ae4 <SetSysClockTo144_HSE+0xca>
    4af2:	400217b7          	lui	a5,0x40021
    4af6:	43d8                	lw	a4,4(a5)
    4af8:	400217b7          	lui	a5,0x40021
    4afc:	9b71                	andi	a4,a4,-4
    4afe:	c3d8                	sw	a4,4(a5)
    4b00:	400217b7          	lui	a5,0x40021
    4b04:	43d8                	lw	a4,4(a5)
    4b06:	400217b7          	lui	a5,0x40021
    4b0a:	00276713          	ori	a4,a4,2
    4b0e:	c3d8                	sw	a4,4(a5)
    4b10:	0001                	nop
    4b12:	400217b7          	lui	a5,0x40021
    4b16:	43dc                	lw	a5,4(a5)
    4b18:	00c7f713          	andi	a4,a5,12
    4b1c:	47a1                	li	a5,8
    4b1e:	fef71ae3          	bne	a4,a5,4b12 <SetSysClockTo144_HSE+0xf8>
    4b22:	0001                	nop
    4b24:	4472                	lw	s0,28(sp)
    4b26:	6105                	addi	sp,sp,32
    4b28:	8082                	ret

00004b2a <HAL_WRAPEPR_ReadAcc>:
    4b2a:	c905                	beqz	a0,4b5a <HAL_WRAPEPR_ReadAcc+0x30>
    4b2c:	9f3fb2ef          	jal	t0,51e <__riscv_save_0>
    4b30:	842a                	mv	s0,a0
    4b32:	20003537          	lui	a0,0x20003
    4b36:	2c850493          	addi	s1,a0,712 # 200032c8 <global_MPU6050ACC_t>
    4b3a:	00848613          	addi	a2,s1,8
    4b3e:	00448593          	addi	a1,s1,4
    4b42:	2c850513          	addi	a0,a0,712
    4b46:	2871                	jal	4be2 <mpu6050_accel_read>
    4b48:	409c                	lw	a5,0(s1)
    4b4a:	4501                	li	a0,0
    4b4c:	c01c                	sw	a5,0(s0)
    4b4e:	40dc                	lw	a5,4(s1)
    4b50:	c05c                	sw	a5,4(s0)
    4b52:	449c                	lw	a5,8(s1)
    4b54:	c41c                	sw	a5,8(s0)
    4b56:	9edfb06f          	j	542 <__riscv_restore_0>
    4b5a:	4505                	li	a0,1
    4b5c:	8082                	ret

00004b5e <HAL_WRAPEPR_ReadGyro>:
    4b5e:	9c1fb2ef          	jal	t0,51e <__riscv_save_0>
    4b62:	84aa                	mv	s1,a0
    4b64:	20003537          	lui	a0,0x20003
    4b68:	2d450413          	addi	s0,a0,724 # 200032d4 <global_MPU6050GYRO_t>
    4b6c:	00840613          	addi	a2,s0,8
    4b70:	2d450513          	addi	a0,a0,724
    4b74:	00440593          	addi	a1,s0,4
    4b78:	2a01                	jal	4c88 <mpu6050_gyro_read>
    4b7a:	405c                	lw	a5,4(s0)
    4b7c:	c0dc                	sw	a5,4(s1)
    4b7e:	401c                	lw	a5,0(s0)
    4b80:	c09c                	sw	a5,0(s1)
    4b82:	441c                	lw	a5,8(s0)
    4b84:	c49c                	sw	a5,8(s1)
    4b86:	9bdfb06f          	j	542 <__riscv_restore_0>

00004b8a <mpu6050_accel_setup>:
    4b8a:	995fb2ef          	jal	t0,51e <__riscv_save_0>
    4b8e:	4581                	li	a1,0
    4b90:	06800513          	li	a0,104
    4b94:	e9cfe0ef          	jal	ra,3230 <I2C_start_transmission>
    4b98:	06b00513          	li	a0,107
    4b9c:	f0efe0ef          	jal	ra,32aa <I2C_write>
    4ba0:	4501                	li	a0,0
    4ba2:	f08fe0ef          	jal	ra,32aa <I2C_write>
    4ba6:	f36fe0ef          	jal	ra,32dc <I2C_stop>
    4baa:	4581                	li	a1,0
    4bac:	06800513          	li	a0,104
    4bb0:	e80fe0ef          	jal	ra,3230 <I2C_start_transmission>
    4bb4:	4569                	li	a0,26
    4bb6:	ef4fe0ef          	jal	ra,32aa <I2C_write>
    4bba:	4515                	li	a0,5
    4bbc:	eeefe0ef          	jal	ra,32aa <I2C_write>
    4bc0:	f1cfe0ef          	jal	ra,32dc <I2C_stop>
    4bc4:	4581                	li	a1,0
    4bc6:	06800513          	li	a0,104
    4bca:	e66fe0ef          	jal	ra,3230 <I2C_start_transmission>
    4bce:	4571                	li	a0,28
    4bd0:	edafe0ef          	jal	ra,32aa <I2C_write>
    4bd4:	4541                	li	a0,16
    4bd6:	ed4fe0ef          	jal	ra,32aa <I2C_write>
    4bda:	f02fe0ef          	jal	ra,32dc <I2C_stop>
    4bde:	965fb06f          	j	542 <__riscv_restore_0>

00004be2 <mpu6050_accel_read>:
    4be2:	923fb2ef          	jal	t0,504 <__riscv_save_4>
    4be6:	1141                	addi	sp,sp,-16
    4be8:	8aaa                	mv	s5,a0
    4bea:	8a2e                	mv	s4,a1
    4bec:	06800513          	li	a0,104
    4bf0:	4581                	li	a1,0
    4bf2:	c632                	sw	a2,12(sp)
    4bf4:	e3cfe0ef          	jal	ra,3230 <I2C_start_transmission>
    4bf8:	03b00513          	li	a0,59
    4bfc:	eaefe0ef          	jal	ra,32aa <I2C_write>
    4c00:	edcfe0ef          	jal	ra,32dc <I2C_stop>
    4c04:	4599                	li	a1,6
    4c06:	06800513          	li	a0,104
    4c0a:	f28fe0ef          	jal	ra,3332 <I2C_requestFrom>
    4c0e:	efcfe0ef          	jal	ra,330a <I2C_read>
    4c12:	84aa                	mv	s1,a0
    4c14:	04a2                	slli	s1,s1,0x8
    4c16:	ef4fe0ef          	jal	ra,330a <I2C_read>
    4c1a:	8cc9                	or	s1,s1,a0
    4c1c:	eeefe0ef          	jal	ra,330a <I2C_read>
    4c20:	842a                	mv	s0,a0
    4c22:	0422                	slli	s0,s0,0x8
    4c24:	ee6fe0ef          	jal	ra,330a <I2C_read>
    4c28:	8c49                	or	s0,s0,a0
    4c2a:	04c2                	slli	s1,s1,0x10
    4c2c:	edefe0ef          	jal	ra,330a <I2C_read>
    4c30:	892a                	mv	s2,a0
    4c32:	84c1                	srai	s1,s1,0x10
    4c34:	ed6fe0ef          	jal	ra,330a <I2C_read>
    4c38:	89aa                	mv	s3,a0
    4c3a:	8526                	mv	a0,s1
    4c3c:	311010ef          	jal	ra,674c <__floatsisf>
    4c40:	000084b7          	lui	s1,0x8
    4c44:	fc84a583          	lw	a1,-56(s1) # 7fc8 <_read+0x1e6>
    4c48:	0442                	slli	s0,s0,0x10
    4c4a:	8441                	srai	s0,s0,0x10
    4c4c:	071010ef          	jal	ra,64bc <__mulsf3>
    4c50:	00aaa023          	sw	a0,0(s5) # ffff8000 <__freertos_irq_stack_top+0xdfff3000>
    4c54:	8522                	mv	a0,s0
    4c56:	2f7010ef          	jal	ra,674c <__floatsisf>
    4c5a:	fc84a583          	lw	a1,-56(s1)
    4c5e:	05f010ef          	jal	ra,64bc <__mulsf3>
    4c62:	00aa2023          	sw	a0,0(s4)
    4c66:	00891513          	slli	a0,s2,0x8
    4c6a:	01356533          	or	a0,a0,s3
    4c6e:	0542                	slli	a0,a0,0x10
    4c70:	8541                	srai	a0,a0,0x10
    4c72:	2db010ef          	jal	ra,674c <__floatsisf>
    4c76:	fc84a583          	lw	a1,-56(s1)
    4c7a:	043010ef          	jal	ra,64bc <__mulsf3>
    4c7e:	4632                	lw	a2,12(sp)
    4c80:	c208                	sw	a0,0(a2)
    4c82:	0141                	addi	sp,sp,16
    4c84:	8b5fb06f          	j	538 <__riscv_restore_4>

00004c88 <mpu6050_gyro_read>:
    4c88:	86ffb2ef          	jal	t0,4f6 <__riscv_save_10>
    4c8c:	8b2a                	mv	s6,a0
    4c8e:	8aae                	mv	s5,a1
    4c90:	06800513          	li	a0,104
    4c94:	4581                	li	a1,0
    4c96:	89b2                	mv	s3,a2
    4c98:	d98fe0ef          	jal	ra,3230 <I2C_start_transmission>
    4c9c:	04300513          	li	a0,67
    4ca0:	e0afe0ef          	jal	ra,32aa <I2C_write>
    4ca4:	e38fe0ef          	jal	ra,32dc <I2C_stop>
    4ca8:	4599                	li	a1,6
    4caa:	06800513          	li	a0,104
    4cae:	e84fe0ef          	jal	ra,3332 <I2C_requestFrom>
    4cb2:	e58fe0ef          	jal	ra,330a <I2C_read>
    4cb6:	84aa                	mv	s1,a0
    4cb8:	04a2                	slli	s1,s1,0x8
    4cba:	e50fe0ef          	jal	ra,330a <I2C_read>
    4cbe:	8cc9                	or	s1,s1,a0
    4cc0:	e4afe0ef          	jal	ra,330a <I2C_read>
    4cc4:	842a                	mv	s0,a0
    4cc6:	0422                	slli	s0,s0,0x8
    4cc8:	e42fe0ef          	jal	ra,330a <I2C_read>
    4ccc:	8c49                	or	s0,s0,a0
    4cce:	04c2                	slli	s1,s1,0x10
    4cd0:	e3afe0ef          	jal	ra,330a <I2C_read>
    4cd4:	892a                	mv	s2,a0
    4cd6:	84c1                	srai	s1,s1,0x10
    4cd8:	e32fe0ef          	jal	ra,330a <I2C_read>
    4cdc:	8a2a                	mv	s4,a0
    4cde:	8526                	mv	a0,s1
    4ce0:	26d010ef          	jal	ra,674c <__floatsisf>
    4ce4:	32f010ef          	jal	ra,6812 <__extendsfdf2>
    4ce8:	000084b7          	lui	s1,0x8
    4cec:	fd04a603          	lw	a2,-48(s1) # 7fd0 <_read+0x1ee>
    4cf0:	fd44a683          	lw	a3,-44(s1)
    4cf4:	0442                	slli	s0,s0,0x10
    4cf6:	8441                	srai	s0,s0,0x10
    4cf8:	296d                	jal	51b2 <__divdf3>
    4cfa:	200007b7          	lui	a5,0x20000
    4cfe:	8c2a                	mv	s8,a0
    4d00:	1287a503          	lw	a0,296(a5) # 20000128 <roll_calibration>
    4d04:	8cae                	mv	s9,a1
    4d06:	30d010ef          	jal	ra,6812 <__extendsfdf2>
    4d0a:	862a                	mv	a2,a0
    4d0c:	86ae                	mv	a3,a1
    4d0e:	8562                	mv	a0,s8
    4d10:	85e6                	mv	a1,s9
    4d12:	255000ef          	jal	ra,5766 <__subdf3>
    4d16:	3a9010ef          	jal	ra,68be <__truncdfsf2>
    4d1a:	00ab2023          	sw	a0,0(s6) # 4000 <RCC_APB2PeriphClockCmd+0x3c>
    4d1e:	8522                	mv	a0,s0
    4d20:	22d010ef          	jal	ra,674c <__floatsisf>
    4d24:	2ef010ef          	jal	ra,6812 <__extendsfdf2>
    4d28:	fd04a603          	lw	a2,-48(s1)
    4d2c:	fd44a683          	lw	a3,-44(s1)
    4d30:	2149                	jal	51b2 <__divdf3>
    4d32:	200007b7          	lui	a5,0x20000
    4d36:	8b2a                	mv	s6,a0
    4d38:	1247a503          	lw	a0,292(a5) # 20000124 <pitch_calibration>
    4d3c:	8bae                	mv	s7,a1
    4d3e:	2d5010ef          	jal	ra,6812 <__extendsfdf2>
    4d42:	862a                	mv	a2,a0
    4d44:	86ae                	mv	a3,a1
    4d46:	855a                	mv	a0,s6
    4d48:	85de                	mv	a1,s7
    4d4a:	21d000ef          	jal	ra,5766 <__subdf3>
    4d4e:	371010ef          	jal	ra,68be <__truncdfsf2>
    4d52:	00aaa023          	sw	a0,0(s5)
    4d56:	00891513          	slli	a0,s2,0x8
    4d5a:	01456533          	or	a0,a0,s4
    4d5e:	0542                	slli	a0,a0,0x10
    4d60:	8541                	srai	a0,a0,0x10
    4d62:	1eb010ef          	jal	ra,674c <__floatsisf>
    4d66:	2ad010ef          	jal	ra,6812 <__extendsfdf2>
    4d6a:	fd04a603          	lw	a2,-48(s1)
    4d6e:	fd44a683          	lw	a3,-44(s1)
    4d72:	2181                	jal	51b2 <__divdf3>
    4d74:	200007b7          	lui	a5,0x20000
    4d78:	842a                	mv	s0,a0
    4d7a:	12c7a503          	lw	a0,300(a5) # 2000012c <yaw_calibration>
    4d7e:	84ae                	mv	s1,a1
    4d80:	293010ef          	jal	ra,6812 <__extendsfdf2>
    4d84:	862a                	mv	a2,a0
    4d86:	86ae                	mv	a3,a1
    4d88:	8522                	mv	a0,s0
    4d8a:	85a6                	mv	a1,s1
    4d8c:	1db000ef          	jal	ra,5766 <__subdf3>
    4d90:	32f010ef          	jal	ra,68be <__truncdfsf2>
    4d94:	00a9a023          	sw	a0,0(s3)
    4d98:	f96fb06f          	j	52e <__riscv_restore_10>

00004d9c <mpu6050_gyro_setup>:
    4d9c:	f68fb2ef          	jal	t0,504 <__riscv_save_4>
    4da0:	1141                	addi	sp,sp,-16
    4da2:	4581                	li	a1,0
    4da4:	06800513          	li	a0,104
    4da8:	c88fe0ef          	jal	ra,3230 <I2C_start_transmission>
    4dac:	06b00513          	li	a0,107
    4db0:	cfafe0ef          	jal	ra,32aa <I2C_write>
    4db4:	4501                	li	a0,0
    4db6:	cf4fe0ef          	jal	ra,32aa <I2C_write>
    4dba:	d22fe0ef          	jal	ra,32dc <I2C_stop>
    4dbe:	4581                	li	a1,0
    4dc0:	06800513          	li	a0,104
    4dc4:	c6cfe0ef          	jal	ra,3230 <I2C_start_transmission>
    4dc8:	4569                	li	a0,26
    4dca:	ce0fe0ef          	jal	ra,32aa <I2C_write>
    4dce:	4515                	li	a0,5
    4dd0:	cdafe0ef          	jal	ra,32aa <I2C_write>
    4dd4:	d08fe0ef          	jal	ra,32dc <I2C_stop>
    4dd8:	4581                	li	a1,0
    4dda:	06800513          	li	a0,104
    4dde:	c52fe0ef          	jal	ra,3230 <I2C_start_transmission>
    4de2:	456d                	li	a0,27
    4de4:	cc6fe0ef          	jal	ra,32aa <I2C_write>
    4de8:	4521                	li	a0,8
    4dea:	00000493          	li	s1,0
    4dee:	cbcfe0ef          	jal	ra,32aa <I2C_write>
    4df2:	7d100413          	li	s0,2001
    4df6:	ce6fe0ef          	jal	ra,32dc <I2C_stop>
    4dfa:	8926                	mv	s2,s1
    4dfc:	89a6                	mv	s3,s1
    4dfe:	147d                	addi	s0,s0,-1
    4e00:	0442                	slli	s0,s0,0x10
    4e02:	8041                	srli	s0,s0,0x10
    4e04:	e029                	bnez	s0,4e46 <mpu6050_gyro_setup+0xaa>
    4e06:	00008437          	lui	s0,0x8
    4e0a:	fd842583          	lw	a1,-40(s0) # 7fd8 <_read+0x1f6>
    4e0e:	854e                	mv	a0,s3
    4e10:	20000a37          	lui	s4,0x20000
    4e14:	3fa010ef          	jal	ra,620e <__divsf3>
    4e18:	fd842583          	lw	a1,-40(s0)
    4e1c:	12aa2423          	sw	a0,296(s4) # 20000128 <roll_calibration>
    4e20:	854a                	mv	a0,s2
    4e22:	3ec010ef          	jal	ra,620e <__divsf3>
    4e26:	fd842583          	lw	a1,-40(s0)
    4e2a:	200009b7          	lui	s3,0x20000
    4e2e:	12a9a223          	sw	a0,292(s3) # 20000124 <pitch_calibration>
    4e32:	8526                	mv	a0,s1
    4e34:	3da010ef          	jal	ra,620e <__divsf3>
    4e38:	20000937          	lui	s2,0x20000
    4e3c:	12a92623          	sw	a0,300(s2) # 2000012c <yaw_calibration>
    4e40:	0141                	addi	sp,sp,16
    4e42:	ef6fb06f          	j	538 <__riscv_restore_4>
    4e46:	0070                	addi	a2,sp,12
    4e48:	002c                	addi	a1,sp,8
    4e4a:	0048                	addi	a0,sp,4
    4e4c:	e3dff0ef          	jal	ra,4c88 <mpu6050_gyro_read>
    4e50:	4592                	lw	a1,4(sp)
    4e52:	854e                	mv	a0,s3
    4e54:	050010ef          	jal	ra,5ea4 <__addsf3>
    4e58:	45a2                	lw	a1,8(sp)
    4e5a:	89aa                	mv	s3,a0
    4e5c:	854a                	mv	a0,s2
    4e5e:	046010ef          	jal	ra,5ea4 <__addsf3>
    4e62:	45b2                	lw	a1,12(sp)
    4e64:	892a                	mv	s2,a0
    4e66:	8526                	mv	a0,s1
    4e68:	03c010ef          	jal	ra,5ea4 <__addsf3>
    4e6c:	84aa                	mv	s1,a0
    4e6e:	4505                	li	a0,1
    4e70:	c2eff0ef          	jal	ra,429e <Delay_Ms>
    4e74:	b769                	j	4dfe <mpu6050_gyro_setup+0x62>

00004e76 <mpu6050_init>:
    4e76:	ea8fb2ef          	jal	t0,51e <__riscv_save_0>
    4e7a:	370d                	jal	4d9c <mpu6050_gyro_setup>
    4e7c:	d0fff0ef          	jal	ra,4b8a <mpu6050_accel_setup>
    4e80:	ec2fb06f          	j	542 <__riscv_restore_0>

00004e84 <HAL_Config_ConfigAllHW>:
    4e84:	e9afb2ef          	jal	t0,51e <__riscv_save_0>
    4e88:	20000537          	lui	a0,0x20000
    4e8c:	010207b7          	lui	a5,0x1020
    4e90:	13050713          	addi	a4,a0,304 # 20000130 <global_adxl345Config_t>
    4e94:	70d78793          	addi	a5,a5,1805 # 102070d <_data_lma+0x1018469>
    4e98:	c31c                	sw	a5,0(a4)
    4e9a:	200035b7          	lui	a1,0x20003
    4e9e:	10200793          	li	a5,258
    4ea2:	00f71223          	sh	a5,4(a4) # 1000004 <_data_lma+0xff7d60>
    4ea6:	2ac58593          	addi	a1,a1,684 # 200032ac <MCAL_CFG_adxlSPI>
    4eaa:	13050513          	addi	a0,a0,304
    4eae:	204d                	jal	4f50 <HAL_ADXL345_Init>
    4eb0:	37d9                	jal	4e76 <mpu6050_init>
    4eb2:	4501                	li	a0,0
    4eb4:	e8efb06f          	j	542 <__riscv_restore_0>

00004eb8 <HAL_ADXL345_Write_Single>:
    4eb8:	7179                	addi	sp,sp,-48
    4eba:	d606                	sw	ra,44(sp)
    4ebc:	d422                	sw	s0,40(sp)
    4ebe:	1800                	addi	s0,sp,48
    4ec0:	fca42e23          	sw	a0,-36(s0)
    4ec4:	87ae                	mv	a5,a1
    4ec6:	8732                	mv	a4,a2
    4ec8:	fcf40da3          	sb	a5,-37(s0)
    4ecc:	87ba                	mv	a5,a4
    4ece:	fcf40d23          	sb	a5,-38(s0)
    4ed2:	fdb44783          	lbu	a5,-37(s0)
    4ed6:	03f7f793          	andi	a5,a5,63
    4eda:	0ff7f793          	andi	a5,a5,255
    4ede:	fef40623          	sb	a5,-20(s0)
    4ee2:	fda44783          	lbu	a5,-38(s0)
    4ee6:	fef406a3          	sb	a5,-19(s0)
    4eea:	fec40793          	addi	a5,s0,-20
    4eee:	4681                	li	a3,0
    4ef0:	4609                	li	a2,2
    4ef2:	85be                	mv	a1,a5
    4ef4:	fdc42503          	lw	a0,-36(s0)
    4ef8:	acafe0ef          	jal	ra,31c2 <MCAL_WRAPEPR_SPI_POLL_TRANSFER>
    4efc:	0001                	nop
    4efe:	50b2                	lw	ra,44(sp)
    4f00:	5422                	lw	s0,40(sp)
    4f02:	6145                	addi	sp,sp,48
    4f04:	8082                	ret

00004f06 <HAL_ADXL345_Read_Single>:
    4f06:	7179                	addi	sp,sp,-48
    4f08:	d606                	sw	ra,44(sp)
    4f0a:	d422                	sw	s0,40(sp)
    4f0c:	1800                	addi	s0,sp,48
    4f0e:	fca42e23          	sw	a0,-36(s0)
    4f12:	87ae                	mv	a5,a1
    4f14:	fcf40da3          	sb	a5,-37(s0)
    4f18:	fdb44783          	lbu	a5,-37(s0)
    4f1c:	f807e793          	ori	a5,a5,-128
    4f20:	0ff7f793          	andi	a5,a5,255
    4f24:	fef40623          	sb	a5,-20(s0)
    4f28:	fe0406a3          	sb	zero,-19(s0)
    4f2c:	fec40713          	addi	a4,s0,-20
    4f30:	fec40793          	addi	a5,s0,-20
    4f34:	86ba                	mv	a3,a4
    4f36:	4609                	li	a2,2
    4f38:	85be                	mv	a1,a5
    4f3a:	fdc42503          	lw	a0,-36(s0)
    4f3e:	a84fe0ef          	jal	ra,31c2 <MCAL_WRAPEPR_SPI_POLL_TRANSFER>
    4f42:	fed44783          	lbu	a5,-19(s0)
    4f46:	853e                	mv	a0,a5
    4f48:	50b2                	lw	ra,44(sp)
    4f4a:	5422                	lw	s0,40(sp)
    4f4c:	6145                	addi	sp,sp,48
    4f4e:	8082                	ret

00004f50 <HAL_ADXL345_Init>:
    4f50:	7179                	addi	sp,sp,-48
    4f52:	d606                	sw	ra,44(sp)
    4f54:	d422                	sw	s0,40(sp)
    4f56:	1800                	addi	s0,sp,48
    4f58:	fca42e23          	sw	a0,-36(s0)
    4f5c:	fcb42c23          	sw	a1,-40(s0)
    4f60:	4581                	li	a1,0
    4f62:	fd842503          	lw	a0,-40(s0)
    4f66:	3745                	jal	4f06 <HAL_ADXL345_Read_Single>
    4f68:	87aa                	mv	a5,a0
    4f6a:	fef407a3          	sb	a5,-17(s0)
    4f6e:	fe0407a3          	sb	zero,-17(s0)
    4f72:	fef40783          	lb	a5,-17(s0)
    4f76:	9bc1                	andi	a5,a5,-16
    4f78:	01879713          	slli	a4,a5,0x18
    4f7c:	8761                	srai	a4,a4,0x18
    4f7e:	fdc42783          	lw	a5,-36(s0)
    4f82:	0007c783          	lbu	a5,0(a5)
    4f86:	07e2                	slli	a5,a5,0x18
    4f88:	87e1                	srai	a5,a5,0x18
    4f8a:	8bbd                	andi	a5,a5,15
    4f8c:	07e2                	slli	a5,a5,0x18
    4f8e:	87e1                	srai	a5,a5,0x18
    4f90:	8fd9                	or	a5,a5,a4
    4f92:	07e2                	slli	a5,a5,0x18
    4f94:	87e1                	srai	a5,a5,0x18
    4f96:	fef407a3          	sb	a5,-17(s0)
    4f9a:	fef44783          	lbu	a5,-17(s0)
    4f9e:	863e                	mv	a2,a5
    4fa0:	02c00593          	li	a1,44
    4fa4:	fd842503          	lw	a0,-40(s0)
    4fa8:	f11ff0ef          	jal	ra,4eb8 <HAL_ADXL345_Write_Single>
    4fac:	fe0407a3          	sb	zero,-17(s0)
    4fb0:	fef40783          	lb	a5,-17(s0)
    4fb4:	9bdd                	andi	a5,a5,-9
    4fb6:	01879713          	slli	a4,a5,0x18
    4fba:	8761                	srai	a4,a4,0x18
    4fbc:	fdc42783          	lw	a5,-36(s0)
    4fc0:	0057c783          	lbu	a5,5(a5)
    4fc4:	078e                	slli	a5,a5,0x3
    4fc6:	07e2                	slli	a5,a5,0x18
    4fc8:	87e1                	srai	a5,a5,0x18
    4fca:	8fd9                	or	a5,a5,a4
    4fcc:	07e2                	slli	a5,a5,0x18
    4fce:	87e1                	srai	a5,a5,0x18
    4fd0:	fef407a3          	sb	a5,-17(s0)
    4fd4:	fef40783          	lb	a5,-17(s0)
    4fd8:	9bf1                	andi	a5,a5,-4
    4fda:	01879713          	slli	a4,a5,0x18
    4fde:	8761                	srai	a4,a4,0x18
    4fe0:	fdc42783          	lw	a5,-36(s0)
    4fe4:	0047c783          	lbu	a5,4(a5)
    4fe8:	07e2                	slli	a5,a5,0x18
    4fea:	87e1                	srai	a5,a5,0x18
    4fec:	8b8d                	andi	a5,a5,3
    4fee:	07e2                	slli	a5,a5,0x18
    4ff0:	87e1                	srai	a5,a5,0x18
    4ff2:	8fd9                	or	a5,a5,a4
    4ff4:	07e2                	slli	a5,a5,0x18
    4ff6:	87e1                	srai	a5,a5,0x18
    4ff8:	fef407a3          	sb	a5,-17(s0)
    4ffc:	fef44783          	lbu	a5,-17(s0)
    5000:	0207e793          	ori	a5,a5,32
    5004:	fef407a3          	sb	a5,-17(s0)
    5008:	fef44783          	lbu	a5,-17(s0)
    500c:	863e                	mv	a2,a5
    500e:	03100593          	li	a1,49
    5012:	fd842503          	lw	a0,-40(s0)
    5016:	ea3ff0ef          	jal	ra,4eb8 <HAL_ADXL345_Write_Single>
    501a:	fe041623          	sh	zero,-20(s0)
    501e:	fec44783          	lbu	a5,-20(s0)
    5022:	01879713          	slli	a4,a5,0x18
    5026:	8761                	srai	a4,a4,0x18
    5028:	fdc42783          	lw	a5,-36(s0)
    502c:	0017c783          	lbu	a5,1(a5)
    5030:	86be                	mv	a3,a5
    5032:	4785                	li	a5,1
    5034:	00d797b3          	sll	a5,a5,a3
    5038:	07e2                	slli	a5,a5,0x18
    503a:	87e1                	srai	a5,a5,0x18
    503c:	8fd9                	or	a5,a5,a4
    503e:	07e2                	slli	a5,a5,0x18
    5040:	87e1                	srai	a5,a5,0x18
    5042:	0ff7f793          	andi	a5,a5,255
    5046:	fef40623          	sb	a5,-20(s0)
    504a:	fec44783          	lbu	a5,-20(s0)
    504e:	01879713          	slli	a4,a5,0x18
    5052:	8761                	srai	a4,a4,0x18
    5054:	fdc42783          	lw	a5,-36(s0)
    5058:	0027c783          	lbu	a5,2(a5)
    505c:	86be                	mv	a3,a5
    505e:	4785                	li	a5,1
    5060:	00d797b3          	sll	a5,a5,a3
    5064:	07e2                	slli	a5,a5,0x18
    5066:	87e1                	srai	a5,a5,0x18
    5068:	8fd9                	or	a5,a5,a4
    506a:	07e2                	slli	a5,a5,0x18
    506c:	87e1                	srai	a5,a5,0x18
    506e:	0ff7f793          	andi	a5,a5,255
    5072:	fef40623          	sb	a5,-20(s0)
    5076:	fed44783          	lbu	a5,-19(s0)
    507a:	01879713          	slli	a4,a5,0x18
    507e:	8761                	srai	a4,a4,0x18
    5080:	fdc42783          	lw	a5,-36(s0)
    5084:	0017c783          	lbu	a5,1(a5)
    5088:	86be                	mv	a3,a5
    508a:	4785                	li	a5,1
    508c:	00d797b3          	sll	a5,a5,a3
    5090:	07e2                	slli	a5,a5,0x18
    5092:	87e1                	srai	a5,a5,0x18
    5094:	8fd9                	or	a5,a5,a4
    5096:	07e2                	slli	a5,a5,0x18
    5098:	87e1                	srai	a5,a5,0x18
    509a:	0ff7f793          	andi	a5,a5,255
    509e:	fef406a3          	sb	a5,-19(s0)
    50a2:	fed44783          	lbu	a5,-19(s0)
    50a6:	863e                	mv	a2,a5
    50a8:	02f00593          	li	a1,47
    50ac:	fd842503          	lw	a0,-40(s0)
    50b0:	e09ff0ef          	jal	ra,4eb8 <HAL_ADXL345_Write_Single>
    50b4:	fec44783          	lbu	a5,-20(s0)
    50b8:	863e                	mv	a2,a5
    50ba:	02e00593          	li	a1,46
    50be:	fd842503          	lw	a0,-40(s0)
    50c2:	df7ff0ef          	jal	ra,4eb8 <HAL_ADXL345_Write_Single>
    50c6:	fe0407a3          	sb	zero,-17(s0)
    50ca:	fef44783          	lbu	a5,-17(s0)
    50ce:	0087e793          	ori	a5,a5,8
    50d2:	fef407a3          	sb	a5,-17(s0)
    50d6:	fef44783          	lbu	a5,-17(s0)
    50da:	863e                	mv	a2,a5
    50dc:	02d00593          	li	a1,45
    50e0:	fd842503          	lw	a0,-40(s0)
    50e4:	dd5ff0ef          	jal	ra,4eb8 <HAL_ADXL345_Write_Single>
    50e8:	4781                	li	a5,0
    50ea:	853e                	mv	a0,a5
    50ec:	50b2                	lw	ra,44(sp)
    50ee:	5422                	lw	s0,40(sp)
    50f0:	6145                	addi	sp,sp,48
    50f2:	8082                	ret

000050f4 <NMI_Handler>:
    50f4:	1141                	addi	sp,sp,-16
    50f6:	c622                	sw	s0,12(sp)
    50f8:	0800                	addi	s0,sp,16
    50fa:	a001                	j	50fa <NMI_Handler+0x6>

000050fc <HardFault_Handler>:
    50fc:	1141                	addi	sp,sp,-16
    50fe:	c622                	sw	s0,12(sp)
    5100:	0800                	addi	s0,sp,16
    5102:	a001                	j	5102 <HardFault_Handler+0x6>

00005104 <Task_CollectSensorData>:
    5104:	c1afb2ef          	jal	t0,51e <__riscv_save_0>
    5108:	1101                	addi	sp,sp,-32
    510a:	c402                	sw	zero,8(sp)
    510c:	c602                	sw	zero,12(sp)
    510e:	c802                	sw	zero,16(sp)
    5110:	ca02                	sw	zero,20(sp)
    5112:	cc02                	sw	zero,24(sp)
    5114:	ce02                	sw	zero,28(sp)
    5116:	0028                	addi	a0,sp,8
    5118:	a13ff0ef          	jal	ra,4b2a <HAL_WRAPEPR_ReadAcc>
    511c:	0848                	addi	a0,sp,20
    511e:	a41ff0ef          	jal	ra,4b5e <HAL_WRAPEPR_ReadGyro>
    5122:	bfd5                	j	5116 <Task_CollectSensorData+0x12>

00005124 <main>:
    5124:	bfafb2ef          	jal	t0,51e <__riscv_save_0>
    5128:	ef4ff0ef          	jal	ra,481c <SystemInit>
    512c:	f6cff0ef          	jal	ra,4898 <SystemCoreClockUpdate>
    5130:	4509                	li	a0,2
    5132:	be3fe0ef          	jal	ra,3d14 <NVIC_PriorityGroupConfig>
    5136:	ac0ff0ef          	jal	ra,43f6 <MCAL_Config_ConfigAllPins>
    513a:	d4bff0ef          	jal	ra,4e84 <HAL_Config_ConfigAllHW>
    513e:	20000637          	lui	a2,0x20000
    5142:	14460613          	addi	a2,a2,324 # 20000144 <queue_RawSensorData_Handle_t>
    5146:	4589                	li	a1,2
    5148:	4529                	li	a0,10
    514a:	d2efb0ef          	jal	ra,678 <SERVICE_RTOS_CreateBlockingQueue>
    514e:	20000637          	lui	a2,0x20000
    5152:	14060613          	addi	a2,a2,320 # 20000140 <queue_FusedSensorData_Handle_t>
    5156:	4589                	li	a1,2
    5158:	4529                	li	a0,10
    515a:	d1efb0ef          	jal	ra,678 <SERVICE_RTOS_CreateBlockingQueue>
    515e:	20000637          	lui	a2,0x20000
    5162:	13860613          	addi	a2,a2,312 # 20000138 <queue_AppCommToDrone_Handle_t>
    5166:	4589                	li	a1,2
    5168:	4529                	li	a0,10
    516a:	d0efb0ef          	jal	ra,678 <SERVICE_RTOS_CreateBlockingQueue>
    516e:	20000637          	lui	a2,0x20000
    5172:	13c60613          	addi	a2,a2,316 # 2000013c <queue_DroneCommToApp_Handle_t>
    5176:	4589                	li	a1,2
    5178:	4529                	li	a0,10
    517a:	cfefb0ef          	jal	ra,678 <SERVICE_RTOS_CreateBlockingQueue>
    517e:	20000737          	lui	a4,0x20000
    5182:	000085b7          	lui	a1,0x8
    5186:	00005537          	lui	a0,0x5
    518a:	14870713          	addi	a4,a4,328 # 20000148 <task_CollectSensorData_Handle_t>
    518e:	4691                	li	a3,4
    5190:	10000613          	li	a2,256
    5194:	fdc58593          	addi	a1,a1,-36 # 7fdc <_read+0x1fa>
    5198:	10450513          	addi	a0,a0,260 # 5104 <Task_CollectSensorData>
    519c:	c5afb0ef          	jal	ra,5f6 <SERVICE_RTOS_TaskCreate>
    51a0:	cc0fb0ef          	jal	ra,660 <SERVICE_RTOS_StartSchedular>
    51a4:	00008437          	lui	s0,0x8
    51a8:	ff040513          	addi	a0,s0,-16 # 7ff0 <_read+0x20e>
    51ac:	2c3010ef          	jal	ra,6c6e <puts>
    51b0:	bfe5                	j	51a8 <main+0x84>

000051b2 <__divdf3>:
    51b2:	7139                	addi	sp,sp,-64
    51b4:	0145d793          	srli	a5,a1,0x14
    51b8:	dc22                	sw	s0,56(sp)
    51ba:	d84a                	sw	s2,48(sp)
    51bc:	d256                	sw	s5,36(sp)
    51be:	892a                	mv	s2,a0
    51c0:	00c59413          	slli	s0,a1,0xc
    51c4:	de06                	sw	ra,60(sp)
    51c6:	da26                	sw	s1,52(sp)
    51c8:	d64e                	sw	s3,44(sp)
    51ca:	d452                	sw	s4,40(sp)
    51cc:	d05a                	sw	s6,32(sp)
    51ce:	ce5e                	sw	s7,28(sp)
    51d0:	7ff7f513          	andi	a0,a5,2047
    51d4:	8031                	srli	s0,s0,0xc
    51d6:	01f5da93          	srli	s5,a1,0x1f
    51da:	10050b63          	beqz	a0,52f0 <__divdf3+0x13e>
    51de:	7ff00793          	li	a5,2047
    51e2:	14f50b63          	beq	a0,a5,5338 <__divdf3+0x186>
    51e6:	01d95a13          	srli	s4,s2,0x1d
    51ea:	040e                	slli	s0,s0,0x3
    51ec:	008a6433          	or	s0,s4,s0
    51f0:	00800a37          	lui	s4,0x800
    51f4:	01446a33          	or	s4,s0,s4
    51f8:	00391b13          	slli	s6,s2,0x3
    51fc:	c0150493          	addi	s1,a0,-1023
    5200:	4401                	li	s0,0
    5202:	4b81                	li	s7,0
    5204:	0146d813          	srli	a6,a3,0x14
    5208:	00c69913          	slli	s2,a3,0xc
    520c:	7ff87813          	andi	a6,a6,2047
    5210:	88b2                	mv	a7,a2
    5212:	00c95913          	srli	s2,s2,0xc
    5216:	01f6d993          	srli	s3,a3,0x1f
    521a:	08080e63          	beqz	a6,52b6 <__divdf3+0x104>
    521e:	7ff00793          	li	a5,2047
    5222:	04f80063          	beq	a6,a5,5262 <__divdf3+0xb0>
    5226:	01d65713          	srli	a4,a2,0x1d
    522a:	090e                	slli	s2,s2,0x3
    522c:	01276933          	or	s2,a4,s2
    5230:	c0180813          	addi	a6,a6,-1023
    5234:	008007b7          	lui	a5,0x800
    5238:	00f96733          	or	a4,s2,a5
    523c:	00361893          	slli	a7,a2,0x3
    5240:	410484b3          	sub	s1,s1,a6
    5244:	4581                	li	a1,0
    5246:	47bd                	li	a5,15
    5248:	013ac833          	xor	a6,s5,s3
    524c:	1a87e463          	bltu	a5,s0,53f4 <__divdf3+0x242>
    5250:	00003797          	auipc	a5,0x3
    5254:	db878793          	addi	a5,a5,-584 # 8008 <_read+0x226>
    5258:	040a                	slli	s0,s0,0x2
    525a:	943e                	add	s0,s0,a5
    525c:	4010                	lw	a2,0(s0)
    525e:	963e                	add	a2,a2,a5
    5260:	8602                	jr	a2
    5262:	00c96733          	or	a4,s2,a2
    5266:	80148493          	addi	s1,s1,-2047
    526a:	10071263          	bnez	a4,536e <__divdf3+0x1bc>
    526e:	00246413          	ori	s0,s0,2
    5272:	4881                	li	a7,0
    5274:	4589                	li	a1,2
    5276:	bfc1                	j	5246 <__divdf3+0x94>
    5278:	7ff00613          	li	a2,2047
    527c:	4781                	li	a5,0
    527e:	4701                	li	a4,0
    5280:	07b2                	slli	a5,a5,0xc
    5282:	50f2                	lw	ra,60(sp)
    5284:	5462                	lw	s0,56(sp)
    5286:	0652                	slli	a2,a2,0x14
    5288:	83b1                	srli	a5,a5,0xc
    528a:	087e                	slli	a6,a6,0x1f
    528c:	8fd1                	or	a5,a5,a2
    528e:	0107e7b3          	or	a5,a5,a6
    5292:	54d2                	lw	s1,52(sp)
    5294:	5942                	lw	s2,48(sp)
    5296:	59b2                	lw	s3,44(sp)
    5298:	5a22                	lw	s4,40(sp)
    529a:	5a92                	lw	s5,36(sp)
    529c:	5b02                	lw	s6,32(sp)
    529e:	4bf2                	lw	s7,28(sp)
    52a0:	853a                	mv	a0,a4
    52a2:	85be                	mv	a1,a5
    52a4:	6121                	addi	sp,sp,64
    52a6:	8082                	ret
    52a8:	4801                	li	a6,0
    52aa:	7ff00613          	li	a2,2047
    52ae:	000807b7          	lui	a5,0x80
    52b2:	4701                	li	a4,0
    52b4:	b7f1                	j	5280 <__divdf3+0xce>
    52b6:	00c96733          	or	a4,s2,a2
    52ba:	c74d                	beqz	a4,5364 <__divdf3+0x1b2>
    52bc:	30090863          	beqz	s2,55cc <__divdf3+0x41a>
    52c0:	854a                	mv	a0,s2
    52c2:	c432                	sw	a2,8(sp)
    52c4:	764010ef          	jal	ra,6a28 <__clzsi2>
    52c8:	4622                	lw	a2,8(sp)
    52ca:	ff550713          	addi	a4,a0,-11
    52ce:	47f5                	li	a5,29
    52d0:	ff850693          	addi	a3,a0,-8
    52d4:	8f99                	sub	a5,a5,a4
    52d6:	00d91933          	sll	s2,s2,a3
    52da:	00f657b3          	srl	a5,a2,a5
    52de:	0127e733          	or	a4,a5,s2
    52e2:	00d618b3          	sll	a7,a2,a3
    52e6:	9526                	add	a0,a0,s1
    52e8:	3f350493          	addi	s1,a0,1011
    52ec:	4581                	li	a1,0
    52ee:	bfa1                	j	5246 <__divdf3+0x94>
    52f0:	01246a33          	or	s4,s0,s2
    52f4:	060a0363          	beqz	s4,535a <__divdf3+0x1a8>
    52f8:	c636                	sw	a3,12(sp)
    52fa:	c432                	sw	a2,8(sp)
    52fc:	2a040663          	beqz	s0,55a8 <__divdf3+0x3f6>
    5300:	8522                	mv	a0,s0
    5302:	726010ef          	jal	ra,6a28 <__clzsi2>
    5306:	4622                	lw	a2,8(sp)
    5308:	46b2                	lw	a3,12(sp)
    530a:	84aa                	mv	s1,a0
    530c:	ff550713          	addi	a4,a0,-11
    5310:	4a75                	li	s4,29
    5312:	ff848b13          	addi	s6,s1,-8
    5316:	40ea0a33          	sub	s4,s4,a4
    531a:	01641433          	sll	s0,s0,s6
    531e:	01495a33          	srl	s4,s2,s4
    5322:	008a6a33          	or	s4,s4,s0
    5326:	01691b33          	sll	s6,s2,s6
    532a:	c0d00513          	li	a0,-1011
    532e:	409504b3          	sub	s1,a0,s1
    5332:	4401                	li	s0,0
    5334:	4b81                	li	s7,0
    5336:	b5f9                	j	5204 <__divdf3+0x52>
    5338:	01246a33          	or	s4,s0,s2
    533c:	000a1863          	bnez	s4,534c <__divdf3+0x19a>
    5340:	4421                	li	s0,8
    5342:	4b01                	li	s6,0
    5344:	7ff00493          	li	s1,2047
    5348:	4b89                	li	s7,2
    534a:	bd6d                	j	5204 <__divdf3+0x52>
    534c:	8a22                	mv	s4,s0
    534e:	8b4a                	mv	s6,s2
    5350:	4431                	li	s0,12
    5352:	7ff00493          	li	s1,2047
    5356:	4b8d                	li	s7,3
    5358:	b575                	j	5204 <__divdf3+0x52>
    535a:	4411                	li	s0,4
    535c:	4b01                	li	s6,0
    535e:	4481                	li	s1,0
    5360:	4b85                	li	s7,1
    5362:	b54d                	j	5204 <__divdf3+0x52>
    5364:	00146413          	ori	s0,s0,1
    5368:	4881                	li	a7,0
    536a:	4585                	li	a1,1
    536c:	bde9                	j	5246 <__divdf3+0x94>
    536e:	00346413          	ori	s0,s0,3
    5372:	874a                	mv	a4,s2
    5374:	458d                	li	a1,3
    5376:	bdc1                	j	5246 <__divdf3+0x94>
    5378:	2e050a63          	beqz	a0,566c <__divdf3+0x4ba>
    537c:	4785                	li	a5,1
    537e:	8f89                	sub	a5,a5,a0
    5380:	03800693          	li	a3,56
    5384:	32f6dd63          	bge	a3,a5,56be <__divdf3+0x50c>
    5388:	4601                	li	a2,0
    538a:	4781                	li	a5,0
    538c:	4701                	li	a4,0
    538e:	bdcd                	j	5280 <__divdf3+0xce>
    5390:	86ce                	mv	a3,s3
    5392:	4789                	li	a5,2
    5394:	3af58d63          	beq	a1,a5,574e <__divdf3+0x59c>
    5398:	478d                	li	a5,3
    539a:	f0f587e3          	beq	a1,a5,52a8 <__divdf3+0xf6>
    539e:	4785                	li	a5,1
    53a0:	8836                	mv	a6,a3
    53a2:	fef583e3          	beq	a1,a5,5388 <__divdf3+0x1d6>
    53a6:	3ff48513          	addi	a0,s1,1023
    53aa:	fca057e3          	blez	a0,5378 <__divdf3+0x1c6>
    53ae:	0078f793          	andi	a5,a7,7
    53b2:	28079663          	bnez	a5,563e <__divdf3+0x48c>
    53b6:	0038d693          	srli	a3,a7,0x3
    53ba:	00771793          	slli	a5,a4,0x7
    53be:	0007d863          	bgez	a5,53ce <__divdf3+0x21c>
    53c2:	ff0007b7          	lui	a5,0xff000
    53c6:	17fd                	addi	a5,a5,-1
    53c8:	8f7d                	and	a4,a4,a5
    53ca:	40048513          	addi	a0,s1,1024
    53ce:	7fe00793          	li	a5,2046
    53d2:	eaa7c3e3          	blt	a5,a0,5278 <__divdf3+0xc6>
    53d6:	01d71613          	slli	a2,a4,0x1d
    53da:	00971793          	slli	a5,a4,0x9
    53de:	83b1                	srli	a5,a5,0xc
    53e0:	00d66733          	or	a4,a2,a3
    53e4:	7ff57613          	andi	a2,a0,2047
    53e8:	bd61                	j	5280 <__divdf3+0xce>
    53ea:	86d6                	mv	a3,s5
    53ec:	8752                	mv	a4,s4
    53ee:	88da                	mv	a7,s6
    53f0:	85de                	mv	a1,s7
    53f2:	b745                	j	5392 <__divdf3+0x1e0>
    53f4:	23476163          	bltu	a4,s4,5616 <__divdf3+0x464>
    53f8:	20ea0d63          	beq	s4,a4,5612 <__divdf3+0x460>
    53fc:	86da                	mv	a3,s6
    53fe:	14fd                	addi	s1,s1,-1
    5400:	8452                	mv	s0,s4
    5402:	4b01                	li	s6,0
    5404:	00871793          	slli	a5,a4,0x8
    5408:	0188d313          	srli	t1,a7,0x18
    540c:	00f36333          	or	t1,t1,a5
    5410:	01035e93          	srli	t4,t1,0x10
    5414:	03d457b3          	divu	a5,s0,t4
    5418:	01031f13          	slli	t5,t1,0x10
    541c:	010f5f13          	srli	t5,t5,0x10
    5420:	0106d593          	srli	a1,a3,0x10
    5424:	00889e13          	slli	t3,a7,0x8
    5428:	03d47433          	remu	s0,s0,t4
    542c:	02ff0733          	mul	a4,t5,a5
    5430:	0442                	slli	s0,s0,0x10
    5432:	8dc1                	or	a1,a1,s0
    5434:	00e5fb63          	bgeu	a1,a4,544a <__divdf3+0x298>
    5438:	959a                	add	a1,a1,t1
    543a:	fff78613          	addi	a2,a5,-1 # feffffff <__freertos_irq_stack_top+0xdeffafff>
    543e:	2665ee63          	bltu	a1,t1,56ba <__divdf3+0x508>
    5442:	26e5fc63          	bgeu	a1,a4,56ba <__divdf3+0x508>
    5446:	17f9                	addi	a5,a5,-2
    5448:	959a                	add	a1,a1,t1
    544a:	8d99                	sub	a1,a1,a4
    544c:	03d5d733          	divu	a4,a1,t4
    5450:	06c2                	slli	a3,a3,0x10
    5452:	82c1                	srli	a3,a3,0x10
    5454:	03d5f5b3          	remu	a1,a1,t4
    5458:	02ef0633          	mul	a2,t5,a4
    545c:	05c2                	slli	a1,a1,0x10
    545e:	8dd5                	or	a1,a1,a3
    5460:	00c5fb63          	bgeu	a1,a2,5476 <__divdf3+0x2c4>
    5464:	959a                	add	a1,a1,t1
    5466:	fff70693          	addi	a3,a4,-1
    546a:	2465e663          	bltu	a1,t1,56b6 <__divdf3+0x504>
    546e:	24c5f463          	bgeu	a1,a2,56b6 <__divdf3+0x504>
    5472:	1779                	addi	a4,a4,-2
    5474:	959a                	add	a1,a1,t1
    5476:	07c2                	slli	a5,a5,0x10
    5478:	6441                	lui	s0,0x10
    547a:	8f5d                	or	a4,a4,a5
    547c:	fff40793          	addi	a5,s0,-1 # ffff <_data_lma+0x7d5b>
    5480:	00f77533          	and	a0,a4,a5
    5484:	01075893          	srli	a7,a4,0x10
    5488:	010e5f93          	srli	t6,t3,0x10
    548c:	00fe77b3          	and	a5,t3,a5
    5490:	02f502b3          	mul	t0,a0,a5
    5494:	40c586b3          	sub	a3,a1,a2
    5498:	02f883b3          	mul	t2,a7,a5
    549c:	0102d593          	srli	a1,t0,0x10
    54a0:	02af8633          	mul	a2,t6,a0
    54a4:	961e                	add	a2,a2,t2
    54a6:	962e                	add	a2,a2,a1
    54a8:	03f88533          	mul	a0,a7,t6
    54ac:	00767363          	bgeu	a2,t2,54b2 <__divdf3+0x300>
    54b0:	9522                	add	a0,a0,s0
    54b2:	68c1                	lui	a7,0x10
    54b4:	18fd                	addi	a7,a7,-1
    54b6:	01065593          	srli	a1,a2,0x10
    54ba:	01167633          	and	a2,a2,a7
    54be:	0642                	slli	a2,a2,0x10
    54c0:	0112f8b3          	and	a7,t0,a7
    54c4:	95aa                	add	a1,a1,a0
    54c6:	9646                	add	a2,a2,a7
    54c8:	12b6e663          	bltu	a3,a1,55f4 <__divdf3+0x442>
    54cc:	12b68263          	beq	a3,a1,55f0 <__divdf3+0x43e>
    54d0:	40cb0633          	sub	a2,s6,a2
    54d4:	8e8d                	sub	a3,a3,a1
    54d6:	00cb3b33          	sltu	s6,s6,a2
    54da:	41668b33          	sub	s6,a3,s6
    54de:	3ff48513          	addi	a0,s1,1023
    54e2:	17630c63          	beq	t1,s6,565a <__divdf3+0x4a8>
    54e6:	03db58b3          	divu	a7,s6,t4
    54ea:	01065593          	srli	a1,a2,0x10
    54ee:	03db7b33          	remu	s6,s6,t4
    54f2:	031f06b3          	mul	a3,t5,a7
    54f6:	0b42                	slli	s6,s6,0x10
    54f8:	0165eb33          	or	s6,a1,s6
    54fc:	00db7b63          	bgeu	s6,a3,5512 <__divdf3+0x360>
    5500:	9b1a                	add	s6,s6,t1
    5502:	fff88593          	addi	a1,a7,-1 # ffff <_data_lma+0x7d5b>
    5506:	206b6d63          	bltu	s6,t1,5720 <__divdf3+0x56e>
    550a:	20db7b63          	bgeu	s6,a3,5720 <__divdf3+0x56e>
    550e:	18f9                	addi	a7,a7,-2
    5510:	9b1a                	add	s6,s6,t1
    5512:	40db0b33          	sub	s6,s6,a3
    5516:	03db56b3          	divu	a3,s6,t4
    551a:	0642                	slli	a2,a2,0x10
    551c:	8241                	srli	a2,a2,0x10
    551e:	03db7b33          	remu	s6,s6,t4
    5522:	02df0f33          	mul	t5,t5,a3
    5526:	0b42                	slli	s6,s6,0x10
    5528:	01666633          	or	a2,a2,s6
    552c:	01e67b63          	bgeu	a2,t5,5542 <__divdf3+0x390>
    5530:	961a                	add	a2,a2,t1
    5532:	fff68593          	addi	a1,a3,-1
    5536:	1e666763          	bltu	a2,t1,5724 <__divdf3+0x572>
    553a:	1fe67563          	bgeu	a2,t5,5724 <__divdf3+0x572>
    553e:	16f9                	addi	a3,a3,-2
    5540:	961a                	add	a2,a2,t1
    5542:	08c2                	slli	a7,a7,0x10
    5544:	00d8e8b3          	or	a7,a7,a3
    5548:	01089593          	slli	a1,a7,0x10
    554c:	0108d293          	srli	t0,a7,0x10
    5550:	81c1                	srli	a1,a1,0x10
    5552:	02f58eb3          	mul	t4,a1,a5
    5556:	41e60633          	sub	a2,a2,t5
    555a:	02bf85b3          	mul	a1,t6,a1
    555e:	010ed693          	srli	a3,t4,0x10
    5562:	02f287b3          	mul	a5,t0,a5
    5566:	95be                	add	a1,a1,a5
    5568:	96ae                	add	a3,a3,a1
    556a:	025f8fb3          	mul	t6,t6,t0
    556e:	00f6f463          	bgeu	a3,a5,5576 <__divdf3+0x3c4>
    5572:	67c1                	lui	a5,0x10
    5574:	9fbe                	add	t6,t6,a5
    5576:	65c1                	lui	a1,0x10
    5578:	15fd                	addi	a1,a1,-1
    557a:	0106d793          	srli	a5,a3,0x10
    557e:	8eed                	and	a3,a3,a1
    5580:	06c2                	slli	a3,a3,0x10
    5582:	00befeb3          	and	t4,t4,a1
    5586:	9fbe                	add	t6,t6,a5
    5588:	96f6                	add	a3,a3,t4
    558a:	09f67f63          	bgeu	a2,t6,5628 <__divdf3+0x476>
    558e:	961a                	add	a2,a2,t1
    5590:	fff88793          	addi	a5,a7,-1
    5594:	1a666963          	bltu	a2,t1,5746 <__divdf3+0x594>
    5598:	19f66863          	bltu	a2,t6,5728 <__divdf3+0x576>
    559c:	1bf60f63          	beq	a2,t6,575a <__divdf3+0x5a8>
    55a0:	88be                	mv	a7,a5
    55a2:	0018e893          	ori	a7,a7,1
    55a6:	b511                	j	53aa <__divdf3+0x1f8>
    55a8:	854a                	mv	a0,s2
    55aa:	47e010ef          	jal	ra,6a28 <__clzsi2>
    55ae:	01550713          	addi	a4,a0,21
    55b2:	45f1                	li	a1,28
    55b4:	02050493          	addi	s1,a0,32
    55b8:	4622                	lw	a2,8(sp)
    55ba:	46b2                	lw	a3,12(sp)
    55bc:	d4e5dae3          	bge	a1,a4,5310 <__divdf3+0x15e>
    55c0:	ff850413          	addi	s0,a0,-8
    55c4:	00891a33          	sll	s4,s2,s0
    55c8:	4b01                	li	s6,0
    55ca:	b385                	j	532a <__divdf3+0x178>
    55cc:	8532                	mv	a0,a2
    55ce:	c432                	sw	a2,8(sp)
    55d0:	458010ef          	jal	ra,6a28 <__clzsi2>
    55d4:	01550713          	addi	a4,a0,21
    55d8:	46f1                	li	a3,28
    55da:	87aa                	mv	a5,a0
    55dc:	4622                	lw	a2,8(sp)
    55de:	02050513          	addi	a0,a0,32
    55e2:	cee6d6e3          	bge	a3,a4,52ce <__divdf3+0x11c>
    55e6:	17e1                	addi	a5,a5,-8
    55e8:	00f61733          	sll	a4,a2,a5
    55ec:	4881                	li	a7,0
    55ee:	b9e5                	j	52e6 <__divdf3+0x134>
    55f0:	eecb70e3          	bgeu	s6,a2,54d0 <__divdf3+0x31e>
    55f4:	9b72                	add	s6,s6,t3
    55f6:	01cb3533          	sltu	a0,s6,t3
    55fa:	951a                	add	a0,a0,t1
    55fc:	96aa                	add	a3,a3,a0
    55fe:	fff70513          	addi	a0,a4,-1
    5602:	02d37863          	bgeu	t1,a3,5632 <__divdf3+0x480>
    5606:	10b6e663          	bltu	a3,a1,5712 <__divdf3+0x560>
    560a:	10d58263          	beq	a1,a3,570e <__divdf3+0x55c>
    560e:	872a                	mv	a4,a0
    5610:	b5c1                	j	54d0 <__divdf3+0x31e>
    5612:	df1b65e3          	bltu	s6,a7,53fc <__divdf3+0x24a>
    5616:	001b5593          	srli	a1,s6,0x1
    561a:	01fa1693          	slli	a3,s4,0x1f
    561e:	001a5413          	srli	s0,s4,0x1
    5622:	8ecd                	or	a3,a3,a1
    5624:	0b7e                	slli	s6,s6,0x1f
    5626:	bbf9                	j	5404 <__divdf3+0x252>
    5628:	f7f61de3          	bne	a2,t6,55a2 <__divdf3+0x3f0>
    562c:	d6068fe3          	beqz	a3,53aa <__divdf3+0x1f8>
    5630:	bfb9                	j	558e <__divdf3+0x3dc>
    5632:	fcd31ee3          	bne	t1,a3,560e <__divdf3+0x45c>
    5636:	fdcb78e3          	bgeu	s6,t3,5606 <__divdf3+0x454>
    563a:	872a                	mv	a4,a0
    563c:	bd51                	j	54d0 <__divdf3+0x31e>
    563e:	00f8f793          	andi	a5,a7,15
    5642:	4691                	li	a3,4
    5644:	d6d789e3          	beq	a5,a3,53b6 <__divdf3+0x204>
    5648:	ffc8b793          	sltiu	a5,a7,-4
    564c:	00488693          	addi	a3,a7,4
    5650:	0017c793          	xori	a5,a5,1
    5654:	828d                	srli	a3,a3,0x3
    5656:	973e                	add	a4,a4,a5
    5658:	b38d                	j	53ba <__divdf3+0x208>
    565a:	4681                	li	a3,0
    565c:	4785                	li	a5,1
    565e:	fea04ce3          	bgtz	a0,5656 <__divdf3+0x4a4>
    5662:	58fd                	li	a7,-1
    5664:	d0051ce3          	bnez	a0,537c <__divdf3+0x1ca>
    5668:	c0100493          	li	s1,-1023
    566c:	4785                	li	a5,1
    566e:	41e48513          	addi	a0,s1,1054
    5672:	00a716b3          	sll	a3,a4,a0
    5676:	00f8d633          	srl	a2,a7,a5
    567a:	00a89533          	sll	a0,a7,a0
    567e:	8ed1                	or	a3,a3,a2
    5680:	00a03533          	snez	a0,a0
    5684:	8ec9                	or	a3,a3,a0
    5686:	0076f613          	andi	a2,a3,7
    568a:	00f75733          	srl	a4,a4,a5
    568e:	ce01                	beqz	a2,56a6 <__divdf3+0x4f4>
    5690:	00f6f793          	andi	a5,a3,15
    5694:	4611                	li	a2,4
    5696:	00c78863          	beq	a5,a2,56a6 <__divdf3+0x4f4>
    569a:	00468793          	addi	a5,a3,4
    569e:	00d7b6b3          	sltu	a3,a5,a3
    56a2:	9736                	add	a4,a4,a3
    56a4:	86be                	mv	a3,a5
    56a6:	00871793          	slli	a5,a4,0x8
    56aa:	0407d863          	bgez	a5,56fa <__divdf3+0x548>
    56ae:	4605                	li	a2,1
    56b0:	4781                	li	a5,0
    56b2:	4701                	li	a4,0
    56b4:	b6f1                	j	5280 <__divdf3+0xce>
    56b6:	8736                	mv	a4,a3
    56b8:	bb7d                	j	5476 <__divdf3+0x2c4>
    56ba:	87b2                	mv	a5,a2
    56bc:	b379                	j	544a <__divdf3+0x298>
    56be:	46fd                	li	a3,31
    56c0:	faf6d7e3          	bge	a3,a5,566e <__divdf3+0x4bc>
    56c4:	5605                	li	a2,-31
    56c6:	8e09                	sub	a2,a2,a0
    56c8:	02000693          	li	a3,32
    56cc:	00c75633          	srl	a2,a4,a2
    56d0:	00d78863          	beq	a5,a3,56e0 <__divdf3+0x52e>
    56d4:	43e48793          	addi	a5,s1,1086
    56d8:	00f717b3          	sll	a5,a4,a5
    56dc:	00f8e8b3          	or	a7,a7,a5
    56e0:	011036b3          	snez	a3,a7
    56e4:	8ed1                	or	a3,a3,a2
    56e6:	0076f613          	andi	a2,a3,7
    56ea:	4781                	li	a5,0
    56ec:	ce01                	beqz	a2,5704 <__divdf3+0x552>
    56ee:	00f6f793          	andi	a5,a3,15
    56f2:	4611                	li	a2,4
    56f4:	4701                	li	a4,0
    56f6:	fac792e3          	bne	a5,a2,569a <__divdf3+0x4e8>
    56fa:	00971793          	slli	a5,a4,0x9
    56fe:	01d71613          	slli	a2,a4,0x1d
    5702:	83b1                	srli	a5,a5,0xc
    5704:	0036d713          	srli	a4,a3,0x3
    5708:	8f51                	or	a4,a4,a2
    570a:	4601                	li	a2,0
    570c:	be95                	j	5280 <__divdf3+0xce>
    570e:	f0cb70e3          	bgeu	s6,a2,560e <__divdf3+0x45c>
    5712:	9b72                	add	s6,s6,t3
    5714:	01cb3533          	sltu	a0,s6,t3
    5718:	951a                	add	a0,a0,t1
    571a:	1779                	addi	a4,a4,-2
    571c:	96aa                	add	a3,a3,a0
    571e:	bb4d                	j	54d0 <__divdf3+0x31e>
    5720:	88ae                	mv	a7,a1
    5722:	bbc5                	j	5512 <__divdf3+0x360>
    5724:	86ae                	mv	a3,a1
    5726:	bd31                	j	5542 <__divdf3+0x390>
    5728:	001e1793          	slli	a5,t3,0x1
    572c:	01c7be33          	sltu	t3,a5,t3
    5730:	9372                	add	t1,t1,t3
    5732:	961a                	add	a2,a2,t1
    5734:	18f9                	addi	a7,a7,-2
    5736:	8e3e                	mv	t3,a5
    5738:	e7f615e3          	bne	a2,t6,55a2 <__divdf3+0x3f0>
    573c:	c6de07e3          	beq	t3,a3,53aa <__divdf3+0x1f8>
    5740:	0018e893          	ori	a7,a7,1
    5744:	b19d                	j	53aa <__divdf3+0x1f8>
    5746:	88be                	mv	a7,a5
    5748:	fff60ae3          	beq	a2,t6,573c <__divdf3+0x58a>
    574c:	bd99                	j	55a2 <__divdf3+0x3f0>
    574e:	8836                	mv	a6,a3
    5750:	7ff00613          	li	a2,2047
    5754:	4781                	li	a5,0
    5756:	4701                	li	a4,0
    5758:	b625                	j	5280 <__divdf3+0xce>
    575a:	fcde67e3          	bltu	t3,a3,5728 <__divdf3+0x576>
    575e:	88be                	mv	a7,a5
    5760:	fede10e3          	bne	t3,a3,5740 <__divdf3+0x58e>
    5764:	b199                	j	53aa <__divdf3+0x1f8>

00005766 <__subdf3>:
    5766:	00100737          	lui	a4,0x100
    576a:	177d                	addi	a4,a4,-1
    576c:	1101                	addi	sp,sp,-32
    576e:	00b77333          	and	t1,a4,a1
    5772:	0146d893          	srli	a7,a3,0x14
    5776:	8f75                	and	a4,a4,a3
    5778:	01d65e93          	srli	t4,a2,0x1d
    577c:	cc22                	sw	s0,24(sp)
    577e:	ca26                	sw	s1,20(sp)
    5780:	030e                	slli	t1,t1,0x3
    5782:	0145d493          	srli	s1,a1,0x14
    5786:	01d55793          	srli	a5,a0,0x1d
    578a:	070e                	slli	a4,a4,0x3
    578c:	ce06                	sw	ra,28(sp)
    578e:	c84a                	sw	s2,16(sp)
    5790:	c64e                	sw	s3,12(sp)
    5792:	7ff8f893          	andi	a7,a7,2047
    5796:	7ff00e13          	li	t3,2047
    579a:	00eee733          	or	a4,t4,a4
    579e:	7ff4f493          	andi	s1,s1,2047
    57a2:	01f5d413          	srli	s0,a1,0x1f
    57a6:	0067e333          	or	t1,a5,t1
    57aa:	00351f13          	slli	t5,a0,0x3
    57ae:	82fd                	srli	a3,a3,0x1f
    57b0:	00361e93          	slli	t4,a2,0x3
    57b4:	19c88063          	beq	a7,t3,5934 <__subdf3+0x1ce>
    57b8:	0016c693          	xori	a3,a3,1
    57bc:	411485b3          	sub	a1,s1,a7
    57c0:	12d40563          	beq	s0,a3,58ea <__subdf3+0x184>
    57c4:	18b05163          	blez	a1,5946 <__subdf3+0x1e0>
    57c8:	1a088b63          	beqz	a7,597e <__subdf3+0x218>
    57cc:	008007b7          	lui	a5,0x800
    57d0:	8f5d                	or	a4,a4,a5
    57d2:	59c48163          	beq	s1,t3,5d54 <__subdf3+0x5ee>
    57d6:	03800793          	li	a5,56
    57da:	34b7c463          	blt	a5,a1,5b22 <__subdf3+0x3bc>
    57de:	47fd                	li	a5,31
    57e0:	48b7c563          	blt	a5,a1,5c6a <__subdf3+0x504>
    57e4:	02000793          	li	a5,32
    57e8:	8f8d                	sub	a5,a5,a1
    57ea:	00bed9b3          	srl	s3,t4,a1
    57ee:	00f71833          	sll	a6,a4,a5
    57f2:	00fe9eb3          	sll	t4,t4,a5
    57f6:	01386833          	or	a6,a6,s3
    57fa:	00b75733          	srl	a4,a4,a1
    57fe:	01d039b3          	snez	s3,t4
    5802:	01386833          	or	a6,a6,s3
    5806:	40e30333          	sub	t1,t1,a4
    580a:	410f09b3          	sub	s3,t5,a6
    580e:	013f37b3          	sltu	a5,t5,s3
    5812:	40f30633          	sub	a2,t1,a5
    5816:	00861793          	slli	a5,a2,0x8
    581a:	2407d363          	bgez	a5,5a60 <__subdf3+0x2fa>
    581e:	00800937          	lui	s2,0x800
    5822:	197d                	addi	s2,s2,-1
    5824:	01267933          	and	s2,a2,s2
    5828:	2c090f63          	beqz	s2,5b06 <__subdf3+0x3a0>
    582c:	854a                	mv	a0,s2
    582e:	1fa010ef          	jal	ra,6a28 <__clzsi2>
    5832:	ff850713          	addi	a4,a0,-8
    5836:	02000793          	li	a5,32
    583a:	8f99                	sub	a5,a5,a4
    583c:	00f9d7b3          	srl	a5,s3,a5
    5840:	00e91633          	sll	a2,s2,a4
    5844:	8fd1                	or	a5,a5,a2
    5846:	00e999b3          	sll	s3,s3,a4
    584a:	2a974463          	blt	a4,s1,5af2 <__subdf3+0x38c>
    584e:	8f05                	sub	a4,a4,s1
    5850:	00170613          	addi	a2,a4,1 # 100001 <_data_lma+0xf7d5d>
    5854:	46fd                	li	a3,31
    5856:	3ac6c563          	blt	a3,a2,5c00 <__subdf3+0x49a>
    585a:	02000713          	li	a4,32
    585e:	8f11                	sub	a4,a4,a2
    5860:	00c9d6b3          	srl	a3,s3,a2
    5864:	00e99833          	sll	a6,s3,a4
    5868:	00e79733          	sll	a4,a5,a4
    586c:	8f55                	or	a4,a4,a3
    586e:	01003833          	snez	a6,a6
    5872:	010769b3          	or	s3,a4,a6
    5876:	00c7d633          	srl	a2,a5,a2
    587a:	4481                	li	s1,0
    587c:	0079f793          	andi	a5,s3,7
    5880:	cf81                	beqz	a5,5898 <__subdf3+0x132>
    5882:	00f9f693          	andi	a3,s3,15
    5886:	4791                	li	a5,4
    5888:	00f68863          	beq	a3,a5,5898 <__subdf3+0x132>
    588c:	00498693          	addi	a3,s3,4
    5890:	0136b833          	sltu	a6,a3,s3
    5894:	9642                	add	a2,a2,a6
    5896:	89b6                	mv	s3,a3
    5898:	00861793          	slli	a5,a2,0x8
    589c:	1c07d663          	bgez	a5,5a68 <__subdf3+0x302>
    58a0:	00148713          	addi	a4,s1,1
    58a4:	7ff00793          	li	a5,2047
    58a8:	8805                	andi	s0,s0,1
    58aa:	20f70663          	beq	a4,a5,5ab6 <__subdf3+0x350>
    58ae:	ff8007b7          	lui	a5,0xff800
    58b2:	17fd                	addi	a5,a5,-1
    58b4:	8ff1                	and	a5,a5,a2
    58b6:	01d79813          	slli	a6,a5,0x1d
    58ba:	0039d993          	srli	s3,s3,0x3
    58be:	07a6                	slli	a5,a5,0x9
    58c0:	01386833          	or	a6,a6,s3
    58c4:	83b1                	srli	a5,a5,0xc
    58c6:	7ff77713          	andi	a4,a4,2047
    58ca:	00c79693          	slli	a3,a5,0xc
    58ce:	0752                	slli	a4,a4,0x14
    58d0:	82b1                	srli	a3,a3,0xc
    58d2:	047e                	slli	s0,s0,0x1f
    58d4:	8ed9                	or	a3,a3,a4
    58d6:	8ec1                	or	a3,a3,s0
    58d8:	40f2                	lw	ra,28(sp)
    58da:	4462                	lw	s0,24(sp)
    58dc:	44d2                	lw	s1,20(sp)
    58de:	4942                	lw	s2,16(sp)
    58e0:	49b2                	lw	s3,12(sp)
    58e2:	8542                	mv	a0,a6
    58e4:	85b6                	mv	a1,a3
    58e6:	6105                	addi	sp,sp,32
    58e8:	8082                	ret
    58ea:	0ab05663          	blez	a1,5996 <__subdf3+0x230>
    58ee:	12088a63          	beqz	a7,5a22 <__subdf3+0x2bc>
    58f2:	008007b7          	lui	a5,0x800
    58f6:	8f5d                	or	a4,a4,a5
    58f8:	2dc48763          	beq	s1,t3,5bc6 <__subdf3+0x460>
    58fc:	03800793          	li	a5,56
    5900:	18b7c763          	blt	a5,a1,5a8e <__subdf3+0x328>
    5904:	47fd                	li	a5,31
    5906:	3cb7d263          	bge	a5,a1,5cca <__subdf3+0x564>
    590a:	fe058813          	addi	a6,a1,-32 # ffe0 <_data_lma+0x7d3c>
    590e:	02000793          	li	a5,32
    5912:	010759b3          	srl	s3,a4,a6
    5916:	00f58a63          	beq	a1,a5,592a <__subdf3+0x1c4>
    591a:	04000793          	li	a5,64
    591e:	40b785b3          	sub	a1,a5,a1
    5922:	00b71733          	sll	a4,a4,a1
    5926:	00eeeeb3          	or	t4,t4,a4
    592a:	01d03833          	snez	a6,t4
    592e:	01386833          	or	a6,a6,s3
    5932:	a295                	j	5a96 <__subdf3+0x330>
    5934:	01d767b3          	or	a5,a4,t4
    5938:	80148593          	addi	a1,s1,-2047
    593c:	e399                	bnez	a5,5942 <__subdf3+0x1dc>
    593e:	0016c693          	xori	a3,a3,1
    5942:	04d40a63          	beq	s0,a3,5996 <__subdf3+0x230>
    5946:	e1d1                	bnez	a1,59ca <__subdf3+0x264>
    5948:	00148793          	addi	a5,s1,1
    594c:	7fe7f793          	andi	a5,a5,2046
    5950:	1e079963          	bnez	a5,5b42 <__subdf3+0x3dc>
    5954:	01e367b3          	or	a5,t1,t5
    5958:	01d76833          	or	a6,a4,t4
    595c:	16049263          	bnez	s1,5ac0 <__subdf3+0x35a>
    5960:	3c078263          	beqz	a5,5d24 <__subdf3+0x5be>
    5964:	42081663          	bnez	a6,5d90 <__subdf3+0x62a>
    5968:	00351813          	slli	a6,a0,0x3
    596c:	01d31693          	slli	a3,t1,0x1d
    5970:	00385813          	srli	a6,a6,0x3
    5974:	0106e833          	or	a6,a3,a6
    5978:	00335793          	srli	a5,t1,0x3
    597c:	a219                	j	5a82 <__subdf3+0x31c>
    597e:	01d767b3          	or	a5,a4,t4
    5982:	1a078563          	beqz	a5,5b2c <__subdf3+0x3c6>
    5986:	fff58793          	addi	a5,a1,-1
    598a:	3a078b63          	beqz	a5,5d40 <__subdf3+0x5da>
    598e:	23c58c63          	beq	a1,t3,5bc6 <__subdf3+0x460>
    5992:	85be                	mv	a1,a5
    5994:	b589                	j	57d6 <__subdf3+0x70>
    5996:	1c059963          	bnez	a1,5b68 <__subdf3+0x402>
    599a:	00148693          	addi	a3,s1,1
    599e:	7fe6f793          	andi	a5,a3,2046
    59a2:	efc1                	bnez	a5,5a3a <__subdf3+0x2d4>
    59a4:	01e367b3          	or	a5,t1,t5
    59a8:	36049063          	bnez	s1,5d08 <__subdf3+0x5a2>
    59ac:	44078d63          	beqz	a5,5e06 <__subdf3+0x6a0>
    59b0:	01d767b3          	or	a5,a4,t4
    59b4:	46079463          	bnez	a5,5e1c <__subdf3+0x6b6>
    59b8:	050e                	slli	a0,a0,0x3
    59ba:	01d31813          	slli	a6,t1,0x1d
    59be:	810d                	srli	a0,a0,0x3
    59c0:	00a86833          	or	a6,a6,a0
    59c4:	00335793          	srli	a5,t1,0x3
    59c8:	a86d                	j	5a82 <__subdf3+0x31c>
    59ca:	409885b3          	sub	a1,a7,s1
    59ce:	20049763          	bnez	s1,5bdc <__subdf3+0x476>
    59d2:	01e367b3          	or	a5,t1,t5
    59d6:	30078d63          	beqz	a5,5cf0 <__subdf3+0x58a>
    59da:	fff58793          	addi	a5,a1,-1
    59de:	40078963          	beqz	a5,5df0 <__subdf3+0x68a>
    59e2:	7ff00513          	li	a0,2047
    59e6:	20a58363          	beq	a1,a0,5bec <__subdf3+0x486>
    59ea:	85be                	mv	a1,a5
    59ec:	03800793          	li	a5,56
    59f0:	2ab7c263          	blt	a5,a1,5c94 <__subdf3+0x52e>
    59f4:	47fd                	li	a5,31
    59f6:	3cb7c863          	blt	a5,a1,5dc6 <__subdf3+0x660>
    59fa:	02000793          	li	a5,32
    59fe:	8f8d                	sub	a5,a5,a1
    5a00:	00f31833          	sll	a6,t1,a5
    5a04:	00bf5633          	srl	a2,t5,a1
    5a08:	00ff17b3          	sll	a5,t5,a5
    5a0c:	00c86833          	or	a6,a6,a2
    5a10:	00f039b3          	snez	s3,a5
    5a14:	00b35333          	srl	t1,t1,a1
    5a18:	01386833          	or	a6,a6,s3
    5a1c:	40670733          	sub	a4,a4,t1
    5a20:	acb5                	j	5c9c <__subdf3+0x536>
    5a22:	01d767b3          	or	a5,a4,t4
    5a26:	10078363          	beqz	a5,5b2c <__subdf3+0x3c6>
    5a2a:	fff58793          	addi	a5,a1,-1
    5a2e:	1e078f63          	beqz	a5,5c2c <__subdf3+0x4c6>
    5a32:	2fc58063          	beq	a1,t3,5d12 <__subdf3+0x5ac>
    5a36:	85be                	mv	a1,a5
    5a38:	b5d1                	j	58fc <__subdf3+0x196>
    5a3a:	7ff00793          	li	a5,2047
    5a3e:	06f68b63          	beq	a3,a5,5ab4 <__subdf3+0x34e>
    5a42:	9efa                	add	t4,t4,t5
    5a44:	01eeb633          	sltu	a2,t4,t5
    5a48:	00e307b3          	add	a5,t1,a4
    5a4c:	97b2                	add	a5,a5,a2
    5a4e:	01f79813          	slli	a6,a5,0x1f
    5a52:	001ede93          	srli	t4,t4,0x1
    5a56:	01d869b3          	or	s3,a6,t4
    5a5a:	0017d613          	srli	a2,a5,0x1
    5a5e:	84b6                	mv	s1,a3
    5a60:	0079f793          	andi	a5,s3,7
    5a64:	e0079fe3          	bnez	a5,5882 <__subdf3+0x11c>
    5a68:	01d61793          	slli	a5,a2,0x1d
    5a6c:	0039d813          	srli	a6,s3,0x3
    5a70:	00f86833          	or	a6,a6,a5
    5a74:	85a6                	mv	a1,s1
    5a76:	00365793          	srli	a5,a2,0x3
    5a7a:	7ff00713          	li	a4,2047
    5a7e:	06e58063          	beq	a1,a4,5ade <__subdf3+0x378>
    5a82:	07b2                	slli	a5,a5,0xc
    5a84:	83b1                	srli	a5,a5,0xc
    5a86:	7ff5f713          	andi	a4,a1,2047
    5a8a:	8805                	andi	s0,s0,1
    5a8c:	bd3d                	j	58ca <__subdf3+0x164>
    5a8e:	01d76733          	or	a4,a4,t4
    5a92:	00e03833          	snez	a6,a4
    5a96:	01e809b3          	add	s3,a6,t5
    5a9a:	01e9b7b3          	sltu	a5,s3,t5
    5a9e:	00678633          	add	a2,a5,t1
    5aa2:	00861793          	slli	a5,a2,0x8
    5aa6:	fa07dde3          	bgez	a5,5a60 <__subdf3+0x2fa>
    5aaa:	0485                	addi	s1,s1,1
    5aac:	7ff00793          	li	a5,2047
    5ab0:	18f49c63          	bne	s1,a5,5c48 <__subdf3+0x4e2>
    5ab4:	8805                	andi	s0,s0,1
    5ab6:	7ff00713          	li	a4,2047
    5aba:	4781                	li	a5,0
    5abc:	4801                	li	a6,0
    5abe:	b531                	j	58ca <__subdf3+0x164>
    5ac0:	10079163          	bnez	a5,5bc2 <__subdf3+0x45c>
    5ac4:	3c080163          	beqz	a6,5e86 <__subdf3+0x720>
    5ac8:	00361813          	slli	a6,a2,0x3
    5acc:	01d71793          	slli	a5,a4,0x1d
    5ad0:	00385813          	srli	a6,a6,0x3
    5ad4:	00f86833          	or	a6,a6,a5
    5ad8:	8436                	mv	s0,a3
    5ada:	00375793          	srli	a5,a4,0x3
    5ade:	00f867b3          	or	a5,a6,a5
    5ae2:	dbe9                	beqz	a5,5ab4 <__subdf3+0x34e>
    5ae4:	4401                	li	s0,0
    5ae6:	7ff00713          	li	a4,2047
    5aea:	000807b7          	lui	a5,0x80
    5aee:	4801                	li	a6,0
    5af0:	bbe9                	j	58ca <__subdf3+0x164>
    5af2:	ff800637          	lui	a2,0xff800
    5af6:	167d                	addi	a2,a2,-1
    5af8:	8e7d                	and	a2,a2,a5
    5afa:	0079f793          	andi	a5,s3,7
    5afe:	8c99                	sub	s1,s1,a4
    5b00:	d80791e3          	bnez	a5,5882 <__subdf3+0x11c>
    5b04:	b795                	j	5a68 <__subdf3+0x302>
    5b06:	854e                	mv	a0,s3
    5b08:	721000ef          	jal	ra,6a28 <__clzsi2>
    5b0c:	01850713          	addi	a4,a0,24
    5b10:	47fd                	li	a5,31
    5b12:	d2e7d2e3          	bge	a5,a4,5836 <__subdf3+0xd0>
    5b16:	ff850613          	addi	a2,a0,-8
    5b1a:	00c997b3          	sll	a5,s3,a2
    5b1e:	4981                	li	s3,0
    5b20:	b32d                	j	584a <__subdf3+0xe4>
    5b22:	01d76833          	or	a6,a4,t4
    5b26:	01003833          	snez	a6,a6
    5b2a:	b1c5                	j	580a <__subdf3+0xa4>
    5b2c:	00351813          	slli	a6,a0,0x3
    5b30:	01d31793          	slli	a5,t1,0x1d
    5b34:	00385813          	srli	a6,a6,0x3
    5b38:	00f86833          	or	a6,a6,a5
    5b3c:	00335793          	srli	a5,t1,0x3
    5b40:	bf2d                	j	5a7a <__subdf3+0x314>
    5b42:	41df09b3          	sub	s3,t5,t4
    5b46:	40e30933          	sub	s2,t1,a4
    5b4a:	013f3633          	sltu	a2,t5,s3
    5b4e:	40c90933          	sub	s2,s2,a2
    5b52:	00891793          	slli	a5,s2,0x8
    5b56:	2007ca63          	bltz	a5,5d6a <__subdf3+0x604>
    5b5a:	0129e833          	or	a6,s3,s2
    5b5e:	cc0815e3          	bnez	a6,5828 <__subdf3+0xc2>
    5b62:	4781                	li	a5,0
    5b64:	4401                	li	s0,0
    5b66:	bf31                	j	5a82 <__subdf3+0x31c>
    5b68:	409885b3          	sub	a1,a7,s1
    5b6c:	14048163          	beqz	s1,5cae <__subdf3+0x548>
    5b70:	008006b7          	lui	a3,0x800
    5b74:	7ff00793          	li	a5,2047
    5b78:	00d36333          	or	t1,t1,a3
    5b7c:	20f88163          	beq	a7,a5,5d7e <__subdf3+0x618>
    5b80:	03800793          	li	a5,56
    5b84:	22b7cc63          	blt	a5,a1,5dbc <__subdf3+0x656>
    5b88:	47fd                	li	a5,31
    5b8a:	2cb7c963          	blt	a5,a1,5e5c <__subdf3+0x6f6>
    5b8e:	02000793          	li	a5,32
    5b92:	8f8d                	sub	a5,a5,a1
    5b94:	00f31833          	sll	a6,t1,a5
    5b98:	00bf56b3          	srl	a3,t5,a1
    5b9c:	00ff17b3          	sll	a5,t5,a5
    5ba0:	00d86833          	or	a6,a6,a3
    5ba4:	00f039b3          	snez	s3,a5
    5ba8:	00b35333          	srl	t1,t1,a1
    5bac:	01386833          	or	a6,a6,s3
    5bb0:	971a                	add	a4,a4,t1
    5bb2:	01d809b3          	add	s3,a6,t4
    5bb6:	01d9b7b3          	sltu	a5,s3,t4
    5bba:	00e78633          	add	a2,a5,a4
    5bbe:	84c6                	mv	s1,a7
    5bc0:	b5cd                	j	5aa2 <__subdf3+0x33c>
    5bc2:	f20811e3          	bnez	a6,5ae4 <__subdf3+0x37e>
    5bc6:	00351813          	slli	a6,a0,0x3
    5bca:	01d31793          	slli	a5,t1,0x1d
    5bce:	00385813          	srli	a6,a6,0x3
    5bd2:	00f86833          	or	a6,a6,a5
    5bd6:	00335793          	srli	a5,t1,0x3
    5bda:	b711                	j	5ade <__subdf3+0x378>
    5bdc:	00800537          	lui	a0,0x800
    5be0:	7ff00793          	li	a5,2047
    5be4:	00a36333          	or	t1,t1,a0
    5be8:	e0f892e3          	bne	a7,a5,59ec <__subdf3+0x286>
    5bec:	060e                	slli	a2,a2,0x3
    5bee:	01d71813          	slli	a6,a4,0x1d
    5bf2:	820d                	srli	a2,a2,0x3
    5bf4:	00c86833          	or	a6,a6,a2
    5bf8:	00375793          	srli	a5,a4,0x3
    5bfc:	8436                	mv	s0,a3
    5bfe:	b5c5                	j	5ade <__subdf3+0x378>
    5c00:	1705                	addi	a4,a4,-31
    5c02:	02000693          	li	a3,32
    5c06:	00e7d733          	srl	a4,a5,a4
    5c0a:	00d60a63          	beq	a2,a3,5c1e <__subdf3+0x4b8>
    5c0e:	04000693          	li	a3,64
    5c12:	40c68633          	sub	a2,a3,a2
    5c16:	00c79633          	sll	a2,a5,a2
    5c1a:	00c9e9b3          	or	s3,s3,a2
    5c1e:	01303833          	snez	a6,s3
    5c22:	00e869b3          	or	s3,a6,a4
    5c26:	4601                	li	a2,0
    5c28:	4481                	li	s1,0
    5c2a:	bd1d                	j	5a60 <__subdf3+0x2fa>
    5c2c:	01df09b3          	add	s3,t5,t4
    5c30:	00e307b3          	add	a5,t1,a4
    5c34:	01e9bf33          	sltu	t5,s3,t5
    5c38:	01e78633          	add	a2,a5,t5
    5c3c:	00861793          	slli	a5,a2,0x8
    5c40:	4485                	li	s1,1
    5c42:	e007dfe3          	bgez	a5,5a60 <__subdf3+0x2fa>
    5c46:	4489                	li	s1,2
    5c48:	ff8007b7          	lui	a5,0xff800
    5c4c:	17fd                	addi	a5,a5,-1
    5c4e:	8ff1                	and	a5,a5,a2
    5c50:	0019d713          	srli	a4,s3,0x1
    5c54:	0019f813          	andi	a6,s3,1
    5c58:	01076833          	or	a6,a4,a6
    5c5c:	01f79993          	slli	s3,a5,0x1f
    5c60:	0109e9b3          	or	s3,s3,a6
    5c64:	0017d613          	srli	a2,a5,0x1
    5c68:	b911                	j	587c <__subdf3+0x116>
    5c6a:	fe058813          	addi	a6,a1,-32
    5c6e:	02000793          	li	a5,32
    5c72:	010759b3          	srl	s3,a4,a6
    5c76:	00f58a63          	beq	a1,a5,5c8a <__subdf3+0x524>
    5c7a:	04000793          	li	a5,64
    5c7e:	40b785b3          	sub	a1,a5,a1
    5c82:	00b71733          	sll	a4,a4,a1
    5c86:	00eeeeb3          	or	t4,t4,a4
    5c8a:	01d03833          	snez	a6,t4
    5c8e:	01386833          	or	a6,a6,s3
    5c92:	bea5                	j	580a <__subdf3+0xa4>
    5c94:	01e36333          	or	t1,t1,t5
    5c98:	00603833          	snez	a6,t1
    5c9c:	410e89b3          	sub	s3,t4,a6
    5ca0:	013eb7b3          	sltu	a5,t4,s3
    5ca4:	40f70633          	sub	a2,a4,a5
    5ca8:	84c6                	mv	s1,a7
    5caa:	8436                	mv	s0,a3
    5cac:	b6ad                	j	5816 <__subdf3+0xb0>
    5cae:	01e367b3          	or	a5,t1,t5
    5cb2:	18078763          	beqz	a5,5e40 <__subdf3+0x6da>
    5cb6:	fff58793          	addi	a5,a1,-1
    5cba:	1c078c63          	beqz	a5,5e92 <__subdf3+0x72c>
    5cbe:	7ff00693          	li	a3,2047
    5cc2:	0ad58e63          	beq	a1,a3,5d7e <__subdf3+0x618>
    5cc6:	85be                	mv	a1,a5
    5cc8:	bd65                	j	5b80 <__subdf3+0x41a>
    5cca:	02000793          	li	a5,32
    5cce:	8f8d                	sub	a5,a5,a1
    5cd0:	00bed9b3          	srl	s3,t4,a1
    5cd4:	00f71833          	sll	a6,a4,a5
    5cd8:	00fe9eb3          	sll	t4,t4,a5
    5cdc:	01386833          	or	a6,a6,s3
    5ce0:	00b75733          	srl	a4,a4,a1
    5ce4:	01d039b3          	snez	s3,t4
    5ce8:	01386833          	or	a6,a6,s3
    5cec:	933a                	add	t1,t1,a4
    5cee:	b365                	j	5a96 <__subdf3+0x330>
    5cf0:	00361813          	slli	a6,a2,0x3
    5cf4:	01d71793          	slli	a5,a4,0x1d
    5cf8:	00385813          	srli	a6,a6,0x3
    5cfc:	0107e833          	or	a6,a5,a6
    5d00:	8436                	mv	s0,a3
    5d02:	00375793          	srli	a5,a4,0x3
    5d06:	bb95                	j	5a7a <__subdf3+0x314>
    5d08:	cbbd                	beqz	a5,5d7e <__subdf3+0x618>
    5d0a:	01d76733          	or	a4,a4,t4
    5d0e:	dc071be3          	bnez	a4,5ae4 <__subdf3+0x37e>
    5d12:	050e                	slli	a0,a0,0x3
    5d14:	01d31813          	slli	a6,t1,0x1d
    5d18:	810d                	srli	a0,a0,0x3
    5d1a:	00a86833          	or	a6,a6,a0
    5d1e:	00335793          	srli	a5,t1,0x3
    5d22:	bb75                	j	5ade <__subdf3+0x378>
    5d24:	e2080fe3          	beqz	a6,5b62 <__subdf3+0x3fc>
    5d28:	00361813          	slli	a6,a2,0x3
    5d2c:	01d71793          	slli	a5,a4,0x1d
    5d30:	00385813          	srli	a6,a6,0x3
    5d34:	00f86833          	or	a6,a6,a5
    5d38:	8436                	mv	s0,a3
    5d3a:	00375793          	srli	a5,a4,0x3
    5d3e:	b391                	j	5a82 <__subdf3+0x31c>
    5d40:	41df09b3          	sub	s3,t5,t4
    5d44:	40e307b3          	sub	a5,t1,a4
    5d48:	013f3f33          	sltu	t5,t5,s3
    5d4c:	41e78633          	sub	a2,a5,t5
    5d50:	4485                	li	s1,1
    5d52:	b4d1                	j	5816 <__subdf3+0xb0>
    5d54:	00351813          	slli	a6,a0,0x3
    5d58:	01d31693          	slli	a3,t1,0x1d
    5d5c:	00385813          	srli	a6,a6,0x3
    5d60:	0106e833          	or	a6,a3,a6
    5d64:	00335793          	srli	a5,t1,0x3
    5d68:	bb9d                	j	5ade <__subdf3+0x378>
    5d6a:	41ee89b3          	sub	s3,t4,t5
    5d6e:	40670633          	sub	a2,a4,t1
    5d72:	013eb933          	sltu	s2,t4,s3
    5d76:	41260933          	sub	s2,a2,s2
    5d7a:	8436                	mv	s0,a3
    5d7c:	b475                	j	5828 <__subdf3+0xc2>
    5d7e:	060e                	slli	a2,a2,0x3
    5d80:	01d71813          	slli	a6,a4,0x1d
    5d84:	820d                	srli	a2,a2,0x3
    5d86:	00c86833          	or	a6,a6,a2
    5d8a:	00375793          	srli	a5,a4,0x3
    5d8e:	bb81                	j	5ade <__subdf3+0x378>
    5d90:	41df09b3          	sub	s3,t5,t4
    5d94:	40e307b3          	sub	a5,t1,a4
    5d98:	013f3633          	sltu	a2,t5,s3
    5d9c:	40c78633          	sub	a2,a5,a2
    5da0:	00861793          	slli	a5,a2,0x8
    5da4:	0a07d763          	bgez	a5,5e52 <__subdf3+0x6ec>
    5da8:	41ee89b3          	sub	s3,t4,t5
    5dac:	406707b3          	sub	a5,a4,t1
    5db0:	013ebeb3          	sltu	t4,t4,s3
    5db4:	41d78633          	sub	a2,a5,t4
    5db8:	8436                	mv	s0,a3
    5dba:	b4c9                	j	587c <__subdf3+0x116>
    5dbc:	01e36333          	or	t1,t1,t5
    5dc0:	00603833          	snez	a6,t1
    5dc4:	b3fd                	j	5bb2 <__subdf3+0x44c>
    5dc6:	fe058813          	addi	a6,a1,-32
    5dca:	02000793          	li	a5,32
    5dce:	010359b3          	srl	s3,t1,a6
    5dd2:	00f58a63          	beq	a1,a5,5de6 <__subdf3+0x680>
    5dd6:	04000793          	li	a5,64
    5dda:	40b785b3          	sub	a1,a5,a1
    5dde:	00b31333          	sll	t1,t1,a1
    5de2:	006f6f33          	or	t5,t5,t1
    5de6:	01e03833          	snez	a6,t5
    5dea:	01386833          	or	a6,a6,s3
    5dee:	b57d                	j	5c9c <__subdf3+0x536>
    5df0:	41ee89b3          	sub	s3,t4,t5
    5df4:	406707b3          	sub	a5,a4,t1
    5df8:	013ebeb3          	sltu	t4,t4,s3
    5dfc:	41d78633          	sub	a2,a5,t4
    5e00:	8436                	mv	s0,a3
    5e02:	4485                	li	s1,1
    5e04:	bc09                	j	5816 <__subdf3+0xb0>
    5e06:	00361813          	slli	a6,a2,0x3
    5e0a:	01d71793          	slli	a5,a4,0x1d
    5e0e:	00385813          	srli	a6,a6,0x3
    5e12:	00f86833          	or	a6,a6,a5
    5e16:	00375793          	srli	a5,a4,0x3
    5e1a:	b1a5                	j	5a82 <__subdf3+0x31c>
    5e1c:	01df09b3          	add	s3,t5,t4
    5e20:	00e307b3          	add	a5,t1,a4
    5e24:	01e9bf33          	sltu	t5,s3,t5
    5e28:	01e78633          	add	a2,a5,t5
    5e2c:	00861793          	slli	a5,a2,0x8
    5e30:	c207d8e3          	bgez	a5,5a60 <__subdf3+0x2fa>
    5e34:	ff8007b7          	lui	a5,0xff800
    5e38:	17fd                	addi	a5,a5,-1
    5e3a:	8e7d                	and	a2,a2,a5
    5e3c:	4485                	li	s1,1
    5e3e:	b10d                	j	5a60 <__subdf3+0x2fa>
    5e40:	060e                	slli	a2,a2,0x3
    5e42:	01d71813          	slli	a6,a4,0x1d
    5e46:	820d                	srli	a2,a2,0x3
    5e48:	00c86833          	or	a6,a6,a2
    5e4c:	00375793          	srli	a5,a4,0x3
    5e50:	b12d                	j	5a7a <__subdf3+0x314>
    5e52:	00c9e833          	or	a6,s3,a2
    5e56:	d00806e3          	beqz	a6,5b62 <__subdf3+0x3fc>
    5e5a:	b119                	j	5a60 <__subdf3+0x2fa>
    5e5c:	fe058813          	addi	a6,a1,-32
    5e60:	02000793          	li	a5,32
    5e64:	010359b3          	srl	s3,t1,a6
    5e68:	00f58a63          	beq	a1,a5,5e7c <__subdf3+0x716>
    5e6c:	04000793          	li	a5,64
    5e70:	40b785b3          	sub	a1,a5,a1
    5e74:	00b31333          	sll	t1,t1,a1
    5e78:	006f6f33          	or	t5,t5,t1
    5e7c:	01e03833          	snez	a6,t5
    5e80:	01386833          	or	a6,a6,s3
    5e84:	b33d                	j	5bb2 <__subdf3+0x44c>
    5e86:	4401                	li	s0,0
    5e88:	7ff00713          	li	a4,2047
    5e8c:	000807b7          	lui	a5,0x80
    5e90:	bc2d                	j	58ca <__subdf3+0x164>
    5e92:	01df09b3          	add	s3,t5,t4
    5e96:	00e307b3          	add	a5,t1,a4
    5e9a:	01d9beb3          	sltu	t4,s3,t4
    5e9e:	01d78633          	add	a2,a5,t4
    5ea2:	bb69                	j	5c3c <__subdf3+0x4d6>

00005ea4 <__addsf3>:
    5ea4:	1141                	addi	sp,sp,-16
    5ea6:	00800737          	lui	a4,0x800
    5eaa:	177d                	addi	a4,a4,-1
    5eac:	0175d813          	srli	a6,a1,0x17
    5eb0:	c226                	sw	s1,4(sp)
    5eb2:	01755493          	srli	s1,a0,0x17
    5eb6:	00a77333          	and	t1,a4,a0
    5eba:	0ff4f493          	andi	s1,s1,255
    5ebe:	00b776b3          	and	a3,a4,a1
    5ec2:	c04a                	sw	s2,0(sp)
    5ec4:	0ff87813          	andi	a6,a6,255
    5ec8:	01f55913          	srli	s2,a0,0x1f
    5ecc:	c606                	sw	ra,12(sp)
    5ece:	c422                	sw	s0,8(sp)
    5ed0:	81fd                	srli	a1,a1,0x1f
    5ed2:	879a                	mv	a5,t1
    5ed4:	8526                	mv	a0,s1
    5ed6:	864a                	mv	a2,s2
    5ed8:	00331e13          	slli	t3,t1,0x3
    5edc:	00369e93          	slli	t4,a3,0x3
    5ee0:	410488b3          	sub	a7,s1,a6
    5ee4:	0eb90a63          	beq	s2,a1,5fd8 <__addsf3+0x134>
    5ee8:	0d105063          	blez	a7,5fa8 <__addsf3+0x104>
    5eec:	14080463          	beqz	a6,6034 <__addsf3+0x190>
    5ef0:	0ff00793          	li	a5,255
    5ef4:	14f48b63          	beq	s1,a5,604a <__addsf3+0x1a6>
    5ef8:	040007b7          	lui	a5,0x4000
    5efc:	00feeeb3          	or	t4,t4,a5
    5f00:	47ed                	li	a5,27
    5f02:	2917c163          	blt	a5,a7,6184 <__addsf3+0x2e0>
    5f06:	02000793          	li	a5,32
    5f0a:	411787b3          	sub	a5,a5,a7
    5f0e:	00fe97b3          	sll	a5,t4,a5
    5f12:	011ed8b3          	srl	a7,t4,a7
    5f16:	00f037b3          	snez	a5,a5
    5f1a:	00f8e7b3          	or	a5,a7,a5
    5f1e:	40fe07b3          	sub	a5,t3,a5
    5f22:	00579713          	slli	a4,a5,0x5
    5f26:	18075e63          	bgez	a4,60c2 <__addsf3+0x21e>
    5f2a:	04000437          	lui	s0,0x4000
    5f2e:	147d                	addi	s0,s0,-1
    5f30:	8c7d                	and	s0,s0,a5
    5f32:	8522                	mv	a0,s0
    5f34:	2f5000ef          	jal	ra,6a28 <__clzsi2>
    5f38:	156d                	addi	a0,a0,-5
    5f3a:	00a417b3          	sll	a5,s0,a0
    5f3e:	1a954863          	blt	a0,s1,60ee <__addsf3+0x24a>
    5f42:	8d05                	sub	a0,a0,s1
    5f44:	00150413          	addi	s0,a0,1 # 800001 <_data_lma+0x7f7d5d>
    5f48:	02000713          	li	a4,32
    5f4c:	8f01                	sub	a4,a4,s0
    5f4e:	00e79733          	sll	a4,a5,a4
    5f52:	00e03733          	snez	a4,a4
    5f56:	0087d7b3          	srl	a5,a5,s0
    5f5a:	8fd9                	or	a5,a5,a4
    5f5c:	4481                	li	s1,0
    5f5e:	0077f713          	andi	a4,a5,7
    5f62:	c719                	beqz	a4,5f70 <__addsf3+0xcc>
    5f64:	00f7f713          	andi	a4,a5,15
    5f68:	4691                	li	a3,4
    5f6a:	00d70363          	beq	a4,a3,5f70 <__addsf3+0xcc>
    5f6e:	0791                	addi	a5,a5,4
    5f70:	00579713          	slli	a4,a5,0x5
    5f74:	14075b63          	bgez	a4,60ca <__addsf3+0x226>
    5f78:	0485                	addi	s1,s1,1
    5f7a:	0ff00713          	li	a4,255
    5f7e:	864a                	mv	a2,s2
    5f80:	16e48363          	beq	s1,a4,60e6 <__addsf3+0x242>
    5f84:	079a                	slli	a5,a5,0x6
    5f86:	83a5                	srli	a5,a5,0x9
    5f88:	0ff4f513          	andi	a0,s1,255
    5f8c:	40b2                	lw	ra,12(sp)
    5f8e:	4422                	lw	s0,8(sp)
    5f90:	07a6                	slli	a5,a5,0x9
    5f92:	01751493          	slli	s1,a0,0x17
    5f96:	0097d513          	srli	a0,a5,0x9
    5f9a:	8d45                	or	a0,a0,s1
    5f9c:	067e                	slli	a2,a2,0x1f
    5f9e:	4492                	lw	s1,4(sp)
    5fa0:	4902                	lw	s2,0(sp)
    5fa2:	8d51                	or	a0,a0,a2
    5fa4:	0141                	addi	sp,sp,16
    5fa6:	8082                	ret
    5fa8:	0a089963          	bnez	a7,605a <__addsf3+0x1b6>
    5fac:	00148713          	addi	a4,s1,1
    5fb0:	0fe77713          	andi	a4,a4,254
    5fb4:	14071763          	bnez	a4,6102 <__addsf3+0x25e>
    5fb8:	22049063          	bnez	s1,61d8 <__addsf3+0x334>
    5fbc:	1e0e0d63          	beqz	t3,61b6 <__addsf3+0x312>
    5fc0:	fc0e86e3          	beqz	t4,5f8c <__addsf3+0xe8>
    5fc4:	41de07b3          	sub	a5,t3,t4
    5fc8:	00579713          	slli	a4,a5,0x5
    5fcc:	22075063          	bgez	a4,61ec <__addsf3+0x348>
    5fd0:	41ce87b3          	sub	a5,t4,t3
    5fd4:	892e                	mv	s2,a1
    5fd6:	b761                	j	5f5e <__addsf3+0xba>
    5fd8:	0b105c63          	blez	a7,6090 <__addsf3+0x1ec>
    5fdc:	08080e63          	beqz	a6,6078 <__addsf3+0x1d4>
    5fe0:	0ff00793          	li	a5,255
    5fe4:	06f48363          	beq	s1,a5,604a <__addsf3+0x1a6>
    5fe8:	040007b7          	lui	a5,0x4000
    5fec:	00feeeb3          	or	t4,t4,a5
    5ff0:	47ed                	li	a5,27
    5ff2:	1f17c963          	blt	a5,a7,61e4 <__addsf3+0x340>
    5ff6:	02000793          	li	a5,32
    5ffa:	411787b3          	sub	a5,a5,a7
    5ffe:	00fe97b3          	sll	a5,t4,a5
    6002:	011ed8b3          	srl	a7,t4,a7
    6006:	00f037b3          	snez	a5,a5
    600a:	00f8e7b3          	or	a5,a7,a5
    600e:	97f2                	add	a5,a5,t3
    6010:	00579713          	slli	a4,a5,0x5
    6014:	0a075763          	bgez	a4,60c2 <__addsf3+0x21e>
    6018:	0485                	addi	s1,s1,1
    601a:	0ff00713          	li	a4,255
    601e:	0ce48463          	beq	s1,a4,60e6 <__addsf3+0x242>
    6022:	7e0006b7          	lui	a3,0x7e000
    6026:	0017d713          	srli	a4,a5,0x1
    602a:	16fd                	addi	a3,a3,-1
    602c:	8b85                	andi	a5,a5,1
    602e:	8f75                	and	a4,a4,a3
    6030:	8fd9                	or	a5,a5,a4
    6032:	b735                	j	5f5e <__addsf3+0xba>
    6034:	080e8d63          	beqz	t4,60ce <__addsf3+0x22a>
    6038:	18fd                	addi	a7,a7,-1
    603a:	41de07b3          	sub	a5,t3,t4
    603e:	ee0882e3          	beqz	a7,5f22 <__addsf3+0x7e>
    6042:	0ff00793          	li	a5,255
    6046:	eaf49de3          	bne	s1,a5,5f00 <__addsf3+0x5c>
    604a:	08030d63          	beqz	t1,60e4 <__addsf3+0x240>
    604e:	4601                	li	a2,0
    6050:	0ff00513          	li	a0,255
    6054:	004007b7          	lui	a5,0x400
    6058:	bf15                	j	5f8c <__addsf3+0xe8>
    605a:	40980733          	sub	a4,a6,s1
    605e:	e8ed                	bnez	s1,6150 <__addsf3+0x2ac>
    6060:	140e0263          	beqz	t3,61a4 <__addsf3+0x300>
    6064:	177d                	addi	a4,a4,-1
    6066:	18070863          	beqz	a4,61f6 <__addsf3+0x352>
    606a:	0ff00793          	li	a5,255
    606e:	0ef81963          	bne	a6,a5,6160 <__addsf3+0x2bc>
    6072:	892e                	mv	s2,a1
    6074:	8336                	mv	t1,a3
    6076:	bfd1                	j	604a <__addsf3+0x1a6>
    6078:	040e8b63          	beqz	t4,60ce <__addsf3+0x22a>
    607c:	18fd                	addi	a7,a7,-1
    607e:	01de07b3          	add	a5,t3,t4
    6082:	f80887e3          	beqz	a7,6010 <__addsf3+0x16c>
    6086:	0ff00793          	li	a5,255
    608a:	f6f493e3          	bne	s1,a5,5ff0 <__addsf3+0x14c>
    608e:	bf75                	j	604a <__addsf3+0x1a6>
    6090:	08089563          	bnez	a7,611a <__addsf3+0x276>
    6094:	0485                	addi	s1,s1,1
    6096:	0fe4f713          	andi	a4,s1,254
    609a:	12071363          	bnez	a4,61c0 <__addsf3+0x31c>
    609e:	10051763          	bnez	a0,61ac <__addsf3+0x308>
    60a2:	140e0f63          	beqz	t3,6200 <__addsf3+0x35c>
    60a6:	ee0e83e3          	beqz	t4,5f8c <__addsf3+0xe8>
    60aa:	01de07b3          	add	a5,t3,t4
    60ae:	00579713          	slli	a4,a5,0x5
    60b2:	4481                	li	s1,0
    60b4:	00075763          	bgez	a4,60c2 <__addsf3+0x21e>
    60b8:	fc000737          	lui	a4,0xfc000
    60bc:	177d                	addi	a4,a4,-1
    60be:	8ff9                	and	a5,a5,a4
    60c0:	4485                	li	s1,1
    60c2:	0077f713          	andi	a4,a5,7
    60c6:	e8071fe3          	bnez	a4,5f64 <__addsf3+0xc0>
    60ca:	0037d313          	srli	t1,a5,0x3
    60ce:	0ff00793          	li	a5,255
    60d2:	f6f48ce3          	beq	s1,a5,604a <__addsf3+0x1a6>
    60d6:	00931793          	slli	a5,t1,0x9
    60da:	83a5                	srli	a5,a5,0x9
    60dc:	0ff4f513          	andi	a0,s1,255
    60e0:	864a                	mv	a2,s2
    60e2:	b56d                	j	5f8c <__addsf3+0xe8>
    60e4:	864a                	mv	a2,s2
    60e6:	0ff00513          	li	a0,255
    60ea:	4781                	li	a5,0
    60ec:	b545                	j	5f8c <__addsf3+0xe8>
    60ee:	fc000737          	lui	a4,0xfc000
    60f2:	177d                	addi	a4,a4,-1
    60f4:	8ff9                	and	a5,a5,a4
    60f6:	0077f713          	andi	a4,a5,7
    60fa:	8c89                	sub	s1,s1,a0
    60fc:	e60714e3          	bnez	a4,5f64 <__addsf3+0xc0>
    6100:	b7e9                	j	60ca <__addsf3+0x226>
    6102:	41de0433          	sub	s0,t3,t4
    6106:	00541793          	slli	a5,s0,0x5
    610a:	0c07c363          	bltz	a5,61d0 <__addsf3+0x32c>
    610e:	e20412e3          	bnez	s0,5f32 <__addsf3+0x8e>
    6112:	4601                	li	a2,0
    6114:	4501                	li	a0,0
    6116:	4781                	li	a5,0
    6118:	bd95                	j	5f8c <__addsf3+0xe8>
    611a:	40980733          	sub	a4,a6,s1
    611e:	c4ad                	beqz	s1,6188 <__addsf3+0x2e4>
    6120:	0ff00793          	li	a5,255
    6124:	f4f808e3          	beq	a6,a5,6074 <__addsf3+0x1d0>
    6128:	040007b7          	lui	a5,0x4000
    612c:	00fe6e33          	or	t3,t3,a5
    6130:	47ed                	li	a5,27
    6132:	0ce7cc63          	blt	a5,a4,620a <__addsf3+0x366>
    6136:	02000793          	li	a5,32
    613a:	8f99                	sub	a5,a5,a4
    613c:	00fe17b3          	sll	a5,t3,a5
    6140:	00ee5733          	srl	a4,t3,a4
    6144:	00f037b3          	snez	a5,a5
    6148:	8fd9                	or	a5,a5,a4
    614a:	97f6                	add	a5,a5,t4
    614c:	84c2                	mv	s1,a6
    614e:	b5c9                	j	6010 <__addsf3+0x16c>
    6150:	0ff00793          	li	a5,255
    6154:	f0f80fe3          	beq	a6,a5,6072 <__addsf3+0x1ce>
    6158:	040007b7          	lui	a5,0x4000
    615c:	00fe6e33          	or	t3,t3,a5
    6160:	47ed                	li	a5,27
    6162:	08e7c363          	blt	a5,a4,61e8 <__addsf3+0x344>
    6166:	02000693          	li	a3,32
    616a:	8e99                	sub	a3,a3,a4
    616c:	00de16b3          	sll	a3,t3,a3
    6170:	00ee57b3          	srl	a5,t3,a4
    6174:	00d03733          	snez	a4,a3
    6178:	8fd9                	or	a5,a5,a4
    617a:	40fe87b3          	sub	a5,t4,a5
    617e:	84c2                	mv	s1,a6
    6180:	892e                	mv	s2,a1
    6182:	b345                	j	5f22 <__addsf3+0x7e>
    6184:	4785                	li	a5,1
    6186:	bb61                	j	5f1e <__addsf3+0x7a>
    6188:	060e0e63          	beqz	t3,6204 <__addsf3+0x360>
    618c:	177d                	addi	a4,a4,-1
    618e:	01de07b3          	add	a5,t3,t4
    6192:	84c2                	mv	s1,a6
    6194:	e6070ee3          	beqz	a4,6010 <__addsf3+0x16c>
    6198:	0ff00793          	li	a5,255
    619c:	f8f81ae3          	bne	a6,a5,6130 <__addsf3+0x28c>
    61a0:	8336                	mv	t1,a3
    61a2:	b565                	j	604a <__addsf3+0x1a6>
    61a4:	8336                	mv	t1,a3
    61a6:	84c2                	mv	s1,a6
    61a8:	892e                	mv	s2,a1
    61aa:	b715                	j	60ce <__addsf3+0x22a>
    61ac:	ec0e04e3          	beqz	t3,6074 <__addsf3+0x1d0>
    61b0:	e80e8de3          	beqz	t4,604a <__addsf3+0x1a6>
    61b4:	bd69                	j	604e <__addsf3+0x1aa>
    61b6:	020e8d63          	beqz	t4,61f0 <__addsf3+0x34c>
    61ba:	862e                	mv	a2,a1
    61bc:	87b6                	mv	a5,a3
    61be:	b3f9                	j	5f8c <__addsf3+0xe8>
    61c0:	0ff00793          	li	a5,255
    61c4:	f2f481e3          	beq	s1,a5,60e6 <__addsf3+0x242>
    61c8:	01de07b3          	add	a5,t3,t4
    61cc:	8385                	srli	a5,a5,0x1
    61ce:	bdd5                	j	60c2 <__addsf3+0x21e>
    61d0:	41ce8433          	sub	s0,t4,t3
    61d4:	892e                	mv	s2,a1
    61d6:	bbb1                	j	5f32 <__addsf3+0x8e>
    61d8:	fc0e1ce3          	bnez	t3,61b0 <__addsf3+0x30c>
    61dc:	e60e89e3          	beqz	t4,604e <__addsf3+0x1aa>
    61e0:	892e                	mv	s2,a1
    61e2:	bd49                	j	6074 <__addsf3+0x1d0>
    61e4:	4785                	li	a5,1
    61e6:	b525                	j	600e <__addsf3+0x16a>
    61e8:	4785                	li	a5,1
    61ea:	bf41                	j	617a <__addsf3+0x2d6>
    61ec:	ec079be3          	bnez	a5,60c2 <__addsf3+0x21e>
    61f0:	4601                	li	a2,0
    61f2:	4781                	li	a5,0
    61f4:	bb61                	j	5f8c <__addsf3+0xe8>
    61f6:	41ce87b3          	sub	a5,t4,t3
    61fa:	84c2                	mv	s1,a6
    61fc:	892e                	mv	s2,a1
    61fe:	b315                	j	5f22 <__addsf3+0x7e>
    6200:	87b6                	mv	a5,a3
    6202:	b369                	j	5f8c <__addsf3+0xe8>
    6204:	8336                	mv	t1,a3
    6206:	84c2                	mv	s1,a6
    6208:	b5d9                	j	60ce <__addsf3+0x22a>
    620a:	4785                	li	a5,1
    620c:	bf3d                	j	614a <__addsf3+0x2a6>

0000620e <__divsf3>:
    620e:	7139                	addi	sp,sp,-64
    6210:	01755793          	srli	a5,a0,0x17
    6214:	d84a                	sw	s2,48(sp)
    6216:	d256                	sw	s5,36(sp)
    6218:	ce5e                	sw	s7,28(sp)
    621a:	00951a93          	slli	s5,a0,0x9
    621e:	01f55913          	srli	s2,a0,0x1f
    6222:	de06                	sw	ra,60(sp)
    6224:	dc22                	sw	s0,56(sp)
    6226:	da26                	sw	s1,52(sp)
    6228:	d64e                	sw	s3,44(sp)
    622a:	d452                	sw	s4,40(sp)
    622c:	d05a                	sw	s6,32(sp)
    622e:	0ff7f793          	andi	a5,a5,255
    6232:	009ada93          	srli	s5,s5,0x9
    6236:	8bca                	mv	s7,s2
    6238:	12078263          	beqz	a5,635c <__divsf3+0x14e>
    623c:	0ff00713          	li	a4,255
    6240:	12e78463          	beq	a5,a4,6368 <__divsf3+0x15a>
    6244:	0a8e                	slli	s5,s5,0x3
    6246:	04000737          	lui	a4,0x4000
    624a:	00eaeab3          	or	s5,s5,a4
    624e:	f8178a13          	addi	s4,a5,-127 # 3ffff81 <_data_lma+0x3ff7cdd>
    6252:	4401                	li	s0,0
    6254:	4b01                	li	s6,0
    6256:	0175d793          	srli	a5,a1,0x17
    625a:	00959493          	slli	s1,a1,0x9
    625e:	0ff7f793          	andi	a5,a5,255
    6262:	80a5                	srli	s1,s1,0x9
    6264:	01f5d993          	srli	s3,a1,0x1f
    6268:	c7fd                	beqz	a5,6356 <__divsf3+0x148>
    626a:	0ff00713          	li	a4,255
    626e:	02e78763          	beq	a5,a4,629c <__divsf3+0x8e>
    6272:	048e                	slli	s1,s1,0x3
    6274:	f8178793          	addi	a5,a5,-127
    6278:	04000737          	lui	a4,0x4000
    627c:	8cd9                	or	s1,s1,a4
    627e:	40fa0a33          	sub	s4,s4,a5
    6282:	4681                	li	a3,0
    6284:	8c55                	or	s0,s0,a3
    6286:	00002717          	auipc	a4,0x2
    628a:	dc270713          	addi	a4,a4,-574 # 8048 <_read+0x266>
    628e:	040a                	slli	s0,s0,0x2
    6290:	943a                	add	s0,s0,a4
    6292:	401c                	lw	a5,0(s0)
    6294:	01394933          	xor	s2,s2,s3
    6298:	97ba                	add	a5,a5,a4
    629a:	8782                	jr	a5
    629c:	f01a0a13          	addi	s4,s4,-255 # 7fff01 <_data_lma+0x7f7c5d>
    62a0:	e8f9                	bnez	s1,6376 <__divsf3+0x168>
    62a2:	4689                	li	a3,2
    62a4:	8c55                	or	s0,s0,a3
    62a6:	00002717          	auipc	a4,0x2
    62aa:	de270713          	addi	a4,a4,-542 # 8088 <_read+0x2a6>
    62ae:	040a                	slli	s0,s0,0x2
    62b0:	943a                	add	s0,s0,a4
    62b2:	401c                	lw	a5,0(s0)
    62b4:	01394933          	xor	s2,s2,s3
    62b8:	97ba                	add	a5,a5,a4
    62ba:	8782                	jr	a5
    62bc:	4901                	li	s2,0
    62be:	0ff00713          	li	a4,255
    62c2:	004007b7          	lui	a5,0x400
    62c6:	00979513          	slli	a0,a5,0x9
    62ca:	50f2                	lw	ra,60(sp)
    62cc:	5462                	lw	s0,56(sp)
    62ce:	01771793          	slli	a5,a4,0x17
    62d2:	8125                	srli	a0,a0,0x9
    62d4:	097e                	slli	s2,s2,0x1f
    62d6:	8d5d                	or	a0,a0,a5
    62d8:	01256533          	or	a0,a0,s2
    62dc:	54d2                	lw	s1,52(sp)
    62de:	5942                	lw	s2,48(sp)
    62e0:	59b2                	lw	s3,44(sp)
    62e2:	5a22                	lw	s4,40(sp)
    62e4:	5a92                	lw	s5,36(sp)
    62e6:	5b02                	lw	s6,32(sp)
    62e8:	4bf2                	lw	s7,28(sp)
    62ea:	6121                	addi	sp,sp,64
    62ec:	8082                	ret
    62ee:	0ff00713          	li	a4,255
    62f2:	4781                	li	a5,0
    62f4:	bfc9                	j	62c6 <__divsf3+0xb8>
    62f6:	8aa6                	mv	s5,s1
    62f8:	8bce                	mv	s7,s3
    62fa:	8b36                	mv	s6,a3
    62fc:	4789                	li	a5,2
    62fe:	1afb0963          	beq	s6,a5,64b0 <__divsf3+0x2a2>
    6302:	478d                	li	a5,3
    6304:	fafb0ce3          	beq	s6,a5,62bc <__divsf3+0xae>
    6308:	4785                	li	a5,1
    630a:	0afb0863          	beq	s6,a5,63ba <__divsf3+0x1ac>
    630e:	07fa0713          	addi	a4,s4,127
    6312:	001bf913          	andi	s2,s7,1
    6316:	12e05563          	blez	a4,6440 <__divsf3+0x232>
    631a:	007af793          	andi	a5,s5,7
    631e:	c799                	beqz	a5,632c <__divsf3+0x11e>
    6320:	00faf793          	andi	a5,s5,15
    6324:	4691                	li	a3,4
    6326:	00d78363          	beq	a5,a3,632c <__divsf3+0x11e>
    632a:	0a91                	addi	s5,s5,4
    632c:	004a9793          	slli	a5,s5,0x4
    6330:	0007d963          	bgez	a5,6342 <__divsf3+0x134>
    6334:	f80007b7          	lui	a5,0xf8000
    6338:	17fd                	addi	a5,a5,-1
    633a:	00fafab3          	and	s5,s5,a5
    633e:	080a0713          	addi	a4,s4,128
    6342:	0fe00793          	li	a5,254
    6346:	fae7c4e3          	blt	a5,a4,62ee <__divsf3+0xe0>
    634a:	006a9793          	slli	a5,s5,0x6
    634e:	83a5                	srli	a5,a5,0x9
    6350:	0ff77713          	andi	a4,a4,255
    6354:	bf8d                	j	62c6 <__divsf3+0xb8>
    6356:	e4b1                	bnez	s1,63a2 <__divsf3+0x194>
    6358:	4685                	li	a3,1
    635a:	b7a9                	j	62a4 <__divsf3+0x96>
    635c:	020a9463          	bnez	s5,6384 <__divsf3+0x176>
    6360:	4411                	li	s0,4
    6362:	4a01                	li	s4,0
    6364:	4b05                	li	s6,1
    6366:	bdc5                	j	6256 <__divsf3+0x48>
    6368:	000a9963          	bnez	s5,637a <__divsf3+0x16c>
    636c:	4421                	li	s0,8
    636e:	0ff00a13          	li	s4,255
    6372:	4b09                	li	s6,2
    6374:	b5cd                	j	6256 <__divsf3+0x48>
    6376:	468d                	li	a3,3
    6378:	b731                	j	6284 <__divsf3+0x76>
    637a:	4431                	li	s0,12
    637c:	0ff00a13          	li	s4,255
    6380:	4b0d                	li	s6,3
    6382:	bdd1                	j	6256 <__divsf3+0x48>
    6384:	8556                	mv	a0,s5
    6386:	c62e                	sw	a1,12(sp)
    6388:	2545                	jal	6a28 <__clzsi2>
    638a:	ffb50793          	addi	a5,a0,-5
    638e:	00fa9ab3          	sll	s5,s5,a5
    6392:	f8a00793          	li	a5,-118
    6396:	40a78a33          	sub	s4,a5,a0
    639a:	4401                	li	s0,0
    639c:	4b01                	li	s6,0
    639e:	45b2                	lw	a1,12(sp)
    63a0:	bd5d                	j	6256 <__divsf3+0x48>
    63a2:	8526                	mv	a0,s1
    63a4:	2551                	jal	6a28 <__clzsi2>
    63a6:	ffb50713          	addi	a4,a0,-5
    63aa:	00aa07b3          	add	a5,s4,a0
    63ae:	00e494b3          	sll	s1,s1,a4
    63b2:	07678a13          	addi	s4,a5,118 # f8000076 <__freertos_irq_stack_top+0xd7ffb076>
    63b6:	4681                	li	a3,0
    63b8:	b5f1                	j	6284 <__divsf3+0x76>
    63ba:	001bf913          	andi	s2,s7,1
    63be:	4701                	li	a4,0
    63c0:	4781                	li	a5,0
    63c2:	b711                	j	62c6 <__divsf3+0xb8>
    63c4:	6641                	lui	a2,0x10
    63c6:	00549513          	slli	a0,s1,0x5
    63ca:	167d                	addi	a2,a2,-1
    63cc:	01055793          	srli	a5,a0,0x10
    63d0:	8e69                	and	a2,a2,a0
    63d2:	0a9afa63          	bgeu	s5,s1,6486 <__divsf3+0x278>
    63d6:	02fad5b3          	divu	a1,s5,a5
    63da:	1a7d                	addi	s4,s4,-1
    63dc:	86d6                	mv	a3,s5
    63de:	4701                	li	a4,0
    63e0:	02c58833          	mul	a6,a1,a2
    63e4:	02f6f6b3          	remu	a3,a3,a5
    63e8:	06c2                	slli	a3,a3,0x10
    63ea:	8f55                	or	a4,a4,a3
    63ec:	01077b63          	bgeu	a4,a6,6402 <__divsf3+0x1f4>
    63f0:	972a                	add	a4,a4,a0
    63f2:	fff58693          	addi	a3,a1,-1
    63f6:	0aa76863          	bltu	a4,a0,64a6 <__divsf3+0x298>
    63fa:	0b077663          	bgeu	a4,a6,64a6 <__divsf3+0x298>
    63fe:	15f9                	addi	a1,a1,-2
    6400:	972a                	add	a4,a4,a0
    6402:	41070733          	sub	a4,a4,a6
    6406:	02f756b3          	divu	a3,a4,a5
    640a:	02f77733          	remu	a4,a4,a5
    640e:	02c68ab3          	mul	s5,a3,a2
    6412:	01071793          	slli	a5,a4,0x10
    6416:	0157fb63          	bgeu	a5,s5,642c <__divsf3+0x21e>
    641a:	97aa                	add	a5,a5,a0
    641c:	fff68713          	addi	a4,a3,-1 # 7dffffff <__freertos_irq_stack_top+0x5dffafff>
    6420:	08a7e163          	bltu	a5,a0,64a2 <__divsf3+0x294>
    6424:	0757ff63          	bgeu	a5,s5,64a2 <__divsf3+0x294>
    6428:	16f9                	addi	a3,a3,-2
    642a:	97aa                	add	a5,a5,a0
    642c:	05c2                	slli	a1,a1,0x10
    642e:	41578ab3          	sub	s5,a5,s5
    6432:	8dd5                	or	a1,a1,a3
    6434:	01503ab3          	snez	s5,s5
    6438:	0155eab3          	or	s5,a1,s5
    643c:	8bca                	mv	s7,s2
    643e:	bdc1                	j	630e <__divsf3+0x100>
    6440:	4685                	li	a3,1
    6442:	8e99                	sub	a3,a3,a4
    6444:	c711                	beqz	a4,6450 <__divsf3+0x242>
    6446:	466d                	li	a2,27
    6448:	4701                	li	a4,0
    644a:	4781                	li	a5,0
    644c:	e6d64de3          	blt	a2,a3,62c6 <__divsf3+0xb8>
    6450:	09ea0a13          	addi	s4,s4,158
    6454:	014a9a33          	sll	s4,s5,s4
    6458:	00dad7b3          	srl	a5,s5,a3
    645c:	01403ab3          	snez	s5,s4
    6460:	0157e7b3          	or	a5,a5,s5
    6464:	0077f713          	andi	a4,a5,7
    6468:	c719                	beqz	a4,6476 <__divsf3+0x268>
    646a:	00f7f713          	andi	a4,a5,15
    646e:	4691                	li	a3,4
    6470:	00d70363          	beq	a4,a3,6476 <__divsf3+0x268>
    6474:	0791                	addi	a5,a5,4
    6476:	00579713          	slli	a4,a5,0x5
    647a:	02074863          	bltz	a4,64aa <__divsf3+0x29c>
    647e:	079a                	slli	a5,a5,0x6
    6480:	83a5                	srli	a5,a5,0x9
    6482:	4701                	li	a4,0
    6484:	b589                	j	62c6 <__divsf3+0xb8>
    6486:	001ad693          	srli	a3,s5,0x1
    648a:	02f6d5b3          	divu	a1,a3,a5
    648e:	01fa9713          	slli	a4,s5,0x1f
    6492:	8341                	srli	a4,a4,0x10
    6494:	02c58833          	mul	a6,a1,a2
    6498:	b7b1                	j	63e4 <__divsf3+0x1d6>
    649a:	8bce                	mv	s7,s3
    649c:	8b36                	mv	s6,a3
    649e:	4a81                	li	s5,0
    64a0:	bdb1                	j	62fc <__divsf3+0xee>
    64a2:	86ba                	mv	a3,a4
    64a4:	b761                	j	642c <__divsf3+0x21e>
    64a6:	85b6                	mv	a1,a3
    64a8:	bfa9                	j	6402 <__divsf3+0x1f4>
    64aa:	4705                	li	a4,1
    64ac:	4781                	li	a5,0
    64ae:	bd21                	j	62c6 <__divsf3+0xb8>
    64b0:	001bf913          	andi	s2,s7,1
    64b4:	0ff00713          	li	a4,255
    64b8:	4781                	li	a5,0
    64ba:	b531                	j	62c6 <__divsf3+0xb8>

000064bc <__mulsf3>:
    64bc:	7179                	addi	sp,sp,-48
    64be:	d422                	sw	s0,40(sp)
    64c0:	01755413          	srli	s0,a0,0x17
    64c4:	ce4e                	sw	s3,28(sp)
    64c6:	cc52                	sw	s4,24(sp)
    64c8:	00951993          	slli	s3,a0,0x9
    64cc:	d606                	sw	ra,44(sp)
    64ce:	d226                	sw	s1,36(sp)
    64d0:	d04a                	sw	s2,32(sp)
    64d2:	ca56                	sw	s5,20(sp)
    64d4:	c85a                	sw	s6,16(sp)
    64d6:	0ff47413          	andi	s0,s0,255
    64da:	0099d993          	srli	s3,s3,0x9
    64de:	01f55a13          	srli	s4,a0,0x1f
    64e2:	c469                	beqz	s0,65ac <__mulsf3+0xf0>
    64e4:	0ff00793          	li	a5,255
    64e8:	0ef40863          	beq	s0,a5,65d8 <__mulsf3+0x11c>
    64ec:	00399793          	slli	a5,s3,0x3
    64f0:	04000737          	lui	a4,0x4000
    64f4:	00e7e9b3          	or	s3,a5,a4
    64f8:	f8140413          	addi	s0,s0,-127 # 3ffff81 <_data_lma+0x3ff7cdd>
    64fc:	4481                	li	s1,0
    64fe:	4b01                	li	s6,0
    6500:	0175d713          	srli	a4,a1,0x17
    6504:	00959a93          	slli	s5,a1,0x9
    6508:	0ff77713          	andi	a4,a4,255
    650c:	009ada93          	srli	s5,s5,0x9
    6510:	01f5d913          	srli	s2,a1,0x1f
    6514:	cf45                	beqz	a4,65cc <__mulsf3+0x110>
    6516:	0ff00793          	li	a5,255
    651a:	02f70c63          	beq	a4,a5,6552 <__mulsf3+0x96>
    651e:	0a8e                	slli	s5,s5,0x3
    6520:	f8170713          	addi	a4,a4,-127 # 3ffff81 <_data_lma+0x3ff7cdd>
    6524:	040007b7          	lui	a5,0x4000
    6528:	00faeab3          	or	s5,s5,a5
    652c:	943a                	add	s0,s0,a4
    652e:	4601                	li	a2,0
    6530:	012a4533          	xor	a0,s4,s2
    6534:	47bd                	li	a5,15
    6536:	86aa                	mv	a3,a0
    6538:	00140593          	addi	a1,s0,1
    653c:	1097e063          	bltu	a5,s1,663c <__mulsf3+0x180>
    6540:	00002717          	auipc	a4,0x2
    6544:	b8870713          	addi	a4,a4,-1144 # 80c8 <_read+0x2e6>
    6548:	048a                	slli	s1,s1,0x2
    654a:	94ba                	add	s1,s1,a4
    654c:	409c                	lw	a5,0(s1)
    654e:	97ba                	add	a5,a5,a4
    6550:	8782                	jr	a5
    6552:	0ff40413          	addi	s0,s0,255
    6556:	0c0a9663          	bnez	s5,6622 <__mulsf3+0x166>
    655a:	0024e493          	ori	s1,s1,2
    655e:	4609                	li	a2,2
    6560:	bfc1                	j	6530 <__mulsf3+0x74>
    6562:	4501                	li	a0,0
    6564:	0ff00713          	li	a4,255
    6568:	004007b7          	lui	a5,0x400
    656c:	50b2                	lw	ra,44(sp)
    656e:	5422                	lw	s0,40(sp)
    6570:	07a6                	slli	a5,a5,0x9
    6572:	075e                	slli	a4,a4,0x17
    6574:	83a5                	srli	a5,a5,0x9
    6576:	057e                	slli	a0,a0,0x1f
    6578:	8fd9                	or	a5,a5,a4
    657a:	5492                	lw	s1,36(sp)
    657c:	5902                	lw	s2,32(sp)
    657e:	49f2                	lw	s3,28(sp)
    6580:	4a62                	lw	s4,24(sp)
    6582:	4ad2                	lw	s5,20(sp)
    6584:	4b42                	lw	s6,16(sp)
    6586:	8d5d                	or	a0,a0,a5
    6588:	6145                	addi	sp,sp,48
    658a:	8082                	ret
    658c:	86ca                	mv	a3,s2
    658e:	89d6                	mv	s3,s5
    6590:	8b32                	mv	s6,a2
    6592:	4789                	li	a5,2
    6594:	08fb0f63          	beq	s6,a5,6632 <__mulsf3+0x176>
    6598:	478d                	li	a5,3
    659a:	fcfb04e3          	beq	s6,a5,6562 <__mulsf3+0xa6>
    659e:	4785                	li	a5,1
    65a0:	8536                	mv	a0,a3
    65a2:	1afb1063          	bne	s6,a5,6742 <__mulsf3+0x286>
    65a6:	4701                	li	a4,0
    65a8:	4781                	li	a5,0
    65aa:	b7c9                	j	656c <__mulsf3+0xb0>
    65ac:	04099d63          	bnez	s3,6606 <__mulsf3+0x14a>
    65b0:	0175d713          	srli	a4,a1,0x17
    65b4:	00959a93          	slli	s5,a1,0x9
    65b8:	0ff77713          	andi	a4,a4,255
    65bc:	4491                	li	s1,4
    65be:	4401                	li	s0,0
    65c0:	4b05                	li	s6,1
    65c2:	009ada93          	srli	s5,s5,0x9
    65c6:	01f5d913          	srli	s2,a1,0x1f
    65ca:	f731                	bnez	a4,6516 <__mulsf3+0x5a>
    65cc:	000a9d63          	bnez	s5,65e6 <__mulsf3+0x12a>
    65d0:	0014e493          	ori	s1,s1,1
    65d4:	4605                	li	a2,1
    65d6:	bfa9                	j	6530 <__mulsf3+0x74>
    65d8:	02099263          	bnez	s3,65fc <__mulsf3+0x140>
    65dc:	44a1                	li	s1,8
    65de:	0ff00413          	li	s0,255
    65e2:	4b09                	li	s6,2
    65e4:	bf31                	j	6500 <__mulsf3+0x44>
    65e6:	8556                	mv	a0,s5
    65e8:	2181                	jal	6a28 <__clzsi2>
    65ea:	ffb50793          	addi	a5,a0,-5
    65ee:	8c09                	sub	s0,s0,a0
    65f0:	00fa9ab3          	sll	s5,s5,a5
    65f4:	f8a40413          	addi	s0,s0,-118
    65f8:	4601                	li	a2,0
    65fa:	bf1d                	j	6530 <__mulsf3+0x74>
    65fc:	44b1                	li	s1,12
    65fe:	0ff00413          	li	s0,255
    6602:	4b0d                	li	s6,3
    6604:	bdf5                	j	6500 <__mulsf3+0x44>
    6606:	854e                	mv	a0,s3
    6608:	c62e                	sw	a1,12(sp)
    660a:	2939                	jal	6a28 <__clzsi2>
    660c:	ffb50793          	addi	a5,a0,-5
    6610:	f8a00413          	li	s0,-118
    6614:	00f999b3          	sll	s3,s3,a5
    6618:	8c09                	sub	s0,s0,a0
    661a:	4481                	li	s1,0
    661c:	4b01                	li	s6,0
    661e:	45b2                	lw	a1,12(sp)
    6620:	b5c5                	j	6500 <__mulsf3+0x44>
    6622:	0034e493          	ori	s1,s1,3
    6626:	460d                	li	a2,3
    6628:	b721                	j	6530 <__mulsf3+0x74>
    662a:	4789                	li	a5,2
    662c:	86d2                	mv	a3,s4
    662e:	f6fb15e3          	bne	s6,a5,6598 <__mulsf3+0xdc>
    6632:	8536                	mv	a0,a3
    6634:	0ff00713          	li	a4,255
    6638:	4781                	li	a5,0
    663a:	bf0d                	j	656c <__mulsf3+0xb0>
    663c:	6341                	lui	t1,0x10
    663e:	fff30693          	addi	a3,t1,-1 # ffff <_data_lma+0x7d5b>
    6642:	0109d613          	srli	a2,s3,0x10
    6646:	010ad893          	srli	a7,s5,0x10
    664a:	00d9f7b3          	and	a5,s3,a3
    664e:	00dafab3          	and	s5,s5,a3
    6652:	03578833          	mul	a6,a5,s5
    6656:	02f889b3          	mul	s3,a7,a5
    665a:	01085713          	srli	a4,a6,0x10
    665e:	03560ab3          	mul	s5,a2,s5
    6662:	99d6                	add	s3,s3,s5
    6664:	974e                	add	a4,a4,s3
    6666:	03160633          	mul	a2,a2,a7
    666a:	01577363          	bgeu	a4,s5,6670 <__mulsf3+0x1b4>
    666e:	961a                	add	a2,a2,t1
    6670:	67c1                	lui	a5,0x10
    6672:	17fd                	addi	a5,a5,-1
    6674:	00f776b3          	and	a3,a4,a5
    6678:	00f87833          	and	a6,a6,a5
    667c:	06c2                	slli	a3,a3,0x10
    667e:	96c2                	add	a3,a3,a6
    6680:	00669993          	slli	s3,a3,0x6
    6684:	01075793          	srli	a5,a4,0x10
    6688:	013039b3          	snez	s3,s3
    668c:	82e9                	srli	a3,a3,0x1a
    668e:	97b2                	add	a5,a5,a2
    6690:	079a                	slli	a5,a5,0x6
    6692:	00d9e6b3          	or	a3,s3,a3
    6696:	00d7e9b3          	or	s3,a5,a3
    669a:	00499793          	slli	a5,s3,0x4
    669e:	0007d963          	bgez	a5,66b0 <__mulsf3+0x1f4>
    66a2:	0019d713          	srli	a4,s3,0x1
    66a6:	0019f793          	andi	a5,s3,1
    66aa:	00f769b3          	or	s3,a4,a5
    66ae:	842e                	mv	s0,a1
    66b0:	07f40713          	addi	a4,s0,127
    66b4:	04e05063          	blez	a4,66f4 <__mulsf3+0x238>
    66b8:	0079f793          	andi	a5,s3,7
    66bc:	c799                	beqz	a5,66ca <__mulsf3+0x20e>
    66be:	00f9f793          	andi	a5,s3,15
    66c2:	4691                	li	a3,4
    66c4:	00d78363          	beq	a5,a3,66ca <__mulsf3+0x20e>
    66c8:	0991                	addi	s3,s3,4
    66ca:	00499793          	slli	a5,s3,0x4
    66ce:	0007d963          	bgez	a5,66e0 <__mulsf3+0x224>
    66d2:	f80007b7          	lui	a5,0xf8000
    66d6:	17fd                	addi	a5,a5,-1
    66d8:	00f9f9b3          	and	s3,s3,a5
    66dc:	08040713          	addi	a4,s0,128
    66e0:	0fe00793          	li	a5,254
    66e4:	04e7cb63          	blt	a5,a4,673a <__mulsf3+0x27e>
    66e8:	00699793          	slli	a5,s3,0x6
    66ec:	83a5                	srli	a5,a5,0x9
    66ee:	0ff77713          	andi	a4,a4,255
    66f2:	bdad                	j	656c <__mulsf3+0xb0>
    66f4:	4785                	li	a5,1
    66f6:	40e786b3          	sub	a3,a5,a4
    66fa:	c711                	beqz	a4,6706 <__mulsf3+0x24a>
    66fc:	466d                	li	a2,27
    66fe:	4701                	li	a4,0
    6700:	4781                	li	a5,0
    6702:	e6d645e3          	blt	a2,a3,656c <__mulsf3+0xb0>
    6706:	09e40713          	addi	a4,s0,158
    670a:	00e99733          	sll	a4,s3,a4
    670e:	00e03733          	snez	a4,a4
    6712:	00d9d7b3          	srl	a5,s3,a3
    6716:	8fd9                	or	a5,a5,a4
    6718:	0077f713          	andi	a4,a5,7
    671c:	c719                	beqz	a4,672a <__mulsf3+0x26e>
    671e:	00f7f713          	andi	a4,a5,15
    6722:	4691                	li	a3,4
    6724:	00d70363          	beq	a4,a3,672a <__mulsf3+0x26e>
    6728:	0791                	addi	a5,a5,4
    672a:	00579713          	slli	a4,a5,0x5
    672e:	00074c63          	bltz	a4,6746 <__mulsf3+0x28a>
    6732:	079a                	slli	a5,a5,0x6
    6734:	83a5                	srli	a5,a5,0x9
    6736:	4701                	li	a4,0
    6738:	bd15                	j	656c <__mulsf3+0xb0>
    673a:	0ff00713          	li	a4,255
    673e:	4781                	li	a5,0
    6740:	b535                	j	656c <__mulsf3+0xb0>
    6742:	842e                	mv	s0,a1
    6744:	b7b5                	j	66b0 <__mulsf3+0x1f4>
    6746:	4705                	li	a4,1
    6748:	4781                	li	a5,0
    674a:	b50d                	j	656c <__mulsf3+0xb0>

0000674c <__floatsisf>:
    674c:	1141                	addi	sp,sp,-16
    674e:	c606                	sw	ra,12(sp)
    6750:	c422                	sw	s0,8(sp)
    6752:	c226                	sw	s1,4(sp)
    6754:	cd0d                	beqz	a0,678e <__floatsisf+0x42>
    6756:	41f55793          	srai	a5,a0,0x1f
    675a:	00a7c433          	xor	s0,a5,a0
    675e:	8c1d                	sub	s0,s0,a5
    6760:	84aa                	mv	s1,a0
    6762:	8522                	mv	a0,s0
    6764:	24d1                	jal	6a28 <__clzsi2>
    6766:	09e00793          	li	a5,158
    676a:	40a78733          	sub	a4,a5,a0
    676e:	09600793          	li	a5,150
    6772:	80fd                	srli	s1,s1,0x1f
    6774:	02e7cc63          	blt	a5,a4,67ac <__floatsisf+0x60>
    6778:	46a1                	li	a3,8
    677a:	0ff77793          	andi	a5,a4,255
    677e:	00a6d563          	bge	a3,a0,6788 <__floatsisf+0x3c>
    6782:	1561                	addi	a0,a0,-8
    6784:	00a41433          	sll	s0,s0,a0
    6788:	0426                	slli	s0,s0,0x9
    678a:	8025                	srli	s0,s0,0x9
    678c:	a021                	j	6794 <__floatsisf+0x48>
    678e:	4481                	li	s1,0
    6790:	4781                	li	a5,0
    6792:	4401                	li	s0,0
    6794:	0426                	slli	s0,s0,0x9
    6796:	00945513          	srli	a0,s0,0x9
    679a:	40b2                	lw	ra,12(sp)
    679c:	4422                	lw	s0,8(sp)
    679e:	07de                	slli	a5,a5,0x17
    67a0:	04fe                	slli	s1,s1,0x1f
    67a2:	8d5d                	or	a0,a0,a5
    67a4:	8d45                	or	a0,a0,s1
    67a6:	4492                	lw	s1,4(sp)
    67a8:	0141                	addi	sp,sp,16
    67aa:	8082                	ret
    67ac:	09900793          	li	a5,153
    67b0:	00e7dd63          	bge	a5,a4,67ca <__floatsisf+0x7e>
    67b4:	01b50793          	addi	a5,a0,27
    67b8:	4695                	li	a3,5
    67ba:	00f417b3          	sll	a5,s0,a5
    67be:	8e89                	sub	a3,a3,a0
    67c0:	00d45433          	srl	s0,s0,a3
    67c4:	00f037b3          	snez	a5,a5
    67c8:	8c5d                	or	s0,s0,a5
    67ca:	4795                	li	a5,5
    67cc:	00a7d663          	bge	a5,a0,67d8 <__floatsisf+0x8c>
    67d0:	ffb50793          	addi	a5,a0,-5
    67d4:	00f41433          	sll	s0,s0,a5
    67d8:	fc0006b7          	lui	a3,0xfc000
    67dc:	16fd                	addi	a3,a3,-1
    67de:	00747793          	andi	a5,s0,7
    67e2:	00d47633          	and	a2,s0,a3
    67e6:	c385                	beqz	a5,6806 <__floatsisf+0xba>
    67e8:	00f47793          	andi	a5,s0,15
    67ec:	4591                	li	a1,4
    67ee:	00b78c63          	beq	a5,a1,6806 <__floatsisf+0xba>
    67f2:	0611                	addi	a2,a2,4
    67f4:	00561793          	slli	a5,a2,0x5
    67f8:	0007d763          	bgez	a5,6806 <__floatsisf+0xba>
    67fc:	09f00793          	li	a5,159
    6800:	8e75                	and	a2,a2,a3
    6802:	40a78733          	sub	a4,a5,a0
    6806:	00661413          	slli	s0,a2,0x6
    680a:	8025                	srli	s0,s0,0x9
    680c:	0ff77793          	andi	a5,a4,255
    6810:	b751                	j	6794 <__floatsisf+0x48>

00006812 <__extendsfdf2>:
    6812:	01755713          	srli	a4,a0,0x17
    6816:	0ff77713          	andi	a4,a4,255
    681a:	1141                	addi	sp,sp,-16
    681c:	00170793          	addi	a5,a4,1
    6820:	c422                	sw	s0,8(sp)
    6822:	c226                	sw	s1,4(sp)
    6824:	00951413          	slli	s0,a0,0x9
    6828:	c606                	sw	ra,12(sp)
    682a:	0fe7f793          	andi	a5,a5,254
    682e:	8025                	srli	s0,s0,0x9
    6830:	01f55493          	srli	s1,a0,0x1f
    6834:	c785                	beqz	a5,685c <__extendsfdf2+0x4a>
    6836:	00345793          	srli	a5,s0,0x3
    683a:	38070713          	addi	a4,a4,896
    683e:	0476                	slli	s0,s0,0x1d
    6840:	07b2                	slli	a5,a5,0xc
    6842:	0752                	slli	a4,a4,0x14
    6844:	83b1                	srli	a5,a5,0xc
    6846:	01f49513          	slli	a0,s1,0x1f
    684a:	8fd9                	or	a5,a5,a4
    684c:	8fc9                	or	a5,a5,a0
    684e:	40b2                	lw	ra,12(sp)
    6850:	8522                	mv	a0,s0
    6852:	4422                	lw	s0,8(sp)
    6854:	4492                	lw	s1,4(sp)
    6856:	85be                	mv	a1,a5
    6858:	0141                	addi	sp,sp,16
    685a:	8082                	ret
    685c:	eb05                	bnez	a4,688c <__extendsfdf2+0x7a>
    685e:	c439                	beqz	s0,68ac <__extendsfdf2+0x9a>
    6860:	8522                	mv	a0,s0
    6862:	22d9                	jal	6a28 <__clzsi2>
    6864:	47a9                	li	a5,10
    6866:	04a7c663          	blt	a5,a0,68b2 <__extendsfdf2+0xa0>
    686a:	472d                	li	a4,11
    686c:	8f09                	sub	a4,a4,a0
    686e:	01550793          	addi	a5,a0,21
    6872:	00e45733          	srl	a4,s0,a4
    6876:	00f41433          	sll	s0,s0,a5
    687a:	00c71793          	slli	a5,a4,0xc
    687e:	38900713          	li	a4,905
    6882:	8f09                	sub	a4,a4,a0
    6884:	83b1                	srli	a5,a5,0xc
    6886:	7ff77713          	andi	a4,a4,2047
    688a:	bf5d                	j	6840 <__extendsfdf2+0x2e>
    688c:	cc01                	beqz	s0,68a4 <__extendsfdf2+0x92>
    688e:	00345713          	srli	a4,s0,0x3
    6892:	000807b7          	lui	a5,0x80
    6896:	8fd9                	or	a5,a5,a4
    6898:	07b2                	slli	a5,a5,0xc
    689a:	0476                	slli	s0,s0,0x1d
    689c:	83b1                	srli	a5,a5,0xc
    689e:	7ff00713          	li	a4,2047
    68a2:	bf79                	j	6840 <__extendsfdf2+0x2e>
    68a4:	7ff00713          	li	a4,2047
    68a8:	4781                	li	a5,0
    68aa:	bf59                	j	6840 <__extendsfdf2+0x2e>
    68ac:	4701                	li	a4,0
    68ae:	4781                	li	a5,0
    68b0:	bf41                	j	6840 <__extendsfdf2+0x2e>
    68b2:	ff550713          	addi	a4,a0,-11
    68b6:	00e41733          	sll	a4,s0,a4
    68ba:	4401                	li	s0,0
    68bc:	bf7d                	j	687a <__extendsfdf2+0x68>

000068be <__truncdfsf2>:
    68be:	0145d693          	srli	a3,a1,0x14
    68c2:	00c59793          	slli	a5,a1,0xc
    68c6:	7ff6f693          	andi	a3,a3,2047
    68ca:	83b1                	srli	a5,a5,0xc
    68cc:	00168613          	addi	a2,a3,1 # fc000001 <__freertos_irq_stack_top+0xdbffb001>
    68d0:	078e                	slli	a5,a5,0x3
    68d2:	01d55713          	srli	a4,a0,0x1d
    68d6:	7fe67613          	andi	a2,a2,2046
    68da:	81fd                	srli	a1,a1,0x1f
    68dc:	8f5d                	or	a4,a4,a5
    68de:	00351893          	slli	a7,a0,0x3
    68e2:	ce35                	beqz	a2,695e <__truncdfsf2+0xa0>
    68e4:	c8068813          	addi	a6,a3,-896
    68e8:	0fe00793          	li	a5,254
    68ec:	0107dd63          	bge	a5,a6,6906 <__truncdfsf2+0x48>
    68f0:	4781                	li	a5,0
    68f2:	00979513          	slli	a0,a5,0x9
    68f6:	0ff00693          	li	a3,255
    68fa:	06de                	slli	a3,a3,0x17
    68fc:	8125                	srli	a0,a0,0x9
    68fe:	05fe                	slli	a1,a1,0x1f
    6900:	8d55                	or	a0,a0,a3
    6902:	8d4d                	or	a0,a0,a1
    6904:	8082                	ret
    6906:	0b005563          	blez	a6,69b0 <__truncdfsf2+0xf2>
    690a:	00651793          	slli	a5,a0,0x6
    690e:	070e                	slli	a4,a4,0x3
    6910:	00f037b3          	snez	a5,a5
    6914:	8fd9                	or	a5,a5,a4
    6916:	01d8d893          	srli	a7,a7,0x1d
    691a:	0117e7b3          	or	a5,a5,a7
    691e:	0077f713          	andi	a4,a5,7
    6922:	10070163          	beqz	a4,6a24 <__truncdfsf2+0x166>
    6926:	00f7f713          	andi	a4,a5,15
    692a:	4691                	li	a3,4
    692c:	00d70363          	beq	a4,a3,6932 <__truncdfsf2+0x74>
    6930:	0791                	addi	a5,a5,4
    6932:	04000737          	lui	a4,0x4000
    6936:	8f7d                	and	a4,a4,a5
    6938:	c775                	beqz	a4,6a24 <__truncdfsf2+0x166>
    693a:	00180713          	addi	a4,a6,1
    693e:	0ff00613          	li	a2,255
    6942:	0ff77693          	andi	a3,a4,255
    6946:	fac705e3          	beq	a4,a2,68f0 <__truncdfsf2+0x32>
    694a:	079a                	slli	a5,a5,0x6
    694c:	83a5                	srli	a5,a5,0x9
    694e:	00979513          	slli	a0,a5,0x9
    6952:	06de                	slli	a3,a3,0x17
    6954:	8125                	srli	a0,a0,0x9
    6956:	05fe                	slli	a1,a1,0x1f
    6958:	8d55                	or	a0,a0,a3
    695a:	8d4d                	or	a0,a0,a1
    695c:	8082                	ret
    695e:	011767b3          	or	a5,a4,a7
    6962:	ee99                	bnez	a3,6980 <__truncdfsf2+0xc2>
    6964:	cf85                	beqz	a5,699c <__truncdfsf2+0xde>
    6966:	4795                	li	a5,5
    6968:	079a                	slli	a5,a5,0x6
    696a:	83a5                	srli	a5,a5,0x9
    696c:	00979513          	slli	a0,a5,0x9
    6970:	0ff6f693          	andi	a3,a3,255
    6974:	06de                	slli	a3,a3,0x17
    6976:	8125                	srli	a0,a0,0x9
    6978:	05fe                	slli	a1,a1,0x1f
    697a:	8d55                	or	a0,a0,a3
    697c:	8d4d                	or	a0,a0,a1
    697e:	8082                	ret
    6980:	dba5                	beqz	a5,68f0 <__truncdfsf2+0x32>
    6982:	004007b7          	lui	a5,0x400
    6986:	00979513          	slli	a0,a5,0x9
    698a:	0ff00693          	li	a3,255
    698e:	06de                	slli	a3,a3,0x17
    6990:	4581                	li	a1,0
    6992:	8125                	srli	a0,a0,0x9
    6994:	05fe                	slli	a1,a1,0x1f
    6996:	8d55                	or	a0,a0,a3
    6998:	8d4d                	or	a0,a0,a1
    699a:	8082                	ret
    699c:	4781                	li	a5,0
    699e:	00979513          	slli	a0,a5,0x9
    69a2:	4681                	li	a3,0
    69a4:	06de                	slli	a3,a3,0x17
    69a6:	8125                	srli	a0,a0,0x9
    69a8:	05fe                	slli	a1,a1,0x1f
    69aa:	8d55                	or	a0,a0,a3
    69ac:	8d4d                	or	a0,a0,a1
    69ae:	8082                	ret
    69b0:	57a5                	li	a5,-23
    69b2:	04f84863          	blt	a6,a5,6a02 <__truncdfsf2+0x144>
    69b6:	47f9                	li	a5,30
    69b8:	00800637          	lui	a2,0x800
    69bc:	410787b3          	sub	a5,a5,a6
    69c0:	457d                	li	a0,31
    69c2:	8e59                	or	a2,a2,a4
    69c4:	04f55163          	bge	a0,a5,6a06 <__truncdfsf2+0x148>
    69c8:	5779                	li	a4,-2
    69ca:	41070733          	sub	a4,a4,a6
    69ce:	02000513          	li	a0,32
    69d2:	00e65733          	srl	a4,a2,a4
    69d6:	00a78863          	beq	a5,a0,69e6 <__truncdfsf2+0x128>
    69da:	ca268693          	addi	a3,a3,-862
    69de:	00d616b3          	sll	a3,a2,a3
    69e2:	00d8e8b3          	or	a7,a7,a3
    69e6:	011037b3          	snez	a5,a7
    69ea:	8fd9                	or	a5,a5,a4
    69ec:	0077f713          	andi	a4,a5,7
    69f0:	4801                	li	a6,0
    69f2:	fb15                	bnez	a4,6926 <__truncdfsf2+0x68>
    69f4:	00579713          	slli	a4,a5,0x5
    69f8:	4685                	li	a3,1
    69fa:	f40748e3          	bltz	a4,694a <__truncdfsf2+0x8c>
    69fe:	4681                	li	a3,0
    6a00:	b7a5                	j	6968 <__truncdfsf2+0xaa>
    6a02:	4681                	li	a3,0
    6a04:	b78d                	j	6966 <__truncdfsf2+0xa8>
    6a06:	c8268693          	addi	a3,a3,-894
    6a0a:	00d89733          	sll	a4,a7,a3
    6a0e:	00e03733          	snez	a4,a4
    6a12:	00d616b3          	sll	a3,a2,a3
    6a16:	00f8d8b3          	srl	a7,a7,a5
    6a1a:	00d767b3          	or	a5,a4,a3
    6a1e:	00f8e7b3          	or	a5,a7,a5
    6a22:	b7e9                	j	69ec <__truncdfsf2+0x12e>
    6a24:	86c2                	mv	a3,a6
    6a26:	b789                	j	6968 <__truncdfsf2+0xaa>

00006a28 <__clzsi2>:
    6a28:	67c1                	lui	a5,0x10
    6a2a:	02f57e63          	bgeu	a0,a5,6a66 <__clzsi2+0x3e>
    6a2e:	0ff00793          	li	a5,255
    6a32:	02000713          	li	a4,32
    6a36:	00a7ec63          	bltu	a5,a0,6a4e <__clzsi2+0x26>
    6a3a:	00001797          	auipc	a5,0x1
    6a3e:	6ce78793          	addi	a5,a5,1742 # 8108 <__clz_tab>
    6a42:	97aa                	add	a5,a5,a0
    6a44:	0007c503          	lbu	a0,0(a5)
    6a48:	40a70533          	sub	a0,a4,a0
    6a4c:	8082                	ret
    6a4e:	8121                	srli	a0,a0,0x8
    6a50:	00001797          	auipc	a5,0x1
    6a54:	6b878793          	addi	a5,a5,1720 # 8108 <__clz_tab>
    6a58:	97aa                	add	a5,a5,a0
    6a5a:	0007c503          	lbu	a0,0(a5)
    6a5e:	4761                	li	a4,24
    6a60:	40a70533          	sub	a0,a4,a0
    6a64:	8082                	ret
    6a66:	010007b7          	lui	a5,0x1000
    6a6a:	00f56e63          	bltu	a0,a5,6a86 <__clzsi2+0x5e>
    6a6e:	8161                	srli	a0,a0,0x18
    6a70:	00001797          	auipc	a5,0x1
    6a74:	69878793          	addi	a5,a5,1688 # 8108 <__clz_tab>
    6a78:	97aa                	add	a5,a5,a0
    6a7a:	0007c503          	lbu	a0,0(a5)
    6a7e:	4721                	li	a4,8
    6a80:	40a70533          	sub	a0,a4,a0
    6a84:	8082                	ret
    6a86:	8141                	srli	a0,a0,0x10
    6a88:	00001797          	auipc	a5,0x1
    6a8c:	68078793          	addi	a5,a5,1664 # 8108 <__clz_tab>
    6a90:	97aa                	add	a5,a5,a0
    6a92:	0007c503          	lbu	a0,0(a5)
    6a96:	4741                	li	a4,16
    6a98:	40a70533          	sub	a0,a4,a0
    6a9c:	8082                	ret

00006a9e <memcpy>:
    6a9e:	00a5c7b3          	xor	a5,a1,a0
    6aa2:	8b8d                	andi	a5,a5,3
    6aa4:	00c50733          	add	a4,a0,a2
    6aa8:	e781                	bnez	a5,6ab0 <memcpy+0x12>
    6aaa:	478d                	li	a5,3
    6aac:	00c7ee63          	bltu	a5,a2,6ac8 <memcpy+0x2a>
    6ab0:	87aa                	mv	a5,a0
    6ab2:	0ae57063          	bgeu	a0,a4,6b52 <memcpy+0xb4>
    6ab6:	0005c683          	lbu	a3,0(a1)
    6aba:	0785                	addi	a5,a5,1
    6abc:	0585                	addi	a1,a1,1
    6abe:	fed78fa3          	sb	a3,-1(a5)
    6ac2:	fee7eae3          	bltu	a5,a4,6ab6 <memcpy+0x18>
    6ac6:	8082                	ret
    6ac8:	00357693          	andi	a3,a0,3
    6acc:	87aa                	mv	a5,a0
    6ace:	ca91                	beqz	a3,6ae2 <memcpy+0x44>
    6ad0:	0005c683          	lbu	a3,0(a1)
    6ad4:	0785                	addi	a5,a5,1
    6ad6:	0585                	addi	a1,a1,1
    6ad8:	fed78fa3          	sb	a3,-1(a5)
    6adc:	0037f693          	andi	a3,a5,3
    6ae0:	b7fd                	j	6ace <memcpy+0x30>
    6ae2:	ffc77693          	andi	a3,a4,-4
    6ae6:	fe068613          	addi	a2,a3,-32
    6aea:	06c7f063          	bgeu	a5,a2,6b4a <memcpy+0xac>
    6aee:	0005a383          	lw	t2,0(a1)
    6af2:	0045a283          	lw	t0,4(a1)
    6af6:	0085af83          	lw	t6,8(a1)
    6afa:	00c5af03          	lw	t5,12(a1)
    6afe:	0105ae83          	lw	t4,16(a1)
    6b02:	0145ae03          	lw	t3,20(a1)
    6b06:	0185a303          	lw	t1,24(a1)
    6b0a:	01c5a883          	lw	a7,28(a1)
    6b0e:	02458593          	addi	a1,a1,36
    6b12:	0077a023          	sw	t2,0(a5)
    6b16:	ffc5a803          	lw	a6,-4(a1)
    6b1a:	0057a223          	sw	t0,4(a5)
    6b1e:	01f7a423          	sw	t6,8(a5)
    6b22:	01e7a623          	sw	t5,12(a5)
    6b26:	01d7a823          	sw	t4,16(a5)
    6b2a:	01c7aa23          	sw	t3,20(a5)
    6b2e:	0067ac23          	sw	t1,24(a5)
    6b32:	0117ae23          	sw	a7,28(a5)
    6b36:	02478793          	addi	a5,a5,36
    6b3a:	ff07ae23          	sw	a6,-4(a5)
    6b3e:	b775                	j	6aea <memcpy+0x4c>
    6b40:	4190                	lw	a2,0(a1)
    6b42:	0791                	addi	a5,a5,4
    6b44:	0591                	addi	a1,a1,4
    6b46:	fec7ae23          	sw	a2,-4(a5)
    6b4a:	fed7ebe3          	bltu	a5,a3,6b40 <memcpy+0xa2>
    6b4e:	f6e7e4e3          	bltu	a5,a4,6ab6 <memcpy+0x18>
    6b52:	8082                	ret

00006b54 <iprintf>:
    6b54:	7139                	addi	sp,sp,-64
    6b56:	da3e                	sw	a5,52(sp)
    6b58:	d22e                	sw	a1,36(sp)
    6b5a:	d432                	sw	a2,40(sp)
    6b5c:	d636                	sw	a3,44(sp)
    6b5e:	d83a                	sw	a4,48(sp)
    6b60:	dc42                	sw	a6,56(sp)
    6b62:	de46                	sw	a7,60(sp)
    6b64:	81418793          	addi	a5,gp,-2028 # 20000094 <_impure_ptr>
    6b68:	cc22                	sw	s0,24(sp)
    6b6a:	4380                	lw	s0,0(a5)
    6b6c:	ca26                	sw	s1,20(sp)
    6b6e:	ce06                	sw	ra,28(sp)
    6b70:	84aa                	mv	s1,a0
    6b72:	c409                	beqz	s0,6b7c <iprintf+0x28>
    6b74:	4c1c                	lw	a5,24(s0)
    6b76:	e399                	bnez	a5,6b7c <iprintf+0x28>
    6b78:	8522                	mv	a0,s0
    6b7a:	2325                	jal	70a2 <__sinit>
    6b7c:	440c                	lw	a1,8(s0)
    6b7e:	1054                	addi	a3,sp,36
    6b80:	8626                	mv	a2,s1
    6b82:	8522                	mv	a0,s0
    6b84:	c636                	sw	a3,12(sp)
    6b86:	191000ef          	jal	ra,7516 <_vfiprintf_r>
    6b8a:	40f2                	lw	ra,28(sp)
    6b8c:	4462                	lw	s0,24(sp)
    6b8e:	44d2                	lw	s1,20(sp)
    6b90:	6121                	addi	sp,sp,64
    6b92:	8082                	ret

00006b94 <_puts_r>:
    6b94:	1101                	addi	sp,sp,-32
    6b96:	ca26                	sw	s1,20(sp)
    6b98:	c84a                	sw	s2,16(sp)
    6b9a:	ce06                	sw	ra,28(sp)
    6b9c:	cc22                	sw	s0,24(sp)
    6b9e:	c64e                	sw	s3,12(sp)
    6ba0:	c452                	sw	s4,8(sp)
    6ba2:	84aa                	mv	s1,a0
    6ba4:	892e                	mv	s2,a1
    6ba6:	c501                	beqz	a0,6bae <_puts_r+0x1a>
    6ba8:	4d1c                	lw	a5,24(a0)
    6baa:	e391                	bnez	a5,6bae <_puts_r+0x1a>
    6bac:	29dd                	jal	70a2 <__sinit>
    6bae:	4c9c                	lw	a5,24(s1)
    6bb0:	4480                	lw	s0,8(s1)
    6bb2:	e399                	bnez	a5,6bb8 <_puts_r+0x24>
    6bb4:	8526                	mv	a0,s1
    6bb6:	21f5                	jal	70a2 <__sinit>
    6bb8:	00001797          	auipc	a5,0x1
    6bbc:	67078793          	addi	a5,a5,1648 # 8228 <__sf_fake_stdin>
    6bc0:	02f41c63          	bne	s0,a5,6bf8 <_puts_r+0x64>
    6bc4:	40c0                	lw	s0,4(s1)
    6bc6:	00c45783          	lhu	a5,12(s0)
    6bca:	8ba1                	andi	a5,a5,8
    6bcc:	c7b1                	beqz	a5,6c18 <_puts_r+0x84>
    6bce:	481c                	lw	a5,16(s0)
    6bd0:	c7a1                	beqz	a5,6c18 <_puts_r+0x84>
    6bd2:	59fd                	li	s3,-1
    6bd4:	4a29                	li	s4,10
    6bd6:	441c                	lw	a5,8(s0)
    6bd8:	00094583          	lbu	a1,0(s2) # 800000 <_data_lma+0x7f7d5c>
    6bdc:	17fd                	addi	a5,a5,-1
    6bde:	e9b1                	bnez	a1,6c32 <_puts_r+0x9e>
    6be0:	c41c                	sw	a5,8(s0)
    6be2:	0607de63          	bgez	a5,6c5e <_puts_r+0xca>
    6be6:	8622                	mv	a2,s0
    6be8:	45a9                	li	a1,10
    6bea:	8526                	mv	a0,s1
    6bec:	2079                	jal	6c7a <__swbuf_r>
    6bee:	57fd                	li	a5,-1
    6bf0:	02f50863          	beq	a0,a5,6c20 <_puts_r+0x8c>
    6bf4:	4529                	li	a0,10
    6bf6:	a035                	j	6c22 <_puts_r+0x8e>
    6bf8:	00001797          	auipc	a5,0x1
    6bfc:	65078793          	addi	a5,a5,1616 # 8248 <__sf_fake_stdout>
    6c00:	00f41463          	bne	s0,a5,6c08 <_puts_r+0x74>
    6c04:	4480                	lw	s0,8(s1)
    6c06:	b7c1                	j	6bc6 <_puts_r+0x32>
    6c08:	00001797          	auipc	a5,0x1
    6c0c:	60078793          	addi	a5,a5,1536 # 8208 <__sf_fake_stderr>
    6c10:	faf41be3          	bne	s0,a5,6bc6 <_puts_r+0x32>
    6c14:	44c0                	lw	s0,12(s1)
    6c16:	bf45                	j	6bc6 <_puts_r+0x32>
    6c18:	85a2                	mv	a1,s0
    6c1a:	8526                	mv	a0,s1
    6c1c:	2a39                	jal	6d3a <__swsetup_r>
    6c1e:	d955                	beqz	a0,6bd2 <_puts_r+0x3e>
    6c20:	557d                	li	a0,-1
    6c22:	40f2                	lw	ra,28(sp)
    6c24:	4462                	lw	s0,24(sp)
    6c26:	44d2                	lw	s1,20(sp)
    6c28:	4942                	lw	s2,16(sp)
    6c2a:	49b2                	lw	s3,12(sp)
    6c2c:	4a22                	lw	s4,8(sp)
    6c2e:	6105                	addi	sp,sp,32
    6c30:	8082                	ret
    6c32:	c41c                	sw	a5,8(s0)
    6c34:	0905                	addi	s2,s2,1
    6c36:	0007d763          	bgez	a5,6c44 <_puts_r+0xb0>
    6c3a:	4c18                	lw	a4,24(s0)
    6c3c:	00e7cb63          	blt	a5,a4,6c52 <_puts_r+0xbe>
    6c40:	01458963          	beq	a1,s4,6c52 <_puts_r+0xbe>
    6c44:	401c                	lw	a5,0(s0)
    6c46:	00178713          	addi	a4,a5,1
    6c4a:	c018                	sw	a4,0(s0)
    6c4c:	00b78023          	sb	a1,0(a5)
    6c50:	b759                	j	6bd6 <_puts_r+0x42>
    6c52:	8622                	mv	a2,s0
    6c54:	8526                	mv	a0,s1
    6c56:	2015                	jal	6c7a <__swbuf_r>
    6c58:	f7351fe3          	bne	a0,s3,6bd6 <_puts_r+0x42>
    6c5c:	b7d1                	j	6c20 <_puts_r+0x8c>
    6c5e:	401c                	lw	a5,0(s0)
    6c60:	00178713          	addi	a4,a5,1
    6c64:	c018                	sw	a4,0(s0)
    6c66:	4729                	li	a4,10
    6c68:	00e78023          	sb	a4,0(a5)
    6c6c:	b761                	j	6bf4 <_puts_r+0x60>

00006c6e <puts>:
    6c6e:	81418793          	addi	a5,gp,-2028 # 20000094 <_impure_ptr>
    6c72:	85aa                	mv	a1,a0
    6c74:	4388                	lw	a0,0(a5)
    6c76:	f1fff06f          	j	6b94 <_puts_r>

00006c7a <__swbuf_r>:
    6c7a:	1101                	addi	sp,sp,-32
    6c7c:	cc22                	sw	s0,24(sp)
    6c7e:	ca26                	sw	s1,20(sp)
    6c80:	c84a                	sw	s2,16(sp)
    6c82:	ce06                	sw	ra,28(sp)
    6c84:	c64e                	sw	s3,12(sp)
    6c86:	84aa                	mv	s1,a0
    6c88:	892e                	mv	s2,a1
    6c8a:	8432                	mv	s0,a2
    6c8c:	c501                	beqz	a0,6c94 <__swbuf_r+0x1a>
    6c8e:	4d1c                	lw	a5,24(a0)
    6c90:	e391                	bnez	a5,6c94 <__swbuf_r+0x1a>
    6c92:	2901                	jal	70a2 <__sinit>
    6c94:	00001797          	auipc	a5,0x1
    6c98:	59478793          	addi	a5,a5,1428 # 8228 <__sf_fake_stdin>
    6c9c:	06f41963          	bne	s0,a5,6d0e <__swbuf_r+0x94>
    6ca0:	40c0                	lw	s0,4(s1)
    6ca2:	4c1c                	lw	a5,24(s0)
    6ca4:	c41c                	sw	a5,8(s0)
    6ca6:	00c45783          	lhu	a5,12(s0)
    6caa:	8ba1                	andi	a5,a5,8
    6cac:	c3c9                	beqz	a5,6d2e <__swbuf_r+0xb4>
    6cae:	481c                	lw	a5,16(s0)
    6cb0:	cfbd                	beqz	a5,6d2e <__swbuf_r+0xb4>
    6cb2:	481c                	lw	a5,16(s0)
    6cb4:	4008                	lw	a0,0(s0)
    6cb6:	0ff97993          	andi	s3,s2,255
    6cba:	0ff97913          	andi	s2,s2,255
    6cbe:	8d1d                	sub	a0,a0,a5
    6cc0:	485c                	lw	a5,20(s0)
    6cc2:	00f54663          	blt	a0,a5,6cce <__swbuf_r+0x54>
    6cc6:	85a2                	mv	a1,s0
    6cc8:	8526                	mv	a0,s1
    6cca:	2c65                	jal	6f82 <_fflush_r>
    6ccc:	e52d                	bnez	a0,6d36 <__swbuf_r+0xbc>
    6cce:	441c                	lw	a5,8(s0)
    6cd0:	0505                	addi	a0,a0,1
    6cd2:	17fd                	addi	a5,a5,-1
    6cd4:	c41c                	sw	a5,8(s0)
    6cd6:	401c                	lw	a5,0(s0)
    6cd8:	00178713          	addi	a4,a5,1
    6cdc:	c018                	sw	a4,0(s0)
    6cde:	01378023          	sb	s3,0(a5)
    6ce2:	485c                	lw	a5,20(s0)
    6ce4:	00a78963          	beq	a5,a0,6cf6 <__swbuf_r+0x7c>
    6ce8:	00c45783          	lhu	a5,12(s0)
    6cec:	8b85                	andi	a5,a5,1
    6cee:	cb81                	beqz	a5,6cfe <__swbuf_r+0x84>
    6cf0:	47a9                	li	a5,10
    6cf2:	00f91663          	bne	s2,a5,6cfe <__swbuf_r+0x84>
    6cf6:	85a2                	mv	a1,s0
    6cf8:	8526                	mv	a0,s1
    6cfa:	2461                	jal	6f82 <_fflush_r>
    6cfc:	ed0d                	bnez	a0,6d36 <__swbuf_r+0xbc>
    6cfe:	40f2                	lw	ra,28(sp)
    6d00:	4462                	lw	s0,24(sp)
    6d02:	854a                	mv	a0,s2
    6d04:	44d2                	lw	s1,20(sp)
    6d06:	4942                	lw	s2,16(sp)
    6d08:	49b2                	lw	s3,12(sp)
    6d0a:	6105                	addi	sp,sp,32
    6d0c:	8082                	ret
    6d0e:	00001797          	auipc	a5,0x1
    6d12:	53a78793          	addi	a5,a5,1338 # 8248 <__sf_fake_stdout>
    6d16:	00f41463          	bne	s0,a5,6d1e <__swbuf_r+0xa4>
    6d1a:	4480                	lw	s0,8(s1)
    6d1c:	b759                	j	6ca2 <__swbuf_r+0x28>
    6d1e:	00001797          	auipc	a5,0x1
    6d22:	4ea78793          	addi	a5,a5,1258 # 8208 <__sf_fake_stderr>
    6d26:	f6f41ee3          	bne	s0,a5,6ca2 <__swbuf_r+0x28>
    6d2a:	44c0                	lw	s0,12(s1)
    6d2c:	bf9d                	j	6ca2 <__swbuf_r+0x28>
    6d2e:	85a2                	mv	a1,s0
    6d30:	8526                	mv	a0,s1
    6d32:	2021                	jal	6d3a <__swsetup_r>
    6d34:	dd3d                	beqz	a0,6cb2 <__swbuf_r+0x38>
    6d36:	597d                	li	s2,-1
    6d38:	b7d9                	j	6cfe <__swbuf_r+0x84>

00006d3a <__swsetup_r>:
    6d3a:	1141                	addi	sp,sp,-16
    6d3c:	81418793          	addi	a5,gp,-2028 # 20000094 <_impure_ptr>
    6d40:	c226                	sw	s1,4(sp)
    6d42:	4384                	lw	s1,0(a5)
    6d44:	c422                	sw	s0,8(sp)
    6d46:	c04a                	sw	s2,0(sp)
    6d48:	c606                	sw	ra,12(sp)
    6d4a:	892a                	mv	s2,a0
    6d4c:	842e                	mv	s0,a1
    6d4e:	c489                	beqz	s1,6d58 <__swsetup_r+0x1e>
    6d50:	4c9c                	lw	a5,24(s1)
    6d52:	e399                	bnez	a5,6d58 <__swsetup_r+0x1e>
    6d54:	8526                	mv	a0,s1
    6d56:	26b1                	jal	70a2 <__sinit>
    6d58:	00001797          	auipc	a5,0x1
    6d5c:	4d078793          	addi	a5,a5,1232 # 8228 <__sf_fake_stdin>
    6d60:	02f41c63          	bne	s0,a5,6d98 <__swsetup_r+0x5e>
    6d64:	40c0                	lw	s0,4(s1)
    6d66:	00c41703          	lh	a4,12(s0)
    6d6a:	01071793          	slli	a5,a4,0x10
    6d6e:	83c1                	srli	a5,a5,0x10
    6d70:	0087f693          	andi	a3,a5,8
    6d74:	eeb5                	bnez	a3,6df0 <__swsetup_r+0xb6>
    6d76:	0107f693          	andi	a3,a5,16
    6d7a:	ee9d                	bnez	a3,6db8 <__swsetup_r+0x7e>
    6d7c:	47a5                	li	a5,9
    6d7e:	00f92023          	sw	a5,0(s2)
    6d82:	04076713          	ori	a4,a4,64
    6d86:	00e41623          	sh	a4,12(s0)
    6d8a:	557d                	li	a0,-1
    6d8c:	40b2                	lw	ra,12(sp)
    6d8e:	4422                	lw	s0,8(sp)
    6d90:	4492                	lw	s1,4(sp)
    6d92:	4902                	lw	s2,0(sp)
    6d94:	0141                	addi	sp,sp,16
    6d96:	8082                	ret
    6d98:	00001797          	auipc	a5,0x1
    6d9c:	4b078793          	addi	a5,a5,1200 # 8248 <__sf_fake_stdout>
    6da0:	00f41463          	bne	s0,a5,6da8 <__swsetup_r+0x6e>
    6da4:	4480                	lw	s0,8(s1)
    6da6:	b7c1                	j	6d66 <__swsetup_r+0x2c>
    6da8:	00001797          	auipc	a5,0x1
    6dac:	46078793          	addi	a5,a5,1120 # 8208 <__sf_fake_stderr>
    6db0:	faf41be3          	bne	s0,a5,6d66 <__swsetup_r+0x2c>
    6db4:	44c0                	lw	s0,12(s1)
    6db6:	bf45                	j	6d66 <__swsetup_r+0x2c>
    6db8:	8b91                	andi	a5,a5,4
    6dba:	c78d                	beqz	a5,6de4 <__swsetup_r+0xaa>
    6dbc:	584c                	lw	a1,52(s0)
    6dbe:	c989                	beqz	a1,6dd0 <__swsetup_r+0x96>
    6dc0:	04440793          	addi	a5,s0,68
    6dc4:	00f58463          	beq	a1,a5,6dcc <__swsetup_r+0x92>
    6dc8:	854a                	mv	a0,s2
    6dca:	23a9                	jal	7314 <_free_r>
    6dcc:	02042a23          	sw	zero,52(s0)
    6dd0:	00c45783          	lhu	a5,12(s0)
    6dd4:	00042223          	sw	zero,4(s0)
    6dd8:	fdb7f793          	andi	a5,a5,-37
    6ddc:	00f41623          	sh	a5,12(s0)
    6de0:	481c                	lw	a5,16(s0)
    6de2:	c01c                	sw	a5,0(s0)
    6de4:	00c45783          	lhu	a5,12(s0)
    6de8:	0087e793          	ori	a5,a5,8
    6dec:	00f41623          	sh	a5,12(s0)
    6df0:	481c                	lw	a5,16(s0)
    6df2:	ef81                	bnez	a5,6e0a <__swsetup_r+0xd0>
    6df4:	00c45783          	lhu	a5,12(s0)
    6df8:	20000713          	li	a4,512
    6dfc:	2807f793          	andi	a5,a5,640
    6e00:	00e78563          	beq	a5,a4,6e0a <__swsetup_r+0xd0>
    6e04:	85a2                	mv	a1,s0
    6e06:	854a                	mv	a0,s2
    6e08:	21b5                	jal	7274 <__smakebuf_r>
    6e0a:	00c45783          	lhu	a5,12(s0)
    6e0e:	0017f713          	andi	a4,a5,1
    6e12:	c705                	beqz	a4,6e3a <__swsetup_r+0x100>
    6e14:	485c                	lw	a5,20(s0)
    6e16:	00042423          	sw	zero,8(s0)
    6e1a:	40f007b3          	neg	a5,a5
    6e1e:	cc1c                	sw	a5,24(s0)
    6e20:	481c                	lw	a5,16(s0)
    6e22:	4501                	li	a0,0
    6e24:	f7a5                	bnez	a5,6d8c <__swsetup_r+0x52>
    6e26:	00c41783          	lh	a5,12(s0)
    6e2a:	0807f713          	andi	a4,a5,128
    6e2e:	df39                	beqz	a4,6d8c <__swsetup_r+0x52>
    6e30:	0407e793          	ori	a5,a5,64
    6e34:	00f41623          	sh	a5,12(s0)
    6e38:	bf89                	j	6d8a <__swsetup_r+0x50>
    6e3a:	8b89                	andi	a5,a5,2
    6e3c:	4701                	li	a4,0
    6e3e:	e391                	bnez	a5,6e42 <__swsetup_r+0x108>
    6e40:	4858                	lw	a4,20(s0)
    6e42:	c418                	sw	a4,8(s0)
    6e44:	bff1                	j	6e20 <__swsetup_r+0xe6>

00006e46 <__sflush_r>:
    6e46:	00c5d783          	lhu	a5,12(a1)
    6e4a:	1101                	addi	sp,sp,-32
    6e4c:	cc22                	sw	s0,24(sp)
    6e4e:	ca26                	sw	s1,20(sp)
    6e50:	ce06                	sw	ra,28(sp)
    6e52:	c84a                	sw	s2,16(sp)
    6e54:	c64e                	sw	s3,12(sp)
    6e56:	0087f713          	andi	a4,a5,8
    6e5a:	84aa                	mv	s1,a0
    6e5c:	842e                	mv	s0,a1
    6e5e:	ef71                	bnez	a4,6f3a <__sflush_r+0xf4>
    6e60:	41d8                	lw	a4,4(a1)
    6e62:	00e04d63          	bgtz	a4,6e7c <__sflush_r+0x36>
    6e66:	41b8                	lw	a4,64(a1)
    6e68:	00e04a63          	bgtz	a4,6e7c <__sflush_r+0x36>
    6e6c:	4501                	li	a0,0
    6e6e:	40f2                	lw	ra,28(sp)
    6e70:	4462                	lw	s0,24(sp)
    6e72:	44d2                	lw	s1,20(sp)
    6e74:	4942                	lw	s2,16(sp)
    6e76:	49b2                	lw	s3,12(sp)
    6e78:	6105                	addi	sp,sp,32
    6e7a:	8082                	ret
    6e7c:	5458                	lw	a4,44(s0)
    6e7e:	d77d                	beqz	a4,6e6c <__sflush_r+0x26>
    6e80:	0004a903          	lw	s2,0(s1)
    6e84:	01379693          	slli	a3,a5,0x13
    6e88:	0004a023          	sw	zero,0(s1)
    6e8c:	0606dd63          	bgez	a3,6f06 <__sflush_r+0xc0>
    6e90:	4870                	lw	a2,84(s0)
    6e92:	00c45783          	lhu	a5,12(s0)
    6e96:	8b91                	andi	a5,a5,4
    6e98:	c799                	beqz	a5,6ea6 <__sflush_r+0x60>
    6e9a:	405c                	lw	a5,4(s0)
    6e9c:	8e1d                	sub	a2,a2,a5
    6e9e:	585c                	lw	a5,52(s0)
    6ea0:	c399                	beqz	a5,6ea6 <__sflush_r+0x60>
    6ea2:	403c                	lw	a5,64(s0)
    6ea4:	8e1d                	sub	a2,a2,a5
    6ea6:	545c                	lw	a5,44(s0)
    6ea8:	500c                	lw	a1,32(s0)
    6eaa:	4681                	li	a3,0
    6eac:	8526                	mv	a0,s1
    6eae:	9782                	jalr	a5
    6eb0:	57fd                	li	a5,-1
    6eb2:	00c45703          	lhu	a4,12(s0)
    6eb6:	00f51d63          	bne	a0,a5,6ed0 <__sflush_r+0x8a>
    6eba:	4094                	lw	a3,0(s1)
    6ebc:	47f5                	li	a5,29
    6ebe:	06d7e863          	bltu	a5,a3,6f2e <__sflush_r+0xe8>
    6ec2:	204007b7          	lui	a5,0x20400
    6ec6:	0785                	addi	a5,a5,1
    6ec8:	00d7d7b3          	srl	a5,a5,a3
    6ecc:	8b85                	andi	a5,a5,1
    6ece:	c3a5                	beqz	a5,6f2e <__sflush_r+0xe8>
    6ed0:	481c                	lw	a5,16(s0)
    6ed2:	00042223          	sw	zero,4(s0)
    6ed6:	c01c                	sw	a5,0(s0)
    6ed8:	01371793          	slli	a5,a4,0x13
    6edc:	0007d863          	bgez	a5,6eec <__sflush_r+0xa6>
    6ee0:	57fd                	li	a5,-1
    6ee2:	00f51463          	bne	a0,a5,6eea <__sflush_r+0xa4>
    6ee6:	409c                	lw	a5,0(s1)
    6ee8:	e391                	bnez	a5,6eec <__sflush_r+0xa6>
    6eea:	c868                	sw	a0,84(s0)
    6eec:	584c                	lw	a1,52(s0)
    6eee:	0124a023          	sw	s2,0(s1)
    6ef2:	ddad                	beqz	a1,6e6c <__sflush_r+0x26>
    6ef4:	04440793          	addi	a5,s0,68
    6ef8:	00f58463          	beq	a1,a5,6f00 <__sflush_r+0xba>
    6efc:	8526                	mv	a0,s1
    6efe:	2919                	jal	7314 <_free_r>
    6f00:	02042a23          	sw	zero,52(s0)
    6f04:	b7a5                	j	6e6c <__sflush_r+0x26>
    6f06:	500c                	lw	a1,32(s0)
    6f08:	4601                	li	a2,0
    6f0a:	4685                	li	a3,1
    6f0c:	8526                	mv	a0,s1
    6f0e:	9702                	jalr	a4
    6f10:	57fd                	li	a5,-1
    6f12:	862a                	mv	a2,a0
    6f14:	f6f51fe3          	bne	a0,a5,6e92 <__sflush_r+0x4c>
    6f18:	409c                	lw	a5,0(s1)
    6f1a:	dfa5                	beqz	a5,6e92 <__sflush_r+0x4c>
    6f1c:	4775                	li	a4,29
    6f1e:	00e78563          	beq	a5,a4,6f28 <__sflush_r+0xe2>
    6f22:	4759                	li	a4,22
    6f24:	04e79463          	bne	a5,a4,6f6c <__sflush_r+0x126>
    6f28:	0124a023          	sw	s2,0(s1)
    6f2c:	b781                	j	6e6c <__sflush_r+0x26>
    6f2e:	04076713          	ori	a4,a4,64
    6f32:	00e41623          	sh	a4,12(s0)
    6f36:	557d                	li	a0,-1
    6f38:	bf1d                	j	6e6e <__sflush_r+0x28>
    6f3a:	0105a983          	lw	s3,16(a1)
    6f3e:	f20987e3          	beqz	s3,6e6c <__sflush_r+0x26>
    6f42:	0005a903          	lw	s2,0(a1)
    6f46:	8b8d                	andi	a5,a5,3
    6f48:	0135a023          	sw	s3,0(a1)
    6f4c:	41390933          	sub	s2,s2,s3
    6f50:	4701                	li	a4,0
    6f52:	e391                	bnez	a5,6f56 <__sflush_r+0x110>
    6f54:	49d8                	lw	a4,20(a1)
    6f56:	c418                	sw	a4,8(s0)
    6f58:	f1205ae3          	blez	s2,6e6c <__sflush_r+0x26>
    6f5c:	541c                	lw	a5,40(s0)
    6f5e:	500c                	lw	a1,32(s0)
    6f60:	86ca                	mv	a3,s2
    6f62:	864e                	mv	a2,s3
    6f64:	8526                	mv	a0,s1
    6f66:	9782                	jalr	a5
    6f68:	00a04963          	bgtz	a0,6f7a <__sflush_r+0x134>
    6f6c:	00c45783          	lhu	a5,12(s0)
    6f70:	0407e793          	ori	a5,a5,64
    6f74:	00f41623          	sh	a5,12(s0)
    6f78:	bf7d                	j	6f36 <__sflush_r+0xf0>
    6f7a:	99aa                	add	s3,s3,a0
    6f7c:	40a90933          	sub	s2,s2,a0
    6f80:	bfe1                	j	6f58 <__sflush_r+0x112>

00006f82 <_fflush_r>:
    6f82:	499c                	lw	a5,16(a1)
    6f84:	c3a5                	beqz	a5,6fe4 <_fflush_r+0x62>
    6f86:	1101                	addi	sp,sp,-32
    6f88:	cc22                	sw	s0,24(sp)
    6f8a:	ce06                	sw	ra,28(sp)
    6f8c:	842a                	mv	s0,a0
    6f8e:	c511                	beqz	a0,6f9a <_fflush_r+0x18>
    6f90:	4d1c                	lw	a5,24(a0)
    6f92:	e781                	bnez	a5,6f9a <_fflush_r+0x18>
    6f94:	c62e                	sw	a1,12(sp)
    6f96:	2231                	jal	70a2 <__sinit>
    6f98:	45b2                	lw	a1,12(sp)
    6f9a:	00001797          	auipc	a5,0x1
    6f9e:	28e78793          	addi	a5,a5,654 # 8228 <__sf_fake_stdin>
    6fa2:	00f59c63          	bne	a1,a5,6fba <_fflush_r+0x38>
    6fa6:	404c                	lw	a1,4(s0)
    6fa8:	00c59783          	lh	a5,12(a1)
    6fac:	c79d                	beqz	a5,6fda <_fflush_r+0x58>
    6fae:	8522                	mv	a0,s0
    6fb0:	4462                	lw	s0,24(sp)
    6fb2:	40f2                	lw	ra,28(sp)
    6fb4:	6105                	addi	sp,sp,32
    6fb6:	e91ff06f          	j	6e46 <__sflush_r>
    6fba:	00001797          	auipc	a5,0x1
    6fbe:	28e78793          	addi	a5,a5,654 # 8248 <__sf_fake_stdout>
    6fc2:	00f59463          	bne	a1,a5,6fca <_fflush_r+0x48>
    6fc6:	440c                	lw	a1,8(s0)
    6fc8:	b7c5                	j	6fa8 <_fflush_r+0x26>
    6fca:	00001797          	auipc	a5,0x1
    6fce:	23e78793          	addi	a5,a5,574 # 8208 <__sf_fake_stderr>
    6fd2:	fcf59be3          	bne	a1,a5,6fa8 <_fflush_r+0x26>
    6fd6:	444c                	lw	a1,12(s0)
    6fd8:	bfc1                	j	6fa8 <_fflush_r+0x26>
    6fda:	40f2                	lw	ra,28(sp)
    6fdc:	4462                	lw	s0,24(sp)
    6fde:	4501                	li	a0,0
    6fe0:	6105                	addi	sp,sp,32
    6fe2:	8082                	ret
    6fe4:	4501                	li	a0,0
    6fe6:	8082                	ret

00006fe8 <std>:
    6fe8:	1141                	addi	sp,sp,-16
    6fea:	c422                	sw	s0,8(sp)
    6fec:	c606                	sw	ra,12(sp)
    6fee:	842a                	mv	s0,a0
    6ff0:	00b51623          	sh	a1,12(a0)
    6ff4:	00c51723          	sh	a2,14(a0)
    6ff8:	00052023          	sw	zero,0(a0)
    6ffc:	00052223          	sw	zero,4(a0)
    7000:	00052423          	sw	zero,8(a0)
    7004:	06052223          	sw	zero,100(a0)
    7008:	00052823          	sw	zero,16(a0)
    700c:	00052a23          	sw	zero,20(a0)
    7010:	00052c23          	sw	zero,24(a0)
    7014:	4621                	li	a2,8
    7016:	4581                	li	a1,0
    7018:	05c50513          	addi	a0,a0,92
    701c:	d32f90ef          	jal	ra,54e <memset>
    7020:	00001797          	auipc	a5,0x1
    7024:	b7a78793          	addi	a5,a5,-1158 # 7b9a <__sread>
    7028:	d05c                	sw	a5,36(s0)
    702a:	00001797          	auipc	a5,0x1
    702e:	ba078793          	addi	a5,a5,-1120 # 7bca <__swrite>
    7032:	d41c                	sw	a5,40(s0)
    7034:	00001797          	auipc	a5,0x1
    7038:	be478793          	addi	a5,a5,-1052 # 7c18 <__sseek>
    703c:	d45c                	sw	a5,44(s0)
    703e:	00001797          	auipc	a5,0x1
    7042:	c1078793          	addi	a5,a5,-1008 # 7c4e <__sclose>
    7046:	d000                	sw	s0,32(s0)
    7048:	d81c                	sw	a5,48(s0)
    704a:	40b2                	lw	ra,12(sp)
    704c:	4422                	lw	s0,8(sp)
    704e:	0141                	addi	sp,sp,16
    7050:	8082                	ret

00007052 <_cleanup_r>:
    7052:	00000597          	auipc	a1,0x0
    7056:	f3058593          	addi	a1,a1,-208 # 6f82 <_fflush_r>
    705a:	aa91                	j	71ae <_fwalk_reent>

0000705c <__sfmoreglue>:
    705c:	1141                	addi	sp,sp,-16
    705e:	c226                	sw	s1,4(sp)
    7060:	06800613          	li	a2,104
    7064:	fff58493          	addi	s1,a1,-1
    7068:	02c484b3          	mul	s1,s1,a2
    706c:	c04a                	sw	s2,0(sp)
    706e:	892e                	mv	s2,a1
    7070:	c422                	sw	s0,8(sp)
    7072:	c606                	sw	ra,12(sp)
    7074:	07448593          	addi	a1,s1,116
    7078:	26b1                	jal	73c4 <_malloc_r>
    707a:	842a                	mv	s0,a0
    707c:	cd01                	beqz	a0,7094 <__sfmoreglue+0x38>
    707e:	00052023          	sw	zero,0(a0)
    7082:	01252223          	sw	s2,4(a0)
    7086:	0531                	addi	a0,a0,12
    7088:	c408                	sw	a0,8(s0)
    708a:	06848613          	addi	a2,s1,104
    708e:	4581                	li	a1,0
    7090:	cbef90ef          	jal	ra,54e <memset>
    7094:	8522                	mv	a0,s0
    7096:	40b2                	lw	ra,12(sp)
    7098:	4422                	lw	s0,8(sp)
    709a:	4492                	lw	s1,4(sp)
    709c:	4902                	lw	s2,0(sp)
    709e:	0141                	addi	sp,sp,16
    70a0:	8082                	ret

000070a2 <__sinit>:
    70a2:	4d1c                	lw	a5,24(a0)
    70a4:	e7a5                	bnez	a5,710c <__sinit+0x6a>
    70a6:	1141                	addi	sp,sp,-16
    70a8:	c606                	sw	ra,12(sp)
    70aa:	c422                	sw	s0,8(sp)
    70ac:	00000797          	auipc	a5,0x0
    70b0:	fa678793          	addi	a5,a5,-90 # 7052 <_cleanup_r>
    70b4:	d51c                	sw	a5,40(a0)
    70b6:	81c18793          	addi	a5,gp,-2020 # 2000009c <_global_impure_ptr>
    70ba:	439c                	lw	a5,0(a5)
    70bc:	04052423          	sw	zero,72(a0)
    70c0:	04052623          	sw	zero,76(a0)
    70c4:	04052823          	sw	zero,80(a0)
    70c8:	00f51463          	bne	a0,a5,70d0 <__sinit+0x2e>
    70cc:	4785                	li	a5,1
    70ce:	cd1c                	sw	a5,24(a0)
    70d0:	842a                	mv	s0,a0
    70d2:	2835                	jal	710e <__sfp>
    70d4:	c048                	sw	a0,4(s0)
    70d6:	8522                	mv	a0,s0
    70d8:	281d                	jal	710e <__sfp>
    70da:	c408                	sw	a0,8(s0)
    70dc:	8522                	mv	a0,s0
    70de:	2805                	jal	710e <__sfp>
    70e0:	c448                	sw	a0,12(s0)
    70e2:	4048                	lw	a0,4(s0)
    70e4:	4601                	li	a2,0
    70e6:	4591                	li	a1,4
    70e8:	f01ff0ef          	jal	ra,6fe8 <std>
    70ec:	4408                	lw	a0,8(s0)
    70ee:	4605                	li	a2,1
    70f0:	45a5                	li	a1,9
    70f2:	ef7ff0ef          	jal	ra,6fe8 <std>
    70f6:	4448                	lw	a0,12(s0)
    70f8:	4609                	li	a2,2
    70fa:	45c9                	li	a1,18
    70fc:	eedff0ef          	jal	ra,6fe8 <std>
    7100:	4785                	li	a5,1
    7102:	cc1c                	sw	a5,24(s0)
    7104:	40b2                	lw	ra,12(sp)
    7106:	4422                	lw	s0,8(sp)
    7108:	0141                	addi	sp,sp,16
    710a:	8082                	ret
    710c:	8082                	ret

0000710e <__sfp>:
    710e:	1141                	addi	sp,sp,-16
    7110:	81c18793          	addi	a5,gp,-2020 # 2000009c <_global_impure_ptr>
    7114:	c226                	sw	s1,4(sp)
    7116:	4384                	lw	s1,0(a5)
    7118:	c04a                	sw	s2,0(sp)
    711a:	c606                	sw	ra,12(sp)
    711c:	4c9c                	lw	a5,24(s1)
    711e:	c422                	sw	s0,8(sp)
    7120:	892a                	mv	s2,a0
    7122:	e781                	bnez	a5,712a <__sfp+0x1c>
    7124:	8526                	mv	a0,s1
    7126:	f7dff0ef          	jal	ra,70a2 <__sinit>
    712a:	04848493          	addi	s1,s1,72
    712e:	4480                	lw	s0,8(s1)
    7130:	40dc                	lw	a5,4(s1)
    7132:	17fd                	addi	a5,a5,-1
    7134:	0007d663          	bgez	a5,7140 <__sfp+0x32>
    7138:	409c                	lw	a5,0(s1)
    713a:	cfb9                	beqz	a5,7198 <__sfp+0x8a>
    713c:	4084                	lw	s1,0(s1)
    713e:	bfc5                	j	712e <__sfp+0x20>
    7140:	00c41703          	lh	a4,12(s0)
    7144:	e739                	bnez	a4,7192 <__sfp+0x84>
    7146:	77c1                	lui	a5,0xffff0
    7148:	0785                	addi	a5,a5,1
    714a:	06042223          	sw	zero,100(s0)
    714e:	00042023          	sw	zero,0(s0)
    7152:	00042223          	sw	zero,4(s0)
    7156:	00042423          	sw	zero,8(s0)
    715a:	c45c                	sw	a5,12(s0)
    715c:	00042823          	sw	zero,16(s0)
    7160:	00042a23          	sw	zero,20(s0)
    7164:	00042c23          	sw	zero,24(s0)
    7168:	4621                	li	a2,8
    716a:	4581                	li	a1,0
    716c:	05c40513          	addi	a0,s0,92
    7170:	bdef90ef          	jal	ra,54e <memset>
    7174:	02042a23          	sw	zero,52(s0)
    7178:	02042c23          	sw	zero,56(s0)
    717c:	04042423          	sw	zero,72(s0)
    7180:	04042623          	sw	zero,76(s0)
    7184:	8522                	mv	a0,s0
    7186:	40b2                	lw	ra,12(sp)
    7188:	4422                	lw	s0,8(sp)
    718a:	4492                	lw	s1,4(sp)
    718c:	4902                	lw	s2,0(sp)
    718e:	0141                	addi	sp,sp,16
    7190:	8082                	ret
    7192:	06840413          	addi	s0,s0,104
    7196:	bf71                	j	7132 <__sfp+0x24>
    7198:	4591                	li	a1,4
    719a:	854a                	mv	a0,s2
    719c:	ec1ff0ef          	jal	ra,705c <__sfmoreglue>
    71a0:	c088                	sw	a0,0(s1)
    71a2:	fd49                	bnez	a0,713c <__sfp+0x2e>
    71a4:	47b1                	li	a5,12
    71a6:	00f92023          	sw	a5,0(s2)
    71aa:	4401                	li	s0,0
    71ac:	bfe1                	j	7184 <__sfp+0x76>

000071ae <_fwalk_reent>:
    71ae:	7179                	addi	sp,sp,-48
    71b0:	d422                	sw	s0,40(sp)
    71b2:	d04a                	sw	s2,32(sp)
    71b4:	cc52                	sw	s4,24(sp)
    71b6:	ca56                	sw	s5,20(sp)
    71b8:	c85a                	sw	s6,16(sp)
    71ba:	c65e                	sw	s7,12(sp)
    71bc:	d606                	sw	ra,44(sp)
    71be:	d226                	sw	s1,36(sp)
    71c0:	ce4e                	sw	s3,28(sp)
    71c2:	8a2a                	mv	s4,a0
    71c4:	8aae                	mv	s5,a1
    71c6:	04850413          	addi	s0,a0,72
    71ca:	4901                	li	s2,0
    71cc:	4b05                	li	s6,1
    71ce:	5bfd                	li	s7,-1
    71d0:	ec09                	bnez	s0,71ea <_fwalk_reent+0x3c>
    71d2:	50b2                	lw	ra,44(sp)
    71d4:	5422                	lw	s0,40(sp)
    71d6:	854a                	mv	a0,s2
    71d8:	5492                	lw	s1,36(sp)
    71da:	5902                	lw	s2,32(sp)
    71dc:	49f2                	lw	s3,28(sp)
    71de:	4a62                	lw	s4,24(sp)
    71e0:	4ad2                	lw	s5,20(sp)
    71e2:	4b42                	lw	s6,16(sp)
    71e4:	4bb2                	lw	s7,12(sp)
    71e6:	6145                	addi	sp,sp,48
    71e8:	8082                	ret
    71ea:	4404                	lw	s1,8(s0)
    71ec:	00442983          	lw	s3,4(s0)
    71f0:	19fd                	addi	s3,s3,-1
    71f2:	0009d463          	bgez	s3,71fa <_fwalk_reent+0x4c>
    71f6:	4000                	lw	s0,0(s0)
    71f8:	bfe1                	j	71d0 <_fwalk_reent+0x22>
    71fa:	00c4d783          	lhu	a5,12(s1)
    71fe:	00fb7b63          	bgeu	s6,a5,7214 <_fwalk_reent+0x66>
    7202:	00e49783          	lh	a5,14(s1)
    7206:	01778763          	beq	a5,s7,7214 <_fwalk_reent+0x66>
    720a:	85a6                	mv	a1,s1
    720c:	8552                	mv	a0,s4
    720e:	9a82                	jalr	s5
    7210:	00a96933          	or	s2,s2,a0
    7214:	06848493          	addi	s1,s1,104
    7218:	bfe1                	j	71f0 <_fwalk_reent+0x42>

0000721a <__swhatbuf_r>:
    721a:	7119                	addi	sp,sp,-128
    721c:	daa6                	sw	s1,116(sp)
    721e:	84ae                	mv	s1,a1
    7220:	00e59583          	lh	a1,14(a1)
    7224:	dca2                	sw	s0,120(sp)
    7226:	de86                	sw	ra,124(sp)
    7228:	8432                	mv	s0,a2
    722a:	0005dc63          	bgez	a1,7242 <__swhatbuf_r+0x28>
    722e:	00c4d783          	lhu	a5,12(s1)
    7232:	0006a023          	sw	zero,0(a3)
    7236:	0807f793          	andi	a5,a5,128
    723a:	e785                	bnez	a5,7262 <__swhatbuf_r+0x48>
    723c:	40000793          	li	a5,1024
    7240:	a01d                	j	7266 <__swhatbuf_r+0x4c>
    7242:	0830                	addi	a2,sp,24
    7244:	c636                	sw	a3,12(sp)
    7246:	275000ef          	jal	ra,7cba <_fstat_r>
    724a:	46b2                	lw	a3,12(sp)
    724c:	fe0541e3          	bltz	a0,722e <__swhatbuf_r+0x14>
    7250:	4772                	lw	a4,28(sp)
    7252:	67bd                	lui	a5,0xf
    7254:	8ff9                	and	a5,a5,a4
    7256:	7779                	lui	a4,0xffffe
    7258:	97ba                	add	a5,a5,a4
    725a:	0017b793          	seqz	a5,a5
    725e:	c29c                	sw	a5,0(a3)
    7260:	bff1                	j	723c <__swhatbuf_r+0x22>
    7262:	04000793          	li	a5,64
    7266:	c01c                	sw	a5,0(s0)
    7268:	50f6                	lw	ra,124(sp)
    726a:	5466                	lw	s0,120(sp)
    726c:	54d6                	lw	s1,116(sp)
    726e:	4501                	li	a0,0
    7270:	6109                	addi	sp,sp,128
    7272:	8082                	ret

00007274 <__smakebuf_r>:
    7274:	00c5d783          	lhu	a5,12(a1)
    7278:	1101                	addi	sp,sp,-32
    727a:	cc22                	sw	s0,24(sp)
    727c:	ce06                	sw	ra,28(sp)
    727e:	ca26                	sw	s1,20(sp)
    7280:	c84a                	sw	s2,16(sp)
    7282:	8b89                	andi	a5,a5,2
    7284:	842e                	mv	s0,a1
    7286:	cf89                	beqz	a5,72a0 <__smakebuf_r+0x2c>
    7288:	04740793          	addi	a5,s0,71
    728c:	c01c                	sw	a5,0(s0)
    728e:	c81c                	sw	a5,16(s0)
    7290:	4785                	li	a5,1
    7292:	c85c                	sw	a5,20(s0)
    7294:	40f2                	lw	ra,28(sp)
    7296:	4462                	lw	s0,24(sp)
    7298:	44d2                	lw	s1,20(sp)
    729a:	4942                	lw	s2,16(sp)
    729c:	6105                	addi	sp,sp,32
    729e:	8082                	ret
    72a0:	0074                	addi	a3,sp,12
    72a2:	0030                	addi	a2,sp,8
    72a4:	84aa                	mv	s1,a0
    72a6:	f75ff0ef          	jal	ra,721a <__swhatbuf_r>
    72aa:	45a2                	lw	a1,8(sp)
    72ac:	892a                	mv	s2,a0
    72ae:	8526                	mv	a0,s1
    72b0:	2a11                	jal	73c4 <_malloc_r>
    72b2:	ed01                	bnez	a0,72ca <__smakebuf_r+0x56>
    72b4:	00c41783          	lh	a5,12(s0)
    72b8:	2007f713          	andi	a4,a5,512
    72bc:	ff61                	bnez	a4,7294 <__smakebuf_r+0x20>
    72be:	9bf1                	andi	a5,a5,-4
    72c0:	0027e793          	ori	a5,a5,2
    72c4:	00f41623          	sh	a5,12(s0)
    72c8:	b7c1                	j	7288 <__smakebuf_r+0x14>
    72ca:	00000797          	auipc	a5,0x0
    72ce:	d8878793          	addi	a5,a5,-632 # 7052 <_cleanup_r>
    72d2:	d49c                	sw	a5,40(s1)
    72d4:	00c45783          	lhu	a5,12(s0)
    72d8:	c008                	sw	a0,0(s0)
    72da:	c808                	sw	a0,16(s0)
    72dc:	0807e793          	ori	a5,a5,128
    72e0:	00f41623          	sh	a5,12(s0)
    72e4:	47a2                	lw	a5,8(sp)
    72e6:	c85c                	sw	a5,20(s0)
    72e8:	47b2                	lw	a5,12(sp)
    72ea:	cf91                	beqz	a5,7306 <__smakebuf_r+0x92>
    72ec:	00e41583          	lh	a1,14(s0)
    72f0:	8526                	mv	a0,s1
    72f2:	1fb000ef          	jal	ra,7cec <_isatty_r>
    72f6:	c901                	beqz	a0,7306 <__smakebuf_r+0x92>
    72f8:	00c45783          	lhu	a5,12(s0)
    72fc:	9bf1                	andi	a5,a5,-4
    72fe:	0017e793          	ori	a5,a5,1
    7302:	00f41623          	sh	a5,12(s0)
    7306:	00c45783          	lhu	a5,12(s0)
    730a:	00f96933          	or	s2,s2,a5
    730e:	01241623          	sh	s2,12(s0)
    7312:	b749                	j	7294 <__smakebuf_r+0x20>

00007314 <_free_r>:
    7314:	c5dd                	beqz	a1,73c2 <_free_r+0xae>
    7316:	ffc5a783          	lw	a5,-4(a1)
    731a:	1141                	addi	sp,sp,-16
    731c:	c422                	sw	s0,8(sp)
    731e:	c606                	sw	ra,12(sp)
    7320:	c226                	sw	s1,4(sp)
    7322:	ffc58413          	addi	s0,a1,-4
    7326:	0007d363          	bgez	a5,732c <_free_r+0x18>
    732a:	943e                	add	s0,s0,a5
    732c:	84aa                	mv	s1,a0
    732e:	23d000ef          	jal	ra,7d6a <__malloc_lock>
    7332:	1fff9797          	auipc	a5,0x1fff9
    7336:	e1a78793          	addi	a5,a5,-486 # 2000014c <__malloc_free_list>
    733a:	439c                	lw	a5,0(a5)
    733c:	ef91                	bnez	a5,7358 <_free_r+0x44>
    733e:	00042223          	sw	zero,4(s0)
    7342:	1fff9797          	auipc	a5,0x1fff9
    7346:	e087a523          	sw	s0,-502(a5) # 2000014c <__malloc_free_list>
    734a:	4422                	lw	s0,8(sp)
    734c:	40b2                	lw	ra,12(sp)
    734e:	8526                	mv	a0,s1
    7350:	4492                	lw	s1,4(sp)
    7352:	0141                	addi	sp,sp,16
    7354:	2190006f          	j	7d6c <__malloc_unlock>
    7358:	00f47e63          	bgeu	s0,a5,7374 <_free_r+0x60>
    735c:	4014                	lw	a3,0(s0)
    735e:	00d40733          	add	a4,s0,a3
    7362:	00e79663          	bne	a5,a4,736e <_free_r+0x5a>
    7366:	4398                	lw	a4,0(a5)
    7368:	43dc                	lw	a5,4(a5)
    736a:	9736                	add	a4,a4,a3
    736c:	c018                	sw	a4,0(s0)
    736e:	c05c                	sw	a5,4(s0)
    7370:	bfc9                	j	7342 <_free_r+0x2e>
    7372:	87ba                	mv	a5,a4
    7374:	43d8                	lw	a4,4(a5)
    7376:	c319                	beqz	a4,737c <_free_r+0x68>
    7378:	fee47de3          	bgeu	s0,a4,7372 <_free_r+0x5e>
    737c:	4394                	lw	a3,0(a5)
    737e:	00d78633          	add	a2,a5,a3
    7382:	00861f63          	bne	a2,s0,73a0 <_free_r+0x8c>
    7386:	4010                	lw	a2,0(s0)
    7388:	96b2                	add	a3,a3,a2
    738a:	c394                	sw	a3,0(a5)
    738c:	00d78633          	add	a2,a5,a3
    7390:	fac71de3          	bne	a4,a2,734a <_free_r+0x36>
    7394:	4310                	lw	a2,0(a4)
    7396:	4358                	lw	a4,4(a4)
    7398:	96b2                	add	a3,a3,a2
    739a:	c394                	sw	a3,0(a5)
    739c:	c3d8                	sw	a4,4(a5)
    739e:	b775                	j	734a <_free_r+0x36>
    73a0:	00c47563          	bgeu	s0,a2,73aa <_free_r+0x96>
    73a4:	47b1                	li	a5,12
    73a6:	c09c                	sw	a5,0(s1)
    73a8:	b74d                	j	734a <_free_r+0x36>
    73aa:	4010                	lw	a2,0(s0)
    73ac:	00c406b3          	add	a3,s0,a2
    73b0:	00d71663          	bne	a4,a3,73bc <_free_r+0xa8>
    73b4:	4314                	lw	a3,0(a4)
    73b6:	4358                	lw	a4,4(a4)
    73b8:	96b2                	add	a3,a3,a2
    73ba:	c014                	sw	a3,0(s0)
    73bc:	c058                	sw	a4,4(s0)
    73be:	c3c0                	sw	s0,4(a5)
    73c0:	b769                	j	734a <_free_r+0x36>
    73c2:	8082                	ret

000073c4 <_malloc_r>:
    73c4:	1101                	addi	sp,sp,-32
    73c6:	ca26                	sw	s1,20(sp)
    73c8:	00358493          	addi	s1,a1,3
    73cc:	98f1                	andi	s1,s1,-4
    73ce:	ce06                	sw	ra,28(sp)
    73d0:	cc22                	sw	s0,24(sp)
    73d2:	c84a                	sw	s2,16(sp)
    73d4:	c64e                	sw	s3,12(sp)
    73d6:	04a1                	addi	s1,s1,8
    73d8:	47b1                	li	a5,12
    73da:	04f4f963          	bgeu	s1,a5,742c <_malloc_r+0x68>
    73de:	44b1                	li	s1,12
    73e0:	04b4e863          	bltu	s1,a1,7430 <_malloc_r+0x6c>
    73e4:	892a                	mv	s2,a0
    73e6:	185000ef          	jal	ra,7d6a <__malloc_lock>
    73ea:	1fff9797          	auipc	a5,0x1fff9
    73ee:	d6278793          	addi	a5,a5,-670 # 2000014c <__malloc_free_list>
    73f2:	4398                	lw	a4,0(a5)
    73f4:	843a                	mv	s0,a4
    73f6:	e439                	bnez	s0,7444 <_malloc_r+0x80>
    73f8:	1fff9797          	auipc	a5,0x1fff9
    73fc:	d5878793          	addi	a5,a5,-680 # 20000150 <__malloc_sbrk_start>
    7400:	439c                	lw	a5,0(a5)
    7402:	eb81                	bnez	a5,7412 <_malloc_r+0x4e>
    7404:	4581                	li	a1,0
    7406:	854a                	mv	a0,s2
    7408:	2785                	jal	7b68 <_sbrk_r>
    740a:	1fff9797          	auipc	a5,0x1fff9
    740e:	d4a7a323          	sw	a0,-698(a5) # 20000150 <__malloc_sbrk_start>
    7412:	85a6                	mv	a1,s1
    7414:	854a                	mv	a0,s2
    7416:	2f89                	jal	7b68 <_sbrk_r>
    7418:	59fd                	li	s3,-1
    741a:	07351b63          	bne	a0,s3,7490 <_malloc_r+0xcc>
    741e:	47b1                	li	a5,12
    7420:	00f92023          	sw	a5,0(s2)
    7424:	854a                	mv	a0,s2
    7426:	147000ef          	jal	ra,7d6c <__malloc_unlock>
    742a:	a029                	j	7434 <_malloc_r+0x70>
    742c:	fa04dae3          	bgez	s1,73e0 <_malloc_r+0x1c>
    7430:	47b1                	li	a5,12
    7432:	c11c                	sw	a5,0(a0)
    7434:	4501                	li	a0,0
    7436:	40f2                	lw	ra,28(sp)
    7438:	4462                	lw	s0,24(sp)
    743a:	44d2                	lw	s1,20(sp)
    743c:	4942                	lw	s2,16(sp)
    743e:	49b2                	lw	s3,12(sp)
    7440:	6105                	addi	sp,sp,32
    7442:	8082                	ret
    7444:	401c                	lw	a5,0(s0)
    7446:	8f85                	sub	a5,a5,s1
    7448:	0407c163          	bltz	a5,748a <_malloc_r+0xc6>
    744c:	46ad                	li	a3,11
    744e:	00f6f663          	bgeu	a3,a5,745a <_malloc_r+0x96>
    7452:	c01c                	sw	a5,0(s0)
    7454:	943e                	add	s0,s0,a5
    7456:	c004                	sw	s1,0(s0)
    7458:	a801                	j	7468 <_malloc_r+0xa4>
    745a:	405c                	lw	a5,4(s0)
    745c:	02871563          	bne	a4,s0,7486 <_malloc_r+0xc2>
    7460:	1fff9717          	auipc	a4,0x1fff9
    7464:	cef72623          	sw	a5,-788(a4) # 2000014c <__malloc_free_list>
    7468:	854a                	mv	a0,s2
    746a:	103000ef          	jal	ra,7d6c <__malloc_unlock>
    746e:	00b40513          	addi	a0,s0,11
    7472:	00440793          	addi	a5,s0,4
    7476:	9961                	andi	a0,a0,-8
    7478:	40f50733          	sub	a4,a0,a5
    747c:	df4d                	beqz	a4,7436 <_malloc_r+0x72>
    747e:	943a                	add	s0,s0,a4
    7480:	8f89                	sub	a5,a5,a0
    7482:	c01c                	sw	a5,0(s0)
    7484:	bf4d                	j	7436 <_malloc_r+0x72>
    7486:	c35c                	sw	a5,4(a4)
    7488:	b7c5                	j	7468 <_malloc_r+0xa4>
    748a:	8722                	mv	a4,s0
    748c:	4040                	lw	s0,4(s0)
    748e:	b7a5                	j	73f6 <_malloc_r+0x32>
    7490:	00350413          	addi	s0,a0,3
    7494:	9871                	andi	s0,s0,-4
    7496:	fc8500e3          	beq	a0,s0,7456 <_malloc_r+0x92>
    749a:	40a405b3          	sub	a1,s0,a0
    749e:	854a                	mv	a0,s2
    74a0:	25e1                	jal	7b68 <_sbrk_r>
    74a2:	fb351ae3          	bne	a0,s3,7456 <_malloc_r+0x92>
    74a6:	bfa5                	j	741e <_malloc_r+0x5a>

000074a8 <__sfputc_r>:
    74a8:	461c                	lw	a5,8(a2)
    74aa:	17fd                	addi	a5,a5,-1
    74ac:	c61c                	sw	a5,8(a2)
    74ae:	0007da63          	bgez	a5,74c2 <__sfputc_r+0x1a>
    74b2:	4e18                	lw	a4,24(a2)
    74b4:	00e7c563          	blt	a5,a4,74be <__sfputc_r+0x16>
    74b8:	47a9                	li	a5,10
    74ba:	00f59463          	bne	a1,a5,74c2 <__sfputc_r+0x1a>
    74be:	fbcff06f          	j	6c7a <__swbuf_r>
    74c2:	421c                	lw	a5,0(a2)
    74c4:	852e                	mv	a0,a1
    74c6:	00178713          	addi	a4,a5,1
    74ca:	c218                	sw	a4,0(a2)
    74cc:	00b78023          	sb	a1,0(a5)
    74d0:	8082                	ret

000074d2 <__sfputs_r>:
    74d2:	1101                	addi	sp,sp,-32
    74d4:	cc22                	sw	s0,24(sp)
    74d6:	ca26                	sw	s1,20(sp)
    74d8:	c84a                	sw	s2,16(sp)
    74da:	c64e                	sw	s3,12(sp)
    74dc:	c452                	sw	s4,8(sp)
    74de:	ce06                	sw	ra,28(sp)
    74e0:	892a                	mv	s2,a0
    74e2:	89ae                	mv	s3,a1
    74e4:	8432                	mv	s0,a2
    74e6:	00d604b3          	add	s1,a2,a3
    74ea:	5a7d                	li	s4,-1
    74ec:	00941463          	bne	s0,s1,74f4 <__sfputs_r+0x22>
    74f0:	4501                	li	a0,0
    74f2:	a811                	j	7506 <__sfputs_r+0x34>
    74f4:	00044583          	lbu	a1,0(s0)
    74f8:	864e                	mv	a2,s3
    74fa:	854a                	mv	a0,s2
    74fc:	fadff0ef          	jal	ra,74a8 <__sfputc_r>
    7500:	0405                	addi	s0,s0,1
    7502:	ff4515e3          	bne	a0,s4,74ec <__sfputs_r+0x1a>
    7506:	40f2                	lw	ra,28(sp)
    7508:	4462                	lw	s0,24(sp)
    750a:	44d2                	lw	s1,20(sp)
    750c:	4942                	lw	s2,16(sp)
    750e:	49b2                	lw	s3,12(sp)
    7510:	4a22                	lw	s4,8(sp)
    7512:	6105                	addi	sp,sp,32
    7514:	8082                	ret

00007516 <_vfiprintf_r>:
    7516:	7135                	addi	sp,sp,-160
    7518:	cd22                	sw	s0,152(sp)
    751a:	cb26                	sw	s1,148(sp)
    751c:	c94a                	sw	s2,144(sp)
    751e:	c74e                	sw	s3,140(sp)
    7520:	cf06                	sw	ra,156(sp)
    7522:	c552                	sw	s4,136(sp)
    7524:	c356                	sw	s5,132(sp)
    7526:	c15a                	sw	s6,128(sp)
    7528:	dede                	sw	s7,124(sp)
    752a:	dce2                	sw	s8,120(sp)
    752c:	dae6                	sw	s9,116(sp)
    752e:	89aa                	mv	s3,a0
    7530:	84ae                	mv	s1,a1
    7532:	8932                	mv	s2,a2
    7534:	8436                	mv	s0,a3
    7536:	c509                	beqz	a0,7540 <_vfiprintf_r+0x2a>
    7538:	4d1c                	lw	a5,24(a0)
    753a:	e399                	bnez	a5,7540 <_vfiprintf_r+0x2a>
    753c:	b67ff0ef          	jal	ra,70a2 <__sinit>
    7540:	00001797          	auipc	a5,0x1
    7544:	ce878793          	addi	a5,a5,-792 # 8228 <__sf_fake_stdin>
    7548:	0cf49c63          	bne	s1,a5,7620 <_vfiprintf_r+0x10a>
    754c:	0049a483          	lw	s1,4(s3)
    7550:	00c4d783          	lhu	a5,12(s1)
    7554:	8ba1                	andi	a5,a5,8
    7556:	c7fd                	beqz	a5,7644 <_vfiprintf_r+0x12e>
    7558:	489c                	lw	a5,16(s1)
    755a:	c7ed                	beqz	a5,7644 <_vfiprintf_r+0x12e>
    755c:	02000793          	li	a5,32
    7560:	02f104a3          	sb	a5,41(sp)
    7564:	03000793          	li	a5,48
    7568:	d202                	sw	zero,36(sp)
    756a:	02f10523          	sb	a5,42(sp)
    756e:	c622                	sw	s0,12(sp)
    7570:	02500b93          	li	s7,37
    7574:	00001a97          	auipc	s5,0x1
    7578:	cf4a8a93          	addi	s5,s5,-780 # 8268 <__sf_fake_stdout+0x20>
    757c:	4c05                	li	s8,1
    757e:	4b29                	li	s6,10
    7580:	844a                	mv	s0,s2
    7582:	00044783          	lbu	a5,0(s0)
    7586:	c399                	beqz	a5,758c <_vfiprintf_r+0x76>
    7588:	0f779163          	bne	a5,s7,766a <_vfiprintf_r+0x154>
    758c:	41240cb3          	sub	s9,s0,s2
    7590:	000c8e63          	beqz	s9,75ac <_vfiprintf_r+0x96>
    7594:	86e6                	mv	a3,s9
    7596:	864a                	mv	a2,s2
    7598:	85a6                	mv	a1,s1
    759a:	854e                	mv	a0,s3
    759c:	f37ff0ef          	jal	ra,74d2 <__sfputs_r>
    75a0:	57fd                	li	a5,-1
    75a2:	1ef50663          	beq	a0,a5,778e <_vfiprintf_r+0x278>
    75a6:	5692                	lw	a3,36(sp)
    75a8:	96e6                	add	a3,a3,s9
    75aa:	d236                	sw	a3,36(sp)
    75ac:	00044783          	lbu	a5,0(s0)
    75b0:	1c078f63          	beqz	a5,778e <_vfiprintf_r+0x278>
    75b4:	57fd                	li	a5,-1
    75b6:	00140913          	addi	s2,s0,1
    75ba:	c802                	sw	zero,16(sp)
    75bc:	ce02                	sw	zero,28(sp)
    75be:	ca3e                	sw	a5,20(sp)
    75c0:	cc02                	sw	zero,24(sp)
    75c2:	040109a3          	sb	zero,83(sp)
    75c6:	d482                	sw	zero,104(sp)
    75c8:	00094583          	lbu	a1,0(s2)
    75cc:	4615                	li	a2,5
    75ce:	8556                	mv	a0,s5
    75d0:	2741                	jal	7d50 <memchr>
    75d2:	00190413          	addi	s0,s2,1
    75d6:	47c2                	lw	a5,16(sp)
    75d8:	e959                	bnez	a0,766e <_vfiprintf_r+0x158>
    75da:	0107f713          	andi	a4,a5,16
    75de:	c709                	beqz	a4,75e8 <_vfiprintf_r+0xd2>
    75e0:	02000713          	li	a4,32
    75e4:	04e109a3          	sb	a4,83(sp)
    75e8:	0087f713          	andi	a4,a5,8
    75ec:	c709                	beqz	a4,75f6 <_vfiprintf_r+0xe0>
    75ee:	02b00713          	li	a4,43
    75f2:	04e109a3          	sb	a4,83(sp)
    75f6:	00094683          	lbu	a3,0(s2)
    75fa:	02a00713          	li	a4,42
    75fe:	08e68063          	beq	a3,a4,767e <_vfiprintf_r+0x168>
    7602:	47f2                	lw	a5,28(sp)
    7604:	844a                	mv	s0,s2
    7606:	4681                	li	a3,0
    7608:	4625                	li	a2,9
    760a:	00044703          	lbu	a4,0(s0)
    760e:	00140593          	addi	a1,s0,1
    7612:	fd070713          	addi	a4,a4,-48
    7616:	0ae67963          	bgeu	a2,a4,76c8 <_vfiprintf_r+0x1b2>
    761a:	cab5                	beqz	a3,768e <_vfiprintf_r+0x178>
    761c:	ce3e                	sw	a5,28(sp)
    761e:	a885                	j	768e <_vfiprintf_r+0x178>
    7620:	00001797          	auipc	a5,0x1
    7624:	c2878793          	addi	a5,a5,-984 # 8248 <__sf_fake_stdout>
    7628:	00f49563          	bne	s1,a5,7632 <_vfiprintf_r+0x11c>
    762c:	0089a483          	lw	s1,8(s3)
    7630:	b705                	j	7550 <_vfiprintf_r+0x3a>
    7632:	00001797          	auipc	a5,0x1
    7636:	bd678793          	addi	a5,a5,-1066 # 8208 <__sf_fake_stderr>
    763a:	f0f49be3          	bne	s1,a5,7550 <_vfiprintf_r+0x3a>
    763e:	00c9a483          	lw	s1,12(s3)
    7642:	b739                	j	7550 <_vfiprintf_r+0x3a>
    7644:	85a6                	mv	a1,s1
    7646:	854e                	mv	a0,s3
    7648:	ef2ff0ef          	jal	ra,6d3a <__swsetup_r>
    764c:	d901                	beqz	a0,755c <_vfiprintf_r+0x46>
    764e:	557d                	li	a0,-1
    7650:	40fa                	lw	ra,156(sp)
    7652:	446a                	lw	s0,152(sp)
    7654:	44da                	lw	s1,148(sp)
    7656:	494a                	lw	s2,144(sp)
    7658:	49ba                	lw	s3,140(sp)
    765a:	4a2a                	lw	s4,136(sp)
    765c:	4a9a                	lw	s5,132(sp)
    765e:	4b0a                	lw	s6,128(sp)
    7660:	5bf6                	lw	s7,124(sp)
    7662:	5c66                	lw	s8,120(sp)
    7664:	5cd6                	lw	s9,116(sp)
    7666:	610d                	addi	sp,sp,160
    7668:	8082                	ret
    766a:	0405                	addi	s0,s0,1
    766c:	bf19                	j	7582 <_vfiprintf_r+0x6c>
    766e:	41550533          	sub	a0,a0,s5
    7672:	00ac1533          	sll	a0,s8,a0
    7676:	8fc9                	or	a5,a5,a0
    7678:	c83e                	sw	a5,16(sp)
    767a:	8922                	mv	s2,s0
    767c:	b7b1                	j	75c8 <_vfiprintf_r+0xb2>
    767e:	4732                	lw	a4,12(sp)
    7680:	00470693          	addi	a3,a4,4
    7684:	4318                	lw	a4,0(a4)
    7686:	c636                	sw	a3,12(sp)
    7688:	02074963          	bltz	a4,76ba <_vfiprintf_r+0x1a4>
    768c:	ce3a                	sw	a4,28(sp)
    768e:	00044703          	lbu	a4,0(s0)
    7692:	02e00793          	li	a5,46
    7696:	04f71f63          	bne	a4,a5,76f4 <_vfiprintf_r+0x1de>
    769a:	00144703          	lbu	a4,1(s0)
    769e:	02a00793          	li	a5,42
    76a2:	02f71b63          	bne	a4,a5,76d8 <_vfiprintf_r+0x1c2>
    76a6:	47b2                	lw	a5,12(sp)
    76a8:	0409                	addi	s0,s0,2
    76aa:	00478713          	addi	a4,a5,4
    76ae:	439c                	lw	a5,0(a5)
    76b0:	c63a                	sw	a4,12(sp)
    76b2:	0207c163          	bltz	a5,76d4 <_vfiprintf_r+0x1be>
    76b6:	ca3e                	sw	a5,20(sp)
    76b8:	a835                	j	76f4 <_vfiprintf_r+0x1de>
    76ba:	40e00733          	neg	a4,a4
    76be:	0027e793          	ori	a5,a5,2
    76c2:	ce3a                	sw	a4,28(sp)
    76c4:	c83e                	sw	a5,16(sp)
    76c6:	b7e1                	j	768e <_vfiprintf_r+0x178>
    76c8:	036787b3          	mul	a5,a5,s6
    76cc:	4685                	li	a3,1
    76ce:	842e                	mv	s0,a1
    76d0:	97ba                	add	a5,a5,a4
    76d2:	bf25                	j	760a <_vfiprintf_r+0xf4>
    76d4:	57fd                	li	a5,-1
    76d6:	b7c5                	j	76b6 <_vfiprintf_r+0x1a0>
    76d8:	0405                	addi	s0,s0,1
    76da:	ca02                	sw	zero,20(sp)
    76dc:	4681                	li	a3,0
    76de:	4781                	li	a5,0
    76e0:	4625                	li	a2,9
    76e2:	00044703          	lbu	a4,0(s0)
    76e6:	00140593          	addi	a1,s0,1
    76ea:	fd070713          	addi	a4,a4,-48
    76ee:	06e67663          	bgeu	a2,a4,775a <_vfiprintf_r+0x244>
    76f2:	f2f1                	bnez	a3,76b6 <_vfiprintf_r+0x1a0>
    76f4:	00044583          	lbu	a1,0(s0)
    76f8:	460d                	li	a2,3
    76fa:	00001517          	auipc	a0,0x1
    76fe:	b7650513          	addi	a0,a0,-1162 # 8270 <__sf_fake_stdout+0x28>
    7702:	25b9                	jal	7d50 <memchr>
    7704:	cd11                	beqz	a0,7720 <_vfiprintf_r+0x20a>
    7706:	00001797          	auipc	a5,0x1
    770a:	b6a78793          	addi	a5,a5,-1174 # 8270 <__sf_fake_stdout+0x28>
    770e:	8d1d                	sub	a0,a0,a5
    7710:	04000793          	li	a5,64
    7714:	00a797b3          	sll	a5,a5,a0
    7718:	4542                	lw	a0,16(sp)
    771a:	0405                	addi	s0,s0,1
    771c:	8d5d                	or	a0,a0,a5
    771e:	c82a                	sw	a0,16(sp)
    7720:	00044583          	lbu	a1,0(s0)
    7724:	4619                	li	a2,6
    7726:	00001517          	auipc	a0,0x1
    772a:	b4e50513          	addi	a0,a0,-1202 # 8274 <__sf_fake_stdout+0x2c>
    772e:	00140913          	addi	s2,s0,1
    7732:	02b10423          	sb	a1,40(sp)
    7736:	2d29                	jal	7d50 <memchr>
    7738:	c13d                	beqz	a0,779e <_vfiprintf_r+0x288>
    773a:	ffff9797          	auipc	a5,0xffff9
    773e:	8c678793          	addi	a5,a5,-1850 # 0 <_sinit>
    7742:	e795                	bnez	a5,776e <_vfiprintf_r+0x258>
    7744:	4742                	lw	a4,16(sp)
    7746:	47b2                	lw	a5,12(sp)
    7748:	10077713          	andi	a4,a4,256
    774c:	cf09                	beqz	a4,7766 <_vfiprintf_r+0x250>
    774e:	0791                	addi	a5,a5,4
    7750:	c63e                	sw	a5,12(sp)
    7752:	5792                	lw	a5,36(sp)
    7754:	97d2                	add	a5,a5,s4
    7756:	d23e                	sw	a5,36(sp)
    7758:	b525                	j	7580 <_vfiprintf_r+0x6a>
    775a:	036787b3          	mul	a5,a5,s6
    775e:	4685                	li	a3,1
    7760:	842e                	mv	s0,a1
    7762:	97ba                	add	a5,a5,a4
    7764:	bfbd                	j	76e2 <_vfiprintf_r+0x1cc>
    7766:	079d                	addi	a5,a5,7
    7768:	9be1                	andi	a5,a5,-8
    776a:	07a1                	addi	a5,a5,8
    776c:	b7d5                	j	7750 <_vfiprintf_r+0x23a>
    776e:	0078                	addi	a4,sp,12
    7770:	00000697          	auipc	a3,0x0
    7774:	d6268693          	addi	a3,a3,-670 # 74d2 <__sfputs_r>
    7778:	8626                	mv	a2,s1
    777a:	080c                	addi	a1,sp,16
    777c:	854e                	mv	a0,s3
    777e:	00000097          	auipc	ra,0x0
    7782:	000000e7          	jalr	zero # 0 <_sinit>
    7786:	57fd                	li	a5,-1
    7788:	8a2a                	mv	s4,a0
    778a:	fcf514e3          	bne	a0,a5,7752 <_vfiprintf_r+0x23c>
    778e:	00c4d783          	lhu	a5,12(s1)
    7792:	0407f793          	andi	a5,a5,64
    7796:	ea079ce3          	bnez	a5,764e <_vfiprintf_r+0x138>
    779a:	5512                	lw	a0,36(sp)
    779c:	bd55                	j	7650 <_vfiprintf_r+0x13a>
    779e:	0078                	addi	a4,sp,12
    77a0:	00000697          	auipc	a3,0x0
    77a4:	d3268693          	addi	a3,a3,-718 # 74d2 <__sfputs_r>
    77a8:	8626                	mv	a2,s1
    77aa:	080c                	addi	a1,sp,16
    77ac:	854e                	mv	a0,s3
    77ae:	2a01                	jal	78be <_printf_i>
    77b0:	bfd9                	j	7786 <_vfiprintf_r+0x270>

000077b2 <_printf_common>:
    77b2:	7179                	addi	sp,sp,-48
    77b4:	ca56                	sw	s5,20(sp)
    77b6:	499c                	lw	a5,16(a1)
    77b8:	8aba                	mv	s5,a4
    77ba:	4598                	lw	a4,8(a1)
    77bc:	d422                	sw	s0,40(sp)
    77be:	d226                	sw	s1,36(sp)
    77c0:	ce4e                	sw	s3,28(sp)
    77c2:	cc52                	sw	s4,24(sp)
    77c4:	d606                	sw	ra,44(sp)
    77c6:	d04a                	sw	s2,32(sp)
    77c8:	c85a                	sw	s6,16(sp)
    77ca:	c65e                	sw	s7,12(sp)
    77cc:	89aa                	mv	s3,a0
    77ce:	842e                	mv	s0,a1
    77d0:	84b2                	mv	s1,a2
    77d2:	8a36                	mv	s4,a3
    77d4:	00e7d363          	bge	a5,a4,77da <_printf_common+0x28>
    77d8:	87ba                	mv	a5,a4
    77da:	c09c                	sw	a5,0(s1)
    77dc:	04344703          	lbu	a4,67(s0)
    77e0:	c319                	beqz	a4,77e6 <_printf_common+0x34>
    77e2:	0785                	addi	a5,a5,1
    77e4:	c09c                	sw	a5,0(s1)
    77e6:	401c                	lw	a5,0(s0)
    77e8:	0207f793          	andi	a5,a5,32
    77ec:	c781                	beqz	a5,77f4 <_printf_common+0x42>
    77ee:	409c                	lw	a5,0(s1)
    77f0:	0789                	addi	a5,a5,2
    77f2:	c09c                	sw	a5,0(s1)
    77f4:	00042903          	lw	s2,0(s0)
    77f8:	00697913          	andi	s2,s2,6
    77fc:	00091a63          	bnez	s2,7810 <_printf_common+0x5e>
    7800:	01940b13          	addi	s6,s0,25
    7804:	5bfd                	li	s7,-1
    7806:	445c                	lw	a5,12(s0)
    7808:	4098                	lw	a4,0(s1)
    780a:	8f99                	sub	a5,a5,a4
    780c:	04f94c63          	blt	s2,a5,7864 <_printf_common+0xb2>
    7810:	401c                	lw	a5,0(s0)
    7812:	04344683          	lbu	a3,67(s0)
    7816:	0207f793          	andi	a5,a5,32
    781a:	00d036b3          	snez	a3,a3
    781e:	eba5                	bnez	a5,788e <_printf_common+0xdc>
    7820:	04340613          	addi	a2,s0,67
    7824:	85d2                	mv	a1,s4
    7826:	854e                	mv	a0,s3
    7828:	9a82                	jalr	s5
    782a:	57fd                	li	a5,-1
    782c:	04f50363          	beq	a0,a5,7872 <_printf_common+0xc0>
    7830:	401c                	lw	a5,0(s0)
    7832:	4611                	li	a2,4
    7834:	4098                	lw	a4,0(s1)
    7836:	8b99                	andi	a5,a5,6
    7838:	4454                	lw	a3,12(s0)
    783a:	4481                	li	s1,0
    783c:	00c79763          	bne	a5,a2,784a <_printf_common+0x98>
    7840:	40e684b3          	sub	s1,a3,a4
    7844:	0004d363          	bgez	s1,784a <_printf_common+0x98>
    7848:	4481                	li	s1,0
    784a:	441c                	lw	a5,8(s0)
    784c:	4818                	lw	a4,16(s0)
    784e:	00f75463          	bge	a4,a5,7856 <_printf_common+0xa4>
    7852:	8f99                	sub	a5,a5,a4
    7854:	94be                	add	s1,s1,a5
    7856:	4901                	li	s2,0
    7858:	0469                	addi	s0,s0,26
    785a:	5b7d                	li	s6,-1
    785c:	05249863          	bne	s1,s2,78ac <_printf_common+0xfa>
    7860:	4501                	li	a0,0
    7862:	a809                	j	7874 <_printf_common+0xc2>
    7864:	4685                	li	a3,1
    7866:	865a                	mv	a2,s6
    7868:	85d2                	mv	a1,s4
    786a:	854e                	mv	a0,s3
    786c:	9a82                	jalr	s5
    786e:	01751e63          	bne	a0,s7,788a <_printf_common+0xd8>
    7872:	557d                	li	a0,-1
    7874:	50b2                	lw	ra,44(sp)
    7876:	5422                	lw	s0,40(sp)
    7878:	5492                	lw	s1,36(sp)
    787a:	5902                	lw	s2,32(sp)
    787c:	49f2                	lw	s3,28(sp)
    787e:	4a62                	lw	s4,24(sp)
    7880:	4ad2                	lw	s5,20(sp)
    7882:	4b42                	lw	s6,16(sp)
    7884:	4bb2                	lw	s7,12(sp)
    7886:	6145                	addi	sp,sp,48
    7888:	8082                	ret
    788a:	0905                	addi	s2,s2,1
    788c:	bfad                	j	7806 <_printf_common+0x54>
    788e:	00d40733          	add	a4,s0,a3
    7892:	03000613          	li	a2,48
    7896:	04c701a3          	sb	a2,67(a4)
    789a:	04544703          	lbu	a4,69(s0)
    789e:	00168793          	addi	a5,a3,1
    78a2:	97a2                	add	a5,a5,s0
    78a4:	0689                	addi	a3,a3,2
    78a6:	04e781a3          	sb	a4,67(a5)
    78aa:	bf9d                	j	7820 <_printf_common+0x6e>
    78ac:	4685                	li	a3,1
    78ae:	8622                	mv	a2,s0
    78b0:	85d2                	mv	a1,s4
    78b2:	854e                	mv	a0,s3
    78b4:	9a82                	jalr	s5
    78b6:	fb650ee3          	beq	a0,s6,7872 <_printf_common+0xc0>
    78ba:	0905                	addi	s2,s2,1
    78bc:	b745                	j	785c <_printf_common+0xaa>

000078be <_printf_i>:
    78be:	7179                	addi	sp,sp,-48
    78c0:	d422                	sw	s0,40(sp)
    78c2:	d226                	sw	s1,36(sp)
    78c4:	d04a                	sw	s2,32(sp)
    78c6:	ce4e                	sw	s3,28(sp)
    78c8:	d606                	sw	ra,44(sp)
    78ca:	cc52                	sw	s4,24(sp)
    78cc:	ca56                	sw	s5,20(sp)
    78ce:	c85a                	sw	s6,16(sp)
    78d0:	89b6                	mv	s3,a3
    78d2:	0185c683          	lbu	a3,24(a1)
    78d6:	06900793          	li	a5,105
    78da:	8932                	mv	s2,a2
    78dc:	84aa                	mv	s1,a0
    78de:	842e                	mv	s0,a1
    78e0:	04358613          	addi	a2,a1,67
    78e4:	02f68d63          	beq	a3,a5,791e <_printf_i+0x60>
    78e8:	06d7e263          	bltu	a5,a3,794c <_printf_i+0x8e>
    78ec:	05800793          	li	a5,88
    78f0:	18f68863          	beq	a3,a5,7a80 <_printf_i+0x1c2>
    78f4:	00d7ed63          	bltu	a5,a3,790e <_printf_i+0x50>
    78f8:	22068163          	beqz	a3,7b1a <_printf_i+0x25c>
    78fc:	04300793          	li	a5,67
    7900:	0af68e63          	beq	a3,a5,79bc <_printf_i+0xfe>
    7904:	04240a93          	addi	s5,s0,66
    7908:	04d40123          	sb	a3,66(s0)
    790c:	a0c9                	j	79ce <_printf_i+0x110>
    790e:	06300793          	li	a5,99
    7912:	0af68563          	beq	a3,a5,79bc <_printf_i+0xfe>
    7916:	06400793          	li	a5,100
    791a:	fef695e3          	bne	a3,a5,7904 <_printf_i+0x46>
    791e:	401c                	lw	a5,0(s0)
    7920:	4308                	lw	a0,0(a4)
    7922:	0807f693          	andi	a3,a5,128
    7926:	00450593          	addi	a1,a0,4
    792a:	c6c5                	beqz	a3,79d2 <_printf_i+0x114>
    792c:	411c                	lw	a5,0(a0)
    792e:	c30c                	sw	a1,0(a4)
    7930:	0007d863          	bgez	a5,7940 <_printf_i+0x82>
    7934:	02d00713          	li	a4,45
    7938:	40f007b3          	neg	a5,a5
    793c:	04e401a3          	sb	a4,67(s0)
    7940:	00001697          	auipc	a3,0x1
    7944:	93c68693          	addi	a3,a3,-1732 # 827c <__sf_fake_stdout+0x34>
    7948:	4729                	li	a4,10
    794a:	a86d                	j	7a04 <_printf_i+0x146>
    794c:	07000793          	li	a5,112
    7950:	16f68463          	beq	a3,a5,7ab8 <_printf_i+0x1fa>
    7954:	02d7e563          	bltu	a5,a3,797e <_printf_i+0xc0>
    7958:	06e00793          	li	a5,110
    795c:	18f68b63          	beq	a3,a5,7af2 <_printf_i+0x234>
    7960:	06f00793          	li	a5,111
    7964:	faf690e3          	bne	a3,a5,7904 <_printf_i+0x46>
    7968:	400c                	lw	a1,0(s0)
    796a:	431c                	lw	a5,0(a4)
    796c:	0805f813          	andi	a6,a1,128
    7970:	00478513          	addi	a0,a5,4
    7974:	06080763          	beqz	a6,79e2 <_printf_i+0x124>
    7978:	c308                	sw	a0,0(a4)
    797a:	439c                	lw	a5,0(a5)
    797c:	a88d                	j	79ee <_printf_i+0x130>
    797e:	07500793          	li	a5,117
    7982:	fef683e3          	beq	a3,a5,7968 <_printf_i+0xaa>
    7986:	07800793          	li	a5,120
    798a:	12f68b63          	beq	a3,a5,7ac0 <_printf_i+0x202>
    798e:	07300793          	li	a5,115
    7992:	f6f699e3          	bne	a3,a5,7904 <_printf_i+0x46>
    7996:	431c                	lw	a5,0(a4)
    7998:	41d0                	lw	a2,4(a1)
    799a:	4581                	li	a1,0
    799c:	00478693          	addi	a3,a5,4
    79a0:	c314                	sw	a3,0(a4)
    79a2:	0007aa83          	lw	s5,0(a5)
    79a6:	8556                	mv	a0,s5
    79a8:	2665                	jal	7d50 <memchr>
    79aa:	c501                	beqz	a0,79b2 <_printf_i+0xf4>
    79ac:	41550533          	sub	a0,a0,s5
    79b0:	c048                	sw	a0,4(s0)
    79b2:	405c                	lw	a5,4(s0)
    79b4:	c81c                	sw	a5,16(s0)
    79b6:	040401a3          	sb	zero,67(s0)
    79ba:	a871                	j	7a56 <_printf_i+0x198>
    79bc:	431c                	lw	a5,0(a4)
    79be:	04240a93          	addi	s5,s0,66
    79c2:	00478693          	addi	a3,a5,4
    79c6:	439c                	lw	a5,0(a5)
    79c8:	c314                	sw	a3,0(a4)
    79ca:	04f40123          	sb	a5,66(s0)
    79ce:	4785                	li	a5,1
    79d0:	b7d5                	j	79b4 <_printf_i+0xf6>
    79d2:	0407f693          	andi	a3,a5,64
    79d6:	411c                	lw	a5,0(a0)
    79d8:	c30c                	sw	a1,0(a4)
    79da:	dab9                	beqz	a3,7930 <_printf_i+0x72>
    79dc:	07c2                	slli	a5,a5,0x10
    79de:	87c1                	srai	a5,a5,0x10
    79e0:	bf81                	j	7930 <_printf_i+0x72>
    79e2:	0405f593          	andi	a1,a1,64
    79e6:	c308                	sw	a0,0(a4)
    79e8:	d9c9                	beqz	a1,797a <_printf_i+0xbc>
    79ea:	0007d783          	lhu	a5,0(a5)
    79ee:	06f00713          	li	a4,111
    79f2:	0ee68863          	beq	a3,a4,7ae2 <_printf_i+0x224>
    79f6:	00001697          	auipc	a3,0x1
    79fa:	88668693          	addi	a3,a3,-1914 # 827c <__sf_fake_stdout+0x34>
    79fe:	4729                	li	a4,10
    7a00:	040401a3          	sb	zero,67(s0)
    7a04:	404c                	lw	a1,4(s0)
    7a06:	c40c                	sw	a1,8(s0)
    7a08:	0005c563          	bltz	a1,7a12 <_printf_i+0x154>
    7a0c:	4008                	lw	a0,0(s0)
    7a0e:	996d                	andi	a0,a0,-5
    7a10:	c008                	sw	a0,0(s0)
    7a12:	e399                	bnez	a5,7a18 <_printf_i+0x15a>
    7a14:	8ab2                	mv	s5,a2
    7a16:	cd91                	beqz	a1,7a32 <_printf_i+0x174>
    7a18:	8ab2                	mv	s5,a2
    7a1a:	02e7f5b3          	remu	a1,a5,a4
    7a1e:	1afd                	addi	s5,s5,-1
    7a20:	95b6                	add	a1,a1,a3
    7a22:	0005c583          	lbu	a1,0(a1)
    7a26:	00ba8023          	sb	a1,0(s5)
    7a2a:	02e7d5b3          	divu	a1,a5,a4
    7a2e:	0ce7f063          	bgeu	a5,a4,7aee <_printf_i+0x230>
    7a32:	47a1                	li	a5,8
    7a34:	00f71e63          	bne	a4,a5,7a50 <_printf_i+0x192>
    7a38:	401c                	lw	a5,0(s0)
    7a3a:	8b85                	andi	a5,a5,1
    7a3c:	cb91                	beqz	a5,7a50 <_printf_i+0x192>
    7a3e:	4058                	lw	a4,4(s0)
    7a40:	481c                	lw	a5,16(s0)
    7a42:	00e7c763          	blt	a5,a4,7a50 <_printf_i+0x192>
    7a46:	03000793          	li	a5,48
    7a4a:	fefa8fa3          	sb	a5,-1(s5)
    7a4e:	1afd                	addi	s5,s5,-1
    7a50:	41560633          	sub	a2,a2,s5
    7a54:	c810                	sw	a2,16(s0)
    7a56:	874e                	mv	a4,s3
    7a58:	86ca                	mv	a3,s2
    7a5a:	0070                	addi	a2,sp,12
    7a5c:	85a2                	mv	a1,s0
    7a5e:	8526                	mv	a0,s1
    7a60:	d53ff0ef          	jal	ra,77b2 <_printf_common>
    7a64:	5a7d                	li	s4,-1
    7a66:	0b451e63          	bne	a0,s4,7b22 <_printf_i+0x264>
    7a6a:	557d                	li	a0,-1
    7a6c:	50b2                	lw	ra,44(sp)
    7a6e:	5422                	lw	s0,40(sp)
    7a70:	5492                	lw	s1,36(sp)
    7a72:	5902                	lw	s2,32(sp)
    7a74:	49f2                	lw	s3,28(sp)
    7a76:	4a62                	lw	s4,24(sp)
    7a78:	4ad2                	lw	s5,20(sp)
    7a7a:	4b42                	lw	s6,16(sp)
    7a7c:	6145                	addi	sp,sp,48
    7a7e:	8082                	ret
    7a80:	04d582a3          	sb	a3,69(a1)
    7a84:	00000697          	auipc	a3,0x0
    7a88:	7f868693          	addi	a3,a3,2040 # 827c <__sf_fake_stdout+0x34>
    7a8c:	400c                	lw	a1,0(s0)
    7a8e:	4308                	lw	a0,0(a4)
    7a90:	0805f813          	andi	a6,a1,128
    7a94:	411c                	lw	a5,0(a0)
    7a96:	0511                	addi	a0,a0,4
    7a98:	02080d63          	beqz	a6,7ad2 <_printf_i+0x214>
    7a9c:	c308                	sw	a0,0(a4)
    7a9e:	0015f713          	andi	a4,a1,1
    7aa2:	c701                	beqz	a4,7aaa <_printf_i+0x1ec>
    7aa4:	0205e593          	ori	a1,a1,32
    7aa8:	c00c                	sw	a1,0(s0)
    7aaa:	4741                	li	a4,16
    7aac:	fbb1                	bnez	a5,7a00 <_printf_i+0x142>
    7aae:	400c                	lw	a1,0(s0)
    7ab0:	fdf5f593          	andi	a1,a1,-33
    7ab4:	c00c                	sw	a1,0(s0)
    7ab6:	b7a9                	j	7a00 <_printf_i+0x142>
    7ab8:	419c                	lw	a5,0(a1)
    7aba:	0207e793          	ori	a5,a5,32
    7abe:	c19c                	sw	a5,0(a1)
    7ac0:	07800793          	li	a5,120
    7ac4:	04f402a3          	sb	a5,69(s0)
    7ac8:	00000697          	auipc	a3,0x0
    7acc:	7c868693          	addi	a3,a3,1992 # 8290 <__sf_fake_stdout+0x48>
    7ad0:	bf75                	j	7a8c <_printf_i+0x1ce>
    7ad2:	0405f813          	andi	a6,a1,64
    7ad6:	c308                	sw	a0,0(a4)
    7ad8:	fc0803e3          	beqz	a6,7a9e <_printf_i+0x1e0>
    7adc:	07c2                	slli	a5,a5,0x10
    7ade:	83c1                	srli	a5,a5,0x10
    7ae0:	bf7d                	j	7a9e <_printf_i+0x1e0>
    7ae2:	00000697          	auipc	a3,0x0
    7ae6:	79a68693          	addi	a3,a3,1946 # 827c <__sf_fake_stdout+0x34>
    7aea:	4721                	li	a4,8
    7aec:	bf11                	j	7a00 <_printf_i+0x142>
    7aee:	87ae                	mv	a5,a1
    7af0:	b72d                	j	7a1a <_printf_i+0x15c>
    7af2:	4194                	lw	a3,0(a1)
    7af4:	431c                	lw	a5,0(a4)
    7af6:	49cc                	lw	a1,20(a1)
    7af8:	0806f813          	andi	a6,a3,128
    7afc:	00478513          	addi	a0,a5,4
    7b00:	00080663          	beqz	a6,7b0c <_printf_i+0x24e>
    7b04:	c308                	sw	a0,0(a4)
    7b06:	439c                	lw	a5,0(a5)
    7b08:	c38c                	sw	a1,0(a5)
    7b0a:	a801                	j	7b1a <_printf_i+0x25c>
    7b0c:	c308                	sw	a0,0(a4)
    7b0e:	0406f693          	andi	a3,a3,64
    7b12:	439c                	lw	a5,0(a5)
    7b14:	daf5                	beqz	a3,7b08 <_printf_i+0x24a>
    7b16:	00b79023          	sh	a1,0(a5)
    7b1a:	00042823          	sw	zero,16(s0)
    7b1e:	8ab2                	mv	s5,a2
    7b20:	bf1d                	j	7a56 <_printf_i+0x198>
    7b22:	4814                	lw	a3,16(s0)
    7b24:	8656                	mv	a2,s5
    7b26:	85ca                	mv	a1,s2
    7b28:	8526                	mv	a0,s1
    7b2a:	9982                	jalr	s3
    7b2c:	f3450fe3          	beq	a0,s4,7a6a <_printf_i+0x1ac>
    7b30:	401c                	lw	a5,0(s0)
    7b32:	8b89                	andi	a5,a5,2
    7b34:	e78d                	bnez	a5,7b5e <_printf_i+0x2a0>
    7b36:	47b2                	lw	a5,12(sp)
    7b38:	4448                	lw	a0,12(s0)
    7b3a:	f2f559e3          	bge	a0,a5,7a6c <_printf_i+0x1ae>
    7b3e:	853e                	mv	a0,a5
    7b40:	b735                	j	7a6c <_printf_i+0x1ae>
    7b42:	4685                	li	a3,1
    7b44:	8656                	mv	a2,s5
    7b46:	85ca                	mv	a1,s2
    7b48:	8526                	mv	a0,s1
    7b4a:	9982                	jalr	s3
    7b4c:	f1650fe3          	beq	a0,s6,7a6a <_printf_i+0x1ac>
    7b50:	0a05                	addi	s4,s4,1
    7b52:	445c                	lw	a5,12(s0)
    7b54:	4732                	lw	a4,12(sp)
    7b56:	8f99                	sub	a5,a5,a4
    7b58:	fefa45e3          	blt	s4,a5,7b42 <_printf_i+0x284>
    7b5c:	bfe9                	j	7b36 <_printf_i+0x278>
    7b5e:	4a01                	li	s4,0
    7b60:	01940a93          	addi	s5,s0,25
    7b64:	5b7d                	li	s6,-1
    7b66:	b7f5                	j	7b52 <_printf_i+0x294>

00007b68 <_sbrk_r>:
    7b68:	1141                	addi	sp,sp,-16
    7b6a:	c422                	sw	s0,8(sp)
    7b6c:	842a                	mv	s0,a0
    7b6e:	852e                	mv	a0,a1
    7b70:	1fffb797          	auipc	a5,0x1fffb
    7b74:	7607a823          	sw	zero,1904(a5) # 200032e0 <errno>
    7b78:	c606                	sw	ra,12(sp)
    7b7a:	81ffc0ef          	jal	ra,4398 <_sbrk>
    7b7e:	57fd                	li	a5,-1
    7b80:	00f51963          	bne	a0,a5,7b92 <_sbrk_r+0x2a>
    7b84:	1fffb797          	auipc	a5,0x1fffb
    7b88:	75c78793          	addi	a5,a5,1884 # 200032e0 <errno>
    7b8c:	439c                	lw	a5,0(a5)
    7b8e:	c391                	beqz	a5,7b92 <_sbrk_r+0x2a>
    7b90:	c01c                	sw	a5,0(s0)
    7b92:	40b2                	lw	ra,12(sp)
    7b94:	4422                	lw	s0,8(sp)
    7b96:	0141                	addi	sp,sp,16
    7b98:	8082                	ret

00007b9a <__sread>:
    7b9a:	1141                	addi	sp,sp,-16
    7b9c:	c422                	sw	s0,8(sp)
    7b9e:	842e                	mv	s0,a1
    7ba0:	00e59583          	lh	a1,14(a1)
    7ba4:	c606                	sw	ra,12(sp)
    7ba6:	22e1                	jal	7d6e <_read_r>
    7ba8:	00054963          	bltz	a0,7bba <__sread+0x20>
    7bac:	487c                	lw	a5,84(s0)
    7bae:	97aa                	add	a5,a5,a0
    7bb0:	c87c                	sw	a5,84(s0)
    7bb2:	40b2                	lw	ra,12(sp)
    7bb4:	4422                	lw	s0,8(sp)
    7bb6:	0141                	addi	sp,sp,16
    7bb8:	8082                	ret
    7bba:	00c45783          	lhu	a5,12(s0)
    7bbe:	777d                	lui	a4,0xfffff
    7bc0:	177d                	addi	a4,a4,-1
    7bc2:	8ff9                	and	a5,a5,a4
    7bc4:	00f41623          	sh	a5,12(s0)
    7bc8:	b7ed                	j	7bb2 <__sread+0x18>

00007bca <__swrite>:
    7bca:	00c5d783          	lhu	a5,12(a1)
    7bce:	1101                	addi	sp,sp,-32
    7bd0:	cc22                	sw	s0,24(sp)
    7bd2:	ca26                	sw	s1,20(sp)
    7bd4:	c84a                	sw	s2,16(sp)
    7bd6:	c64e                	sw	s3,12(sp)
    7bd8:	ce06                	sw	ra,28(sp)
    7bda:	1007f793          	andi	a5,a5,256
    7bde:	84aa                	mv	s1,a0
    7be0:	842e                	mv	s0,a1
    7be2:	8932                	mv	s2,a2
    7be4:	89b6                	mv	s3,a3
    7be6:	c791                	beqz	a5,7bf2 <__swrite+0x28>
    7be8:	00e59583          	lh	a1,14(a1)
    7bec:	4689                	li	a3,2
    7bee:	4601                	li	a2,0
    7bf0:	2235                	jal	7d1c <_lseek_r>
    7bf2:	00c45783          	lhu	a5,12(s0)
    7bf6:	777d                	lui	a4,0xfffff
    7bf8:	177d                	addi	a4,a4,-1
    7bfa:	8ff9                	and	a5,a5,a4
    7bfc:	00f41623          	sh	a5,12(s0)
    7c00:	00e41583          	lh	a1,14(s0)
    7c04:	4462                	lw	s0,24(sp)
    7c06:	40f2                	lw	ra,28(sp)
    7c08:	86ce                	mv	a3,s3
    7c0a:	864a                	mv	a2,s2
    7c0c:	49b2                	lw	s3,12(sp)
    7c0e:	4942                	lw	s2,16(sp)
    7c10:	8526                	mv	a0,s1
    7c12:	44d2                	lw	s1,20(sp)
    7c14:	6105                	addi	sp,sp,32
    7c16:	a83d                	j	7c54 <_write_r>

00007c18 <__sseek>:
    7c18:	1141                	addi	sp,sp,-16
    7c1a:	c422                	sw	s0,8(sp)
    7c1c:	842e                	mv	s0,a1
    7c1e:	00e59583          	lh	a1,14(a1)
    7c22:	c606                	sw	ra,12(sp)
    7c24:	28e5                	jal	7d1c <_lseek_r>
    7c26:	57fd                	li	a5,-1
    7c28:	00c45703          	lhu	a4,12(s0)
    7c2c:	00f51b63          	bne	a0,a5,7c42 <__sseek+0x2a>
    7c30:	77fd                	lui	a5,0xfffff
    7c32:	17fd                	addi	a5,a5,-1
    7c34:	8ff9                	and	a5,a5,a4
    7c36:	00f41623          	sh	a5,12(s0)
    7c3a:	40b2                	lw	ra,12(sp)
    7c3c:	4422                	lw	s0,8(sp)
    7c3e:	0141                	addi	sp,sp,16
    7c40:	8082                	ret
    7c42:	6785                	lui	a5,0x1
    7c44:	8fd9                	or	a5,a5,a4
    7c46:	00f41623          	sh	a5,12(s0)
    7c4a:	c868                	sw	a0,84(s0)
    7c4c:	b7fd                	j	7c3a <__sseek+0x22>

00007c4e <__sclose>:
    7c4e:	00e59583          	lh	a1,14(a1)
    7c52:	a825                	j	7c8a <_close_r>

00007c54 <_write_r>:
    7c54:	1141                	addi	sp,sp,-16
    7c56:	c422                	sw	s0,8(sp)
    7c58:	842a                	mv	s0,a0
    7c5a:	852e                	mv	a0,a1
    7c5c:	85b2                	mv	a1,a2
    7c5e:	8636                	mv	a2,a3
    7c60:	1fffb797          	auipc	a5,0x1fffb
    7c64:	6807a023          	sw	zero,1664(a5) # 200032e0 <errno>
    7c68:	c606                	sw	ra,12(sp)
    7c6a:	ebcfc0ef          	jal	ra,4326 <_write>
    7c6e:	57fd                	li	a5,-1
    7c70:	00f51963          	bne	a0,a5,7c82 <_write_r+0x2e>
    7c74:	1fffb797          	auipc	a5,0x1fffb
    7c78:	66c78793          	addi	a5,a5,1644 # 200032e0 <errno>
    7c7c:	439c                	lw	a5,0(a5)
    7c7e:	c391                	beqz	a5,7c82 <_write_r+0x2e>
    7c80:	c01c                	sw	a5,0(s0)
    7c82:	40b2                	lw	ra,12(sp)
    7c84:	4422                	lw	s0,8(sp)
    7c86:	0141                	addi	sp,sp,16
    7c88:	8082                	ret

00007c8a <_close_r>:
    7c8a:	1141                	addi	sp,sp,-16
    7c8c:	c422                	sw	s0,8(sp)
    7c8e:	842a                	mv	s0,a0
    7c90:	852e                	mv	a0,a1
    7c92:	1fffb797          	auipc	a5,0x1fffb
    7c96:	6407a723          	sw	zero,1614(a5) # 200032e0 <errno>
    7c9a:	c606                	sw	ra,12(sp)
    7c9c:	2219                	jal	7da2 <_close>
    7c9e:	57fd                	li	a5,-1
    7ca0:	00f51963          	bne	a0,a5,7cb2 <_close_r+0x28>
    7ca4:	1fffb797          	auipc	a5,0x1fffb
    7ca8:	63c78793          	addi	a5,a5,1596 # 200032e0 <errno>
    7cac:	439c                	lw	a5,0(a5)
    7cae:	c391                	beqz	a5,7cb2 <_close_r+0x28>
    7cb0:	c01c                	sw	a5,0(s0)
    7cb2:	40b2                	lw	ra,12(sp)
    7cb4:	4422                	lw	s0,8(sp)
    7cb6:	0141                	addi	sp,sp,16
    7cb8:	8082                	ret

00007cba <_fstat_r>:
    7cba:	1141                	addi	sp,sp,-16
    7cbc:	c422                	sw	s0,8(sp)
    7cbe:	842a                	mv	s0,a0
    7cc0:	852e                	mv	a0,a1
    7cc2:	85b2                	mv	a1,a2
    7cc4:	1fffb797          	auipc	a5,0x1fffb
    7cc8:	6007ae23          	sw	zero,1564(a5) # 200032e0 <errno>
    7ccc:	c606                	sw	ra,12(sp)
    7cce:	20d5                	jal	7db2 <_fstat>
    7cd0:	57fd                	li	a5,-1
    7cd2:	00f51963          	bne	a0,a5,7ce4 <_fstat_r+0x2a>
    7cd6:	1fffb797          	auipc	a5,0x1fffb
    7cda:	60a78793          	addi	a5,a5,1546 # 200032e0 <errno>
    7cde:	439c                	lw	a5,0(a5)
    7ce0:	c391                	beqz	a5,7ce4 <_fstat_r+0x2a>
    7ce2:	c01c                	sw	a5,0(s0)
    7ce4:	40b2                	lw	ra,12(sp)
    7ce6:	4422                	lw	s0,8(sp)
    7ce8:	0141                	addi	sp,sp,16
    7cea:	8082                	ret

00007cec <_isatty_r>:
    7cec:	1141                	addi	sp,sp,-16
    7cee:	c422                	sw	s0,8(sp)
    7cf0:	842a                	mv	s0,a0
    7cf2:	852e                	mv	a0,a1
    7cf4:	1fffb797          	auipc	a5,0x1fffb
    7cf8:	5e07a623          	sw	zero,1516(a5) # 200032e0 <errno>
    7cfc:	c606                	sw	ra,12(sp)
    7cfe:	20d1                	jal	7dc2 <_isatty>
    7d00:	57fd                	li	a5,-1
    7d02:	00f51963          	bne	a0,a5,7d14 <_isatty_r+0x28>
    7d06:	1fffb797          	auipc	a5,0x1fffb
    7d0a:	5da78793          	addi	a5,a5,1498 # 200032e0 <errno>
    7d0e:	439c                	lw	a5,0(a5)
    7d10:	c391                	beqz	a5,7d14 <_isatty_r+0x28>
    7d12:	c01c                	sw	a5,0(s0)
    7d14:	40b2                	lw	ra,12(sp)
    7d16:	4422                	lw	s0,8(sp)
    7d18:	0141                	addi	sp,sp,16
    7d1a:	8082                	ret

00007d1c <_lseek_r>:
    7d1c:	1141                	addi	sp,sp,-16
    7d1e:	c422                	sw	s0,8(sp)
    7d20:	842a                	mv	s0,a0
    7d22:	852e                	mv	a0,a1
    7d24:	85b2                	mv	a1,a2
    7d26:	8636                	mv	a2,a3
    7d28:	1fffb797          	auipc	a5,0x1fffb
    7d2c:	5a07ac23          	sw	zero,1464(a5) # 200032e0 <errno>
    7d30:	c606                	sw	ra,12(sp)
    7d32:	2045                	jal	7dd2 <_lseek>
    7d34:	57fd                	li	a5,-1
    7d36:	00f51963          	bne	a0,a5,7d48 <_lseek_r+0x2c>
    7d3a:	1fffb797          	auipc	a5,0x1fffb
    7d3e:	5a678793          	addi	a5,a5,1446 # 200032e0 <errno>
    7d42:	439c                	lw	a5,0(a5)
    7d44:	c391                	beqz	a5,7d48 <_lseek_r+0x2c>
    7d46:	c01c                	sw	a5,0(s0)
    7d48:	40b2                	lw	ra,12(sp)
    7d4a:	4422                	lw	s0,8(sp)
    7d4c:	0141                	addi	sp,sp,16
    7d4e:	8082                	ret

00007d50 <memchr>:
    7d50:	0ff5f593          	andi	a1,a1,255
    7d54:	962a                	add	a2,a2,a0
    7d56:	00c51463          	bne	a0,a2,7d5e <memchr+0xe>
    7d5a:	4501                	li	a0,0
    7d5c:	8082                	ret
    7d5e:	00054783          	lbu	a5,0(a0)
    7d62:	feb78de3          	beq	a5,a1,7d5c <memchr+0xc>
    7d66:	0505                	addi	a0,a0,1
    7d68:	b7fd                	j	7d56 <memchr+0x6>

00007d6a <__malloc_lock>:
    7d6a:	8082                	ret

00007d6c <__malloc_unlock>:
    7d6c:	8082                	ret

00007d6e <_read_r>:
    7d6e:	1141                	addi	sp,sp,-16
    7d70:	c422                	sw	s0,8(sp)
    7d72:	842a                	mv	s0,a0
    7d74:	852e                	mv	a0,a1
    7d76:	85b2                	mv	a1,a2
    7d78:	8636                	mv	a2,a3
    7d7a:	1fffb797          	auipc	a5,0x1fffb
    7d7e:	5607a323          	sw	zero,1382(a5) # 200032e0 <errno>
    7d82:	c606                	sw	ra,12(sp)
    7d84:	28b9                	jal	7de2 <_read>
    7d86:	57fd                	li	a5,-1
    7d88:	00f51963          	bne	a0,a5,7d9a <_read_r+0x2c>
    7d8c:	1fffb797          	auipc	a5,0x1fffb
    7d90:	55478793          	addi	a5,a5,1364 # 200032e0 <errno>
    7d94:	439c                	lw	a5,0(a5)
    7d96:	c391                	beqz	a5,7d9a <_read_r+0x2c>
    7d98:	c01c                	sw	a5,0(s0)
    7d9a:	40b2                	lw	ra,12(sp)
    7d9c:	4422                	lw	s0,8(sp)
    7d9e:	0141                	addi	sp,sp,16
    7da0:	8082                	ret

00007da2 <_close>:
    7da2:	05800793          	li	a5,88
    7da6:	1fffb717          	auipc	a4,0x1fffb
    7daa:	52f72d23          	sw	a5,1338(a4) # 200032e0 <errno>
    7dae:	557d                	li	a0,-1
    7db0:	8082                	ret

00007db2 <_fstat>:
    7db2:	05800793          	li	a5,88
    7db6:	1fffb717          	auipc	a4,0x1fffb
    7dba:	52f72523          	sw	a5,1322(a4) # 200032e0 <errno>
    7dbe:	557d                	li	a0,-1
    7dc0:	8082                	ret

00007dc2 <_isatty>:
    7dc2:	05800793          	li	a5,88
    7dc6:	1fffb717          	auipc	a4,0x1fffb
    7dca:	50f72d23          	sw	a5,1306(a4) # 200032e0 <errno>
    7dce:	4501                	li	a0,0
    7dd0:	8082                	ret

00007dd2 <_lseek>:
    7dd2:	05800793          	li	a5,88
    7dd6:	1fffb717          	auipc	a4,0x1fffb
    7dda:	50f72523          	sw	a5,1290(a4) # 200032e0 <errno>
    7dde:	557d                	li	a0,-1
    7de0:	8082                	ret

00007de2 <_read>:
    7de2:	05800793          	li	a5,88
    7de6:	1fffb717          	auipc	a4,0x1fffb
    7dea:	4ef72d23          	sw	a5,1274(a4) # 200032e0 <errno>
    7dee:	557d                	li	a0,-1
    7df0:	8082                	ret
    7df2:	0000                	unimp
    7df4:	2e2e                	fld	ft8,200(sp)
    7df6:	646f432f          	0x646f432f
    7dfa:	2f65                	jal	85b2 <_data_lma+0x30e>
    7dfc:	76726553          	0x76726553
    7e00:	6369                	lui	t1,0x1a
    7e02:	2f65                	jal	85ba <_data_lma+0x316>
    7e04:	7246                	flw	ft4,112(sp)
    7e06:	6565                	lui	a0,0x19
    7e08:	5452                	lw	s0,52(sp)
    7e0a:	702f534f          	fnmadd.s	ft6,ft10,ft2,fa4,unknown
    7e0e:	6174726f          	jal	tp,4fc24 <_data_lma+0x47980>
    7e12:	6c62                	flw	fs8,24(sp)
    7e14:	2f65                	jal	85cc <_data_lma+0x328>
    7e16:	654d                	lui	a0,0x13
    7e18:	4d6d                	li	s10,27
    7e1a:	6e61                	lui	t3,0x18
    7e1c:	65682f67          	0x65682f67
    7e20:	7061                	c.lui	zero,0xffff8
    7e22:	345f 632e 0000      	0x632e345f
    7e28:	7265                	lui	tp,0xffff9
    7e2a:	2072                	fld	ft0,280(sp)
    7e2c:	7461                	lui	s0,0xffff8
    7e2e:	6c20                	flw	fs0,88(s0)
    7e30:	6e69                	lui	t3,0x1a
    7e32:	2065                	jal	7eda <_read+0xf8>
    7e34:	6425                	lui	s0,0x9
    7e36:	6f20                	flw	fs0,88(a4)
    7e38:	2066                	fld	ft0,88(sp)
    7e3a:	6966                	flw	fs2,88(sp)
    7e3c:	656c                	flw	fa1,76(a0)
    7e3e:	2220                	fld	fs0,64(a2)
    7e40:	7325                	lui	t1,0xfffe9
    7e42:	2e22                	fld	ft8,8(sp)
    7e44:	0d20                	addi	s0,sp,664
    7e46:	200a                	fld	ft0,128(sp)
    7e48:	0000                	unimp
    7e4a:	0000                	unimp
    7e4c:	2e2e                	fld	ft8,200(sp)
    7e4e:	646f432f          	0x646f432f
    7e52:	2f65                	jal	860a <_data_lma+0x366>
    7e54:	76726553          	0x76726553
    7e58:	6369                	lui	t1,0x1a
    7e5a:	2f65                	jal	8612 <_data_lma+0x36e>
    7e5c:	7246                	flw	ft4,112(sp)
    7e5e:	6565                	lui	a0,0x19
    7e60:	5452                	lw	s0,52(sp)
    7e62:	702f534f          	fnmadd.s	ft6,ft10,ft2,fa4,unknown
    7e66:	6174726f          	jal	tp,4fc7c <_data_lma+0x479d8>
    7e6a:	6c62                	flw	fs8,24(sp)
    7e6c:	2f65                	jal	8624 <_data_lma+0x380>
    7e6e:	2f434347          	fmsub.q	ft6,ft6,fs4,ft5,rmm
    7e72:	4952                	lw	s2,20(sp)
    7e74:	562d4353          	0x562d4353
    7e78:	726f702f          	0x726f702f
    7e7c:	2e74                	fld	fa3,216(a2)
    7e7e:	72650063          	beq	a0,t1,859e <_data_lma+0x2fa>
    7e82:	2072                	fld	ft0,280(sp)
    7e84:	7461                	lui	s0,0xffff8
    7e86:	6c20                	flw	fs0,88(s0)
    7e88:	6e69                	lui	t3,0x1a
    7e8a:	2065                	jal	7f32 <_read+0x150>
    7e8c:	6425                	lui	s0,0x9
    7e8e:	6f20                	flw	fs0,88(a4)
    7e90:	2066                	fld	ft0,88(sp)
    7e92:	6966                	flw	fs2,88(sp)
    7e94:	656c                	flw	fa1,76(a0)
    7e96:	2220                	fld	fs0,64(a2)
    7e98:	7325                	lui	t1,0xfffe9
    7e9a:	2e22                	fld	ft8,8(sp)
    7e9c:	0d20                	addi	s0,sp,664
    7e9e:	200a                	fld	ft0,128(sp)
    7ea0:	0000                	unimp
    7ea2:	0000                	unimp
    7ea4:	2e2e                	fld	ft8,200(sp)
    7ea6:	646f432f          	0x646f432f
    7eaa:	2f65                	jal	8662 <_data_lma+0x3be>
    7eac:	76726553          	0x76726553
    7eb0:	6369                	lui	t1,0x1a
    7eb2:	2f65                	jal	866a <_data_lma+0x3c6>
    7eb4:	7246                	flw	ft4,112(sp)
    7eb6:	6565                	lui	a0,0x19
    7eb8:	5452                	lw	s0,52(sp)
    7eba:	712f534f          	fnmadd.s	ft6,ft10,fs2,fa4,unknown
    7ebe:	6575                	lui	a0,0x1d
    7ec0:	6575                	lui	a0,0x1d
    7ec2:	632e                	flw	ft6,200(sp)
    7ec4:	0000                	unimp
    7ec6:	0000                	unimp
    7ec8:	7265                	lui	tp,0xffff9
    7eca:	2072                	fld	ft0,280(sp)
    7ecc:	7461                	lui	s0,0xffff8
    7ece:	6c20                	flw	fs0,88(s0)
    7ed0:	6e69                	lui	t3,0x1a
    7ed2:	2065                	jal	7f7a <_read+0x198>
    7ed4:	6425                	lui	s0,0x9
    7ed6:	6f20                	flw	fs0,88(a4)
    7ed8:	2066                	fld	ft0,88(sp)
    7eda:	6966                	flw	fs2,88(sp)
    7edc:	656c                	flw	fa1,76(a0)
    7ede:	2220                	fld	fs0,64(a2)
    7ee0:	7325                	lui	t1,0xfffe9
    7ee2:	2e22                	fld	ft8,8(sp)
    7ee4:	0d20                	addi	s0,sp,664
    7ee6:	200a                	fld	ft0,128(sp)
    7ee8:	0000                	unimp
    7eea:	0000                	unimp
    7eec:	2e2e                	fld	ft8,200(sp)
    7eee:	646f432f          	0x646f432f
    7ef2:	2f65                	jal	86aa <_data_lma+0x406>
    7ef4:	76726553          	0x76726553
    7ef8:	6369                	lui	t1,0x1a
    7efa:	2f65                	jal	86b2 <_data_lma+0x40e>
    7efc:	7246                	flw	ft4,112(sp)
    7efe:	6565                	lui	a0,0x19
    7f00:	5452                	lw	s0,52(sp)
    7f02:	742f534f          	0x742f534f
    7f06:	7361                	lui	t1,0xffff8
    7f08:	632e736b          	0x632e736b
    7f0c:	0000                	unimp
    7f0e:	0000                	unimp
    7f10:	7265                	lui	tp,0xffff9
    7f12:	2072                	fld	ft0,280(sp)
    7f14:	7461                	lui	s0,0xffff8
    7f16:	6c20                	flw	fs0,88(s0)
    7f18:	6e69                	lui	t3,0x1a
    7f1a:	2065                	jal	7fc2 <_read+0x1e0>
    7f1c:	6425                	lui	s0,0x9
    7f1e:	6f20                	flw	fs0,88(a4)
    7f20:	2066                	fld	ft0,88(sp)
    7f22:	6966                	flw	fs2,88(sp)
    7f24:	656c                	flw	fa1,76(a0)
    7f26:	2220                	fld	fs0,64(a2)
    7f28:	7325                	lui	t1,0xfffe9
    7f2a:	2e22                	fld	ft8,8(sp)
    7f2c:	0d20                	addi	s0,sp,664
    7f2e:	200a                	fld	ft0,128(sp)
    7f30:	0000                	unimp
    7f32:	0000                	unimp
    7f34:	4449                	li	s0,18
    7f36:	454c                	lw	a1,12(a0)
    7f38:	0000                	unimp
    7f3a:	0000                	unimp
    7f3c:	6d54                	flw	fa3,28(a0)
    7f3e:	2072                	fld	ft0,280(sp)
    7f40:	00637653          	fadd.s	fa2,ft6,ft6
    7f44:	2e2e                	fld	ft8,200(sp)
    7f46:	646f432f          	0x646f432f
    7f4a:	2f65                	jal	8702 <_data_lma+0x45e>
    7f4c:	76726553          	0x76726553
    7f50:	6369                	lui	t1,0x1a
    7f52:	2f65                	jal	870a <_data_lma+0x466>
    7f54:	7246                	flw	ft4,112(sp)
    7f56:	6565                	lui	a0,0x19
    7f58:	5452                	lw	s0,52(sp)
    7f5a:	742f534f          	0x742f534f
    7f5e:	6d69                	lui	s10,0x1a
    7f60:	7265                	lui	tp,0xffff9
    7f62:	00632e73          	csrrs	t3,0x6,t1
    7f66:	0000                	unimp
    7f68:	7265                	lui	tp,0xffff9
    7f6a:	2072                	fld	ft0,280(sp)
    7f6c:	7461                	lui	s0,0xffff8
    7f6e:	6c20                	flw	fs0,88(s0)
    7f70:	6e69                	lui	t3,0x1a
    7f72:	2065                	jal	801a <_read+0x238>
    7f74:	6425                	lui	s0,0x9
    7f76:	6f20                	flw	fs0,88(a4)
    7f78:	2066                	fld	ft0,88(sp)
    7f7a:	6966                	flw	fs2,88(sp)
    7f7c:	656c                	flw	fa1,76(a0)
    7f7e:	2220                	fld	fs0,64(a2)
    7f80:	7325                	lui	t1,0xfffe9
    7f82:	2e22                	fld	ft8,8(sp)
    7f84:	0d20                	addi	s0,sp,664
    7f86:	200a                	fld	ft0,128(sp)
    7f88:	0000                	unimp
    7f8a:	0000                	unimp
    7f8c:	6d54                	flw	fa3,28(a0)
    7f8e:	5172                	lw	sp,60(sp)
    7f90:	0000                	unimp
    7f92:	0000                	unimp
    7f94:	0001                	nop
    7f96:	0000                	unimp
    7f98:	0001                	nop
    7f9a:	0000                	unimp
    7f9c:	0000                	unimp
    7f9e:	0000                	unimp
    7fa0:	30ac                	fld	fa1,96(s1)
    7fa2:	0000                	unimp
    7fa4:	2f76                	fld	ft10,344(sp)
    7fa6:	0000                	unimp
    7fa8:	2f76                	fld	ft10,344(sp)
    7faa:	0000                	unimp
    7fac:	2ffc                	fld	fa5,216(a5)
    7fae:	0000                	unimp
    7fb0:	3014                	fld	fa3,32(s0)
    7fb2:	0000                	unimp
    7fb4:	307c                	fld	fa5,224(s0)
    7fb6:	0000                	unimp
    7fb8:	2f76                	fld	ft10,344(sp)
    7fba:	0000                	unimp
    7fbc:	2f76                	fld	ft10,344(sp)
    7fbe:	0000                	unimp
    7fc0:	2ffc                	fld	fa5,216(a5)
    7fc2:	0000                	unimp
    7fc4:	3014                	fld	fa3,32(s0)
    7fc6:	0000                	unimp
    7fc8:	0000                	unimp
    7fca:	3980                	fld	fs0,48(a1)
	...
    7fd4:	6000                	flw	fs0,0(s0)
    7fd6:	4050                	lw	a2,4(s0)
    7fd8:	0000                	unimp
    7fda:	44fa                	lw	s1,156(sp)
    7fdc:	736e6553          	0x736e6553
    7fe0:	4320726f          	jal	tp,f412 <_data_lma+0x716e>
    7fe4:	656c6c6f          	jal	s8,ce63a <_data_lma+0xc6396>
    7fe8:	6f697463          	bgeu	s2,s6,86d0 <_data_lma+0x42c>
    7fec:	006e                	c.slli	zero,0x1b
    7fee:	0000                	unimp
    7ff0:	756f6873          	csrrsi	a6,0x756,30
    7ff4:	646c                	flw	fa1,76(s0)
    7ff6:	276e                	fld	fa4,216(sp)
    7ff8:	2074                	fld	fa3,192(s0)
    7ffa:	7572                	flw	fa0,60(sp)
    7ffc:	206e                	fld	ft0,216(sp)
    7ffe:	7461                	lui	s0,0xffff8
    8000:	6820                	flw	fs0,80(s0)
    8002:	7265                	lui	tp,0xffff9
    8004:	2165                	jal	84ac <_data_lma+0x208>
    8006:	0021                	c.nop	8
    8008:	d3ec                	sw	a1,100(a5)
    800a:	ffff                	0xffff
    800c:	d270                	sw	a2,100(a2)
    800e:	ffff                	0xffff
    8010:	d380                	sw	s0,32(a5)
    8012:	ffff                	0xffff
    8014:	d388                	sw	a0,32(a5)
    8016:	ffff                	0xffff
    8018:	d380                	sw	s0,32(a5)
    801a:	ffff                	0xffff
    801c:	d2a0                	sw	s0,96(a3)
    801e:	ffff                	0xffff
    8020:	d380                	sw	s0,32(a5)
    8022:	ffff                	0xffff
    8024:	d388                	sw	a0,32(a5)
    8026:	ffff                	0xffff
    8028:	d270                	sw	a2,100(a2)
    802a:	ffff                	0xffff
    802c:	d270                	sw	a2,100(a2)
    802e:	ffff                	0xffff
    8030:	d2a0                	sw	s0,96(a3)
    8032:	ffff                	0xffff
    8034:	d388                	sw	a0,32(a5)
    8036:	ffff                	0xffff
    8038:	d3e2                	sw	s8,228(sp)
    803a:	ffff                	0xffff
    803c:	d3e2                	sw	s8,228(sp)
    803e:	ffff                	0xffff
    8040:	d3e2                	sw	s8,228(sp)
    8042:	ffff                	0xffff
    8044:	d2a0                	sw	s0,96(a3)
    8046:	ffff                	0xffff
    8048:	e37c                	fsw	fa5,68(a4)
    804a:	ffff                	0xffff
    804c:	e2a6                	fsw	fs1,68(sp)
    804e:	ffff                	0xffff
    8050:	e376                	fsw	ft9,132(sp)
    8052:	ffff                	0xffff
    8054:	e2ae                	fsw	fa1,68(sp)
    8056:	ffff                	0xffff
    8058:	e376                	fsw	ft9,132(sp)
    805a:	ffff                	0xffff
    805c:	e274                	fsw	fa3,68(a2)
    805e:	ffff                	0xffff
    8060:	e376                	fsw	ft9,132(sp)
    8062:	ffff                	0xffff
    8064:	e2ae                	fsw	fa1,68(sp)
    8066:	ffff                	0xffff
    8068:	e2a6                	fsw	fs1,68(sp)
    806a:	ffff                	0xffff
    806c:	e2a6                	fsw	fs1,68(sp)
    806e:	ffff                	0xffff
    8070:	e274                	fsw	fa3,68(a2)
    8072:	ffff                	0xffff
    8074:	e2ae                	fsw	fa1,68(sp)
    8076:	ffff                	0xffff
    8078:	e2b4                	fsw	fa3,64(a3)
    807a:	ffff                	0xffff
    807c:	e2b4                	fsw	fa3,64(a3)
    807e:	ffff                	0xffff
    8080:	e2b4                	fsw	fa3,64(a3)
    8082:	ffff                	0xffff
    8084:	e274                	fsw	fa3,68(a2)
    8086:	ffff                	0xffff
    8088:	e266                	fsw	fs9,4(sp)
    808a:	ffff                	0xffff
    808c:	e266                	fsw	fs9,4(sp)
    808e:	ffff                	0xffff
    8090:	e336                	fsw	fa3,132(sp)
    8092:	ffff                	0xffff
    8094:	e412                	fsw	ft4,8(sp)
    8096:	ffff                	0xffff
    8098:	e336                	fsw	fa3,132(sp)
    809a:	ffff                	0xffff
    809c:	e234                	fsw	fa3,64(a2)
    809e:	ffff                	0xffff
    80a0:	e336                	fsw	fa3,132(sp)
    80a2:	ffff                	0xffff
    80a4:	e412                	fsw	ft4,8(sp)
    80a6:	ffff                	0xffff
    80a8:	e266                	fsw	fs9,4(sp)
    80aa:	ffff                	0xffff
    80ac:	e266                	fsw	fs9,4(sp)
    80ae:	ffff                	0xffff
    80b0:	e234                	fsw	fa3,64(a2)
    80b2:	ffff                	0xffff
    80b4:	e412                	fsw	ft4,8(sp)
    80b6:	ffff                	0xffff
    80b8:	e274                	fsw	fa3,68(a2)
    80ba:	ffff                	0xffff
    80bc:	e274                	fsw	fa3,68(a2)
    80be:	ffff                	0xffff
    80c0:	e274                	fsw	fa3,68(a2)
    80c2:	ffff                	0xffff
    80c4:	e234                	fsw	fa3,64(a2)
    80c6:	ffff                	0xffff
    80c8:	e574                	fsw	fa3,76(a0)
    80ca:	ffff                	0xffff
    80cc:	e4c6                	fsw	fa7,72(sp)
    80ce:	ffff                	0xffff
    80d0:	e4c6                	fsw	fa7,72(sp)
    80d2:	ffff                	0xffff
    80d4:	e4c4                	fsw	fs1,12(s1)
    80d6:	ffff                	0xffff
    80d8:	e4ca                	fsw	fs2,72(sp)
    80da:	ffff                	0xffff
    80dc:	e4ca                	fsw	fs2,72(sp)
    80de:	ffff                	0xffff
    80e0:	e49a                	fsw	ft6,72(sp)
    80e2:	ffff                	0xffff
    80e4:	e4c4                	fsw	fs1,12(s1)
    80e6:	ffff                	0xffff
    80e8:	e4ca                	fsw	fs2,72(sp)
    80ea:	ffff                	0xffff
    80ec:	e49a                	fsw	ft6,72(sp)
    80ee:	ffff                	0xffff
    80f0:	e4ca                	fsw	fs2,72(sp)
    80f2:	ffff                	0xffff
    80f4:	e4c4                	fsw	fs1,12(s1)
    80f6:	ffff                	0xffff
    80f8:	e562                	fsw	fs8,136(sp)
    80fa:	ffff                	0xffff
    80fc:	e562                	fsw	fs8,136(sp)
    80fe:	ffff                	0xffff
    8100:	e562                	fsw	fs8,136(sp)
    8102:	ffff                	0xffff
    8104:	e49a                	fsw	ft6,72(sp)
    8106:	ffff                	0xffff

00008108 <__clz_tab>:
    8108:	0100 0202 0303 0303 0404 0404 0404 0404     ................
    8118:	0505 0505 0505 0505 0505 0505 0505 0505     ................
    8128:	0606 0606 0606 0606 0606 0606 0606 0606     ................
    8138:	0606 0606 0606 0606 0606 0606 0606 0606     ................
    8148:	0707 0707 0707 0707 0707 0707 0707 0707     ................
    8158:	0707 0707 0707 0707 0707 0707 0707 0707     ................
    8168:	0707 0707 0707 0707 0707 0707 0707 0707     ................
    8178:	0707 0707 0707 0707 0707 0707 0707 0707     ................
    8188:	0808 0808 0808 0808 0808 0808 0808 0808     ................
    8198:	0808 0808 0808 0808 0808 0808 0808 0808     ................
    81a8:	0808 0808 0808 0808 0808 0808 0808 0808     ................
    81b8:	0808 0808 0808 0808 0808 0808 0808 0808     ................
    81c8:	0808 0808 0808 0808 0808 0808 0808 0808     ................
    81d8:	0808 0808 0808 0808 0808 0808 0808 0808     ................
    81e8:	0808 0808 0808 0808 0808 0808 0808 0808     ................
    81f8:	0808 0808 0808 0808 0808 0808 0808 0808     ................

00008208 <__sf_fake_stderr>:
	...

00008228 <__sf_fake_stdin>:
	...

00008248 <__sf_fake_stdout>:
	...
    8268:	2d23 2b30 0020 0000 6c68 004c 6665 4567     #-0+ ...hlL.efgE
    8278:	4746 0000 3130 3332 3534 3736 3938 4241     FG..0123456789AB
    8288:	4443 4645 0000 0000 3130 3332 3534 3736     CDEF....01234567
    8298:	3938 6261 6463 6665 0000 0000               89abcdef....
