
App Board.elf:     file format elf32-littleriscv
App Board.elf
architecture: riscv:rv32, flags 0x00000112:
EXEC_P, HAS_SYMS, D_PAGED
start address 0x00000000

Program Header:
    LOAD off    0x00001000 vaddr 0x00000000 paddr 0x00000000 align 2**12
         filesz 0x00008744 memsz 0x00008744 flags r-x
    LOAD off    0x0000a000 vaddr 0x20000000 paddr 0x00008744 align 2**12
         filesz 0x00000210 memsz 0x00003434 flags rw-
    LOAD off    0x0000a800 vaddr 0x20004800 paddr 0x20004800 align 2**12
         filesz 0x00000000 memsz 0x00000800 flags rw-

Sections:
Idx Name          Size      VMA       LMA       File off  Algn
  0 .init         00000038  00000000  00000000  00001000  2**1
                  CONTENTS, ALLOC, LOAD, READONLY, CODE
  1 .vector       00000108  00000038  00000038  00001038  2**1
                  CONTENTS, ALLOC, LOAD, READONLY, CODE
  2 .text         00008544  00000200  00000200  00001200  2**8
                  CONTENTS, ALLOC, LOAD, READONLY, CODE
  3 .fini         00000000  00008744  00008744  0000a210  2**0
                  CONTENTS, ALLOC, LOAD, CODE
  4 .dalign       00000000  20000000  20000000  0000a210  2**0
                  CONTENTS
  5 .dlalign      00000000  00008744  00008744  0000a210  2**0
                  CONTENTS
  6 .data         00000210  20000000  00008744  0000a000  2**2
                  CONTENTS, ALLOC, LOAD, DATA
  7 .bss          00003224  20000210  00008954  0000a210  2**2
                  ALLOC
  8 .stack        00000800  20004800  20004800  0000a800  2**0
                  ALLOC
  9 .debug_info   000187c2  00000000  00000000  0000a210  2**0
                  CONTENTS, READONLY, DEBUGGING
 10 .debug_abbrev 00003c94  00000000  00000000  000229d2  2**0
                  CONTENTS, READONLY, DEBUGGING
 11 .debug_loc    0000786b  00000000  00000000  00026666  2**0
                  CONTENTS, READONLY, DEBUGGING
 12 .debug_aranges 00000a68  00000000  00000000  0002ded8  2**3
                  CONTENTS, READONLY, DEBUGGING
 13 .debug_ranges 00000e50  00000000  00000000  0002e940  2**3
                  CONTENTS, READONLY, DEBUGGING
 14 .debug_line   00013f93  00000000  00000000  0002f790  2**0
                  CONTENTS, READONLY, DEBUGGING
 15 .debug_str    00004437  00000000  00000000  00043723  2**0
                  CONTENTS, READONLY, DEBUGGING
 16 .comment      00000033  00000000  00000000  00047b5a  2**0
                  CONTENTS, READONLY
 17 .debug_frame  00002d68  00000000  00000000  00047b90  2**2
                  CONTENTS, READONLY, DEBUGGING
 18 .stab         00000084  00000000  00000000  0004a8f8  2**2
                  CONTENTS, READONLY, DEBUGGING
 19 .stabstr      00000117  00000000  00000000  0004a97c  2**0
                  CONTENTS, READONLY, DEBUGGING
SYMBOL TABLE:
00000000 l    d  .init	00000000 .init
00000038 l    d  .vector	00000000 .vector
00000200 l    d  .text	00000000 .text
00008744 l    d  .fini	00000000 .fini
20000000 l    d  .dalign	00000000 .dalign
00008744 l    d  .dlalign	00000000 .dlalign
20000000 l    d  .data	00000000 .data
20000210 l    d  .bss	00000000 .bss
20004800 l    d  .stack	00000000 .stack
00000000 l    d  .debug_info	00000000 .debug_info
00000000 l    d  .debug_abbrev	00000000 .debug_abbrev
00000000 l    d  .debug_loc	00000000 .debug_loc
00000000 l    d  .debug_aranges	00000000 .debug_aranges
00000000 l    d  .debug_ranges	00000000 .debug_ranges
00000000 l    d  .debug_line	00000000 .debug_line
00000000 l    d  .debug_str	00000000 .debug_str
00000000 l    d  .comment	00000000 .comment
00000000 l    d  .debug_frame	00000000 .debug_frame
00000000 l    d  .stab	00000000 .stab
00000000 l    d  .stabstr	00000000 .stabstr
00000000 l    df *ABS*	00000000 ./Code/MCAL/Startup/startup_ch32v20x_D6.o
00000038 l       .vector	00000000 _vector_base
00000000 l    df *ABS*	00000000 ./Code/Service/FreeRTOS/portable/GCC/RISC-V/portASM.o
0000025c l       .text	00000000 processed_source
00000428 l       .text	00000000 chip_specific_stack_frame
00000000 l    df *ABS*	00000000 Service_RTOS_wrapper.c
00000000 l    df *ABS*	00000000 heap_4.c
00000700 l     F .text	0000004c prvInsertBlockIntoFreeList
200002b8 l     O .bss	00003000 ucHeap
20000210 l     O .bss	00000004 pxEnd
20000214 l     O .bss	00000004 xBlockAllocatedBit
20000218 l     O .bss	00000004 xFreeBytesRemaining
2000021c l     O .bss	00000004 xMinimumEverFreeBytesRemaining
20000220 l     O .bss	00000004 xNumberOfSuccessfulAllocations
20000224 l     O .bss	00000004 xNumberOfSuccessfulFrees
20000228 l     O .bss	00000008 xStart
00000000 l    df *ABS*	00000000 port.c
200001f0 l     O .data	00000004 uxCriticalNesting
00000000 l    df *ABS*	00000000 list.c
00000000 l    df *ABS*	00000000 queue.c
00000b98 l     F .text	00000018 prvIsQueueEmpty
00000bb0 l     F .text	00000070 prvCopyDataToQueue
00000c20 l     F .text	00000028 prvCopyDataFromQueue
00000c48 l     F .text	0000006e prvUnlockQueue
00000000 l    df *ABS*	00000000 tasks.c
000011c2 l     F .text	00000024 prvResetNextTaskUnblockTime
000011e6 l     F .text	000000a6 prvAddCurrentTaskToDelayedList
0000128c l     F .text	00000052 prvIdleTask
200032f8 l     O .bss	0000008c pxReadyTasksLists
20003384 l     O .bss	00000014 xDelayedTaskList1
20003398 l     O .bss	00000014 xDelayedTaskList2
200033ac l     O .bss	00000014 xPendingReadyList
200033c0 l     O .bss	00000014 xSuspendedTaskList
200033d4 l     O .bss	00000014 xTasksWaitingTermination
20000234 l     O .bss	00000004 pxDelayedTaskList
20000238 l     O .bss	00000004 pxOverflowDelayedTaskList
2000023c l     O .bss	00000004 uxCurrentNumberOfTasks
20000240 l     O .bss	00000004 uxDeletedTasksWaitingCleanUp
20000244 l     O .bss	00000004 uxSchedulerSuspended
20000248 l     O .bss	00000004 uxTaskNumber
2000024c l     O .bss	00000004 uxTopReadyPriority
20000250 l     O .bss	00000004 xIdleTaskHandle
20000254 l     O .bss	00000004 xNextTaskUnblockTime
20000258 l     O .bss	00000004 xNumOfOverflows
2000025c l     O .bss	00000004 xPendedTicks
20000260 l     O .bss	00000004 xSchedulerRunning
20000264 l     O .bss	00000004 xTickCount
20000268 l     O .bss	00000004 xYieldPending
00000000 l    df *ABS*	00000000 timers.c
000020be l     F .text	00000066 prvCheckForValidListAndQueue
00002124 l     F .text	00000046 prvInsertTimerInActiveList
0000216a l     F .text	00000028 prvReloadTimer
00002192 l     F .text	00000044 prvProcessExpiredTimer
000021d6 l     F .text	0000002e prvSwitchTimerLists
00002204 l     F .text	0000018c prvTimerTask
200033e8 l     O .bss	00000014 xActiveTimerList1
200033fc l     O .bss	00000014 xActiveTimerList2
2000026c l     O .bss	00000004 pxCurrentTimerList
20000270 l     O .bss	00000004 pxOverflowTimerList
20000274 l     O .bss	00000004 xLastTime.5718
20000278 l     O .bss	00000004 xTimerQueue
2000027c l     O .bss	00000004 xTimerTaskHandle
00000000 l    df *ABS*	00000000 MCAL_wrapper.c
00000000 l    df *ABS*	00000000 ch32v20x_gpio.c
00000000 l    df *ABS*	00000000 ch32v20x_misc.c
00000000 l    df *ABS*	00000000 ch32v20x_rcc.c
20000000 l     O .data	00000010 APBAHBPrescTable
200001f8 l     O .data	00000004 ADCPrescTable
00000000 l    df *ABS*	00000000 ch32v20x_spi.c
00000000 l    df *ABS*	00000000 ch32v20x_usart.c
00000000 l    df *ABS*	00000000 debug.c
2000028c l     O .bss	00000002 p_ms
2000028e l     O .bss	00000001 p_us
200001fc l     O .data	00000004 curbrk.4666
00000000 l    df *ABS*	00000000 MCAL_config.c
00000000 l    df *ABS*	00000000 system_ch32v20x.c
00000000 l    df *ABS*	00000000 HAL_wrapper.c
00000000 l    df *ABS*	00000000 HAL_config.c
00000000 l    df *ABS*	00000000 ch32v20x_it.c
00000000 l    df *ABS*	00000000 main.c
20000290 l     O .bss	00000002 local_u16CurrentItem.4878
20000292 l     O .bss	00000001 local_u8MsgType.4877
00000000 l    df *ABS*	00000000 memcpy.c
00000000 l    df *ABS*	00000000 nano-vfprintf_float.c
00000000 l    df *ABS*	00000000 nano-vfprintf_i.c
00000000 l    df *ABS*	00000000 printf.c
00000000 l    df *ABS*	00000000 puts.c
00000000 l    df *ABS*	00000000 strlen.c
00000000 l    df *ABS*	00000000 wbuf.c
00000000 l    df *ABS*	00000000 wsetup.c
00000000 l    df *ABS*	00000000 dtoa.c
00004164 l     F .text	0000013a quorem
00000000 l    df *ABS*	00000000 fflush.c
00000000 l    df *ABS*	00000000 findfp.c
00005060 l     F .text	0000006a std
00000000 l    df *ABS*	00000000 fwalk.c
00000000 l    df *ABS*	00000000 localeconv.c
00000000 l    df *ABS*	00000000 makebuf.c
00000000 l    df *ABS*	00000000 malloc.c
00000000 l    df *ABS*	00000000 memchr.c
00000000 l    df *ABS*	00000000 mprec.c
00008490 l     O .text	0000000c p05.3319
00000000 l    df *ABS*	00000000 nano-mallocr.c
00000000 l    df *ABS*	00000000 nano-mallocr.c
00000000 l    df *ABS*	00000000 nano-mallocr.c
00000000 l    df *ABS*	00000000 nano-vfprintf.c
00005c76 l     F .text	0000002a __sfputc_r
00000000 l    df *ABS*	00000000 sbrkr.c
00000000 l    df *ABS*	00000000 stdio.c
00000000 l    df *ABS*	00000000 writer.c
00000000 l    df *ABS*	00000000 closer.c
00000000 l    df *ABS*	00000000 fstatr.c
00000000 l    df *ABS*	00000000 isattyr.c
00000000 l    df *ABS*	00000000 lseekr.c
00000000 l    df *ABS*	00000000 mbtowc_r.c
00000000 l    df *ABS*	00000000 mlock.c
00000000 l    df *ABS*	00000000 readr.c
00000000 l    df *ABS*	00000000 wctomb_r.c
00000000 l    df *ABS*	00000000 adddf3.c
00000000 l    df *ABS*	00000000 divdf3.c
00000000 l    df *ABS*	00000000 eqdf2.c
00000000 l    df *ABS*	00000000 gedf2.c
00000000 l    df *ABS*	00000000 ledf2.c
00000000 l    df *ABS*	00000000 muldf3.c
00000000 l    df *ABS*	00000000 subdf3.c
00000000 l    df *ABS*	00000000 unorddf2.c
00000000 l    df *ABS*	00000000 fixdfsi.c
00000000 l    df *ABS*	00000000 floatsidf.c
00000000 l    df *ABS*	00000000 floatunsidf.c
00000000 l    df *ABS*	00000000 trunctfdf2.c
00000000 l    df *ABS*	00000000 libgcc2.c
00000000 l    df *ABS*	00000000 close.c
00000000 l    df *ABS*	00000000 fstat.c
00000000 l    df *ABS*	00000000 isatty.c
00000000 l    df *ABS*	00000000 lseek.c
00000000 l    df *ABS*	00000000 read.c
00000000 l    df *ABS*	00000000 locale.c
00000000 l    df *ABS*	00000000 ctype_.c
00000000 l    df *ABS*	00000000 libgcc2.c
00000000 l    df *ABS*	00000000 impure.c
20000020 l     O .data	00000060 impure_data
00000000 l    df *ABS*	00000000 reent.c
00003458 g     F .text	000000ee __cvt
000024c0  w      .text	00000000 EXTI2_IRQHandler
0000610c g     F .text	00000032 _isatty_r
00003e90 g     F .text	000000de _puts_r
0000613e g     F .text	00000036 _lseek_r
00006eec g     F .text	0000006a .hidden __eqdf2
00000ad8 g     F .text	00000046 vPortExitCritical
00003e4e g     F .text	00000042 printf
200009f0 g       .data	00000000 __global_pointer$
000004f6 g     F .text	00000028 .hidden __riscv_save_8
000024e6  w      .text	00000000 TIM1_CC_IRQHandler
00006034 g     F .text	00000036 __sseek
0000511c g     F .text	0000006c __sinit
00003f8c g     F .text	000000c6 __swbuf_r
00003140 g     F .text	00000002 HardFault_Handler
00001166 g     F .text	0000005c vQueueWaitForMessageRestricted
000031e6 g     F .text	00000082 Task_DroneComm
000050d4 g     F .text	00000048 __sfmoreglue
000061b0 g     F .text	00000002 __malloc_unlock
00000542 g     F .text	0000000c .hidden __riscv_restore_3
00000a42 g     F .text	0000007c SysTick_Handler
000026c2 g     F .text	000000bc NVIC_Init
000024b2  w      .text	00000000 PVD_IRQHandler
20000294 g     O .bss	00000004 queue_AppCommToDrone_Handle_t
0000052e g     F .text	00000020 .hidden __riscv_restore_10
0000313e g     F .text	00000002 NMI_Handler
000053ce g     F .text	00000088 _Balloc
000024c2  w      .text	00000000 EXTI3_IRQHandler
000004f6 g     F .text	00000028 .hidden __riscv_save_11
00006f56 g     F .text	000000ae .hidden __gtdf2
2000029c g     O .bss	00000004 queue_RawRCData_Handle_t
000006a6 g     F .text	0000000e SERVICE_RTOS_BlockFor
20000230 g     O .bss	00000004 pxCurrentTCB
200002a4 g     O .bss	00000004 task_DroneComm_Handle_t
00002a52 g     F .text	0000000c USART_GetFlagStatus
000060d8 g     F .text	00000034 _fstat_r
20003430 g     O .bss	00000004 errno
20000210 g       .bss	00000000 _sbss
00000800 g       *ABS*	00000000 __stack_size
0000311e g     F .text	0000001c HAL_WRAPPER_SendCommMessage
00001b70 g     F .text	00000016 vTaskInternalSetTimeOutState
00003142 g     F .text	00000054 Task_RCComm
00000542 g     F .text	0000000c .hidden __riscv_restore_2
000009b2 g     F .text	00000090 xPortStartScheduler
000033a2 g     F .text	000000b6 memcpy
000019c6 g     F .text	00000048 vTaskPlaceOnEventList
000050ca g     F .text	0000000a _cleanup_r
00007d52 g     F .text	00000070 .hidden __floatsidf
00000978  w    F .text	0000003a vPortSetupTimerInterrupt
00007004 g     F .text	000000b6 .hidden __ltdf2
000024bc  w      .text	00000000 EXTI0_IRQHandler
000024f2  w      .text	00000000 I2C2_EV_IRQHandler
00003f6e g     F .text	0000000c puts
000008d4 g     F .text	000000a4 vPortFree
20000200 g     O .data	00000004 SystemCoreClock
20005000 g       .stack	00000000 __freertos_irq_stack_top
00002a48 g     F .text	0000000a USART_ReceiveData
000053a8 g     F .text	0000000c malloc
000080cc g     F .text	00000010 _fstat
000083c8 g     O .text	000000c8 __mprec_tens
00003196 g     F .text	00000050 Task_TakeAction
00000038 g       .init	00000000 _einit
00002862 g     F .text	0000001e RCC_APB2PeriphClockCmd
000004ee g     F .text	00000030 .hidden __riscv_save_12
000024d4  w      .text	00000000 ADC1_2_IRQHandler
00001d40 g     F .text	00000098 ulTaskGenericNotifyTake
000025a0 g     F .text	00000100 GPIO_Init
000024aa  w      .text	00000000 Break_Point_Handler
00005294 g     F .text	00000018 _localeconv_r
000055e2 g     F .text	0000001c __i2b
0000052e g     F .text	00000020 .hidden __riscv_restore_11
20000288 g     O .bss	00000004 NVIC_Priority_Group
000024f6  w      .text	00000000 SPI1_IRQHandler
000029ec g     F .text	0000001c USART_Cmd
00005f84 g     F .text	00000032 _sbrk_r
000024b4  w      .text	00000000 TAMPER_IRQHandler
0000051e g     F .text	0000000c .hidden __riscv_save_1
00000542 g     F .text	0000000c .hidden __riscv_restore_0
000061b2 g     F .text	00000036 _read_r
00000b44 g     F .text	00000006 vListInitialiseItem
00000504 g     F .text	0000001a .hidden __riscv_save_7
00000f6a g     F .text	0000014c xQueueReceive
200032b8 g     O .bss	00000040 xQueueRegistry
00000b2a g     F .text	00000006 vPortClearInterruptMask
00002880 g     F .text	0000001e RCC_APB1PeriphClockCmd
00006208 g     F .text	00000730 .hidden __adddf3
000024a6  w      .text	00000000 Ecall_M_Mode_Handler
20004800 g       .stack	00000000 _heap_end
000005f6 g     F .text	00000022 SERVICE_RTOS_TaskCreate
000080dc g     F .text	00000010 _isatty
2000020c g     O .data	00000004 _global_impure_ptr
00000538 g     F .text	00000016 .hidden __riscv_restore_5
00002844 g     F .text	0000001e RCC_AHBPeriphClockCmd
000024cc  w      .text	00000000 DMA1_Channel4_IRQHandler
000083a0 g     O .text	00000028 __mprec_bigtens
00007dc2 g     F .text	00000066 .hidden __floatunsidf
00002b18 g     F .text	0000002a _sbrk
000058ce g     F .text	00000032 __mcmp
0000074c g     F .text	00000188 pvPortMalloc
00000b30 g     F .text	00000014 vListInitialise
20000280 g     O .bss	00000004 global_UART4RecCallback
00000538 g     F .text	00000016 .hidden __riscv_restore_6
000024fe  w      .text	00000000 USART3_IRQHandler
000015b0 g     F .text	0000000a xTaskGetTickCount
00000ddc g     F .text	0000018e xQueueGenericSend
000024b6  w      .text	00000000 RTC_IRQHandler
20003434 g       .bss	00000000 _ebss
00002a6c g     F .text	00000044 USART_GetITStatus
000024d2  w      .text	00000000 DMA1_Channel7_IRQHandler
00005532 g     F .text	00000046 __hi0bits
000024da  w      .text	00000000 CAN1_RX1_IRQHandler
00001f66 g     F .text	00000158 vTaskGenericNotifyGiveFromISR
00007cea g     F .text	00000068 .hidden __fixdfsi
00002ab0 g     F .text	0000002e Delay_Init
00001c76 g     F .text	000000ca xTaskPriorityDisinherit
00001a84 g     F .text	000000ec xTaskRemoveFromEventList
000026a0 g     F .text	00000018 GPIO_SetBits
000024ec  w      .text	00000000 TIM4_IRQHandler
00000670 g     F .text	00000036 SERVICE_RTOS_ReadFromBlockingQueue
00007004 g     F .text	000000b6 .hidden __ledf2
000004f6 g     F .text	00000028 .hidden __riscv_save_9
00005742 g     F .text	000000be __pow5mult
00008340 g     O .text	00000020 __sf_fake_stderr
000006d4 g     F .text	0000002c SERVICE_RTOS_Notify
00000504 g     F .text	0000001a .hidden __riscv_save_4
000024ee  w      .text	00000000 I2C1_EV_IRQHandler
20000208 g     O .data	00000004 xISRStackTop
00002506  w      .text	00000000 USBHD_IRQHandler
0000277e g     F .text	000000c6 RCC_GetClocksFreq
000024d0  w      .text	00000000 DMA1_Channel6_IRQHandler
00008046 g     F .text	00000076 .hidden __clzsi2
00005ca0 g     F .text	00000044 __sfputs_r
000023f0 g     F .text	00000024 UART4_IRQHandler
000053b4 g     F .text	0000001a memchr
000035d2  w    F .text	000004c4 _printf_float
00002916 g     F .text	000000d6 USART_Init
00001b86 g     F .text	000000c8 xTaskCheckForTimeOut
00005aec g     F .text	000000ac _free_r
000024ea  w      .text	00000000 TIM3_IRQHandler
000024ba  w      .text	00000000 RCC_IRQHandler
0000051e g     F .text	0000000c .hidden __riscv_save_3
00002426 g     F .text	0000003a MCAL_WRAPPER_SendDataThroughUART4
000024e4  w      .text	00000000 TIM1_TRG_COM_IRQHandler
000024c6  w      .text	00000000 DMA1_Channel1_IRQHandler
00000000 g       .init	00000000 _start
000015a0 g     F .text	00000010 vTaskSuspendAll
20000010 g     O .data	00000010 AHBPrescTable
000080ec g     F .text	00000010 _lseek
00005800 g     F .text	000000ce __lshift
00000b78 g     F .text	00000020 uxListRemove
00002500  w      .text	00000000 EXTI15_10_IRQHandler
000006b4 g     F .text	00000020 SERVICE_RTOS_WaitForNotification
00002a08 g     F .text	00000036 USART_ITConfig
000055fe g     F .text	00000144 __multiply
000059f2 g     F .text	000000d4 __d2b
0000250c  w      .text	00000000 DMA1_Channel8_IRQHandler
0000192c g     F .text	0000009a vTaskSwitchContext
00003268 g     F .text	0000007e UARTReceivedISR
00001a0e g     F .text	00000076 vTaskPlaceOnEventListRestricted
000060a6 g     F .text	00000032 _close_r
20000000 g       .dalign	00000000 _data_vma
20000284 g     O .bss	00000001 MCU_Version
00004052 g     F .text	00000112 __swsetup_r
000024de  w      .text	00000000 EXTI9_5_IRQHandler
00006938 g     F .text	000005b4 .hidden __divdf3
00005188 g     F .text	000000a0 __sfp
000070ba g     F .text	000004b8 .hidden __muldf3
000004f6 g     F .text	00000028 .hidden __riscv_save_10
00005fb6 g     F .text	00000030 __sread
200002ac g     O .bss	00000004 task_TakeAction_Handle_t
000061ae g     F .text	00000002 __malloc_lock
00000538 g     F .text	00000016 .hidden __riscv_restore_4
0000052e g     F .text	00000020 .hidden __riscv_restore_8
00004ffa g     F .text	00000066 _fflush_r
00000504 g     F .text	0000001a .hidden __riscv_save_6
00005ac6 g     F .text	00000026 _calloc_r
000024f8  w      .text	00000000 SPI2_IRQHandler
00008360 g     O .text	00000020 __sf_fake_stdin
00001dd8 g     F .text	0000018e xTaskGenericNotify
0000054e g     F .text	000000a8 memset
0000052e g     F .text	00000020 .hidden __riscv_restore_9
00000538 g     F .text	00000016 .hidden __riscv_restore_7
000032e6 g     F .text	000000bc main
00000b4a g     F .text	0000002e vListInsert
20003410 g     O .bss	00000010 global_DroneCommMsg_t
00002460 g     F .text	00000042 MCAL_WRAPPER_ReceiveDataThroughUART4
00000618 g     F .text	0000000c SERVICE_RTOS_StartSchedular
0000606a g     F .text	00000006 __sclose
00002390 g     F .text	00000060 xTimerCreateTimerTask
0000429e g     F .text	00000c1e _dtoa_r
00005b98 g     F .text	000000de _malloc_r
000061e8 g     F .text	00000020 __ascii_wctomb
0000310e g     F .text	00000010 HAL_WRAPPER_GetCommMessage
000024ce  w      .text	00000000 DMA1_Channel5_IRQHandler
000024c4  w      .text	00000000 EXTI4_IRQHandler
00000d72 g     F .text	0000006a xQueueGenericCreate
000024d8  w      .text	00000000 USB_LP_CAN1_RX0_IRQHandler
00002b42 g     F .text	00000448 MCAL_Config_ConfigAllPins
000028f8 g     F .text	0000001e SPI_Cmd
00002a5e g     F .text	0000000e USART_ClearFlag
00002f8a g     F .text	000000e6 SystemInit
00006eec g     F .text	0000006a .hidden __nedf2
00000646 g     F .text	0000002a SERVICE_RTOS_AppendToBlockingQueue
00003e4e g     F .text	00000042 iprintf
00001764 g     F .text	00000166 xTaskResumeAll
200001f4 g     O .data	00000004 uxTopUsedPriority
000024d6  w      .text	00000000 USB_HP_CAN1_TX_IRQHandler
00008644 g     O .text	00000100 .hidden __clz_tab
00000b1e g     F .text	0000000c xPortSetInterruptMask
00001510 g     F .text	00000090 vTaskStartScheduler
00003546 g     F .text	0000008c __exponent
00000000 g       .init	00000000 _sinit
00002508  w      .text	00000000 USBHDWakeUp_IRQHandler
00006070 g     F .text	00000036 _write_r
00000300 g       .text	00000000 xPortStartFirstTask
000024ca  w      .text	00000000 DMA1_Channel3_IRQHandler
00003a96 g     F .text	0000010c _printf_common
20000204 g     O .data	00000004 _impure_ptr
000024e2  w      .text	00000000 TIM1_UP_IRQHandler
00004ebc g     F .text	0000013e __sflush_r
000024b0  w      .text	00000000 WWDG_IRQHandler
00006174 g     F .text	0000003a __ascii_mbtowc
000024a8  w      .text	00000000 Ecall_U_Mode_Handler
00001c4e g     F .text	0000000c vTaskMissedYield
000024e8  w      .text	00000000 TIM2_IRQHandler
20005000 g       .stack	00000000 _eusrstack
0000051e g     F .text	0000000c .hidden __riscv_save_2
00000200 g       .text	00000000 SW_Handler
000010b6 g     F .text	00000044 uxQueueMessagesWaiting
000010fa g     F .text	0000006c vQueueAddToRegistry
000015ba g     F .text	000001aa xTaskIncrementTick
00002414 g     F .text	00000012 MCAL_WRAPPER_SetUART4RecCallBack
00003100 g     F .text	0000000e HAL_WRAPPER_SetAppCommRecCallBack
000024e0  w      .text	00000000 TIM1_BRK_IRQHandler
000052ac g     F .text	0000005a __swhatbuf_r
00002a3e g     F .text	0000000a USART_SendData
000024be  w      .text	00000000 EXTI1_IRQHandler
00000504 g     F .text	0000001a .hidden __riscv_save_5
00000cb6 g     F .text	000000bc xQueueGenericReset
00002ade g     F .text	0000003a _write
20000210 g       .data	00000000 _edata
20003434 g       .bss	00000000 _end
00000624 g     F .text	00000022 SERVICE_RTOS_CreateBlockingQueue
00002502  w      .text	00000000 RTCAlarm_IRQHandler
000012de g     F .text	00000232 xTaskCreate
00008744 g       .dlalign	00000000 _data_lma
000024fc  w      .text	00000000 USART2_IRQHandler
00005fe6 g     F .text	0000004e __swrite
00005ce4 g     F .text	000002a0 _vfiprintf_r
00005228 g     F .text	0000006c _fwalk_reent
00003070 g     F .text	00000090 SystemCoreClockUpdate
00005900 g     F .text	000000f2 __mdiff
000024f4  w      .text	00000000 I2C2_ER_IRQHandler
000018ca g     F .text	00000062 vTaskDelay
000024c8  w      .text	00000000 DMA1_Channel2_IRQHandler
00008380 g     O .text	00000020 __sf_fake_stdout
0000052a g     F .text	00000024 .hidden __riscv_restore_12
00001c5a g     F .text	0000001c xTaskGetSchedulerState
000084c0 g     O .text	00000101 _ctype_
000080fc g     F .text	00000010 _read
00007cae g     F .text	0000003c .hidden __unorddf2
0000250e  w      .text	00000000 handle_reset
000024dc  w      .text	00000000 CAN1_SCE_IRQHandler
000024b8  w      .text	00000000 FLASH_IRQHandler
0000051e g     F .text	0000000c .hidden __riscv_save_0
000024fa  w      .text	00000000 USART1_IRQHandler
00005306 g     F .text	000000a2 __smakebuf_r
00003f7a g     F .text	00000012 strlen
00000400 g       .text	00000000 pxPortInitialiseStack
00003ba2 g     F .text	000002ac _printf_i
20000298 g     O .bss	00000004 queue_DroneCommToApp_Handle_t
00006f56 g     F .text	000000ae .hidden __gedf2
200002a0 g     O .bss	00000004 queue_TakeAction_Handle_t
200002a8 g     O .bss	00000004 task_RCComm_Handle_t
200002b4 g     O .bss	00000004 __malloc_sbrk_start
000024f0  w      .text	00000000 I2C1_ER_IRQHandler
0000289e g     F .text	0000005a SPI_Init
000026b8 g     F .text	0000000a NVIC_PriorityGroupConfig
00000abe g     F .text	0000001a vPortEnterCritical
200002b0 g     O .bss	00000004 __malloc_free_list
00000542 g     F .text	0000000c .hidden __riscv_restore_1
20003420 g     O .bss	0000000e global_MsgToRec_t
00007572 g     F .text	0000073c .hidden __subdf3
00005ce4 g     F .text	000002a0 _vfprintf_r
00005578 g     F .text	0000006a __lo0bits
0000313a g     F .text	00000004 HAL_Config_ConfigAllHW
20000080 g     O .data	0000016c __global_locale
00002504  w      .text	00000000 USBWakeUp_IRQHandler
00007e28 g     F .text	0000021e .hidden __trunctfdf2
000080bc g     F .text	00000010 _close
0000549a g     F .text	00000098 __multadd
00005456 g     F .text	00000044 _Bfree



Disassembly of section .init:

00000000 <_sinit>:
   0:	50e0206f          	j	250e <handle_reset>
   4:	00000013          	nop
   8:	00000013          	nop
   c:	00000013          	nop
  10:	00000013          	nop
  14:	00000013          	nop
  18:	00000013          	nop
  1c:	00000013          	nop
  20:	00000013          	nop
  24:	00000013          	nop
  28:	00000013          	nop
  2c:	00000013          	nop
  30:	00000013          	nop
  34:	00100073          	ebreak

Disassembly of section .vector:

00000038 <_vector_base>:
	...
  40:	313e                	fld	ft2,488(sp)
  42:	0000                	unimp
  44:	3140                	fld	fs0,160(a0)
  46:	0000                	unimp
  48:	0000                	unimp
  4a:	0000                	unimp
  4c:	24a6                	fld	fs1,72(sp)
	...
  56:	0000                	unimp
  58:	24a8                	fld	fa0,72(s1)
  5a:	0000                	unimp
  5c:	24aa                	fld	fs1,136(sp)
	...
  66:	0000                	unimp
  68:	0a42                	slli	s4,s4,0x10
  6a:	0000                	unimp
  6c:	0000                	unimp
  6e:	0000                	unimp
  70:	0200                	addi	s0,sp,256
  72:	0000                	unimp
  74:	0000                	unimp
  76:	0000                	unimp
  78:	24b0                	fld	fa2,72(s1)
  7a:	0000                	unimp
  7c:	24b2                	fld	fs1,264(sp)
  7e:	0000                	unimp
  80:	24b4                	fld	fa3,72(s1)
  82:	0000                	unimp
  84:	24b6                	fld	fs1,328(sp)
  86:	0000                	unimp
  88:	24b8                	fld	fa4,72(s1)
  8a:	0000                	unimp
  8c:	24ba                	fld	fs1,392(sp)
  8e:	0000                	unimp
  90:	24bc                	fld	fa5,72(s1)
  92:	0000                	unimp
  94:	24be                	fld	fs1,456(sp)
  96:	0000                	unimp
  98:	24c0                	fld	fs0,136(s1)
  9a:	0000                	unimp
  9c:	24c2                	fld	fs1,16(sp)
  9e:	0000                	unimp
  a0:	24c4                	fld	fs1,136(s1)
  a2:	0000                	unimp
  a4:	24c6                	fld	fs1,80(sp)
  a6:	0000                	unimp
  a8:	24c8                	fld	fa0,136(s1)
  aa:	0000                	unimp
  ac:	24ca                	fld	fs1,144(sp)
  ae:	0000                	unimp
  b0:	24cc                	fld	fa1,136(s1)
  b2:	0000                	unimp
  b4:	24ce                	fld	fs1,208(sp)
  b6:	0000                	unimp
  b8:	24d0                	fld	fa2,136(s1)
  ba:	0000                	unimp
  bc:	24d2                	fld	fs1,272(sp)
  be:	0000                	unimp
  c0:	24d4                	fld	fa3,136(s1)
  c2:	0000                	unimp
  c4:	24d6                	fld	fs1,336(sp)
  c6:	0000                	unimp
  c8:	24d8                	fld	fa4,136(s1)
  ca:	0000                	unimp
  cc:	24da                	fld	fs1,400(sp)
  ce:	0000                	unimp
  d0:	24dc                	fld	fa5,136(s1)
  d2:	0000                	unimp
  d4:	24de                	fld	fs1,464(sp)
  d6:	0000                	unimp
  d8:	24e0                	fld	fs0,200(s1)
  da:	0000                	unimp
  dc:	24e2                	fld	fs1,24(sp)
  de:	0000                	unimp
  e0:	24e4                	fld	fs1,200(s1)
  e2:	0000                	unimp
  e4:	24e6                	fld	fs1,88(sp)
  e6:	0000                	unimp
  e8:	24e8                	fld	fa0,200(s1)
  ea:	0000                	unimp
  ec:	24ea                	fld	fs1,152(sp)
  ee:	0000                	unimp
  f0:	24ec                	fld	fa1,200(s1)
  f2:	0000                	unimp
  f4:	24ee                	fld	fs1,216(sp)
  f6:	0000                	unimp
  f8:	24f0                	fld	fa2,200(s1)
  fa:	0000                	unimp
  fc:	24f2                	fld	fs1,280(sp)
  fe:	0000                	unimp
 100:	24f4                	fld	fa3,200(s1)
 102:	0000                	unimp
 104:	24f6                	fld	fs1,344(sp)
 106:	0000                	unimp
 108:	24f8                	fld	fa4,200(s1)
 10a:	0000                	unimp
 10c:	24fa                	fld	fs1,408(sp)
 10e:	0000                	unimp
 110:	24fc                	fld	fa5,200(s1)
 112:	0000                	unimp
 114:	24fe                	fld	fs1,472(sp)
 116:	0000                	unimp
 118:	2500                	fld	fs0,8(a0)
 11a:	0000                	unimp
 11c:	2502                	fld	fa0,0(sp)
 11e:	0000                	unimp
 120:	2504                	fld	fs1,8(a0)
 122:	0000                	unimp
 124:	2506                	fld	fa0,64(sp)
 126:	0000                	unimp
 128:	2508                	fld	fa0,8(a0)
 12a:	0000                	unimp
 12c:	23f0                	fld	fa2,192(a5)
 12e:	0000                	unimp
 130:	250c                	fld	fa1,8(a0)
	...

Disassembly of section .text:

00000200 <SW_Handler>:
     200:	f8810113          	addi	sp,sp,-120
     204:	c206                	sw	ra,4(sp)
     206:	c416                	sw	t0,8(sp)
     208:	c61a                	sw	t1,12(sp)
     20a:	c81e                	sw	t2,16(sp)
     20c:	ca22                	sw	s0,20(sp)
     20e:	cc26                	sw	s1,24(sp)
     210:	ce2a                	sw	a0,28(sp)
     212:	d02e                	sw	a1,32(sp)
     214:	d232                	sw	a2,36(sp)
     216:	d436                	sw	a3,40(sp)
     218:	d63a                	sw	a4,44(sp)
     21a:	d83e                	sw	a5,48(sp)
     21c:	da42                	sw	a6,52(sp)
     21e:	dc46                	sw	a7,56(sp)
     220:	de4a                	sw	s2,60(sp)
     222:	c0ce                	sw	s3,64(sp)
     224:	c2d2                	sw	s4,68(sp)
     226:	c4d6                	sw	s5,72(sp)
     228:	c6da                	sw	s6,76(sp)
     22a:	c8de                	sw	s7,80(sp)
     22c:	cae2                	sw	s8,84(sp)
     22e:	cce6                	sw	s9,88(sp)
     230:	ceea                	sw	s10,92(sp)
     232:	d0ee                	sw	s11,96(sp)
     234:	d2f2                	sw	t3,100(sp)
     236:	d4f6                	sw	t4,104(sp)
     238:	d6fa                	sw	t5,108(sp)
     23a:	d8fe                	sw	t6,112(sp)
     23c:	300022f3          	csrr	t0,mstatus
     240:	da96                	sw	t0,116(sp)
     242:	20000297          	auipc	t0,0x20000
     246:	fee2a283          	lw	t0,-18(t0) # 20000230 <pxCurrentTCB>
     24a:	0022a023          	sw	sp,0(t0)
     24e:	341025f3          	csrr	a1,mepc
     252:	c02e                	sw	a1,0(sp)
     254:	8181a103          	lw	sp,-2024(gp) # 20000208 <xISRStackTop>
     258:	6d4010ef          	jal	ra,192c <vTaskSwitchContext>

0000025c <processed_source>:
     25c:	20000317          	auipc	t1,0x20000
     260:	fd432303          	lw	t1,-44(t1) # 20000230 <pxCurrentTCB>
     264:	00032103          	lw	sp,0(t1)
     268:	4282                	lw	t0,0(sp)
     26a:	34129073          	csrw	mepc,t0
     26e:	52d6                	lw	t0,116(sp)
     270:	30029073          	csrw	mstatus,t0
     274:	4092                	lw	ra,4(sp)
     276:	42a2                	lw	t0,8(sp)
     278:	4332                	lw	t1,12(sp)
     27a:	43c2                	lw	t2,16(sp)
     27c:	4452                	lw	s0,20(sp)
     27e:	44e2                	lw	s1,24(sp)
     280:	4572                	lw	a0,28(sp)
     282:	5582                	lw	a1,32(sp)
     284:	5612                	lw	a2,36(sp)
     286:	56a2                	lw	a3,40(sp)
     288:	5732                	lw	a4,44(sp)
     28a:	57c2                	lw	a5,48(sp)
     28c:	5852                	lw	a6,52(sp)
     28e:	58e2                	lw	a7,56(sp)
     290:	5972                	lw	s2,60(sp)
     292:	4986                	lw	s3,64(sp)
     294:	4a16                	lw	s4,68(sp)
     296:	4aa6                	lw	s5,72(sp)
     298:	4b36                	lw	s6,76(sp)
     29a:	4bc6                	lw	s7,80(sp)
     29c:	4c56                	lw	s8,84(sp)
     29e:	4ce6                	lw	s9,88(sp)
     2a0:	4d76                	lw	s10,92(sp)
     2a2:	5d86                	lw	s11,96(sp)
     2a4:	5e16                	lw	t3,100(sp)
     2a6:	5ea6                	lw	t4,104(sp)
     2a8:	5f36                	lw	t5,108(sp)
     2aa:	5fc6                	lw	t6,112(sp)
     2ac:	07810113          	addi	sp,sp,120
     2b0:	30200073          	mret
     2b4:	00000013          	nop
     2b8:	00000013          	nop
     2bc:	00000013          	nop
     2c0:	00000013          	nop
     2c4:	00000013          	nop
     2c8:	00000013          	nop
     2cc:	00000013          	nop
     2d0:	00000013          	nop
     2d4:	00000013          	nop
     2d8:	00000013          	nop
     2dc:	00000013          	nop
     2e0:	00000013          	nop
     2e4:	00000013          	nop
     2e8:	00000013          	nop
     2ec:	00000013          	nop
     2f0:	00000013          	nop
     2f4:	00000013          	nop
     2f8:	00000013          	nop
     2fc:	00000013          	nop

00000300 <xPortStartFirstTask>:
     300:	8181a283          	lw	t0,-2024(gp) # 20000208 <xISRStackTop>
     304:	e0028293          	addi	t0,t0,-512
     308:	34029073          	csrw	mscratch,t0
     30c:	20000117          	auipc	sp,0x20000
     310:	f2412103          	lw	sp,-220(sp) # 20000230 <pxCurrentTCB>
     314:	4102                	lw	sp,0(sp)
     316:	4082                	lw	ra,0(sp)
     318:	4332                	lw	t1,12(sp)
     31a:	43c2                	lw	t2,16(sp)
     31c:	4452                	lw	s0,20(sp)
     31e:	44e2                	lw	s1,24(sp)
     320:	4572                	lw	a0,28(sp)
     322:	5582                	lw	a1,32(sp)
     324:	5612                	lw	a2,36(sp)
     326:	56a2                	lw	a3,40(sp)
     328:	5732                	lw	a4,44(sp)
     32a:	57c2                	lw	a5,48(sp)
     32c:	5852                	lw	a6,52(sp)
     32e:	58e2                	lw	a7,56(sp)
     330:	5972                	lw	s2,60(sp)
     332:	4986                	lw	s3,64(sp)
     334:	4a16                	lw	s4,68(sp)
     336:	4aa6                	lw	s5,72(sp)
     338:	4b36                	lw	s6,76(sp)
     33a:	4bc6                	lw	s7,80(sp)
     33c:	4c56                	lw	s8,84(sp)
     33e:	4ce6                	lw	s9,88(sp)
     340:	4d76                	lw	s10,92(sp)
     342:	5d86                	lw	s11,96(sp)
     344:	5e16                	lw	t3,100(sp)
     346:	5ea6                	lw	t4,104(sp)
     348:	5f36                	lw	t5,108(sp)
     34a:	5fc6                	lw	t6,112(sp)
     34c:	52d6                	lw	t0,116(sp)
     34e:	02a1                	addi	t0,t0,8
     350:	30029073          	csrw	mstatus,t0
     354:	42a2                	lw	t0,8(sp)
     356:	07810113          	addi	sp,sp,120
     35a:	8082                	ret
     35c:	00000013          	nop
     360:	00000013          	nop
     364:	00000013          	nop
     368:	00000013          	nop
     36c:	00000013          	nop
     370:	00000013          	nop
     374:	00000013          	nop
     378:	00000013          	nop
     37c:	00000013          	nop
     380:	00000013          	nop
     384:	00000013          	nop
     388:	00000013          	nop
     38c:	00000013          	nop
     390:	00000013          	nop
     394:	00000013          	nop
     398:	00000013          	nop
     39c:	00000013          	nop
     3a0:	00000013          	nop
     3a4:	00000013          	nop
     3a8:	00000013          	nop
     3ac:	00000013          	nop
     3b0:	00000013          	nop
     3b4:	00000013          	nop
     3b8:	00000013          	nop
     3bc:	00000013          	nop
     3c0:	00000013          	nop
     3c4:	00000013          	nop
     3c8:	00000013          	nop
     3cc:	00000013          	nop
     3d0:	00000013          	nop
     3d4:	00000013          	nop
     3d8:	00000013          	nop
     3dc:	00000013          	nop
     3e0:	00000013          	nop
     3e4:	00000013          	nop
     3e8:	00000013          	nop
     3ec:	00000013          	nop
     3f0:	00000013          	nop
     3f4:	00000013          	nop
     3f8:	00000013          	nop
     3fc:	00000013          	nop

00000400 <pxPortInitialiseStack>:
     400:	300022f3          	csrr	t0,mstatus
     404:	ff72f293          	andi	t0,t0,-9
     408:	18800313          	li	t1,392
     40c:	0312                	slli	t1,t1,0x4
     40e:	0062e2b3          	or	t0,t0,t1
     412:	1571                	addi	a0,a0,-4
     414:	00552023          	sw	t0,0(a0)
     418:	fa850513          	addi	a0,a0,-88
     41c:	c110                	sw	a2,0(a0)
     41e:	1521                	addi	a0,a0,-24
     420:	00052023          	sw	zero,0(a0)
     424:	00000293          	li	t0,0

00000428 <chip_specific_stack_frame>:
     428:	00028763          	beqz	t0,436 <chip_specific_stack_frame+0xe>
     42c:	1571                	addi	a0,a0,-4
     42e:	00052023          	sw	zero,0(a0)
     432:	12fd                	addi	t0,t0,-1
     434:	bfd5                	j	428 <chip_specific_stack_frame>
     436:	1571                	addi	a0,a0,-4
     438:	c10c                	sw	a1,0(a0)
     43a:	8082                	ret
	...

000004ee <__riscv_save_12>:
     4ee:	7139                	addi	sp,sp,-64
     4f0:	4301                	li	t1,0
     4f2:	c66e                	sw	s11,12(sp)
     4f4:	a019                	j	4fa <__riscv_save_10+0x4>

000004f6 <__riscv_save_10>:
     4f6:	7139                	addi	sp,sp,-64
     4f8:	5341                	li	t1,-16
     4fa:	c86a                	sw	s10,16(sp)
     4fc:	ca66                	sw	s9,20(sp)
     4fe:	cc62                	sw	s8,24(sp)
     500:	ce5e                	sw	s7,28(sp)
     502:	a019                	j	508 <__riscv_save_4+0x4>

00000504 <__riscv_save_4>:
     504:	7139                	addi	sp,sp,-64
     506:	5301                	li	t1,-32
     508:	d05a                	sw	s6,32(sp)
     50a:	d256                	sw	s5,36(sp)
     50c:	d452                	sw	s4,40(sp)
     50e:	d64e                	sw	s3,44(sp)
     510:	d84a                	sw	s2,48(sp)
     512:	da26                	sw	s1,52(sp)
     514:	dc22                	sw	s0,56(sp)
     516:	de06                	sw	ra,60(sp)
     518:	40610133          	sub	sp,sp,t1
     51c:	8282                	jr	t0

0000051e <__riscv_save_0>:
     51e:	1141                	addi	sp,sp,-16
     520:	c04a                	sw	s2,0(sp)
     522:	c226                	sw	s1,4(sp)
     524:	c422                	sw	s0,8(sp)
     526:	c606                	sw	ra,12(sp)
     528:	8282                	jr	t0

0000052a <__riscv_restore_12>:
     52a:	4db2                	lw	s11,12(sp)
     52c:	0141                	addi	sp,sp,16

0000052e <__riscv_restore_10>:
     52e:	4d02                	lw	s10,0(sp)
     530:	4c92                	lw	s9,4(sp)
     532:	4c22                	lw	s8,8(sp)
     534:	4bb2                	lw	s7,12(sp)
     536:	0141                	addi	sp,sp,16

00000538 <__riscv_restore_4>:
     538:	4b02                	lw	s6,0(sp)
     53a:	4a92                	lw	s5,4(sp)
     53c:	4a22                	lw	s4,8(sp)
     53e:	49b2                	lw	s3,12(sp)
     540:	0141                	addi	sp,sp,16

00000542 <__riscv_restore_0>:
     542:	4902                	lw	s2,0(sp)
     544:	4492                	lw	s1,4(sp)
     546:	4422                	lw	s0,8(sp)
     548:	40b2                	lw	ra,12(sp)
     54a:	0141                	addi	sp,sp,16
     54c:	8082                	ret

0000054e <memset>:
     54e:	433d                	li	t1,15
     550:	872a                	mv	a4,a0
     552:	02c37363          	bgeu	t1,a2,578 <memset+0x2a>
     556:	00f77793          	andi	a5,a4,15
     55a:	efbd                	bnez	a5,5d8 <memset+0x8a>
     55c:	e5ad                	bnez	a1,5c6 <memset+0x78>
     55e:	ff067693          	andi	a3,a2,-16
     562:	8a3d                	andi	a2,a2,15
     564:	96ba                	add	a3,a3,a4
     566:	c30c                	sw	a1,0(a4)
     568:	c34c                	sw	a1,4(a4)
     56a:	c70c                	sw	a1,8(a4)
     56c:	c74c                	sw	a1,12(a4)
     56e:	0741                	addi	a4,a4,16
     570:	fed76be3          	bltu	a4,a3,566 <memset+0x18>
     574:	e211                	bnez	a2,578 <memset+0x2a>
     576:	8082                	ret
     578:	40c306b3          	sub	a3,t1,a2
     57c:	068a                	slli	a3,a3,0x2
     57e:	00000297          	auipc	t0,0x0
     582:	9696                	add	a3,a3,t0
     584:	00a68067          	jr	10(a3)
     588:	00b70723          	sb	a1,14(a4)
     58c:	00b706a3          	sb	a1,13(a4)
     590:	00b70623          	sb	a1,12(a4)
     594:	00b705a3          	sb	a1,11(a4)
     598:	00b70523          	sb	a1,10(a4)
     59c:	00b704a3          	sb	a1,9(a4)
     5a0:	00b70423          	sb	a1,8(a4)
     5a4:	00b703a3          	sb	a1,7(a4)
     5a8:	00b70323          	sb	a1,6(a4)
     5ac:	00b702a3          	sb	a1,5(a4)
     5b0:	00b70223          	sb	a1,4(a4)
     5b4:	00b701a3          	sb	a1,3(a4)
     5b8:	00b70123          	sb	a1,2(a4)
     5bc:	00b700a3          	sb	a1,1(a4)
     5c0:	00b70023          	sb	a1,0(a4)
     5c4:	8082                	ret
     5c6:	0ff5f593          	andi	a1,a1,255
     5ca:	00859693          	slli	a3,a1,0x8
     5ce:	8dd5                	or	a1,a1,a3
     5d0:	01059693          	slli	a3,a1,0x10
     5d4:	8dd5                	or	a1,a1,a3
     5d6:	b761                	j	55e <memset+0x10>
     5d8:	00279693          	slli	a3,a5,0x2
     5dc:	00000297          	auipc	t0,0x0
     5e0:	9696                	add	a3,a3,t0
     5e2:	8286                	mv	t0,ra
     5e4:	fa8680e7          	jalr	-88(a3)
     5e8:	8096                	mv	ra,t0
     5ea:	17c1                	addi	a5,a5,-16
     5ec:	8f1d                	sub	a4,a4,a5
     5ee:	963e                	add	a2,a2,a5
     5f0:	f8c374e3          	bgeu	t1,a2,578 <memset+0x2a>
     5f4:	b7a5                	j	55c <memset+0xe>

000005f6 <SERVICE_RTOS_TaskCreate>:
     5f6:	cd11                	beqz	a0,612 <SERVICE_RTOS_TaskCreate+0x1c>
     5f8:	4805                	li	a6,1
     5fa:	cd89                	beqz	a1,614 <SERVICE_RTOS_TaskCreate+0x1e>
     5fc:	ce01                	beqz	a2,614 <SERVICE_RTOS_TaskCreate+0x1e>
     5fe:	f21ff2ef          	jal	t0,51e <__riscv_save_0>
     602:	87ba                	mv	a5,a4
     604:	8736                	mv	a4,a3
     606:	4681                	li	a3,0
     608:	4d7000ef          	jal	ra,12de <xTaskCreate>
     60c:	4801                	li	a6,0
     60e:	8542                	mv	a0,a6
     610:	bf0d                	j	542 <__riscv_restore_0>
     612:	4805                	li	a6,1
     614:	8542                	mv	a0,a6
     616:	8082                	ret

00000618 <SERVICE_RTOS_StartSchedular>:
     618:	f07ff2ef          	jal	t0,51e <__riscv_save_0>
     61c:	6f5000ef          	jal	ra,1510 <vTaskStartScheduler>
     620:	4501                	li	a0,0
     622:	b705                	j	542 <__riscv_restore_0>

00000624 <SERVICE_RTOS_CreateBlockingQueue>:
     624:	cd11                	beqz	a0,640 <SERVICE_RTOS_CreateBlockingQueue+0x1c>
     626:	4785                	li	a5,1
     628:	cd89                	beqz	a1,642 <SERVICE_RTOS_CreateBlockingQueue+0x1e>
     62a:	ce01                	beqz	a2,642 <SERVICE_RTOS_CreateBlockingQueue+0x1e>
     62c:	ef3ff2ef          	jal	t0,51e <__riscv_save_0>
     630:	8432                	mv	s0,a2
     632:	4601                	li	a2,0
     634:	73e000ef          	jal	ra,d72 <xQueueGenericCreate>
     638:	4781                	li	a5,0
     63a:	c008                	sw	a0,0(s0)
     63c:	853e                	mv	a0,a5
     63e:	b711                	j	542 <__riscv_restore_0>
     640:	4785                	li	a5,1
     642:	853e                	mv	a0,a5
     644:	8082                	ret

00000646 <SERVICE_RTOS_AppendToBlockingQueue>:
     646:	4785                	li	a5,1
     648:	c195                	beqz	a1,66c <SERVICE_RTOS_AppendToBlockingQueue+0x26>
     64a:	c20d                	beqz	a2,66c <SERVICE_RTOS_AppendToBlockingQueue+0x26>
     64c:	ed3ff2ef          	jal	t0,51e <__riscv_save_0>
     650:	87b2                	mv	a5,a2
     652:	4681                	li	a3,0
     654:	00155613          	srli	a2,a0,0x1
     658:	853e                	mv	a0,a5
     65a:	782000ef          	jal	ra,ddc <xQueueGenericSend>
     65e:	4705                	li	a4,1
     660:	4781                	li	a5,0
     662:	00e50363          	beq	a0,a4,668 <SERVICE_RTOS_AppendToBlockingQueue+0x22>
     666:	4789                	li	a5,2
     668:	853e                	mv	a0,a5
     66a:	bde1                	j	542 <__riscv_restore_0>
     66c:	853e                	mv	a0,a5
     66e:	8082                	ret

00000670 <SERVICE_RTOS_ReadFromBlockingQueue>:
     670:	4785                	li	a5,1
     672:	c985                	beqz	a1,6a2 <SERVICE_RTOS_ReadFromBlockingQueue+0x32>
     674:	c61d                	beqz	a2,6a2 <SERVICE_RTOS_ReadFromBlockingQueue+0x32>
     676:	ea9ff2ef          	jal	t0,51e <__riscv_save_0>
     67a:	8432                	mv	s0,a2
     67c:	00155613          	srli	a2,a0,0x1
     680:	8522                	mv	a0,s0
     682:	84b6                	mv	s1,a3
     684:	0e7000ef          	jal	ra,f6a <xQueueReceive>
     688:	4705                	li	a4,1
     68a:	478d                	li	a5,3
     68c:	00e51963          	bne	a0,a4,69e <SERVICE_RTOS_ReadFromBlockingQueue+0x2e>
     690:	8522                	mv	a0,s0
     692:	225000ef          	jal	ra,10b6 <uxQueueMessagesWaiting>
     696:	0505                	addi	a0,a0,1
     698:	00a48023          	sb	a0,0(s1)
     69c:	4781                	li	a5,0
     69e:	853e                	mv	a0,a5
     6a0:	b54d                	j	542 <__riscv_restore_0>
     6a2:	853e                	mv	a0,a5
     6a4:	8082                	ret

000006a6 <SERVICE_RTOS_BlockFor>:
     6a6:	e79ff2ef          	jal	t0,51e <__riscv_save_0>
     6aa:	8105                	srli	a0,a0,0x1
     6ac:	21e010ef          	jal	ra,18ca <vTaskDelay>
     6b0:	4501                	li	a0,0
     6b2:	bd41                	j	542 <__riscv_restore_0>

000006b4 <SERVICE_RTOS_WaitForNotification>:
     6b4:	e6bff2ef          	jal	t0,51e <__riscv_save_0>
     6b8:	1f400613          	li	a2,500
     6bc:	02c50633          	mul	a2,a0,a2
     6c0:	3e800793          	li	a5,1000
     6c4:	4581                	li	a1,0
     6c6:	4501                	li	a0,0
     6c8:	02f65633          	divu	a2,a2,a5
     6cc:	674010ef          	jal	ra,1d40 <ulTaskGenericNotifyTake>
     6d0:	4501                	li	a0,0
     6d2:	bd85                	j	542 <__riscv_restore_0>

000006d4 <SERVICE_RTOS_Notify>:
     6d4:	e4bff2ef          	jal	t0,51e <__riscv_save_0>
     6d8:	4405                	li	s0,1
     6da:	c901                	beqz	a0,6ea <SERVICE_RTOS_Notify+0x16>
     6dc:	e989                	bnez	a1,6ee <SERVICE_RTOS_Notify+0x1a>
     6de:	4701                	li	a4,0
     6e0:	4689                	li	a3,2
     6e2:	4601                	li	a2,0
     6e4:	6f4010ef          	jal	ra,1dd8 <xTaskGenericNotify>
     6e8:	4401                	li	s0,0
     6ea:	8522                	mv	a0,s0
     6ec:	bd99                	j	542 <__riscv_restore_0>
     6ee:	4705                	li	a4,1
     6f0:	4401                	li	s0,0
     6f2:	fee59ce3          	bne	a1,a4,6ea <SERVICE_RTOS_Notify+0x16>
     6f6:	4601                	li	a2,0
     6f8:	4581                	li	a1,0
     6fa:	06d010ef          	jal	ra,1f66 <vTaskGenericNotifyGiveFromISR>
     6fe:	b7f5                	j	6ea <SERVICE_RTOS_Notify+0x16>

00000700 <prvInsertBlockIntoFreeList>:
     700:	200007b7          	lui	a5,0x20000
     704:	22878793          	addi	a5,a5,552 # 20000228 <xStart>
     708:	4398                	lw	a4,0(a5)
     70a:	02a76f63          	bltu	a4,a0,748 <prvInsertBlockIntoFreeList+0x48>
     70e:	43d0                	lw	a2,4(a5)
     710:	00c786b3          	add	a3,a5,a2
     714:	00d51663          	bne	a0,a3,720 <prvInsertBlockIntoFreeList+0x20>
     718:	4154                	lw	a3,4(a0)
     71a:	853e                	mv	a0,a5
     71c:	96b2                	add	a3,a3,a2
     71e:	c3d4                	sw	a3,4(a5)
     720:	4150                	lw	a2,4(a0)
     722:	00c506b3          	add	a3,a0,a2
     726:	00d71c63          	bne	a4,a3,73e <prvInsertBlockIntoFreeList+0x3e>
     72a:	200006b7          	lui	a3,0x20000
     72e:	2106a683          	lw	a3,528(a3) # 20000210 <_edata>
     732:	00d70663          	beq	a4,a3,73e <prvInsertBlockIntoFreeList+0x3e>
     736:	4354                	lw	a3,4(a4)
     738:	4318                	lw	a4,0(a4)
     73a:	96b2                	add	a3,a3,a2
     73c:	c154                	sw	a3,4(a0)
     73e:	c118                	sw	a4,0(a0)
     740:	00f50363          	beq	a0,a5,746 <prvInsertBlockIntoFreeList+0x46>
     744:	c388                	sw	a0,0(a5)
     746:	8082                	ret
     748:	87ba                	mv	a5,a4
     74a:	bf7d                	j	708 <prvInsertBlockIntoFreeList+0x8>

0000074c <pvPortMalloc>:
     74c:	db9ff2ef          	jal	t0,504 <__riscv_save_4>
     750:	1141                	addi	sp,sp,-16
     752:	c62a                	sw	a0,12(sp)
     754:	64d000ef          	jal	ra,15a0 <vTaskSuspendAll>
     758:	200006b7          	lui	a3,0x20000
     75c:	2106a783          	lw	a5,528(a3) # 20000210 <_edata>
     760:	20000637          	lui	a2,0x20000
     764:	21068693          	addi	a3,a3,528
     768:	21460613          	addi	a2,a2,532 # 20000214 <xBlockAllocatedBit>
     76c:	4532                	lw	a0,12(sp)
     76e:	efa1                	bnez	a5,7c6 <pvPortMalloc+0x7a>
     770:	20000737          	lui	a4,0x20000
     774:	2b870793          	addi	a5,a4,696 # 200002b8 <ucHeap>
     778:	00f7f593          	andi	a1,a5,15
     77c:	2b870713          	addi	a4,a4,696
     780:	c581                	beqz	a1,788 <pvPortMalloc+0x3c>
     782:	00f78713          	addi	a4,a5,15
     786:	9b41                	andi	a4,a4,-16
     788:	200005b7          	lui	a1,0x20000
     78c:	22858593          	addi	a1,a1,552 # 20000228 <xStart>
     790:	0005a223          	sw	zero,4(a1)
     794:	c198                	sw	a4,0(a1)
     796:	658d                	lui	a1,0x3
     798:	15c1                	addi	a1,a1,-16
     79a:	97ae                	add	a5,a5,a1
     79c:	9bc1                	andi	a5,a5,-16
     79e:	0007a223          	sw	zero,4(a5)
     7a2:	0007a023          	sw	zero,0(a5)
     7a6:	40e785b3          	sub	a1,a5,a4
     7aa:	c29c                	sw	a5,0(a3)
     7ac:	c31c                	sw	a5,0(a4)
     7ae:	200007b7          	lui	a5,0x20000
     7b2:	20b7ae23          	sw	a1,540(a5) # 2000021c <xMinimumEverFreeBytesRemaining>
     7b6:	200007b7          	lui	a5,0x20000
     7ba:	20b7ac23          	sw	a1,536(a5) # 20000218 <xFreeBytesRemaining>
     7be:	800007b7          	lui	a5,0x80000
     7c2:	c34c                	sw	a1,4(a4)
     7c4:	c21c                	sw	a5,0(a2)
     7c6:	00062a03          	lw	s4,0(a2)
     7ca:	00aa77b3          	and	a5,s4,a0
     7ce:	e385                	bnez	a5,7ee <pvPortMalloc+0xa2>
     7d0:	fff50793          	addi	a5,a0,-1
     7d4:	5739                	li	a4,-18
     7d6:	00f76c63          	bltu	a4,a5,7ee <pvPortMalloc+0xa2>
     7da:	01050793          	addi	a5,a0,16
     7de:	00f7f713          	andi	a4,a5,15
     7e2:	c341                	beqz	a4,862 <__stack_size+0x62>
     7e4:	ff07f713          	andi	a4,a5,-16
     7e8:	0741                	addi	a4,a4,16
     7ea:	06e7eb63          	bltu	a5,a4,860 <__stack_size+0x60>
     7ee:	4481                	li	s1,0
     7f0:	a089                	j	832 <__stack_size+0x32>
     7f2:	8722                	mv	a4,s0
     7f4:	842e                	mv	s0,a1
     7f6:	a061                	j	87e <__stack_size+0x7e>
     7f8:	c158                	sw	a4,4(a0)
     7fa:	c05c                	sw	a5,4(s0)
     7fc:	3711                	jal	700 <prvInsertBlockIntoFreeList>
     7fe:	4058                	lw	a4,4(s0)
     800:	200006b7          	lui	a3,0x20000
     804:	21c68693          	addi	a3,a3,540 # 2000021c <xMinimumEverFreeBytesRemaining>
     808:	4290                	lw	a2,0(a3)
     80a:	40e907b3          	sub	a5,s2,a4
     80e:	00f9a023          	sw	a5,0(s3)
     812:	00c7f363          	bgeu	a5,a2,818 <__stack_size+0x18>
     816:	c29c                	sw	a5,0(a3)
     818:	200007b7          	lui	a5,0x20000
     81c:	00ea6733          	or	a4,s4,a4
     820:	22078793          	addi	a5,a5,544 # 20000220 <xNumberOfSuccessfulAllocations>
     824:	c058                	sw	a4,4(s0)
     826:	4398                	lw	a4,0(a5)
     828:	04c1                	addi	s1,s1,16
     82a:	00042023          	sw	zero,0(s0)
     82e:	0705                	addi	a4,a4,1
     830:	c398                	sw	a4,0(a5)
     832:	733000ef          	jal	ra,1764 <xTaskResumeAll>
     836:	00f4f793          	andi	a5,s1,15
     83a:	cbd1                	beqz	a5,8ce <__stack_size+0xce>
     83c:	6789                	lui	a5,0x2
     83e:	80078793          	addi	a5,a5,-2048 # 1800 <xTaskResumeAll+0x9c>
     842:	30079073          	csrw	mstatus,a5
     846:	00008637          	lui	a2,0x8
     84a:	00008537          	lui	a0,0x8
     84e:	10c60613          	addi	a2,a2,268 # 810c <_read+0x10>
     852:	11000593          	li	a1,272
     856:	14050513          	addi	a0,a0,320 # 8140 <_read+0x44>
     85a:	5f4030ef          	jal	ra,3e4e <iprintf>
     85e:	a001                	j	85e <__stack_size+0x5e>
     860:	87ba                	mv	a5,a4
     862:	20000737          	lui	a4,0x20000
     866:	21872903          	lw	s2,536(a4) # 20000218 <xFreeBytesRemaining>
     86a:	21870993          	addi	s3,a4,536
     86e:	f8f960e3          	bltu	s2,a5,7ee <pvPortMalloc+0xa2>
     872:	20000737          	lui	a4,0x20000
     876:	22872403          	lw	s0,552(a4) # 20000228 <xStart>
     87a:	22870713          	addi	a4,a4,552
     87e:	4050                	lw	a2,4(s0)
     880:	00f67463          	bgeu	a2,a5,888 <__stack_size+0x88>
     884:	400c                	lw	a1,0(s0)
     886:	f5b5                	bnez	a1,7f2 <pvPortMalloc+0xa6>
     888:	4294                	lw	a3,0(a3)
     88a:	f68682e3          	beq	a3,s0,7ee <pvPortMalloc+0xa2>
     88e:	4014                	lw	a3,0(s0)
     890:	4304                	lw	s1,0(a4)
     892:	c314                	sw	a3,0(a4)
     894:	40f60733          	sub	a4,a2,a5
     898:	02000693          	li	a3,32
     89c:	f6e6f1e3          	bgeu	a3,a4,7fe <pvPortMalloc+0xb2>
     8a0:	00f40533          	add	a0,s0,a5
     8a4:	00f57693          	andi	a3,a0,15
     8a8:	daa1                	beqz	a3,7f8 <pvPortMalloc+0xac>
     8aa:	6789                	lui	a5,0x2
     8ac:	80078793          	addi	a5,a5,-2048 # 1800 <xTaskResumeAll+0x9c>
     8b0:	30079073          	csrw	mstatus,a5
     8b4:	00008637          	lui	a2,0x8
     8b8:	00008537          	lui	a0,0x8
     8bc:	10c60613          	addi	a2,a2,268 # 810c <_read+0x10>
     8c0:	0cf00593          	li	a1,207
     8c4:	14050513          	addi	a0,a0,320 # 8140 <_read+0x44>
     8c8:	586030ef          	jal	ra,3e4e <iprintf>
     8cc:	a001                	j	8cc <__stack_size+0xcc>
     8ce:	8526                	mv	a0,s1
     8d0:	0141                	addi	sp,sp,16
     8d2:	b19d                	j	538 <__riscv_restore_4>

000008d4 <vPortFree>:
     8d4:	c14d                	beqz	a0,976 <vPortFree+0xa2>
     8d6:	c49ff2ef          	jal	t0,51e <__riscv_save_0>
     8da:	200007b7          	lui	a5,0x20000
     8de:	ff452703          	lw	a4,-12(a0)
     8e2:	2147a783          	lw	a5,532(a5) # 20000214 <xBlockAllocatedBit>
     8e6:	842a                	mv	s0,a0
     8e8:	00f776b3          	and	a3,a4,a5
     8ec:	e29d                	bnez	a3,912 <vPortFree+0x3e>
     8ee:	6789                	lui	a5,0x2
     8f0:	80078793          	addi	a5,a5,-2048 # 1800 <xTaskResumeAll+0x9c>
     8f4:	30079073          	csrw	mstatus,a5
     8f8:	00008637          	lui	a2,0x8
     8fc:	00008537          	lui	a0,0x8
     900:	10c60613          	addi	a2,a2,268 # 810c <_read+0x10>
     904:	12400593          	li	a1,292
     908:	14050513          	addi	a0,a0,320 # 8140 <_read+0x44>
     90c:	542030ef          	jal	ra,3e4e <iprintf>
     910:	a001                	j	910 <vPortFree+0x3c>
     912:	ff052683          	lw	a3,-16(a0)
     916:	c29d                	beqz	a3,93c <vPortFree+0x68>
     918:	6789                	lui	a5,0x2
     91a:	80078793          	addi	a5,a5,-2048 # 1800 <xTaskResumeAll+0x9c>
     91e:	30079073          	csrw	mstatus,a5
     922:	00008637          	lui	a2,0x8
     926:	00008537          	lui	a0,0x8
     92a:	10c60613          	addi	a2,a2,268 # 810c <_read+0x10>
     92e:	12500593          	li	a1,293
     932:	14050513          	addi	a0,a0,320 # 8140 <_read+0x44>
     936:	518030ef          	jal	ra,3e4e <iprintf>
     93a:	a001                	j	93a <vPortFree+0x66>
     93c:	fff7c793          	not	a5,a5
     940:	8ff9                	and	a5,a5,a4
     942:	fef52a23          	sw	a5,-12(a0)
     946:	45b000ef          	jal	ra,15a0 <vTaskSuspendAll>
     94a:	200007b7          	lui	a5,0x20000
     94e:	21878793          	addi	a5,a5,536 # 20000218 <xFreeBytesRemaining>
     952:	4394                	lw	a3,0(a5)
     954:	ff442703          	lw	a4,-12(s0)
     958:	ff040513          	addi	a0,s0,-16
     95c:	9736                	add	a4,a4,a3
     95e:	c398                	sw	a4,0(a5)
     960:	3345                	jal	700 <prvInsertBlockIntoFreeList>
     962:	200007b7          	lui	a5,0x20000
     966:	22478793          	addi	a5,a5,548 # 20000224 <xNumberOfSuccessfulFrees>
     96a:	4398                	lw	a4,0(a5)
     96c:	0705                	addi	a4,a4,1
     96e:	c398                	sw	a4,0(a5)
     970:	5f5000ef          	jal	ra,1764 <xTaskResumeAll>
     974:	b6f9                	j	542 <__riscv_restore_0>
     976:	8082                	ret

00000978 <vPortSetupTimerInterrupt>:
     978:	e000e7b7          	lui	a5,0xe000e
     97c:	5741                	li	a4,-16
     97e:	40e78723          	sb	a4,1038(a5) # e000e40e <__freertos_irq_stack_top+0xc000940e>
     982:	40e78623          	sb	a4,1036(a5)
     986:	e000f7b7          	lui	a5,0xe000f
     98a:	0007a023          	sw	zero,0(a5) # e000f000 <__freertos_irq_stack_top+0xc000a000>
     98e:	0007a223          	sw	zero,4(a5)
     992:	4681                	li	a3,0
     994:	c794                	sw	a3,8(a5)
     996:	4701                	li	a4,0
     998:	c7d8                	sw	a4,12(a5)
     99a:	8101a583          	lw	a1,-2032(gp) # 20000200 <SystemCoreClock>
     99e:	1f400713          	li	a4,500
     9a2:	4681                	li	a3,0
     9a4:	02e5d633          	divu	a2,a1,a4
     9a8:	473d                	li	a4,15
     9aa:	cb90                	sw	a2,16(a5)
     9ac:	cbd4                	sw	a3,20(a5)
     9ae:	c398                	sw	a4,0(a5)
     9b0:	8082                	ret

000009b2 <xPortStartScheduler>:
     9b2:	b6dff2ef          	jal	t0,51e <__riscv_save_0>
     9b6:	1141                	addi	sp,sp,-16
     9b8:	c602                	sw	zero,12(sp)
     9ba:	305027f3          	csrr	a5,mtvec
     9be:	c63e                	sw	a5,12(sp)
     9c0:	47b2                	lw	a5,12(sp)
     9c2:	470d                	li	a4,3
     9c4:	8b8d                	andi	a5,a5,3
     9c6:	02e78463          	beq	a5,a4,9ee <xPortStartScheduler+0x3c>
     9ca:	6789                	lui	a5,0x2
     9cc:	80078793          	addi	a5,a5,-2048 # 1800 <xTaskResumeAll+0x9c>
     9d0:	30079073          	csrw	mstatus,a5
     9d4:	00008637          	lui	a2,0x8
     9d8:	00008537          	lui	a0,0x8
     9dc:	16460613          	addi	a2,a2,356 # 8164 <_read+0x68>
     9e0:	0b600593          	li	a1,182
     9e4:	14050513          	addi	a0,a0,320 # 8140 <_read+0x44>
     9e8:	466030ef          	jal	ra,3e4e <iprintf>
     9ec:	a001                	j	9ec <xPortStartScheduler+0x3a>
     9ee:	200057b7          	lui	a5,0x20005
     9f2:	00078793          	mv	a5,a5
     9f6:	8bbd                	andi	a5,a5,15
     9f8:	c39d                	beqz	a5,a1e <xPortStartScheduler+0x6c>
     9fa:	6789                	lui	a5,0x2
     9fc:	80078793          	addi	a5,a5,-2048 # 1800 <xTaskResumeAll+0x9c>
     a00:	30079073          	csrw	mstatus,a5
     a04:	00008637          	lui	a2,0x8
     a08:	00008537          	lui	a0,0x8
     a0c:	16460613          	addi	a2,a2,356 # 8164 <_read+0x68>
     a10:	0bb00593          	li	a1,187
     a14:	14050513          	addi	a0,a0,320 # 8140 <_read+0x44>
     a18:	436030ef          	jal	ra,3e4e <iprintf>
     a1c:	a001                	j	a1c <xPortStartScheduler+0x6a>
     a1e:	3fa9                	jal	978 <vPortSetupTimerInterrupt>
     a20:	e000e7b7          	lui	a5,0xe000e
     a24:	6711                	lui	a4,0x4
     a26:	10e7a023          	sw	a4,256(a5) # e000e100 <__freertos_irq_stack_top+0xc0009100>
     a2a:	6705                	lui	a4,0x1
     a2c:	10e7a023          	sw	a4,256(a5)
     a30:	200007b7          	lui	a5,0x20000
     a34:	1e07a823          	sw	zero,496(a5) # 200001f0 <uxCriticalNesting>
     a38:	8c9ff0ef          	jal	ra,300 <xPortStartFirstTask>
     a3c:	4501                	li	a0,0
     a3e:	0141                	addi	sp,sp,16
     a40:	b609                	j	542 <__riscv_restore_0>

00000a42 <SysTick_Handler>:
     a42:	7139                	addi	sp,sp,-64
     a44:	de06                	sw	ra,60(sp)
     a46:	dc16                	sw	t0,56(sp)
     a48:	da1a                	sw	t1,52(sp)
     a4a:	d81e                	sw	t2,48(sp)
     a4c:	d62a                	sw	a0,44(sp)
     a4e:	d42e                	sw	a1,40(sp)
     a50:	d232                	sw	a2,36(sp)
     a52:	d036                	sw	a3,32(sp)
     a54:	ce3a                	sw	a4,28(sp)
     a56:	cc3e                	sw	a5,24(sp)
     a58:	ca42                	sw	a6,20(sp)
     a5a:	c846                	sw	a7,16(sp)
     a5c:	c672                	sw	t3,12(sp)
     a5e:	c476                	sw	t4,8(sp)
     a60:	c27a                	sw	t5,4(sp)
     a62:	c07e                	sw	t6,0(sp)
     a64:	34011173          	csrrw	sp,mscratch,sp
     a68:	6789                	lui	a5,0x2
     a6a:	80078793          	addi	a5,a5,-2048 # 1800 <xTaskResumeAll+0x9c>
     a6e:	30079073          	csrw	mstatus,a5
     a72:	e000f7b7          	lui	a5,0xe000f
     a76:	0007a223          	sw	zero,4(a5) # e000f004 <__freertos_irq_stack_top+0xc000a004>
     a7a:	341000ef          	jal	ra,15ba <xTaskIncrementTick>
     a7e:	c511                	beqz	a0,a8a <SysTick_Handler+0x48>
     a80:	e000e7b7          	lui	a5,0xe000e
     a84:	6711                	lui	a4,0x4
     a86:	20e7a023          	sw	a4,512(a5) # e000e200 <__freertos_irq_stack_top+0xc0009200>
     a8a:	6789                	lui	a5,0x2
     a8c:	88878793          	addi	a5,a5,-1912 # 1888 <xTaskResumeAll+0x124>
     a90:	30079073          	csrw	mstatus,a5
     a94:	34011173          	csrrw	sp,mscratch,sp
     a98:	50f2                	lw	ra,60(sp)
     a9a:	52e2                	lw	t0,56(sp)
     a9c:	5352                	lw	t1,52(sp)
     a9e:	53c2                	lw	t2,48(sp)
     aa0:	5532                	lw	a0,44(sp)
     aa2:	55a2                	lw	a1,40(sp)
     aa4:	5612                	lw	a2,36(sp)
     aa6:	5682                	lw	a3,32(sp)
     aa8:	4772                	lw	a4,28(sp)
     aaa:	47e2                	lw	a5,24(sp)
     aac:	4852                	lw	a6,20(sp)
     aae:	48c2                	lw	a7,16(sp)
     ab0:	4e32                	lw	t3,12(sp)
     ab2:	4ea2                	lw	t4,8(sp)
     ab4:	4f12                	lw	t5,4(sp)
     ab6:	4f82                	lw	t6,0(sp)
     ab8:	6121                	addi	sp,sp,64
     aba:	30200073          	mret

00000abe <vPortEnterCritical>:
     abe:	6789                	lui	a5,0x2
     ac0:	80078793          	addi	a5,a5,-2048 # 1800 <xTaskResumeAll+0x9c>
     ac4:	30079073          	csrw	mstatus,a5
     ac8:	200007b7          	lui	a5,0x20000
     acc:	1f078793          	addi	a5,a5,496 # 200001f0 <uxCriticalNesting>
     ad0:	4398                	lw	a4,0(a5)
     ad2:	0705                	addi	a4,a4,1
     ad4:	c398                	sw	a4,0(a5)
     ad6:	8082                	ret

00000ad8 <vPortExitCritical>:
     ad8:	20000737          	lui	a4,0x20000
     adc:	1f070713          	addi	a4,a4,496 # 200001f0 <uxCriticalNesting>
     ae0:	431c                	lw	a5,0(a4)
     ae2:	e78d                	bnez	a5,b0c <vPortExitCritical+0x34>
     ae4:	a3bff2ef          	jal	t0,51e <__riscv_save_0>
     ae8:	6789                	lui	a5,0x2
     aea:	80078793          	addi	a5,a5,-2048 # 1800 <xTaskResumeAll+0x9c>
     aee:	30079073          	csrw	mstatus,a5
     af2:	00008637          	lui	a2,0x8
     af6:	00008537          	lui	a0,0x8
     afa:	16460613          	addi	a2,a2,356 # 8164 <_read+0x68>
     afe:	10300593          	li	a1,259
     b02:	14050513          	addi	a0,a0,320 # 8140 <_read+0x44>
     b06:	348030ef          	jal	ra,3e4e <iprintf>
     b0a:	a001                	j	b0a <vPortExitCritical+0x32>
     b0c:	17fd                	addi	a5,a5,-1
     b0e:	c31c                	sw	a5,0(a4)
     b10:	e791                	bnez	a5,b1c <vPortExitCritical+0x44>
     b12:	6789                	lui	a5,0x2
     b14:	88878793          	addi	a5,a5,-1912 # 1888 <xTaskResumeAll+0x124>
     b18:	30079073          	csrw	mstatus,a5
     b1c:	8082                	ret

00000b1e <xPortSetInterruptMask>:
     b1e:	6509                	lui	a0,0x2
     b20:	80050513          	addi	a0,a0,-2048 # 1800 <xTaskResumeAll+0x9c>
     b24:	30051573          	csrrw	a0,mstatus,a0
     b28:	8082                	ret

00000b2a <vPortClearInterruptMask>:
     b2a:	30051073          	csrw	mstatus,a0
     b2e:	8082                	ret

00000b30 <vListInitialise>:
     b30:	00850793          	addi	a5,a0,8
     b34:	577d                	li	a4,-1
     b36:	c15c                	sw	a5,4(a0)
     b38:	c518                	sw	a4,8(a0)
     b3a:	c55c                	sw	a5,12(a0)
     b3c:	c91c                	sw	a5,16(a0)
     b3e:	00052023          	sw	zero,0(a0)
     b42:	8082                	ret

00000b44 <vListInitialiseItem>:
     b44:	00052823          	sw	zero,16(a0)
     b48:	8082                	ret

00000b4a <vListInsert>:
     b4a:	4198                	lw	a4,0(a1)
     b4c:	56fd                	li	a3,-1
     b4e:	00850793          	addi	a5,a0,8
     b52:	00d71e63          	bne	a4,a3,b6e <vListInsert+0x24>
     b56:	491c                	lw	a5,16(a0)
     b58:	43d8                	lw	a4,4(a5)
     b5a:	c1d8                	sw	a4,4(a1)
     b5c:	c70c                	sw	a1,8(a4)
     b5e:	c59c                	sw	a5,8(a1)
     b60:	c3cc                	sw	a1,4(a5)
     b62:	411c                	lw	a5,0(a0)
     b64:	c988                	sw	a0,16(a1)
     b66:	0785                	addi	a5,a5,1
     b68:	c11c                	sw	a5,0(a0)
     b6a:	8082                	ret
     b6c:	87b6                	mv	a5,a3
     b6e:	43d4                	lw	a3,4(a5)
     b70:	4290                	lw	a2,0(a3)
     b72:	fec77de3          	bgeu	a4,a2,b6c <vListInsert+0x22>
     b76:	b7cd                	j	b58 <vListInsert+0xe>

00000b78 <uxListRemove>:
     b78:	4154                	lw	a3,4(a0)
     b7a:	4518                	lw	a4,8(a0)
     b7c:	491c                	lw	a5,16(a0)
     b7e:	c698                	sw	a4,8(a3)
     b80:	c354                	sw	a3,4(a4)
     b82:	43d4                	lw	a3,4(a5)
     b84:	00a69363          	bne	a3,a0,b8a <uxListRemove+0x12>
     b88:	c3d8                	sw	a4,4(a5)
     b8a:	4398                	lw	a4,0(a5)
     b8c:	00052823          	sw	zero,16(a0)
     b90:	177d                	addi	a4,a4,-1
     b92:	c398                	sw	a4,0(a5)
     b94:	4388                	lw	a0,0(a5)
     b96:	8082                	ret

00000b98 <prvIsQueueEmpty>:
     b98:	987ff2ef          	jal	t0,51e <__riscv_save_0>
     b9c:	1141                	addi	sp,sp,-16
     b9e:	c62a                	sw	a0,12(sp)
     ba0:	3f39                	jal	abe <vPortEnterCritical>
     ba2:	4532                	lw	a0,12(sp)
     ba4:	5d00                	lw	s0,56(a0)
     ba6:	3f0d                	jal	ad8 <vPortExitCritical>
     ba8:	00143513          	seqz	a0,s0
     bac:	0141                	addi	sp,sp,16
     bae:	ba51                	j	542 <__riscv_restore_0>

00000bb0 <prvCopyDataToQueue>:
     bb0:	96fff2ef          	jal	t0,51e <__riscv_save_0>
     bb4:	8932                	mv	s2,a2
     bb6:	4130                	lw	a2,64(a0)
     bb8:	5d04                	lw	s1,56(a0)
     bba:	842a                	mv	s0,a0
     bbc:	ee01                	bnez	a2,bd4 <prvCopyDataToQueue+0x24>
     bbe:	411c                	lw	a5,0(a0)
     bc0:	4501                	li	a0,0
     bc2:	e791                	bnez	a5,bce <prvCopyDataToQueue+0x1e>
     bc4:	4408                	lw	a0,8(s0)
     bc6:	0b0010ef          	jal	ra,1c76 <xTaskPriorityDisinherit>
     bca:	00042423          	sw	zero,8(s0)
     bce:	0485                	addi	s1,s1,1
     bd0:	dc04                	sw	s1,56(s0)
     bd2:	ba85                	j	542 <__riscv_restore_0>
     bd4:	02091063          	bnez	s2,bf4 <prvCopyDataToQueue+0x44>
     bd8:	4148                	lw	a0,4(a0)
     bda:	7c8020ef          	jal	ra,33a2 <memcpy>
     bde:	405c                	lw	a5,4(s0)
     be0:	4038                	lw	a4,64(s0)
     be2:	4501                	li	a0,0
     be4:	97ba                	add	a5,a5,a4
     be6:	4418                	lw	a4,8(s0)
     be8:	c05c                	sw	a5,4(s0)
     bea:	fee7e2e3          	bltu	a5,a4,bce <prvCopyDataToQueue+0x1e>
     bee:	401c                	lw	a5,0(s0)
     bf0:	c05c                	sw	a5,4(s0)
     bf2:	bff1                	j	bce <prvCopyDataToQueue+0x1e>
     bf4:	4548                	lw	a0,12(a0)
     bf6:	7ac020ef          	jal	ra,33a2 <memcpy>
     bfa:	403c                	lw	a5,64(s0)
     bfc:	4458                	lw	a4,12(s0)
     bfe:	4014                	lw	a3,0(s0)
     c00:	40f007b3          	neg	a5,a5
     c04:	973e                	add	a4,a4,a5
     c06:	c458                	sw	a4,12(s0)
     c08:	00d77563          	bgeu	a4,a3,c12 <prvCopyDataToQueue+0x62>
     c0c:	4418                	lw	a4,8(s0)
     c0e:	97ba                	add	a5,a5,a4
     c10:	c45c                	sw	a5,12(s0)
     c12:	4789                	li	a5,2
     c14:	4501                	li	a0,0
     c16:	faf91ce3          	bne	s2,a5,bce <prvCopyDataToQueue+0x1e>
     c1a:	d8d5                	beqz	s1,bce <prvCopyDataToQueue+0x1e>
     c1c:	14fd                	addi	s1,s1,-1
     c1e:	bf45                	j	bce <prvCopyDataToQueue+0x1e>

00000c20 <prvCopyDataFromQueue>:
     c20:	4130                	lw	a2,64(a0)
     c22:	c215                	beqz	a2,c46 <prvCopyDataFromQueue+0x26>
     c24:	8fbff2ef          	jal	t0,51e <__riscv_save_0>
     c28:	4558                	lw	a4,12(a0)
     c2a:	4514                	lw	a3,8(a0)
     c2c:	87aa                	mv	a5,a0
     c2e:	9732                	add	a4,a4,a2
     c30:	c558                	sw	a4,12(a0)
     c32:	00d76463          	bltu	a4,a3,c3a <prvCopyDataFromQueue+0x1a>
     c36:	4118                	lw	a4,0(a0)
     c38:	c558                	sw	a4,12(a0)
     c3a:	852e                	mv	a0,a1
     c3c:	47cc                	lw	a1,12(a5)
     c3e:	764020ef          	jal	ra,33a2 <memcpy>
     c42:	901ff06f          	j	542 <__riscv_restore_0>
     c46:	8082                	ret

00000c48 <prvUnlockQueue>:
     c48:	8d7ff2ef          	jal	t0,51e <__riscv_save_0>
     c4c:	842a                	mv	s0,a0
     c4e:	3d85                	jal	abe <vPortEnterCritical>
     c50:	04544483          	lbu	s1,69(s0)
     c54:	02440913          	addi	s2,s0,36
     c58:	04e2                	slli	s1,s1,0x18
     c5a:	84e1                	srai	s1,s1,0x18
     c5c:	02904563          	bgtz	s1,c86 <prvUnlockQueue+0x3e>
     c60:	57fd                	li	a5,-1
     c62:	04f402a3          	sb	a5,69(s0)
     c66:	3d8d                	jal	ad8 <vPortExitCritical>
     c68:	3d99                	jal	abe <vPortEnterCritical>
     c6a:	04444483          	lbu	s1,68(s0)
     c6e:	01040913          	addi	s2,s0,16
     c72:	04e2                	slli	s1,s1,0x18
     c74:	84e1                	srai	s1,s1,0x18
     c76:	02904463          	bgtz	s1,c9e <prvUnlockQueue+0x56>
     c7a:	57fd                	li	a5,-1
     c7c:	04f40223          	sb	a5,68(s0)
     c80:	3da1                	jal	ad8 <vPortExitCritical>
     c82:	8c1ff06f          	j	542 <__riscv_restore_0>
     c86:	505c                	lw	a5,36(s0)
     c88:	dfe1                	beqz	a5,c60 <prvUnlockQueue+0x18>
     c8a:	854a                	mv	a0,s2
     c8c:	5f9000ef          	jal	ra,1a84 <xTaskRemoveFromEventList>
     c90:	c119                	beqz	a0,c96 <prvUnlockQueue+0x4e>
     c92:	7bd000ef          	jal	ra,1c4e <vTaskMissedYield>
     c96:	14fd                	addi	s1,s1,-1
     c98:	04e2                	slli	s1,s1,0x18
     c9a:	84e1                	srai	s1,s1,0x18
     c9c:	b7c1                	j	c5c <prvUnlockQueue+0x14>
     c9e:	481c                	lw	a5,16(s0)
     ca0:	dfe9                	beqz	a5,c7a <prvUnlockQueue+0x32>
     ca2:	854a                	mv	a0,s2
     ca4:	5e1000ef          	jal	ra,1a84 <xTaskRemoveFromEventList>
     ca8:	c119                	beqz	a0,cae <prvUnlockQueue+0x66>
     caa:	7a5000ef          	jal	ra,1c4e <vTaskMissedYield>
     cae:	14fd                	addi	s1,s1,-1
     cb0:	04e2                	slli	s1,s1,0x18
     cb2:	84e1                	srai	s1,s1,0x18
     cb4:	b7c9                	j	c76 <prvUnlockQueue+0x2e>

00000cb6 <xQueueGenericReset>:
     cb6:	869ff2ef          	jal	t0,51e <__riscv_save_0>
     cba:	1141                	addi	sp,sp,-16
     cbc:	e11d                	bnez	a0,ce2 <xQueueGenericReset+0x2c>
     cbe:	6789                	lui	a5,0x2
     cc0:	80078793          	addi	a5,a5,-2048 # 1800 <xTaskResumeAll+0x9c>
     cc4:	30079073          	csrw	mstatus,a5
     cc8:	00008637          	lui	a2,0x8
     ccc:	00008537          	lui	a0,0x8
     cd0:	19860613          	addi	a2,a2,408 # 8198 <_read+0x9c>
     cd4:	11000593          	li	a1,272
     cd8:	14050513          	addi	a0,a0,320 # 8140 <_read+0x44>
     cdc:	172030ef          	jal	ra,3e4e <iprintf>
     ce0:	a001                	j	ce0 <xQueueGenericReset+0x2a>
     ce2:	5d5c                	lw	a5,60(a0)
     ce4:	c62e                	sw	a1,12(sp)
     ce6:	842a                	mv	s0,a0
     ce8:	c3bd                	beqz	a5,d4e <xQueueGenericReset+0x98>
     cea:	4138                	lw	a4,64(a0)
     cec:	02e7b7b3          	mulhu	a5,a5,a4
     cf0:	efb9                	bnez	a5,d4e <xQueueGenericReset+0x98>
     cf2:	33f1                	jal	abe <vPortEnterCritical>
     cf4:	4030                	lw	a2,64(s0)
     cf6:	5c58                	lw	a4,60(s0)
     cf8:	4014                	lw	a3,0(s0)
     cfa:	02042c23          	sw	zero,56(s0)
     cfe:	02e607b3          	mul	a5,a2,a4
     d02:	45b2                	lw	a1,12(sp)
     d04:	c054                	sw	a3,4(s0)
     d06:	00f68733          	add	a4,a3,a5
     d0a:	8f91                	sub	a5,a5,a2
     d0c:	97b6                	add	a5,a5,a3
     d0e:	c45c                	sw	a5,12(s0)
     d10:	57fd                	li	a5,-1
     d12:	04f40223          	sb	a5,68(s0)
     d16:	c418                	sw	a4,8(s0)
     d18:	04f402a3          	sb	a5,69(s0)
     d1c:	e195                	bnez	a1,d40 <xQueueGenericReset+0x8a>
     d1e:	481c                	lw	a5,16(s0)
     d20:	cb99                	beqz	a5,d36 <xQueueGenericReset+0x80>
     d22:	01040513          	addi	a0,s0,16
     d26:	55f000ef          	jal	ra,1a84 <xTaskRemoveFromEventList>
     d2a:	c511                	beqz	a0,d36 <xQueueGenericReset+0x80>
     d2c:	e000e7b7          	lui	a5,0xe000e
     d30:	6711                	lui	a4,0x4
     d32:	20e7a023          	sw	a4,512(a5) # e000e200 <__freertos_irq_stack_top+0xc0009200>
     d36:	334d                	jal	ad8 <vPortExitCritical>
     d38:	4505                	li	a0,1
     d3a:	0141                	addi	sp,sp,16
     d3c:	807ff06f          	j	542 <__riscv_restore_0>
     d40:	01040513          	addi	a0,s0,16
     d44:	33f5                	jal	b30 <vListInitialise>
     d46:	02440513          	addi	a0,s0,36
     d4a:	33dd                	jal	b30 <vListInitialise>
     d4c:	b7ed                	j	d36 <xQueueGenericReset+0x80>
     d4e:	6789                	lui	a5,0x2
     d50:	80078793          	addi	a5,a5,-2048 # 1800 <xTaskResumeAll+0x9c>
     d54:	30079073          	csrw	mstatus,a5
     d58:	00008637          	lui	a2,0x8
     d5c:	00008537          	lui	a0,0x8
     d60:	19860613          	addi	a2,a2,408 # 8198 <_read+0x9c>
     d64:	14500593          	li	a1,325
     d68:	14050513          	addi	a0,a0,320 # 8140 <_read+0x44>
     d6c:	0e2030ef          	jal	ra,3e4e <iprintf>
     d70:	a001                	j	d70 <xQueueGenericReset+0xba>

00000d72 <xQueueGenericCreate>:
     d72:	facff2ef          	jal	t0,51e <__riscv_save_0>
     d76:	1141                	addi	sp,sp,-16
     d78:	c121                	beqz	a0,db8 <xQueueGenericCreate+0x46>
     d7a:	02a5b7b3          	mulhu	a5,a1,a0
     d7e:	84aa                	mv	s1,a0
     d80:	ef85                	bnez	a5,db8 <xQueueGenericCreate+0x46>
     d82:	02b50533          	mul	a0,a0,a1
     d86:	fb700793          	li	a5,-73
     d8a:	02a7e763          	bltu	a5,a0,db8 <xQueueGenericCreate+0x46>
     d8e:	04850513          	addi	a0,a0,72
     d92:	c62e                	sw	a1,12(sp)
     d94:	3a65                	jal	74c <pvPortMalloc>
     d96:	842a                	mv	s0,a0
     d98:	cd01                	beqz	a0,db0 <xQueueGenericCreate+0x3e>
     d9a:	45b2                	lw	a1,12(sp)
     d9c:	87aa                	mv	a5,a0
     d9e:	c199                	beqz	a1,da4 <xQueueGenericCreate+0x32>
     da0:	04850793          	addi	a5,a0,72
     da4:	c02c                	sw	a1,64(s0)
     da6:	c01c                	sw	a5,0(s0)
     da8:	dc44                	sw	s1,60(s0)
     daa:	4585                	li	a1,1
     dac:	8522                	mv	a0,s0
     dae:	3721                	jal	cb6 <xQueueGenericReset>
     db0:	8522                	mv	a0,s0
     db2:	0141                	addi	sp,sp,16
     db4:	f8eff06f          	j	542 <__riscv_restore_0>
     db8:	6789                	lui	a5,0x2
     dba:	80078793          	addi	a5,a5,-2048 # 1800 <xTaskResumeAll+0x9c>
     dbe:	30079073          	csrw	mstatus,a5
     dc2:	00008637          	lui	a2,0x8
     dc6:	00008537          	lui	a0,0x8
     dca:	19860613          	addi	a2,a2,408 # 8198 <_read+0x9c>
     dce:	1c600593          	li	a1,454
     dd2:	14050513          	addi	a0,a0,320 # 8140 <_read+0x44>
     dd6:	078030ef          	jal	ra,3e4e <iprintf>
     dda:	a001                	j	dda <xQueueGenericCreate+0x68>

00000ddc <xQueueGenericSend>:
     ddc:	f1aff2ef          	jal	t0,4f6 <__riscv_save_10>
     de0:	1101                	addi	sp,sp,-32
     de2:	c632                	sw	a2,12(sp)
     de4:	e11d                	bnez	a0,e0a <xQueueGenericSend+0x2e>
     de6:	6789                	lui	a5,0x2
     de8:	80078793          	addi	a5,a5,-2048 # 1800 <xTaskResumeAll+0x9c>
     dec:	30079073          	csrw	mstatus,a5
     df0:	00008637          	lui	a2,0x8
     df4:	00008537          	lui	a0,0x8
     df8:	19860613          	addi	a2,a2,408 # 8198 <_read+0x9c>
     dfc:	32e00593          	li	a1,814
     e00:	14050513          	addi	a0,a0,320 # 8140 <_read+0x44>
     e04:	04a030ef          	jal	ra,3e4e <iprintf>
     e08:	a001                	j	e08 <xQueueGenericSend+0x2c>
     e0a:	842a                	mv	s0,a0
     e0c:	892e                	mv	s2,a1
     e0e:	84b6                	mv	s1,a3
     e10:	e58d                	bnez	a1,e3a <xQueueGenericSend+0x5e>
     e12:	413c                	lw	a5,64(a0)
     e14:	c39d                	beqz	a5,e3a <xQueueGenericSend+0x5e>
     e16:	6789                	lui	a5,0x2
     e18:	80078793          	addi	a5,a5,-2048 # 1800 <xTaskResumeAll+0x9c>
     e1c:	30079073          	csrw	mstatus,a5
     e20:	00008637          	lui	a2,0x8
     e24:	00008537          	lui	a0,0x8
     e28:	19860613          	addi	a2,a2,408 # 8198 <_read+0x9c>
     e2c:	32f00593          	li	a1,815
     e30:	14050513          	addi	a0,a0,320 # 8140 <_read+0x44>
     e34:	01a030ef          	jal	ra,3e4e <iprintf>
     e38:	a001                	j	e38 <xQueueGenericSend+0x5c>
     e3a:	4789                	li	a5,2
     e3c:	02f49863          	bne	s1,a5,e6c <xQueueGenericSend+0x90>
     e40:	5c58                	lw	a4,60(s0)
     e42:	4785                	li	a5,1
     e44:	02f70463          	beq	a4,a5,e6c <xQueueGenericSend+0x90>
     e48:	6789                	lui	a5,0x2
     e4a:	80078793          	addi	a5,a5,-2048 # 1800 <xTaskResumeAll+0x9c>
     e4e:	30079073          	csrw	mstatus,a5
     e52:	00008637          	lui	a2,0x8
     e56:	00008537          	lui	a0,0x8
     e5a:	19860613          	addi	a2,a2,408 # 8198 <_read+0x9c>
     e5e:	33000593          	li	a1,816
     e62:	14050513          	addi	a0,a0,320 # 8140 <_read+0x44>
     e66:	7e9020ef          	jal	ra,3e4e <iprintf>
     e6a:	a001                	j	e6a <xQueueGenericSend+0x8e>
     e6c:	5ef000ef          	jal	ra,1c5a <xTaskGetSchedulerState>
     e70:	e515                	bnez	a0,e9c <xQueueGenericSend+0xc0>
     e72:	47b2                	lw	a5,12(sp)
     e74:	4c01                	li	s8,0
     e76:	c785                	beqz	a5,e9e <xQueueGenericSend+0xc2>
     e78:	6789                	lui	a5,0x2
     e7a:	80078793          	addi	a5,a5,-2048 # 1800 <xTaskResumeAll+0x9c>
     e7e:	30079073          	csrw	mstatus,a5
     e82:	00008637          	lui	a2,0x8
     e86:	00008537          	lui	a0,0x8
     e8a:	19860613          	addi	a2,a2,408 # 8198 <_read+0x9c>
     e8e:	33300593          	li	a1,819
     e92:	14050513          	addi	a0,a0,320 # 8140 <_read+0x44>
     e96:	7b9020ef          	jal	ra,3e4e <iprintf>
     e9a:	a001                	j	e9a <xQueueGenericSend+0xbe>
     e9c:	4c01                	li	s8,0
     e9e:	4b09                	li	s6,2
     ea0:	59fd                	li	s3,-1
     ea2:	01040b93          	addi	s7,s0,16
     ea6:	e000ea37          	lui	s4,0xe000e
     eaa:	6a91                	lui	s5,0x4
     eac:	a0ad                	j	f16 <xQueueGenericSend+0x13a>
     eae:	47b2                	lw	a5,12(sp)
     eb0:	e781                	bnez	a5,eb8 <xQueueGenericSend+0xdc>
     eb2:	311d                	jal	ad8 <vPortExitCritical>
     eb4:	4501                	li	a0,0
     eb6:	a849                	j	f48 <xQueueGenericSend+0x16c>
     eb8:	000c1563          	bnez	s8,ec2 <xQueueGenericSend+0xe6>
     ebc:	0828                	addi	a0,sp,24
     ebe:	4b3000ef          	jal	ra,1b70 <vTaskInternalSetTimeOutState>
     ec2:	3919                	jal	ad8 <vPortExitCritical>
     ec4:	6dc000ef          	jal	ra,15a0 <vTaskSuspendAll>
     ec8:	3edd                	jal	abe <vPortEnterCritical>
     eca:	04444783          	lbu	a5,68(s0)
     ece:	07e2                	slli	a5,a5,0x18
     ed0:	87e1                	srai	a5,a5,0x18
     ed2:	01379463          	bne	a5,s3,eda <xQueueGenericSend+0xfe>
     ed6:	04040223          	sb	zero,68(s0)
     eda:	04544783          	lbu	a5,69(s0)
     ede:	07e2                	slli	a5,a5,0x18
     ee0:	87e1                	srai	a5,a5,0x18
     ee2:	01379463          	bne	a5,s3,eea <xQueueGenericSend+0x10e>
     ee6:	040402a3          	sb	zero,69(s0)
     eea:	36fd                	jal	ad8 <vPortExitCritical>
     eec:	006c                	addi	a1,sp,12
     eee:	0828                	addi	a0,sp,24
     ef0:	497000ef          	jal	ra,1b86 <xTaskCheckForTimeOut>
     ef4:	e535                	bnez	a0,f60 <xQueueGenericSend+0x184>
     ef6:	36e1                	jal	abe <vPortEnterCritical>
     ef8:	5c18                	lw	a4,56(s0)
     efa:	5c5c                	lw	a5,60(s0)
     efc:	04f71963          	bne	a4,a5,f4e <xQueueGenericSend+0x172>
     f00:	3ee1                	jal	ad8 <vPortExitCritical>
     f02:	45b2                	lw	a1,12(sp)
     f04:	855e                	mv	a0,s7
     f06:	2c1000ef          	jal	ra,19c6 <vTaskPlaceOnEventList>
     f0a:	8522                	mv	a0,s0
     f0c:	3b35                	jal	c48 <prvUnlockQueue>
     f0e:	057000ef          	jal	ra,1764 <xTaskResumeAll>
     f12:	c521                	beqz	a0,f5a <xQueueGenericSend+0x17e>
     f14:	4c05                	li	s8,1
     f16:	3665                	jal	abe <vPortEnterCritical>
     f18:	5c18                	lw	a4,56(s0)
     f1a:	5c5c                	lw	a5,60(s0)
     f1c:	00f76463          	bltu	a4,a5,f24 <xQueueGenericSend+0x148>
     f20:	f96497e3          	bne	s1,s6,eae <xQueueGenericSend+0xd2>
     f24:	8626                	mv	a2,s1
     f26:	85ca                	mv	a1,s2
     f28:	8522                	mv	a0,s0
     f2a:	3159                	jal	bb0 <prvCopyDataToQueue>
     f2c:	505c                	lw	a5,36(s0)
     f2e:	c789                	beqz	a5,f38 <xQueueGenericSend+0x15c>
     f30:	02440513          	addi	a0,s0,36
     f34:	351000ef          	jal	ra,1a84 <xTaskRemoveFromEventList>
     f38:	c511                	beqz	a0,f44 <xQueueGenericSend+0x168>
     f3a:	e000e7b7          	lui	a5,0xe000e
     f3e:	6711                	lui	a4,0x4
     f40:	20e7a023          	sw	a4,512(a5) # e000e200 <__freertos_irq_stack_top+0xc0009200>
     f44:	3e51                	jal	ad8 <vPortExitCritical>
     f46:	4505                	li	a0,1
     f48:	6105                	addi	sp,sp,32
     f4a:	de4ff06f          	j	52e <__riscv_restore_10>
     f4e:	3669                	jal	ad8 <vPortExitCritical>
     f50:	8522                	mv	a0,s0
     f52:	39dd                	jal	c48 <prvUnlockQueue>
     f54:	011000ef          	jal	ra,1764 <xTaskResumeAll>
     f58:	bf75                	j	f14 <xQueueGenericSend+0x138>
     f5a:	215a2023          	sw	s5,512(s4) # e000e200 <__freertos_irq_stack_top+0xc0009200>
     f5e:	bf5d                	j	f14 <xQueueGenericSend+0x138>
     f60:	8522                	mv	a0,s0
     f62:	31dd                	jal	c48 <prvUnlockQueue>
     f64:	001000ef          	jal	ra,1764 <xTaskResumeAll>
     f68:	b7b1                	j	eb4 <xQueueGenericSend+0xd8>

00000f6a <xQueueReceive>:
     f6a:	d8cff2ef          	jal	t0,4f6 <__riscv_save_10>
     f6e:	1101                	addi	sp,sp,-32
     f70:	c632                	sw	a2,12(sp)
     f72:	e11d                	bnez	a0,f98 <xQueueReceive+0x2e>
     f74:	6789                	lui	a5,0x2
     f76:	80078793          	addi	a5,a5,-2048 # 1800 <xTaskResumeAll+0x9c>
     f7a:	30079073          	csrw	mstatus,a5
     f7e:	00008637          	lui	a2,0x8
     f82:	00008537          	lui	a0,0x8
     f86:	19860613          	addi	a2,a2,408 # 8198 <_read+0x9c>
     f8a:	55100593          	li	a1,1361
     f8e:	14050513          	addi	a0,a0,320 # 8140 <_read+0x44>
     f92:	6bd020ef          	jal	ra,3e4e <iprintf>
     f96:	a001                	j	f96 <xQueueReceive+0x2c>
     f98:	842a                	mv	s0,a0
     f9a:	89ae                	mv	s3,a1
     f9c:	e58d                	bnez	a1,fc6 <xQueueReceive+0x5c>
     f9e:	413c                	lw	a5,64(a0)
     fa0:	c39d                	beqz	a5,fc6 <xQueueReceive+0x5c>
     fa2:	6789                	lui	a5,0x2
     fa4:	80078793          	addi	a5,a5,-2048 # 1800 <xTaskResumeAll+0x9c>
     fa8:	30079073          	csrw	mstatus,a5
     fac:	00008637          	lui	a2,0x8
     fb0:	00008537          	lui	a0,0x8
     fb4:	19860613          	addi	a2,a2,408 # 8198 <_read+0x9c>
     fb8:	55500593          	li	a1,1365
     fbc:	14050513          	addi	a0,a0,320 # 8140 <_read+0x44>
     fc0:	68f020ef          	jal	ra,3e4e <iprintf>
     fc4:	a001                	j	fc4 <xQueueReceive+0x5a>
     fc6:	495000ef          	jal	ra,1c5a <xTaskGetSchedulerState>
     fca:	e515                	bnez	a0,ff6 <xQueueReceive+0x8c>
     fcc:	47b2                	lw	a5,12(sp)
     fce:	4901                	li	s2,0
     fd0:	c785                	beqz	a5,ff8 <xQueueReceive+0x8e>
     fd2:	6789                	lui	a5,0x2
     fd4:	80078793          	addi	a5,a5,-2048 # 1800 <xTaskResumeAll+0x9c>
     fd8:	30079073          	csrw	mstatus,a5
     fdc:	00008637          	lui	a2,0x8
     fe0:	00008537          	lui	a0,0x8
     fe4:	19860613          	addi	a2,a2,408 # 8198 <_read+0x9c>
     fe8:	55a00593          	li	a1,1370
     fec:	14050513          	addi	a0,a0,320 # 8140 <_read+0x44>
     ff0:	65f020ef          	jal	ra,3e4e <iprintf>
     ff4:	a001                	j	ff4 <xQueueReceive+0x8a>
     ff6:	4901                	li	s2,0
     ff8:	5a7d                	li	s4,-1
     ffa:	02440a93          	addi	s5,s0,36
     ffe:	e000eb37          	lui	s6,0xe000e
    1002:	6b91                	lui	s7,0x4
    1004:	a09d                	j	106a <xQueueReceive+0x100>
    1006:	47b2                	lw	a5,12(sp)
    1008:	e781                	bnez	a5,1010 <xQueueReceive+0xa6>
    100a:	34f9                	jal	ad8 <vPortExitCritical>
    100c:	4501                	li	a0,0
    100e:	a061                	j	1096 <xQueueReceive+0x12c>
    1010:	00091563          	bnez	s2,101a <xQueueReceive+0xb0>
    1014:	0828                	addi	a0,sp,24
    1016:	35b000ef          	jal	ra,1b70 <vTaskInternalSetTimeOutState>
    101a:	3c7d                	jal	ad8 <vPortExitCritical>
    101c:	2351                	jal	15a0 <vTaskSuspendAll>
    101e:	3445                	jal	abe <vPortEnterCritical>
    1020:	04444783          	lbu	a5,68(s0)
    1024:	07e2                	slli	a5,a5,0x18
    1026:	87e1                	srai	a5,a5,0x18
    1028:	01479463          	bne	a5,s4,1030 <xQueueReceive+0xc6>
    102c:	04040223          	sb	zero,68(s0)
    1030:	04544783          	lbu	a5,69(s0)
    1034:	07e2                	slli	a5,a5,0x18
    1036:	87e1                	srai	a5,a5,0x18
    1038:	01479463          	bne	a5,s4,1040 <xQueueReceive+0xd6>
    103c:	040402a3          	sb	zero,69(s0)
    1040:	3c61                	jal	ad8 <vPortExitCritical>
    1042:	006c                	addi	a1,sp,12
    1044:	0828                	addi	a0,sp,24
    1046:	341000ef          	jal	ra,1b86 <xTaskCheckForTimeOut>
    104a:	ed31                	bnez	a0,10a6 <xQueueReceive+0x13c>
    104c:	8522                	mv	a0,s0
    104e:	36a9                	jal	b98 <prvIsQueueEmpty>
    1050:	c531                	beqz	a0,109c <xQueueReceive+0x132>
    1052:	45b2                	lw	a1,12(sp)
    1054:	8556                	mv	a0,s5
    1056:	171000ef          	jal	ra,19c6 <vTaskPlaceOnEventList>
    105a:	8522                	mv	a0,s0
    105c:	36f5                	jal	c48 <prvUnlockQueue>
    105e:	706000ef          	jal	ra,1764 <xTaskResumeAll>
    1062:	e119                	bnez	a0,1068 <xQueueReceive+0xfe>
    1064:	217b2023          	sw	s7,512(s6) # e000e200 <__freertos_irq_stack_top+0xc0009200>
    1068:	4905                	li	s2,1
    106a:	3c91                	jal	abe <vPortEnterCritical>
    106c:	5c04                	lw	s1,56(s0)
    106e:	dcc1                	beqz	s1,1006 <xQueueReceive+0x9c>
    1070:	85ce                	mv	a1,s3
    1072:	8522                	mv	a0,s0
    1074:	14fd                	addi	s1,s1,-1
    1076:	366d                	jal	c20 <prvCopyDataFromQueue>
    1078:	dc04                	sw	s1,56(s0)
    107a:	481c                	lw	a5,16(s0)
    107c:	cb99                	beqz	a5,1092 <xQueueReceive+0x128>
    107e:	01040513          	addi	a0,s0,16
    1082:	203000ef          	jal	ra,1a84 <xTaskRemoveFromEventList>
    1086:	c511                	beqz	a0,1092 <xQueueReceive+0x128>
    1088:	e000e7b7          	lui	a5,0xe000e
    108c:	6711                	lui	a4,0x4
    108e:	20e7a023          	sw	a4,512(a5) # e000e200 <__freertos_irq_stack_top+0xc0009200>
    1092:	3499                	jal	ad8 <vPortExitCritical>
    1094:	4505                	li	a0,1
    1096:	6105                	addi	sp,sp,32
    1098:	c96ff06f          	j	52e <__riscv_restore_10>
    109c:	8522                	mv	a0,s0
    109e:	366d                	jal	c48 <prvUnlockQueue>
    10a0:	6c4000ef          	jal	ra,1764 <xTaskResumeAll>
    10a4:	b7d1                	j	1068 <xQueueReceive+0xfe>
    10a6:	8522                	mv	a0,s0
    10a8:	3645                	jal	c48 <prvUnlockQueue>
    10aa:	6ba000ef          	jal	ra,1764 <xTaskResumeAll>
    10ae:	8522                	mv	a0,s0
    10b0:	34e5                	jal	b98 <prvIsQueueEmpty>
    10b2:	d95d                	beqz	a0,1068 <xQueueReceive+0xfe>
    10b4:	bfa1                	j	100c <xQueueReceive+0xa2>

000010b6 <uxQueueMessagesWaiting>:
    10b6:	c68ff2ef          	jal	t0,51e <__riscv_save_0>
    10ba:	1141                	addi	sp,sp,-16
    10bc:	e11d                	bnez	a0,10e2 <uxQueueMessagesWaiting+0x2c>
    10be:	6789                	lui	a5,0x2
    10c0:	80078793          	addi	a5,a5,-2048 # 1800 <xTaskResumeAll+0x9c>
    10c4:	30079073          	csrw	mstatus,a5
    10c8:	00008637          	lui	a2,0x8
    10cc:	00008537          	lui	a0,0x8
    10d0:	19860613          	addi	a2,a2,408 # 8198 <_read+0x9c>
    10d4:	7e300593          	li	a1,2019
    10d8:	14050513          	addi	a0,a0,320 # 8140 <_read+0x44>
    10dc:	573020ef          	jal	ra,3e4e <iprintf>
    10e0:	a001                	j	10e0 <uxQueueMessagesWaiting+0x2a>
    10e2:	c62a                	sw	a0,12(sp)
    10e4:	9dbff0ef          	jal	ra,abe <vPortEnterCritical>
    10e8:	4532                	lw	a0,12(sp)
    10ea:	5d08                	lw	a0,56(a0)
    10ec:	c62a                	sw	a0,12(sp)
    10ee:	9ebff0ef          	jal	ra,ad8 <vPortExitCritical>
    10f2:	4532                	lw	a0,12(sp)
    10f4:	0141                	addi	sp,sp,16
    10f6:	c4cff06f          	j	542 <__riscv_restore_0>

000010fa <vQueueAddToRegistry>:
    10fa:	e515                	bnez	a0,1126 <vQueueAddToRegistry+0x2c>
    10fc:	c22ff2ef          	jal	t0,51e <__riscv_save_0>
    1100:	6789                	lui	a5,0x2
    1102:	80078793          	addi	a5,a5,-2048 # 1800 <xTaskResumeAll+0x9c>
    1106:	30079073          	csrw	mstatus,a5
    110a:	00008637          	lui	a2,0x8
    110e:	6585                	lui	a1,0x1
    1110:	00008537          	lui	a0,0x8
    1114:	19860613          	addi	a2,a2,408 # 8198 <_read+0x9c>
    1118:	ac858593          	addi	a1,a1,-1336 # ac8 <vPortEnterCritical+0xa>
    111c:	14050513          	addi	a0,a0,320 # 8140 <_read+0x44>
    1120:	52f020ef          	jal	ra,3e4e <iprintf>
    1124:	a001                	j	1124 <vQueueAddToRegistry+0x2a>
    1126:	cd9d                	beqz	a1,1164 <vQueueAddToRegistry+0x6a>
    1128:	20003637          	lui	a2,0x20003
    112c:	2b860693          	addi	a3,a2,696 # 200032b8 <xQueueRegistry>
    1130:	4781                	li	a5,0
    1132:	4701                	li	a4,0
    1134:	2b860613          	addi	a2,a2,696
    1138:	4821                	li	a6,8
    113a:	0046a883          	lw	a7,4(a3)
    113e:	00a89863          	bne	a7,a0,114e <vQueueAddToRegistry+0x54>
    1142:	00371793          	slli	a5,a4,0x3
    1146:	97b2                	add	a5,a5,a2
    1148:	c38c                	sw	a1,0(a5)
    114a:	c3c8                	sw	a0,4(a5)
    114c:	a821                	j	1164 <vQueueAddToRegistry+0x6a>
    114e:	e791                	bnez	a5,115a <vQueueAddToRegistry+0x60>
    1150:	0006a883          	lw	a7,0(a3)
    1154:	00089363          	bnez	a7,115a <vQueueAddToRegistry+0x60>
    1158:	87b6                	mv	a5,a3
    115a:	0705                	addi	a4,a4,1
    115c:	06a1                	addi	a3,a3,8
    115e:	fd071ee3          	bne	a4,a6,113a <vQueueAddToRegistry+0x40>
    1162:	f3fd                	bnez	a5,1148 <vQueueAddToRegistry+0x4e>
    1164:	8082                	ret

00001166 <vQueueWaitForMessageRestricted>:
    1166:	bb8ff2ef          	jal	t0,51e <__riscv_save_0>
    116a:	1141                	addi	sp,sp,-16
    116c:	842a                	mv	s0,a0
    116e:	c62e                	sw	a1,12(sp)
    1170:	c432                	sw	a2,8(sp)
    1172:	94dff0ef          	jal	ra,abe <vPortEnterCritical>
    1176:	04444783          	lbu	a5,68(s0)
    117a:	577d                	li	a4,-1
    117c:	4622                	lw	a2,8(sp)
    117e:	07e2                	slli	a5,a5,0x18
    1180:	87e1                	srai	a5,a5,0x18
    1182:	45b2                	lw	a1,12(sp)
    1184:	00e79463          	bne	a5,a4,118c <vQueueWaitForMessageRestricted+0x26>
    1188:	04040223          	sb	zero,68(s0)
    118c:	04544783          	lbu	a5,69(s0)
    1190:	577d                	li	a4,-1
    1192:	07e2                	slli	a5,a5,0x18
    1194:	87e1                	srai	a5,a5,0x18
    1196:	00e79463          	bne	a5,a4,119e <vQueueWaitForMessageRestricted+0x38>
    119a:	040402a3          	sb	zero,69(s0)
    119e:	c632                	sw	a2,12(sp)
    11a0:	c42e                	sw	a1,8(sp)
    11a2:	937ff0ef          	jal	ra,ad8 <vPortExitCritical>
    11a6:	5c1c                	lw	a5,56(s0)
    11a8:	45a2                	lw	a1,8(sp)
    11aa:	4632                	lw	a2,12(sp)
    11ac:	e789                	bnez	a5,11b6 <vQueueWaitForMessageRestricted+0x50>
    11ae:	02440513          	addi	a0,s0,36
    11b2:	05d000ef          	jal	ra,1a0e <vTaskPlaceOnEventListRestricted>
    11b6:	8522                	mv	a0,s0
    11b8:	a91ff0ef          	jal	ra,c48 <prvUnlockQueue>
    11bc:	0141                	addi	sp,sp,16
    11be:	b84ff06f          	j	542 <__riscv_restore_0>

000011c2 <prvResetNextTaskUnblockTime>:
    11c2:	20000737          	lui	a4,0x20000
    11c6:	23470713          	addi	a4,a4,564 # 20000234 <pxDelayedTaskList>
    11ca:	431c                	lw	a5,0(a4)
    11cc:	4394                	lw	a3,0(a5)
    11ce:	200007b7          	lui	a5,0x20000
    11d2:	25478793          	addi	a5,a5,596 # 20000254 <xNextTaskUnblockTime>
    11d6:	e681                	bnez	a3,11de <prvResetNextTaskUnblockTime+0x1c>
    11d8:	577d                	li	a4,-1
    11da:	c398                	sw	a4,0(a5)
    11dc:	8082                	ret
    11de:	4318                	lw	a4,0(a4)
    11e0:	4758                	lw	a4,12(a4)
    11e2:	4318                	lw	a4,0(a4)
    11e4:	bfdd                	j	11da <prvResetNextTaskUnblockTime+0x18>

000011e6 <prvAddCurrentTaskToDelayedList>:
    11e6:	b1eff2ef          	jal	t0,504 <__riscv_save_4>
    11ea:	20000937          	lui	s2,0x20000
    11ee:	200007b7          	lui	a5,0x20000
    11f2:	23090493          	addi	s1,s2,560 # 20000230 <pxCurrentTCB>
    11f6:	2647a983          	lw	s3,612(a5) # 20000264 <xTickCount>
    11fa:	842a                	mv	s0,a0
    11fc:	409c                	lw	a5,0(s1)
    11fe:	4088                	lw	a0,0(s1)
    1200:	1141                	addi	sp,sp,-16
    1202:	060780a3          	sb	zero,97(a5)
    1206:	0511                	addi	a0,a0,4
    1208:	c62e                	sw	a1,12(sp)
    120a:	96fff0ef          	jal	ra,b78 <uxListRemove>
    120e:	577d                	li	a4,-1
    1210:	23090793          	addi	a5,s2,560
    1214:	45b2                	lw	a1,12(sp)
    1216:	02e41c63          	bne	s0,a4,124e <prvAddCurrentTaskToDelayedList+0x68>
    121a:	c995                	beqz	a1,124e <prvAddCurrentTaskToDelayedList+0x68>
    121c:	200037b7          	lui	a5,0x20003
    1220:	3c078793          	addi	a5,a5,960 # 200033c0 <xSuspendedTaskList>
    1224:	4094                	lw	a3,0(s1)
    1226:	43d8                	lw	a4,4(a5)
    1228:	c698                	sw	a4,8(a3)
    122a:	4710                	lw	a2,8(a4)
    122c:	4094                	lw	a3,0(s1)
    122e:	c6d0                	sw	a2,12(a3)
    1230:	4094                	lw	a3,0(s1)
    1232:	4710                	lw	a2,8(a4)
    1234:	0691                	addi	a3,a3,4
    1236:	c254                	sw	a3,4(a2)
    1238:	4094                	lw	a3,0(s1)
    123a:	0691                	addi	a3,a3,4
    123c:	c714                	sw	a3,8(a4)
    123e:	4098                	lw	a4,0(s1)
    1240:	cb5c                	sw	a5,20(a4)
    1242:	4398                	lw	a4,0(a5)
    1244:	0705                	addi	a4,a4,1
    1246:	c398                	sw	a4,0(a5)
    1248:	0141                	addi	sp,sp,16
    124a:	aeeff06f          	j	538 <__riscv_restore_4>
    124e:	4398                	lw	a4,0(a5)
    1250:	944e                	add	s0,s0,s3
    1252:	c340                	sw	s0,4(a4)
    1254:	01347b63          	bgeu	s0,s3,126a <prvAddCurrentTaskToDelayedList+0x84>
    1258:	20000737          	lui	a4,0x20000
    125c:	23872503          	lw	a0,568(a4) # 20000238 <pxOverflowDelayedTaskList>
    1260:	438c                	lw	a1,0(a5)
    1262:	0591                	addi	a1,a1,4
    1264:	8e7ff0ef          	jal	ra,b4a <vListInsert>
    1268:	b7c5                	j	1248 <prvAddCurrentTaskToDelayedList+0x62>
    126a:	20000737          	lui	a4,0x20000
    126e:	23472503          	lw	a0,564(a4) # 20000234 <pxDelayedTaskList>
    1272:	438c                	lw	a1,0(a5)
    1274:	0591                	addi	a1,a1,4
    1276:	8d5ff0ef          	jal	ra,b4a <vListInsert>
    127a:	200007b7          	lui	a5,0x20000
    127e:	25478793          	addi	a5,a5,596 # 20000254 <xNextTaskUnblockTime>
    1282:	4398                	lw	a4,0(a5)
    1284:	fce472e3          	bgeu	s0,a4,1248 <prvAddCurrentTaskToDelayedList+0x62>
    1288:	c380                	sw	s0,0(a5)
    128a:	bf7d                	j	1248 <prvAddCurrentTaskToDelayedList+0x62>

0000128c <prvIdleTask>:
    128c:	a78ff2ef          	jal	t0,504 <__riscv_save_4>
    1290:	20003437          	lui	s0,0x20003
    1294:	200009b7          	lui	s3,0x20000
    1298:	3d440413          	addi	s0,s0,980 # 200033d4 <xTasksWaitingTermination>
    129c:	20000a37          	lui	s4,0x20000
    12a0:	24098493          	addi	s1,s3,576 # 20000240 <uxDeletedTasksWaitingCleanUp>
    12a4:	409c                	lw	a5,0(s1)
    12a6:	dfed                	beqz	a5,12a0 <prvIdleTask+0x14>
    12a8:	817ff0ef          	jal	ra,abe <vPortEnterCritical>
    12ac:	445c                	lw	a5,12(s0)
    12ae:	00c7a903          	lw	s2,12(a5)
    12b2:	00490513          	addi	a0,s2,4
    12b6:	8c3ff0ef          	jal	ra,b78 <uxListRemove>
    12ba:	23ca0713          	addi	a4,s4,572 # 2000023c <uxCurrentNumberOfTasks>
    12be:	431c                	lw	a5,0(a4)
    12c0:	17fd                	addi	a5,a5,-1
    12c2:	c31c                	sw	a5,0(a4)
    12c4:	409c                	lw	a5,0(s1)
    12c6:	17fd                	addi	a5,a5,-1
    12c8:	c09c                	sw	a5,0(s1)
    12ca:	80fff0ef          	jal	ra,ad8 <vPortExitCritical>
    12ce:	03092503          	lw	a0,48(s2)
    12d2:	e02ff0ef          	jal	ra,8d4 <vPortFree>
    12d6:	854a                	mv	a0,s2
    12d8:	dfcff0ef          	jal	ra,8d4 <vPortFree>
    12dc:	b7d1                	j	12a0 <prvIdleTask+0x14>

000012de <xTaskCreate>:
    12de:	a18ff2ef          	jal	t0,4f6 <__riscv_save_10>
    12e2:	00261913          	slli	s2,a2,0x2
    12e6:	8aaa                	mv	s5,a0
    12e8:	854a                	mv	a0,s2
    12ea:	89ae                	mv	s3,a1
    12ec:	8b36                	mv	s6,a3
    12ee:	8bba                	mv	s7,a4
    12f0:	8a3e                	mv	s4,a5
    12f2:	c5aff0ef          	jal	ra,74c <pvPortMalloc>
    12f6:	c505                	beqz	a0,131e <xTaskCreate+0x40>
    12f8:	84aa                	mv	s1,a0
    12fa:	06400513          	li	a0,100
    12fe:	c4eff0ef          	jal	ra,74c <pvPortMalloc>
    1302:	842a                	mv	s0,a0
    1304:	c911                	beqz	a0,1318 <xTaskCreate+0x3a>
    1306:	d904                	sw	s1,48(a0)
    1308:	4781                	li	a5,0
    130a:	02000693          	li	a3,32
    130e:	00099a63          	bnez	s3,1322 <xTaskCreate+0x44>
    1312:	02050a23          	sb	zero,52(a0)
    1316:	a025                	j	133e <xTaskCreate+0x60>
    1318:	8526                	mv	a0,s1
    131a:	dbaff0ef          	jal	ra,8d4 <vPortFree>
    131e:	557d                	li	a0,-1
    1320:	aad1                	j	14f4 <xTaskCreate+0x216>
    1322:	00f98733          	add	a4,s3,a5
    1326:	00070703          	lb	a4,0(a4)
    132a:	00f40633          	add	a2,s0,a5
    132e:	02e60a23          	sb	a4,52(a2)
    1332:	c701                	beqz	a4,133a <xTaskCreate+0x5c>
    1334:	0785                	addi	a5,a5,1
    1336:	fed796e3          	bne	a5,a3,1322 <xTaskCreate+0x44>
    133a:	040409a3          	sb	zero,83(s0)
    133e:	4799                	li	a5,6
    1340:	0377f463          	bgeu	a5,s7,1368 <xTaskCreate+0x8a>
    1344:	6789                	lui	a5,0x2
    1346:	80078793          	addi	a5,a5,-2048 # 1800 <xTaskResumeAll+0x9c>
    134a:	30079073          	csrw	mstatus,a5
    134e:	00008637          	lui	a2,0x8
    1352:	00008537          	lui	a0,0x8
    1356:	1d060613          	addi	a2,a2,464 # 81d0 <_read+0xd4>
    135a:	39700593          	li	a1,919
    135e:	14050513          	addi	a0,a0,320 # 8140 <_read+0x44>
    1362:	2ed020ef          	jal	ra,3e4e <iprintf>
    1366:	a001                	j	1366 <xTaskCreate+0x88>
    1368:	00440993          	addi	s3,s0,4
    136c:	854e                	mv	a0,s3
    136e:	03742623          	sw	s7,44(s0)
    1372:	05742a23          	sw	s7,84(s0)
    1376:	04042c23          	sw	zero,88(s0)
    137a:	fcaff0ef          	jal	ra,b44 <vListInitialiseItem>
    137e:	01840513          	addi	a0,s0,24
    1382:	fc2ff0ef          	jal	ra,b44 <vListInitialiseItem>
    1386:	471d                	li	a4,7
    1388:	ffc90513          	addi	a0,s2,-4
    138c:	41770733          	sub	a4,a4,s7
    1390:	9526                	add	a0,a0,s1
    1392:	c800                	sw	s0,16(s0)
    1394:	cc18                	sw	a4,24(s0)
    1396:	d040                	sw	s0,36(s0)
    1398:	04040e23          	sb	zero,92(s0)
    139c:	04040ea3          	sb	zero,93(s0)
    13a0:	04040f23          	sb	zero,94(s0)
    13a4:	04040fa3          	sb	zero,95(s0)
    13a8:	06040023          	sb	zero,96(s0)
    13ac:	060400a3          	sb	zero,97(s0)
    13b0:	865a                	mv	a2,s6
    13b2:	85d6                	mv	a1,s5
    13b4:	9941                	andi	a0,a0,-16
    13b6:	84aff0ef          	jal	ra,400 <pxPortInitialiseStack>
    13ba:	c008                	sw	a0,0(s0)
    13bc:	000a0463          	beqz	s4,13c4 <xTaskCreate+0xe6>
    13c0:	008a2023          	sw	s0,0(s4)
    13c4:	efaff0ef          	jal	ra,abe <vPortEnterCritical>
    13c8:	200007b7          	lui	a5,0x20000
    13cc:	23c78793          	addi	a5,a5,572 # 2000023c <uxCurrentNumberOfTasks>
    13d0:	4398                	lw	a4,0(a5)
    13d2:	20000937          	lui	s2,0x20000
    13d6:	20003537          	lui	a0,0x20003
    13da:	0705                	addi	a4,a4,1
    13dc:	c398                	sw	a4,0(a5)
    13de:	23090713          	addi	a4,s2,560 # 20000230 <pxCurrentTCB>
    13e2:	4318                	lw	a4,0(a4)
    13e4:	20000a37          	lui	s4,0x20000
    13e8:	23090913          	addi	s2,s2,560
    13ec:	2f850493          	addi	s1,a0,760 # 200032f8 <pxReadyTasksLists>
    13f0:	260a0a13          	addi	s4,s4,608 # 20000260 <xSchedulerRunning>
    13f4:	10071263          	bnez	a4,14f8 <xTaskCreate+0x21a>
    13f8:	00892023          	sw	s0,0(s2)
    13fc:	4398                	lw	a4,0(a5)
    13fe:	4785                	li	a5,1
    1400:	08f71863          	bne	a4,a5,1490 <xTaskCreate+0x1b2>
    1404:	2f850513          	addi	a0,a0,760
    1408:	f28ff0ef          	jal	ra,b30 <vListInitialise>
    140c:	01448513          	addi	a0,s1,20
    1410:	f20ff0ef          	jal	ra,b30 <vListInitialise>
    1414:	02848513          	addi	a0,s1,40
    1418:	f18ff0ef          	jal	ra,b30 <vListInitialise>
    141c:	03c48513          	addi	a0,s1,60
    1420:	f10ff0ef          	jal	ra,b30 <vListInitialise>
    1424:	05048513          	addi	a0,s1,80
    1428:	f08ff0ef          	jal	ra,b30 <vListInitialise>
    142c:	06448513          	addi	a0,s1,100
    1430:	f00ff0ef          	jal	ra,b30 <vListInitialise>
    1434:	07848513          	addi	a0,s1,120
    1438:	ef8ff0ef          	jal	ra,b30 <vListInitialise>
    143c:	20003537          	lui	a0,0x20003
    1440:	38450b13          	addi	s6,a0,900 # 20003384 <xDelayedTaskList1>
    1444:	38450513          	addi	a0,a0,900
    1448:	ee8ff0ef          	jal	ra,b30 <vListInitialise>
    144c:	20003537          	lui	a0,0x20003
    1450:	39850a93          	addi	s5,a0,920 # 20003398 <xDelayedTaskList2>
    1454:	39850513          	addi	a0,a0,920
    1458:	ed8ff0ef          	jal	ra,b30 <vListInitialise>
    145c:	20003537          	lui	a0,0x20003
    1460:	3ac50513          	addi	a0,a0,940 # 200033ac <xPendingReadyList>
    1464:	eccff0ef          	jal	ra,b30 <vListInitialise>
    1468:	20003537          	lui	a0,0x20003
    146c:	3d450513          	addi	a0,a0,980 # 200033d4 <xTasksWaitingTermination>
    1470:	ec0ff0ef          	jal	ra,b30 <vListInitialise>
    1474:	20003537          	lui	a0,0x20003
    1478:	3c050513          	addi	a0,a0,960 # 200033c0 <xSuspendedTaskList>
    147c:	eb4ff0ef          	jal	ra,b30 <vListInitialise>
    1480:	200007b7          	lui	a5,0x20000
    1484:	2367aa23          	sw	s6,564(a5) # 20000234 <pxDelayedTaskList>
    1488:	200007b7          	lui	a5,0x20000
    148c:	2357ac23          	sw	s5,568(a5) # 20000238 <pxOverflowDelayedTaskList>
    1490:	200007b7          	lui	a5,0x20000
    1494:	24878793          	addi	a5,a5,584 # 20000248 <uxTaskNumber>
    1498:	4398                	lw	a4,0(a5)
    149a:	0705                	addi	a4,a4,1
    149c:	c398                	sw	a4,0(a5)
    149e:	20000737          	lui	a4,0x20000
    14a2:	24c70713          	addi	a4,a4,588 # 2000024c <uxTopReadyPriority>
    14a6:	545c                	lw	a5,44(s0)
    14a8:	4314                	lw	a3,0(a4)
    14aa:	00f6f363          	bgeu	a3,a5,14b0 <xTaskCreate+0x1d2>
    14ae:	c31c                	sw	a5,0(a4)
    14b0:	4751                	li	a4,20
    14b2:	02e787b3          	mul	a5,a5,a4
    14b6:	94be                	add	s1,s1,a5
    14b8:	40dc                	lw	a5,4(s1)
    14ba:	4798                	lw	a4,8(a5)
    14bc:	c41c                	sw	a5,8(s0)
    14be:	c458                	sw	a4,12(s0)
    14c0:	4798                	lw	a4,8(a5)
    14c2:	01372223          	sw	s3,4(a4)
    14c6:	0137a423          	sw	s3,8(a5)
    14ca:	409c                	lw	a5,0(s1)
    14cc:	c844                	sw	s1,20(s0)
    14ce:	0785                	addi	a5,a5,1
    14d0:	c09c                	sw	a5,0(s1)
    14d2:	e06ff0ef          	jal	ra,ad8 <vPortExitCritical>
    14d6:	000a2783          	lw	a5,0(s4)
    14da:	4505                	li	a0,1
    14dc:	cf81                	beqz	a5,14f4 <xTaskCreate+0x216>
    14de:	00092783          	lw	a5,0(s2)
    14e2:	57d8                	lw	a4,44(a5)
    14e4:	545c                	lw	a5,44(s0)
    14e6:	00f77763          	bgeu	a4,a5,14f4 <xTaskCreate+0x216>
    14ea:	e000e7b7          	lui	a5,0xe000e
    14ee:	6711                	lui	a4,0x4
    14f0:	20e7a023          	sw	a4,512(a5) # e000e200 <__freertos_irq_stack_top+0xc0009200>
    14f4:	83aff06f          	j	52e <__riscv_restore_10>
    14f8:	000a2783          	lw	a5,0(s4)
    14fc:	fbd1                	bnez	a5,1490 <xTaskCreate+0x1b2>
    14fe:	00092783          	lw	a5,0(s2)
    1502:	57d8                	lw	a4,44(a5)
    1504:	545c                	lw	a5,44(s0)
    1506:	f8e7e5e3          	bltu	a5,a4,1490 <xTaskCreate+0x1b2>
    150a:	00892023          	sw	s0,0(s2)
    150e:	b749                	j	1490 <xTaskCreate+0x1b2>

00001510 <vTaskStartScheduler>:
    1510:	80eff2ef          	jal	t0,51e <__riscv_save_0>
    1514:	200007b7          	lui	a5,0x20000
    1518:	000085b7          	lui	a1,0x8
    151c:	00001537          	lui	a0,0x1
    1520:	25078793          	addi	a5,a5,592 # 20000250 <xIdleTaskHandle>
    1524:	4701                	li	a4,0
    1526:	4681                	li	a3,0
    1528:	10000613          	li	a2,256
    152c:	1f458593          	addi	a1,a1,500 # 81f4 <_read+0xf8>
    1530:	28c50513          	addi	a0,a0,652 # 128c <prvIdleTask>
    1534:	336d                	jal	12de <xTaskCreate>
    1536:	4405                	li	s0,1
    1538:	02851e63          	bne	a0,s0,1574 <vTaskStartScheduler+0x64>
    153c:	655000ef          	jal	ra,2390 <xTimerCreateTimerTask>
    1540:	02851a63          	bne	a0,s0,1574 <vTaskStartScheduler+0x64>
    1544:	6789                	lui	a5,0x2
    1546:	80078793          	addi	a5,a5,-2048 # 1800 <xTaskResumeAll+0x9c>
    154a:	30079073          	csrw	mstatus,a5
    154e:	200007b7          	lui	a5,0x20000
    1552:	577d                	li	a4,-1
    1554:	24e7aa23          	sw	a4,596(a5) # 20000254 <xNextTaskUnblockTime>
    1558:	200007b7          	lui	a5,0x20000
    155c:	26a7a023          	sw	a0,608(a5) # 20000260 <xSchedulerRunning>
    1560:	200007b7          	lui	a5,0x20000
    1564:	2607a223          	sw	zero,612(a5) # 20000264 <xTickCount>
    1568:	c4aff0ef          	jal	ra,9b2 <xPortStartScheduler>
    156c:	8041a783          	lw	a5,-2044(gp) # 200001f4 <uxTopUsedPriority>
    1570:	fd3fe06f          	j	542 <__riscv_restore_0>
    1574:	57fd                	li	a5,-1
    1576:	fef51be3          	bne	a0,a5,156c <vTaskStartScheduler+0x5c>
    157a:	6789                	lui	a5,0x2
    157c:	80078793          	addi	a5,a5,-2048 # 1800 <xTaskResumeAll+0x9c>
    1580:	30079073          	csrw	mstatus,a5
    1584:	00008637          	lui	a2,0x8
    1588:	6585                	lui	a1,0x1
    158a:	00008537          	lui	a0,0x8
    158e:	1d060613          	addi	a2,a2,464 # 81d0 <_read+0xd4>
    1592:	84058593          	addi	a1,a1,-1984 # 840 <__stack_size+0x40>
    1596:	14050513          	addi	a0,a0,320 # 8140 <_read+0x44>
    159a:	0b5020ef          	jal	ra,3e4e <iprintf>
    159e:	a001                	j	159e <vTaskStartScheduler+0x8e>

000015a0 <vTaskSuspendAll>:
    15a0:	200007b7          	lui	a5,0x20000
    15a4:	24478793          	addi	a5,a5,580 # 20000244 <uxSchedulerSuspended>
    15a8:	4398                	lw	a4,0(a5)
    15aa:	0705                	addi	a4,a4,1
    15ac:	c398                	sw	a4,0(a5)
    15ae:	8082                	ret

000015b0 <xTaskGetTickCount>:
    15b0:	200007b7          	lui	a5,0x20000
    15b4:	2647a503          	lw	a0,612(a5) # 20000264 <xTickCount>
    15b8:	8082                	ret

000015ba <xTaskIncrementTick>:
    15ba:	200007b7          	lui	a5,0x20000
    15be:	2447a783          	lw	a5,580(a5) # 20000244 <uxSchedulerSuspended>
    15c2:	18079863          	bnez	a5,1752 <xTaskIncrementTick+0x198>
    15c6:	f59fe2ef          	jal	t0,51e <__riscv_save_0>
    15ca:	200007b7          	lui	a5,0x20000
    15ce:	26478793          	addi	a5,a5,612 # 20000264 <xTickCount>
    15d2:	4380                	lw	s0,0(a5)
    15d4:	0405                	addi	s0,s0,1
    15d6:	c380                	sw	s0,0(a5)
    15d8:	e839                	bnez	s0,162e <xTaskIncrementTick+0x74>
    15da:	200007b7          	lui	a5,0x20000
    15de:	23478793          	addi	a5,a5,564 # 20000234 <pxDelayedTaskList>
    15e2:	4398                	lw	a4,0(a5)
    15e4:	4318                	lw	a4,0(a4)
    15e6:	c705                	beqz	a4,160e <xTaskIncrementTick+0x54>
    15e8:	6789                	lui	a5,0x2
    15ea:	80078793          	addi	a5,a5,-2048 # 1800 <xTaskResumeAll+0x9c>
    15ee:	30079073          	csrw	mstatus,a5
    15f2:	00008637          	lui	a2,0x8
    15f6:	6585                	lui	a1,0x1
    15f8:	00008537          	lui	a0,0x8
    15fc:	1d060613          	addi	a2,a2,464 # 81d0 <_read+0xd4>
    1600:	ac758593          	addi	a1,a1,-1337 # ac7 <vPortEnterCritical+0x9>
    1604:	14050513          	addi	a0,a0,320 # 8140 <_read+0x44>
    1608:	047020ef          	jal	ra,3e4e <iprintf>
    160c:	a001                	j	160c <xTaskIncrementTick+0x52>
    160e:	20000737          	lui	a4,0x20000
    1612:	23870713          	addi	a4,a4,568 # 20000238 <pxOverflowDelayedTaskList>
    1616:	4394                	lw	a3,0(a5)
    1618:	4310                	lw	a2,0(a4)
    161a:	c390                	sw	a2,0(a5)
    161c:	200007b7          	lui	a5,0x20000
    1620:	c314                	sw	a3,0(a4)
    1622:	25878793          	addi	a5,a5,600 # 20000258 <xNumOfOverflows>
    1626:	4398                	lw	a4,0(a5)
    1628:	0705                	addi	a4,a4,1
    162a:	c398                	sw	a4,0(a5)
    162c:	3e59                	jal	11c2 <prvResetNextTaskUnblockTime>
    162e:	20000637          	lui	a2,0x20000
    1632:	25460793          	addi	a5,a2,596 # 20000254 <xNextTaskUnblockTime>
    1636:	439c                	lw	a5,0(a5)
    1638:	20003737          	lui	a4,0x20003
    163c:	200005b7          	lui	a1,0x20000
    1640:	25460613          	addi	a2,a2,596
    1644:	2f870713          	addi	a4,a4,760 # 200032f8 <pxReadyTasksLists>
    1648:	23058593          	addi	a1,a1,560 # 20000230 <pxCurrentTCB>
    164c:	4501                	li	a0,0
    164e:	02f47563          	bgeu	s0,a5,1678 <xTaskIncrementTick+0xbe>
    1652:	419c                	lw	a5,0(a1)
    1654:	46d1                	li	a3,20
    1656:	57dc                	lw	a5,44(a5)
    1658:	02d787b3          	mul	a5,a5,a3
    165c:	973e                	add	a4,a4,a5
    165e:	4318                	lw	a4,0(a4)
    1660:	4785                	li	a5,1
    1662:	00e7f363          	bgeu	a5,a4,1668 <xTaskIncrementTick+0xae>
    1666:	4505                	li	a0,1
    1668:	200007b7          	lui	a5,0x20000
    166c:	2687a783          	lw	a5,616(a5) # 20000268 <xYieldPending>
    1670:	c391                	beqz	a5,1674 <xTaskIncrementTick+0xba>
    1672:	4505                	li	a0,1
    1674:	ecffe06f          	j	542 <__riscv_restore_0>
    1678:	20000e37          	lui	t3,0x20000
    167c:	20000eb7          	lui	t4,0x20000
    1680:	4f51                	li	t5,20
    1682:	234e0793          	addi	a5,t3,564 # 20000234 <pxDelayedTaskList>
    1686:	4394                	lw	a3,0(a5)
    1688:	4294                	lw	a3,0(a3)
    168a:	e681                	bnez	a3,1692 <xTaskIncrementTick+0xd8>
    168c:	57fd                	li	a5,-1
    168e:	c21c                	sw	a5,0(a2)
    1690:	b7c9                	j	1652 <xTaskIncrementTick+0x98>
    1692:	439c                	lw	a5,0(a5)
    1694:	47dc                	lw	a5,12(a5)
    1696:	47dc                	lw	a5,12(a5)
    1698:	43d4                	lw	a3,4(a5)
    169a:	00d47463          	bgeu	s0,a3,16a2 <xTaskIncrementTick+0xe8>
    169e:	c214                	sw	a3,0(a2)
    16a0:	bf4d                	j	1652 <xTaskIncrementTick+0x98>
    16a2:	0087a883          	lw	a7,8(a5)
    16a6:	00c7a803          	lw	a6,12(a5)
    16aa:	4bd4                	lw	a3,20(a5)
    16ac:	00478313          	addi	t1,a5,4
    16b0:	0108a423          	sw	a6,8(a7)
    16b4:	01182223          	sw	a7,4(a6)
    16b8:	0046a883          	lw	a7,4(a3)
    16bc:	00689463          	bne	a7,t1,16c4 <xTaskIncrementTick+0x10a>
    16c0:	0106a223          	sw	a6,4(a3)
    16c4:	0006a803          	lw	a6,0(a3)
    16c8:	0007aa23          	sw	zero,20(a5)
    16cc:	187d                	addi	a6,a6,-1
    16ce:	0106a023          	sw	a6,0(a3)
    16d2:	5794                	lw	a3,40(a5)
    16d4:	ca95                	beqz	a3,1708 <xTaskIncrementTick+0x14e>
    16d6:	01c7a803          	lw	a6,28(a5)
    16da:	0207a883          	lw	a7,32(a5)
    16de:	0046af83          	lw	t6,4(a3)
    16e2:	01182423          	sw	a7,8(a6)
    16e6:	0207a883          	lw	a7,32(a5)
    16ea:	0108a223          	sw	a6,4(a7)
    16ee:	01878813          	addi	a6,a5,24
    16f2:	010f9463          	bne	t6,a6,16fa <xTaskIncrementTick+0x140>
    16f6:	0116a223          	sw	a7,4(a3)
    16fa:	0006a803          	lw	a6,0(a3)
    16fe:	0207a423          	sw	zero,40(a5)
    1702:	187d                	addi	a6,a6,-1
    1704:	0106a023          	sw	a6,0(a3)
    1708:	24ce8693          	addi	a3,t4,588 # 2000024c <uxTopReadyPriority>
    170c:	02c7a803          	lw	a6,44(a5)
    1710:	0006a883          	lw	a7,0(a3)
    1714:	0108f463          	bgeu	a7,a6,171c <xTaskIncrementTick+0x162>
    1718:	0106a023          	sw	a6,0(a3)
    171c:	03e806b3          	mul	a3,a6,t5
    1720:	96ba                	add	a3,a3,a4
    1722:	0046a883          	lw	a7,4(a3)
    1726:	0088af83          	lw	t6,8(a7)
    172a:	0117a423          	sw	a7,8(a5)
    172e:	01f7a623          	sw	t6,12(a5)
    1732:	0088af83          	lw	t6,8(a7)
    1736:	006fa223          	sw	t1,4(t6)
    173a:	0068a423          	sw	t1,8(a7)
    173e:	cbd4                	sw	a3,20(a5)
    1740:	429c                	lw	a5,0(a3)
    1742:	0785                	addi	a5,a5,1
    1744:	c29c                	sw	a5,0(a3)
    1746:	419c                	lw	a5,0(a1)
    1748:	57dc                	lw	a5,44(a5)
    174a:	f2f86ce3          	bltu	a6,a5,1682 <xTaskIncrementTick+0xc8>
    174e:	4505                	li	a0,1
    1750:	bf0d                	j	1682 <xTaskIncrementTick+0xc8>
    1752:	200007b7          	lui	a5,0x20000
    1756:	25c78793          	addi	a5,a5,604 # 2000025c <xPendedTicks>
    175a:	4398                	lw	a4,0(a5)
    175c:	4501                	li	a0,0
    175e:	0705                	addi	a4,a4,1
    1760:	c398                	sw	a4,0(a5)
    1762:	8082                	ret

00001764 <xTaskResumeAll>:
    1764:	da1fe2ef          	jal	t0,504 <__riscv_save_4>
    1768:	20000437          	lui	s0,0x20000
    176c:	24440413          	addi	s0,s0,580 # 20000244 <uxSchedulerSuspended>
    1770:	401c                	lw	a5,0(s0)
    1772:	1141                	addi	sp,sp,-16
    1774:	e785                	bnez	a5,179c <xTaskResumeAll+0x38>
    1776:	6789                	lui	a5,0x2
    1778:	80078793          	addi	a5,a5,-2048 # 1800 <xTaskResumeAll+0x9c>
    177c:	30079073          	csrw	mstatus,a5
    1780:	00008637          	lui	a2,0x8
    1784:	6585                	lui	a1,0x1
    1786:	00008537          	lui	a0,0x8
    178a:	1d060613          	addi	a2,a2,464 # 81d0 <_read+0xd4>
    178e:	8b358593          	addi	a1,a1,-1869 # 8b3 <__stack_size+0xb3>
    1792:	14050513          	addi	a0,a0,320 # 8140 <_read+0x44>
    1796:	6b8020ef          	jal	ra,3e4e <iprintf>
    179a:	a001                	j	179a <xTaskResumeAll+0x36>
    179c:	b22ff0ef          	jal	ra,abe <vPortEnterCritical>
    17a0:	401c                	lw	a5,0(s0)
    17a2:	17fd                	addi	a5,a5,-1
    17a4:	c01c                	sw	a5,0(s0)
    17a6:	401c                	lw	a5,0(s0)
    17a8:	cb89                	beqz	a5,17ba <xTaskResumeAll+0x56>
    17aa:	4501                	li	a0,0
    17ac:	c62a                	sw	a0,12(sp)
    17ae:	b2aff0ef          	jal	ra,ad8 <vPortExitCritical>
    17b2:	4532                	lw	a0,12(sp)
    17b4:	0141                	addi	sp,sp,16
    17b6:	d83fe06f          	j	538 <__riscv_restore_4>
    17ba:	200007b7          	lui	a5,0x20000
    17be:	23c7a783          	lw	a5,572(a5) # 2000023c <uxCurrentNumberOfTasks>
    17c2:	d7e5                	beqz	a5,17aa <xTaskResumeAll+0x46>
    17c4:	200036b7          	lui	a3,0x20003
    17c8:	20003537          	lui	a0,0x20003
    17cc:	4781                	li	a5,0
    17ce:	3ac68693          	addi	a3,a3,940 # 200033ac <xPendingReadyList>
    17d2:	20000f37          	lui	t5,0x20000
    17d6:	2f850513          	addi	a0,a0,760 # 200032f8 <pxReadyTasksLists>
    17da:	48d1                	li	a7,20
    17dc:	20000337          	lui	t1,0x20000
    17e0:	20000e37          	lui	t3,0x20000
    17e4:	4e85                	li	t4,1
    17e6:	a859                	j	187c <xTaskResumeAll+0x118>
    17e8:	46dc                	lw	a5,12(a3)
    17ea:	47dc                	lw	a5,12(a5)
    17ec:	4fcc                	lw	a1,28(a5)
    17ee:	5390                	lw	a2,32(a5)
    17f0:	5798                	lw	a4,40(a5)
    17f2:	c590                	sw	a2,8(a1)
    17f4:	0207a803          	lw	a6,32(a5)
    17f8:	00b82223          	sw	a1,4(a6)
    17fc:	00472803          	lw	a6,4(a4)
    1800:	01878593          	addi	a1,a5,24
    1804:	00b81363          	bne	a6,a1,180a <xTaskResumeAll+0xa6>
    1808:	c350                	sw	a2,4(a4)
    180a:	4310                	lw	a2,0(a4)
    180c:	0207a423          	sw	zero,40(a5)
    1810:	167d                	addi	a2,a2,-1
    1812:	c310                	sw	a2,0(a4)
    1814:	478c                	lw	a1,8(a5)
    1816:	47d0                	lw	a2,12(a5)
    1818:	4bd8                	lw	a4,20(a5)
    181a:	00478813          	addi	a6,a5,4
    181e:	c590                	sw	a2,8(a1)
    1820:	c24c                	sw	a1,4(a2)
    1822:	434c                	lw	a1,4(a4)
    1824:	01059363          	bne	a1,a6,182a <xTaskResumeAll+0xc6>
    1828:	c350                	sw	a2,4(a4)
    182a:	4310                	lw	a2,0(a4)
    182c:	0007aa23          	sw	zero,20(a5)
    1830:	167d                	addi	a2,a2,-1
    1832:	c310                	sw	a2,0(a4)
    1834:	24cf0713          	addi	a4,t5,588 # 2000024c <uxTopReadyPriority>
    1838:	57d0                	lw	a2,44(a5)
    183a:	430c                	lw	a1,0(a4)
    183c:	00c5f363          	bgeu	a1,a2,1842 <xTaskResumeAll+0xde>
    1840:	c310                	sw	a2,0(a4)
    1842:	03160733          	mul	a4,a2,a7
    1846:	972a                	add	a4,a4,a0
    1848:	434c                	lw	a1,4(a4)
    184a:	0085af83          	lw	t6,8(a1)
    184e:	c78c                	sw	a1,8(a5)
    1850:	01f7a623          	sw	t6,12(a5)
    1854:	0085af83          	lw	t6,8(a1)
    1858:	010fa223          	sw	a6,4(t6)
    185c:	0105a423          	sw	a6,8(a1)
    1860:	430c                	lw	a1,0(a4)
    1862:	cbd8                	sw	a4,20(a5)
    1864:	0585                	addi	a1,a1,1
    1866:	c30c                	sw	a1,0(a4)
    1868:	23030713          	addi	a4,t1,560 # 20000230 <pxCurrentTCB>
    186c:	4318                	lw	a4,0(a4)
    186e:	5758                	lw	a4,44(a4)
    1870:	00e66663          	bltu	a2,a4,187c <xTaskResumeAll+0x118>
    1874:	268e0713          	addi	a4,t3,616 # 20000268 <xYieldPending>
    1878:	01d72023          	sw	t4,0(a4)
    187c:	4298                	lw	a4,0(a3)
    187e:	f72d                	bnez	a4,17e8 <xTaskResumeAll+0x84>
    1880:	c399                	beqz	a5,1886 <xTaskResumeAll+0x122>
    1882:	941ff0ef          	jal	ra,11c2 <prvResetNextTaskUnblockTime>
    1886:	200007b7          	lui	a5,0x20000
    188a:	25c78713          	addi	a4,a5,604 # 2000025c <xPendedTicks>
    188e:	4304                	lw	s1,0(a4)
    1890:	25c78413          	addi	s0,a5,604
    1894:	cc91                	beqz	s1,18b0 <xTaskResumeAll+0x14c>
    1896:	20000937          	lui	s2,0x20000
    189a:	4985                	li	s3,1
    189c:	3b39                	jal	15ba <xTaskIncrementTick>
    189e:	c509                	beqz	a0,18a8 <xTaskResumeAll+0x144>
    18a0:	26890793          	addi	a5,s2,616 # 20000268 <xYieldPending>
    18a4:	0137a023          	sw	s3,0(a5)
    18a8:	14fd                	addi	s1,s1,-1
    18aa:	f8ed                	bnez	s1,189c <xTaskResumeAll+0x138>
    18ac:	00042023          	sw	zero,0(s0)
    18b0:	200007b7          	lui	a5,0x20000
    18b4:	2687a783          	lw	a5,616(a5) # 20000268 <xYieldPending>
    18b8:	ee0789e3          	beqz	a5,17aa <xTaskResumeAll+0x46>
    18bc:	e000e7b7          	lui	a5,0xe000e
    18c0:	6711                	lui	a4,0x4
    18c2:	20e7a023          	sw	a4,512(a5) # e000e200 <__freertos_irq_stack_top+0xc0009200>
    18c6:	4505                	li	a0,1
    18c8:	b5d5                	j	17ac <xTaskResumeAll+0x48>

000018ca <vTaskDelay>:
    18ca:	e519                	bnez	a0,18d8 <vTaskDelay+0xe>
    18cc:	e000e7b7          	lui	a5,0xe000e
    18d0:	6711                	lui	a4,0x4
    18d2:	20e7a023          	sw	a4,512(a5) # e000e200 <__freertos_irq_stack_top+0xc0009200>
    18d6:	8082                	ret
    18d8:	c47fe2ef          	jal	t0,51e <__riscv_save_0>
    18dc:	200007b7          	lui	a5,0x20000
    18e0:	2447a783          	lw	a5,580(a5) # 20000244 <uxSchedulerSuspended>
    18e4:	1141                	addi	sp,sp,-16
    18e6:	c39d                	beqz	a5,190c <vTaskDelay+0x42>
    18e8:	6789                	lui	a5,0x2
    18ea:	80078793          	addi	a5,a5,-2048 # 1800 <xTaskResumeAll+0x9c>
    18ee:	30079073          	csrw	mstatus,a5
    18f2:	00008637          	lui	a2,0x8
    18f6:	00008537          	lui	a0,0x8
    18fa:	1d060613          	addi	a2,a2,464 # 81d0 <_read+0xd4>
    18fe:	54900593          	li	a1,1353
    1902:	14050513          	addi	a0,a0,320 # 8140 <_read+0x44>
    1906:	548020ef          	jal	ra,3e4e <iprintf>
    190a:	a001                	j	190a <vTaskDelay+0x40>
    190c:	c62a                	sw	a0,12(sp)
    190e:	3949                	jal	15a0 <vTaskSuspendAll>
    1910:	4532                	lw	a0,12(sp)
    1912:	4581                	li	a1,0
    1914:	8d3ff0ef          	jal	ra,11e6 <prvAddCurrentTaskToDelayedList>
    1918:	35b1                	jal	1764 <xTaskResumeAll>
    191a:	e511                	bnez	a0,1926 <vTaskDelay+0x5c>
    191c:	e000e7b7          	lui	a5,0xe000e
    1920:	6711                	lui	a4,0x4
    1922:	20e7a023          	sw	a4,512(a5) # e000e200 <__freertos_irq_stack_top+0xc0009200>
    1926:	0141                	addi	sp,sp,16
    1928:	c1bfe06f          	j	542 <__riscv_restore_0>

0000192c <vTaskSwitchContext>:
    192c:	200007b7          	lui	a5,0x20000
    1930:	2447a703          	lw	a4,580(a5) # 20000244 <uxSchedulerSuspended>
    1934:	200007b7          	lui	a5,0x20000
    1938:	26878793          	addi	a5,a5,616 # 20000268 <xYieldPending>
    193c:	c701                	beqz	a4,1944 <vTaskSwitchContext+0x18>
    193e:	4705                	li	a4,1
    1940:	c398                	sw	a4,0(a5)
    1942:	8082                	ret
    1944:	0007a023          	sw	zero,0(a5)
    1948:	200007b7          	lui	a5,0x20000
    194c:	24c78713          	addi	a4,a5,588 # 2000024c <uxTopReadyPriority>
    1950:	4318                	lw	a4,0(a4)
    1952:	24c78613          	addi	a2,a5,588
    1956:	200037b7          	lui	a5,0x20003
    195a:	2f878793          	addi	a5,a5,760 # 200032f8 <pxReadyTasksLists>
    195e:	4851                	li	a6,20
    1960:	030706b3          	mul	a3,a4,a6
    1964:	00d785b3          	add	a1,a5,a3
    1968:	4188                	lw	a0,0(a1)
    196a:	c515                	beqz	a0,1996 <vTaskSwitchContext+0x6a>
    196c:	41c8                	lw	a0,4(a1)
    196e:	06a1                	addi	a3,a3,8
    1970:	96be                	add	a3,a3,a5
    1972:	4148                	lw	a0,4(a0)
    1974:	c1c8                	sw	a0,4(a1)
    1976:	00d51463          	bne	a0,a3,197e <vTaskSwitchContext+0x52>
    197a:	4154                	lw	a3,4(a0)
    197c:	c1d4                	sw	a3,4(a1)
    197e:	46d1                	li	a3,20
    1980:	02d706b3          	mul	a3,a4,a3
    1984:	97b6                	add	a5,a5,a3
    1986:	43dc                	lw	a5,4(a5)
    1988:	47d4                	lw	a3,12(a5)
    198a:	200007b7          	lui	a5,0x20000
    198e:	22d7a823          	sw	a3,560(a5) # 20000230 <pxCurrentTCB>
    1992:	c218                	sw	a4,0(a2)
    1994:	8082                	ret
    1996:	e715                	bnez	a4,19c2 <vTaskSwitchContext+0x96>
    1998:	b87fe2ef          	jal	t0,51e <__riscv_save_0>
    199c:	6789                	lui	a5,0x2
    199e:	80078793          	addi	a5,a5,-2048 # 1800 <xTaskResumeAll+0x9c>
    19a2:	30079073          	csrw	mstatus,a5
    19a6:	00008637          	lui	a2,0x8
    19aa:	6585                	lui	a1,0x1
    19ac:	00008537          	lui	a0,0x8
    19b0:	1d060613          	addi	a2,a2,464 # 81d0 <_read+0xd4>
    19b4:	c0258593          	addi	a1,a1,-1022 # c02 <prvCopyDataToQueue+0x52>
    19b8:	14050513          	addi	a0,a0,320 # 8140 <_read+0x44>
    19bc:	492020ef          	jal	ra,3e4e <iprintf>
    19c0:	a001                	j	19c0 <vTaskSwitchContext+0x94>
    19c2:	177d                	addi	a4,a4,-1
    19c4:	bf71                	j	1960 <vTaskSwitchContext+0x34>

000019c6 <vTaskPlaceOnEventList>:
    19c6:	b59fe2ef          	jal	t0,51e <__riscv_save_0>
    19ca:	e505                	bnez	a0,19f2 <vTaskPlaceOnEventList+0x2c>
    19cc:	6789                	lui	a5,0x2
    19ce:	80078793          	addi	a5,a5,-2048 # 1800 <xTaskResumeAll+0x9c>
    19d2:	30079073          	csrw	mstatus,a5
    19d6:	00008637          	lui	a2,0x8
    19da:	6585                	lui	a1,0x1
    19dc:	00008537          	lui	a0,0x8
    19e0:	1d060613          	addi	a2,a2,464 # 81d0 <_read+0xd4>
    19e4:	c1c58593          	addi	a1,a1,-996 # c1c <prvCopyDataToQueue+0x6c>
    19e8:	14050513          	addi	a0,a0,320 # 8140 <_read+0x44>
    19ec:	462020ef          	jal	ra,3e4e <iprintf>
    19f0:	a001                	j	19f0 <vTaskPlaceOnEventList+0x2a>
    19f2:	200007b7          	lui	a5,0x20000
    19f6:	842e                	mv	s0,a1
    19f8:	2307a583          	lw	a1,560(a5) # 20000230 <pxCurrentTCB>
    19fc:	05e1                	addi	a1,a1,24
    19fe:	94cff0ef          	jal	ra,b4a <vListInsert>
    1a02:	4585                	li	a1,1
    1a04:	8522                	mv	a0,s0
    1a06:	fe0ff0ef          	jal	ra,11e6 <prvAddCurrentTaskToDelayedList>
    1a0a:	b39fe06f          	j	542 <__riscv_restore_0>

00001a0e <vTaskPlaceOnEventListRestricted>:
    1a0e:	b11fe2ef          	jal	t0,51e <__riscv_save_0>
    1a12:	872a                	mv	a4,a0
    1a14:	e505                	bnez	a0,1a3c <vTaskPlaceOnEventListRestricted+0x2e>
    1a16:	6789                	lui	a5,0x2
    1a18:	80078793          	addi	a5,a5,-2048 # 1800 <xTaskResumeAll+0x9c>
    1a1c:	30079073          	csrw	mstatus,a5
    1a20:	00008637          	lui	a2,0x8
    1a24:	6585                	lui	a1,0x1
    1a26:	00008537          	lui	a0,0x8
    1a2a:	1d060613          	addi	a2,a2,464 # 81d0 <_read+0xd4>
    1a2e:	c5258593          	addi	a1,a1,-942 # c52 <prvUnlockQueue+0xa>
    1a32:	14050513          	addi	a0,a0,320 # 8140 <_read+0x44>
    1a36:	418020ef          	jal	ra,3e4e <iprintf>
    1a3a:	a001                	j	1a3a <vTaskPlaceOnEventListRestricted+0x2c>
    1a3c:	200007b7          	lui	a5,0x20000
    1a40:	23078793          	addi	a5,a5,560 # 20000230 <pxCurrentTCB>
    1a44:	4354                	lw	a3,4(a4)
    1a46:	852e                	mv	a0,a1
    1a48:	438c                	lw	a1,0(a5)
    1a4a:	0086a803          	lw	a6,8(a3)
    1a4e:	cdd4                	sw	a3,28(a1)
    1a50:	438c                	lw	a1,0(a5)
    1a52:	0305a023          	sw	a6,32(a1)
    1a56:	0007a803          	lw	a6,0(a5)
    1a5a:	468c                	lw	a1,8(a3)
    1a5c:	0861                	addi	a6,a6,24
    1a5e:	0105a223          	sw	a6,4(a1)
    1a62:	0007a803          	lw	a6,0(a5)
    1a66:	439c                	lw	a5,0(a5)
    1a68:	0861                	addi	a6,a6,24
    1a6a:	0106a423          	sw	a6,8(a3)
    1a6e:	d798                	sw	a4,40(a5)
    1a70:	431c                	lw	a5,0(a4)
    1a72:	0785                	addi	a5,a5,1
    1a74:	c31c                	sw	a5,0(a4)
    1a76:	c211                	beqz	a2,1a7a <vTaskPlaceOnEventListRestricted+0x6c>
    1a78:	557d                	li	a0,-1
    1a7a:	85b2                	mv	a1,a2
    1a7c:	f6aff0ef          	jal	ra,11e6 <prvAddCurrentTaskToDelayedList>
    1a80:	ac3fe06f          	j	542 <__riscv_restore_0>

00001a84 <xTaskRemoveFromEventList>:
    1a84:	455c                	lw	a5,12(a0)
    1a86:	47dc                	lw	a5,12(a5)
    1a88:	e795                	bnez	a5,1ab4 <xTaskRemoveFromEventList+0x30>
    1a8a:	a95fe2ef          	jal	t0,51e <__riscv_save_0>
    1a8e:	6789                	lui	a5,0x2
    1a90:	80078793          	addi	a5,a5,-2048 # 1800 <xTaskResumeAll+0x9c>
    1a94:	30079073          	csrw	mstatus,a5
    1a98:	00008637          	lui	a2,0x8
    1a9c:	6585                	lui	a1,0x1
    1a9e:	00008537          	lui	a0,0x8
    1aa2:	1d060613          	addi	a2,a2,464 # 81d0 <_read+0xd4>
    1aa6:	c8258593          	addi	a1,a1,-894 # c82 <prvUnlockQueue+0x3a>
    1aaa:	14050513          	addi	a0,a0,320 # 8140 <_read+0x44>
    1aae:	3a0020ef          	jal	ra,3e4e <iprintf>
    1ab2:	a001                	j	1ab2 <xTaskRemoveFromEventList+0x2e>
    1ab4:	4fd0                	lw	a2,28(a5)
    1ab6:	5394                	lw	a3,32(a5)
    1ab8:	5798                	lw	a4,40(a5)
    1aba:	01878593          	addi	a1,a5,24
    1abe:	c614                	sw	a3,8(a2)
    1ac0:	c2d0                	sw	a2,4(a3)
    1ac2:	4350                	lw	a2,4(a4)
    1ac4:	00b61363          	bne	a2,a1,1aca <xTaskRemoveFromEventList+0x46>
    1ac8:	c354                	sw	a3,4(a4)
    1aca:	4314                	lw	a3,0(a4)
    1acc:	0207a423          	sw	zero,40(a5)
    1ad0:	16fd                	addi	a3,a3,-1
    1ad2:	c314                	sw	a3,0(a4)
    1ad4:	20000737          	lui	a4,0x20000
    1ad8:	24472703          	lw	a4,580(a4) # 20000244 <uxSchedulerSuspended>
    1adc:	57d4                	lw	a3,44(a5)
    1ade:	ef25                	bnez	a4,1b56 <xTaskRemoveFromEventList+0xd2>
    1ae0:	478c                	lw	a1,8(a5)
    1ae2:	47d0                	lw	a2,12(a5)
    1ae4:	4bd8                	lw	a4,20(a5)
    1ae6:	c590                	sw	a2,8(a1)
    1ae8:	47d0                	lw	a2,12(a5)
    1aea:	4348                	lw	a0,4(a4)
    1aec:	c24c                	sw	a1,4(a2)
    1aee:	00478593          	addi	a1,a5,4
    1af2:	00b51363          	bne	a0,a1,1af8 <xTaskRemoveFromEventList+0x74>
    1af6:	c350                	sw	a2,4(a4)
    1af8:	4310                	lw	a2,0(a4)
    1afa:	0007aa23          	sw	zero,20(a5)
    1afe:	167d                	addi	a2,a2,-1
    1b00:	c310                	sw	a2,0(a4)
    1b02:	20000737          	lui	a4,0x20000
    1b06:	24c70713          	addi	a4,a4,588 # 2000024c <uxTopReadyPriority>
    1b0a:	4310                	lw	a2,0(a4)
    1b0c:	00d67363          	bgeu	a2,a3,1b12 <xTaskRemoveFromEventList+0x8e>
    1b10:	c314                	sw	a3,0(a4)
    1b12:	4751                	li	a4,20
    1b14:	02e68633          	mul	a2,a3,a4
    1b18:	20003737          	lui	a4,0x20003
    1b1c:	2f870713          	addi	a4,a4,760 # 200032f8 <pxReadyTasksLists>
    1b20:	9732                	add	a4,a4,a2
    1b22:	4350                	lw	a2,4(a4)
    1b24:	4608                	lw	a0,8(a2)
    1b26:	c790                	sw	a2,8(a5)
    1b28:	c7c8                	sw	a0,12(a5)
    1b2a:	4608                	lw	a0,8(a2)
    1b2c:	c14c                	sw	a1,4(a0)
    1b2e:	c60c                	sw	a1,8(a2)
    1b30:	cbd8                	sw	a4,20(a5)
    1b32:	431c                	lw	a5,0(a4)
    1b34:	4501                	li	a0,0
    1b36:	0785                	addi	a5,a5,1
    1b38:	c31c                	sw	a5,0(a4)
    1b3a:	200007b7          	lui	a5,0x20000
    1b3e:	2307a783          	lw	a5,560(a5) # 20000230 <pxCurrentTCB>
    1b42:	57dc                	lw	a5,44(a5)
    1b44:	00d7f863          	bgeu	a5,a3,1b54 <xTaskRemoveFromEventList+0xd0>
    1b48:	200007b7          	lui	a5,0x20000
    1b4c:	4705                	li	a4,1
    1b4e:	26e7a423          	sw	a4,616(a5) # 20000268 <xYieldPending>
    1b52:	4505                	li	a0,1
    1b54:	8082                	ret
    1b56:	20003737          	lui	a4,0x20003
    1b5a:	3ac70713          	addi	a4,a4,940 # 200033ac <xPendingReadyList>
    1b5e:	4350                	lw	a2,4(a4)
    1b60:	4608                	lw	a0,8(a2)
    1b62:	cfd0                	sw	a2,28(a5)
    1b64:	d388                	sw	a0,32(a5)
    1b66:	4608                	lw	a0,8(a2)
    1b68:	c14c                	sw	a1,4(a0)
    1b6a:	c60c                	sw	a1,8(a2)
    1b6c:	d798                	sw	a4,40(a5)
    1b6e:	b7d1                	j	1b32 <xTaskRemoveFromEventList+0xae>

00001b70 <vTaskInternalSetTimeOutState>:
    1b70:	200007b7          	lui	a5,0x20000
    1b74:	2587a783          	lw	a5,600(a5) # 20000258 <xNumOfOverflows>
    1b78:	c11c                	sw	a5,0(a0)
    1b7a:	200007b7          	lui	a5,0x20000
    1b7e:	2647a783          	lw	a5,612(a5) # 20000264 <xTickCount>
    1b82:	c15c                	sw	a5,4(a0)
    1b84:	8082                	ret

00001b86 <xTaskCheckForTimeOut>:
    1b86:	999fe2ef          	jal	t0,51e <__riscv_save_0>
    1b8a:	1141                	addi	sp,sp,-16
    1b8c:	e505                	bnez	a0,1bb4 <xTaskCheckForTimeOut+0x2e>
    1b8e:	6789                	lui	a5,0x2
    1b90:	80078793          	addi	a5,a5,-2048 # 1800 <xTaskResumeAll+0x9c>
    1b94:	30079073          	csrw	mstatus,a5
    1b98:	00008637          	lui	a2,0x8
    1b9c:	6585                	lui	a1,0x1
    1b9e:	00008537          	lui	a0,0x8
    1ba2:	1d060613          	addi	a2,a2,464 # 81d0 <_read+0xd4>
    1ba6:	cfd58593          	addi	a1,a1,-771 # cfd <xQueueGenericReset+0x47>
    1baa:	14050513          	addi	a0,a0,320 # 8140 <_read+0x44>
    1bae:	2a0020ef          	jal	ra,3e4e <iprintf>
    1bb2:	a001                	j	1bb2 <xTaskCheckForTimeOut+0x2c>
    1bb4:	e585                	bnez	a1,1bdc <xTaskCheckForTimeOut+0x56>
    1bb6:	6789                	lui	a5,0x2
    1bb8:	80078793          	addi	a5,a5,-2048 # 1800 <xTaskResumeAll+0x9c>
    1bbc:	30079073          	csrw	mstatus,a5
    1bc0:	00008637          	lui	a2,0x8
    1bc4:	6585                	lui	a1,0x1
    1bc6:	00008537          	lui	a0,0x8
    1bca:	1d060613          	addi	a2,a2,464 # 81d0 <_read+0xd4>
    1bce:	cfe58593          	addi	a1,a1,-770 # cfe <xQueueGenericReset+0x48>
    1bd2:	14050513          	addi	a0,a0,320 # 8140 <_read+0x44>
    1bd6:	278020ef          	jal	ra,3e4e <iprintf>
    1bda:	a001                	j	1bda <xTaskCheckForTimeOut+0x54>
    1bdc:	c62e                	sw	a1,12(sp)
    1bde:	c42a                	sw	a0,8(sp)
    1be0:	edffe0ef          	jal	ra,abe <vPortEnterCritical>
    1be4:	20000737          	lui	a4,0x20000
    1be8:	200007b7          	lui	a5,0x20000
    1bec:	23070713          	addi	a4,a4,560 # 20000230 <pxCurrentTCB>
    1bf0:	2647a683          	lw	a3,612(a5) # 20000264 <xTickCount>
    1bf4:	431c                	lw	a5,0(a4)
    1bf6:	4522                	lw	a0,8(sp)
    1bf8:	45b2                	lw	a1,12(sp)
    1bfa:	0617c783          	lbu	a5,97(a5)
    1bfe:	cb99                	beqz	a5,1c14 <xTaskCheckForTimeOut+0x8e>
    1c00:	431c                	lw	a5,0(a4)
    1c02:	060780a3          	sb	zero,97(a5)
    1c06:	4405                	li	s0,1
    1c08:	ed1fe0ef          	jal	ra,ad8 <vPortExitCritical>
    1c0c:	8522                	mv	a0,s0
    1c0e:	0141                	addi	sp,sp,16
    1c10:	933fe06f          	j	542 <__riscv_restore_0>
    1c14:	419c                	lw	a5,0(a1)
    1c16:	577d                	li	a4,-1
    1c18:	4401                	li	s0,0
    1c1a:	fee787e3          	beq	a5,a4,1c08 <xTaskCheckForTimeOut+0x82>
    1c1e:	20000637          	lui	a2,0x20000
    1c22:	25862603          	lw	a2,600(a2) # 20000258 <xNumOfOverflows>
    1c26:	00052803          	lw	a6,0(a0)
    1c2a:	4158                	lw	a4,4(a0)
    1c2c:	00c80763          	beq	a6,a2,1c3a <xTaskCheckForTimeOut+0xb4>
    1c30:	00e6e563          	bltu	a3,a4,1c3a <xTaskCheckForTimeOut+0xb4>
    1c34:	0005a023          	sw	zero,0(a1)
    1c38:	b7f9                	j	1c06 <xTaskCheckForTimeOut+0x80>
    1c3a:	40e68633          	sub	a2,a3,a4
    1c3e:	fef67be3          	bgeu	a2,a5,1c34 <xTaskCheckForTimeOut+0xae>
    1c42:	8f95                	sub	a5,a5,a3
    1c44:	97ba                	add	a5,a5,a4
    1c46:	c19c                	sw	a5,0(a1)
    1c48:	3725                	jal	1b70 <vTaskInternalSetTimeOutState>
    1c4a:	4401                	li	s0,0
    1c4c:	bf75                	j	1c08 <xTaskCheckForTimeOut+0x82>

00001c4e <vTaskMissedYield>:
    1c4e:	200007b7          	lui	a5,0x20000
    1c52:	4705                	li	a4,1
    1c54:	26e7a423          	sw	a4,616(a5) # 20000268 <xYieldPending>
    1c58:	8082                	ret

00001c5a <xTaskGetSchedulerState>:
    1c5a:	200007b7          	lui	a5,0x20000
    1c5e:	2607a783          	lw	a5,608(a5) # 20000260 <xSchedulerRunning>
    1c62:	4505                	li	a0,1
    1c64:	cb81                	beqz	a5,1c74 <xTaskGetSchedulerState+0x1a>
    1c66:	200007b7          	lui	a5,0x20000
    1c6a:	2447a503          	lw	a0,580(a5) # 20000244 <uxSchedulerSuspended>
    1c6e:	00153513          	seqz	a0,a0
    1c72:	0506                	slli	a0,a0,0x1
    1c74:	8082                	ret

00001c76 <xTaskPriorityDisinherit>:
    1c76:	e511                	bnez	a0,1c82 <xTaskPriorityDisinherit+0xc>
    1c78:	4501                	li	a0,0
    1c7a:	8082                	ret
    1c7c:	4501                	li	a0,0
    1c7e:	8c5fe06f          	j	542 <__riscv_restore_0>
    1c82:	89dfe2ef          	jal	t0,51e <__riscv_save_0>
    1c86:	200007b7          	lui	a5,0x20000
    1c8a:	2307a783          	lw	a5,560(a5) # 20000230 <pxCurrentTCB>
    1c8e:	842a                	mv	s0,a0
    1c90:	02a78563          	beq	a5,a0,1cba <xTaskPriorityDisinherit+0x44>
    1c94:	6789                	lui	a5,0x2
    1c96:	80078793          	addi	a5,a5,-2048 # 1800 <xTaskResumeAll+0x9c>
    1c9a:	30079073          	csrw	mstatus,a5
    1c9e:	00008637          	lui	a2,0x8
    1ca2:	6585                	lui	a1,0x1
    1ca4:	00008537          	lui	a0,0x8
    1ca8:	1d060613          	addi	a2,a2,464 # 81d0 <_read+0xd4>
    1cac:	04f58593          	addi	a1,a1,79 # 104f <xQueueReceive+0xe5>
    1cb0:	14050513          	addi	a0,a0,320 # 8140 <_read+0x44>
    1cb4:	19a020ef          	jal	ra,3e4e <iprintf>
    1cb8:	a001                	j	1cb8 <xTaskPriorityDisinherit+0x42>
    1cba:	4fbc                	lw	a5,88(a5)
    1cbc:	e785                	bnez	a5,1ce4 <xTaskPriorityDisinherit+0x6e>
    1cbe:	6789                	lui	a5,0x2
    1cc0:	80078793          	addi	a5,a5,-2048 # 1800 <xTaskResumeAll+0x9c>
    1cc4:	30079073          	csrw	mstatus,a5
    1cc8:	00008637          	lui	a2,0x8
    1ccc:	6585                	lui	a1,0x1
    1cce:	00008537          	lui	a0,0x8
    1cd2:	1d060613          	addi	a2,a2,464 # 81d0 <_read+0xd4>
    1cd6:	05058593          	addi	a1,a1,80 # 1050 <xQueueReceive+0xe6>
    1cda:	14050513          	addi	a0,a0,320 # 8140 <_read+0x44>
    1cde:	170020ef          	jal	ra,3e4e <iprintf>
    1ce2:	a001                	j	1ce2 <xTaskPriorityDisinherit+0x6c>
    1ce4:	5554                	lw	a3,44(a0)
    1ce6:	4978                	lw	a4,84(a0)
    1ce8:	17fd                	addi	a5,a5,-1
    1cea:	cd3c                	sw	a5,88(a0)
    1cec:	f8e688e3          	beq	a3,a4,1c7c <xTaskPriorityDisinherit+0x6>
    1cf0:	f7d1                	bnez	a5,1c7c <xTaskPriorityDisinherit+0x6>
    1cf2:	00450493          	addi	s1,a0,4
    1cf6:	8526                	mv	a0,s1
    1cf8:	e81fe0ef          	jal	ra,b78 <uxListRemove>
    1cfc:	487c                	lw	a5,84(s0)
    1cfe:	471d                	li	a4,7
    1d00:	8f1d                	sub	a4,a4,a5
    1d02:	cc18                	sw	a4,24(s0)
    1d04:	20000737          	lui	a4,0x20000
    1d08:	24c70713          	addi	a4,a4,588 # 2000024c <uxTopReadyPriority>
    1d0c:	4314                	lw	a3,0(a4)
    1d0e:	d45c                	sw	a5,44(s0)
    1d10:	00f6f363          	bgeu	a3,a5,1d16 <xTaskPriorityDisinherit+0xa0>
    1d14:	c31c                	sw	a5,0(a4)
    1d16:	4751                	li	a4,20
    1d18:	02e78733          	mul	a4,a5,a4
    1d1c:	200037b7          	lui	a5,0x20003
    1d20:	2f878793          	addi	a5,a5,760 # 200032f8 <pxReadyTasksLists>
    1d24:	4505                	li	a0,1
    1d26:	97ba                	add	a5,a5,a4
    1d28:	43d8                	lw	a4,4(a5)
    1d2a:	4714                	lw	a3,8(a4)
    1d2c:	c418                	sw	a4,8(s0)
    1d2e:	c454                	sw	a3,12(s0)
    1d30:	4714                	lw	a3,8(a4)
    1d32:	c2c4                	sw	s1,4(a3)
    1d34:	c704                	sw	s1,8(a4)
    1d36:	4398                	lw	a4,0(a5)
    1d38:	c85c                	sw	a5,20(s0)
    1d3a:	0705                	addi	a4,a4,1
    1d3c:	c398                	sw	a4,0(a5)
    1d3e:	b781                	j	1c7e <xTaskPriorityDisinherit+0x8>

00001d40 <ulTaskGenericNotifyTake>:
    1d40:	fdefe2ef          	jal	t0,51e <__riscv_save_0>
    1d44:	1141                	addi	sp,sp,-16
    1d46:	c505                	beqz	a0,1d6e <ulTaskGenericNotifyTake+0x2e>
    1d48:	6789                	lui	a5,0x2
    1d4a:	80078793          	addi	a5,a5,-2048 # 1800 <xTaskResumeAll+0x9c>
    1d4e:	30079073          	csrw	mstatus,a5
    1d52:	00008637          	lui	a2,0x8
    1d56:	6585                	lui	a1,0x1
    1d58:	00008537          	lui	a0,0x8
    1d5c:	1d060613          	addi	a2,a2,464 # 81d0 <_read+0xd4>
    1d60:	26658593          	addi	a1,a1,614 # 1266 <prvAddCurrentTaskToDelayedList+0x80>
    1d64:	14050513          	addi	a0,a0,320 # 8140 <_read+0x44>
    1d68:	0e6020ef          	jal	ra,3e4e <iprintf>
    1d6c:	a001                	j	1d6c <ulTaskGenericNotifyTake+0x2c>
    1d6e:	20000437          	lui	s0,0x20000
    1d72:	84ae                	mv	s1,a1
    1d74:	c632                	sw	a2,12(sp)
    1d76:	d49fe0ef          	jal	ra,abe <vPortEnterCritical>
    1d7a:	23040793          	addi	a5,s0,560 # 20000230 <pxCurrentTCB>
    1d7e:	439c                	lw	a5,0(a5)
    1d80:	23040413          	addi	s0,s0,560
    1d84:	4ffc                	lw	a5,92(a5)
    1d86:	e385                	bnez	a5,1da6 <ulTaskGenericNotifyTake+0x66>
    1d88:	401c                	lw	a5,0(s0)
    1d8a:	4632                	lw	a2,12(sp)
    1d8c:	4705                	li	a4,1
    1d8e:	06e78023          	sb	a4,96(a5)
    1d92:	ca11                	beqz	a2,1da6 <ulTaskGenericNotifyTake+0x66>
    1d94:	4585                	li	a1,1
    1d96:	8532                	mv	a0,a2
    1d98:	c4eff0ef          	jal	ra,11e6 <prvAddCurrentTaskToDelayedList>
    1d9c:	e000e7b7          	lui	a5,0xe000e
    1da0:	6711                	lui	a4,0x4
    1da2:	20e7a023          	sw	a4,512(a5) # e000e200 <__freertos_irq_stack_top+0xc0009200>
    1da6:	d33fe0ef          	jal	ra,ad8 <vPortExitCritical>
    1daa:	d15fe0ef          	jal	ra,abe <vPortEnterCritical>
    1dae:	401c                	lw	a5,0(s0)
    1db0:	4fe8                	lw	a0,92(a5)
    1db2:	c509                	beqz	a0,1dbc <ulTaskGenericNotifyTake+0x7c>
    1db4:	401c                	lw	a5,0(s0)
    1db6:	cc89                	beqz	s1,1dd0 <ulTaskGenericNotifyTake+0x90>
    1db8:	0407ae23          	sw	zero,92(a5)
    1dbc:	401c                	lw	a5,0(s0)
    1dbe:	c62a                	sw	a0,12(sp)
    1dc0:	06078023          	sb	zero,96(a5)
    1dc4:	d15fe0ef          	jal	ra,ad8 <vPortExitCritical>
    1dc8:	4532                	lw	a0,12(sp)
    1dca:	0141                	addi	sp,sp,16
    1dcc:	f76fe06f          	j	542 <__riscv_restore_0>
    1dd0:	fff50713          	addi	a4,a0,-1
    1dd4:	cff8                	sw	a4,92(a5)
    1dd6:	b7dd                	j	1dbc <ulTaskGenericNotifyTake+0x7c>

00001dd8 <xTaskGenericNotify>:
    1dd8:	f46fe2ef          	jal	t0,51e <__riscv_save_0>
    1ddc:	1141                	addi	sp,sp,-16
    1dde:	c585                	beqz	a1,1e06 <xTaskGenericNotify+0x2e>
    1de0:	6789                	lui	a5,0x2
    1de2:	80078793          	addi	a5,a5,-2048 # 1800 <xTaskResumeAll+0x9c>
    1de6:	30079073          	csrw	mstatus,a5
    1dea:	00008637          	lui	a2,0x8
    1dee:	6585                	lui	a1,0x1
    1df0:	00008537          	lui	a0,0x8
    1df4:	1d060613          	addi	a2,a2,464 # 81d0 <_read+0xd4>
    1df8:	30858593          	addi	a1,a1,776 # 1308 <xTaskCreate+0x2a>
    1dfc:	14050513          	addi	a0,a0,320 # 8140 <_read+0x44>
    1e00:	04e020ef          	jal	ra,3e4e <iprintf>
    1e04:	a001                	j	1e04 <xTaskGenericNotify+0x2c>
    1e06:	e505                	bnez	a0,1e2e <xTaskGenericNotify+0x56>
    1e08:	6789                	lui	a5,0x2
    1e0a:	80078793          	addi	a5,a5,-2048 # 1800 <xTaskResumeAll+0x9c>
    1e0e:	30079073          	csrw	mstatus,a5
    1e12:	00008637          	lui	a2,0x8
    1e16:	6585                	lui	a1,0x1
    1e18:	00008537          	lui	a0,0x8
    1e1c:	1d060613          	addi	a2,a2,464 # 81d0 <_read+0xd4>
    1e20:	30958593          	addi	a1,a1,777 # 1309 <xTaskCreate+0x2b>
    1e24:	14050513          	addi	a0,a0,320 # 8140 <_read+0x44>
    1e28:	026020ef          	jal	ra,3e4e <iprintf>
    1e2c:	a001                	j	1e2c <xTaskGenericNotify+0x54>
    1e2e:	c63a                	sw	a4,12(sp)
    1e30:	c436                	sw	a3,8(sp)
    1e32:	c232                	sw	a2,4(sp)
    1e34:	c02a                	sw	a0,0(sp)
    1e36:	c89fe0ef          	jal	ra,abe <vPortEnterCritical>
    1e3a:	4732                	lw	a4,12(sp)
    1e3c:	4502                	lw	a0,0(sp)
    1e3e:	4612                	lw	a2,4(sp)
    1e40:	46a2                	lw	a3,8(sp)
    1e42:	c319                	beqz	a4,1e48 <xTaskGenericNotify+0x70>
    1e44:	4d7c                	lw	a5,92(a0)
    1e46:	c31c                	sw	a5,0(a4)
    1e48:	06054783          	lbu	a5,96(a0)
    1e4c:	4709                	li	a4,2
    1e4e:	06e50023          	sb	a4,96(a0)
    1e52:	4711                	li	a4,4
    1e54:	0ff7f793          	andi	a5,a5,255
    1e58:	04d76063          	bltu	a4,a3,1e98 <xTaskGenericNotify+0xc0>
    1e5c:	6721                	lui	a4,0x8
    1e5e:	1bc70713          	addi	a4,a4,444 # 81bc <_read+0xc0>
    1e62:	068a                	slli	a3,a3,0x2
    1e64:	96ba                	add	a3,a3,a4
    1e66:	4298                	lw	a4,0(a3)
    1e68:	8702                	jr	a4
    1e6a:	4d78                	lw	a4,92(a0)
    1e6c:	8e59                	or	a2,a2,a4
    1e6e:	cd70                	sw	a2,92(a0)
    1e70:	a021                	j	1e78 <xTaskGenericNotify+0xa0>
    1e72:	4d78                	lw	a4,92(a0)
    1e74:	0705                	addi	a4,a4,1
    1e76:	cd78                	sw	a4,92(a0)
    1e78:	4705                	li	a4,1
    1e7a:	04e78763          	beq	a5,a4,1ec8 <xTaskGenericNotify+0xf0>
    1e7e:	4505                	li	a0,1
    1e80:	c02a                	sw	a0,0(sp)
    1e82:	c57fe0ef          	jal	ra,ad8 <vPortExitCritical>
    1e86:	4502                	lw	a0,0(sp)
    1e88:	0141                	addi	sp,sp,16
    1e8a:	eb8fe06f          	j	542 <__riscv_restore_0>
    1e8e:	4709                	li	a4,2
    1e90:	fce79fe3          	bne	a5,a4,1e6e <xTaskGenericNotify+0x96>
    1e94:	4501                	li	a0,0
    1e96:	b7ed                	j	1e80 <xTaskGenericNotify+0xa8>
    1e98:	20000737          	lui	a4,0x20000
    1e9c:	26472703          	lw	a4,612(a4) # 20000264 <xTickCount>
    1ea0:	df61                	beqz	a4,1e78 <xTaskGenericNotify+0xa0>
    1ea2:	6789                	lui	a5,0x2
    1ea4:	80078793          	addi	a5,a5,-2048 # 1800 <xTaskResumeAll+0x9c>
    1ea8:	30079073          	csrw	mstatus,a5
    1eac:	00008637          	lui	a2,0x8
    1eb0:	6585                	lui	a1,0x1
    1eb2:	00008537          	lui	a0,0x8
    1eb6:	1d060613          	addi	a2,a2,464 # 81d0 <_read+0xd4>
    1eba:	33e58593          	addi	a1,a1,830 # 133e <xTaskCreate+0x60>
    1ebe:	14050513          	addi	a0,a0,320 # 8140 <_read+0x44>
    1ec2:	78d010ef          	jal	ra,3e4e <iprintf>
    1ec6:	a001                	j	1ec6 <xTaskGenericNotify+0xee>
    1ec8:	4514                	lw	a3,8(a0)
    1eca:	4558                	lw	a4,12(a0)
    1ecc:	495c                	lw	a5,20(a0)
    1ece:	00450613          	addi	a2,a0,4
    1ed2:	c698                	sw	a4,8(a3)
    1ed4:	4558                	lw	a4,12(a0)
    1ed6:	c354                	sw	a3,4(a4)
    1ed8:	43d4                	lw	a3,4(a5)
    1eda:	00c69363          	bne	a3,a2,1ee0 <xTaskGenericNotify+0x108>
    1ede:	c3d8                	sw	a4,4(a5)
    1ee0:	4398                	lw	a4,0(a5)
    1ee2:	00052a23          	sw	zero,20(a0)
    1ee6:	177d                	addi	a4,a4,-1
    1ee8:	c398                	sw	a4,0(a5)
    1eea:	200007b7          	lui	a5,0x20000
    1eee:	24c78793          	addi	a5,a5,588 # 2000024c <uxTopReadyPriority>
    1ef2:	5558                	lw	a4,44(a0)
    1ef4:	4394                	lw	a3,0(a5)
    1ef6:	00e6f363          	bgeu	a3,a4,1efc <xTaskGenericNotify+0x124>
    1efa:	c398                	sw	a4,0(a5)
    1efc:	47d1                	li	a5,20
    1efe:	02f706b3          	mul	a3,a4,a5
    1f02:	200037b7          	lui	a5,0x20003
    1f06:	2f878793          	addi	a5,a5,760 # 200032f8 <pxReadyTasksLists>
    1f0a:	97b6                	add	a5,a5,a3
    1f0c:	43d4                	lw	a3,4(a5)
    1f0e:	468c                	lw	a1,8(a3)
    1f10:	c514                	sw	a3,8(a0)
    1f12:	c54c                	sw	a1,12(a0)
    1f14:	468c                	lw	a1,8(a3)
    1f16:	c1d0                	sw	a2,4(a1)
    1f18:	c690                	sw	a2,8(a3)
    1f1a:	4394                	lw	a3,0(a5)
    1f1c:	c95c                	sw	a5,20(a0)
    1f1e:	0685                	addi	a3,a3,1
    1f20:	c394                	sw	a3,0(a5)
    1f22:	551c                	lw	a5,40(a0)
    1f24:	c785                	beqz	a5,1f4c <xTaskGenericNotify+0x174>
    1f26:	6789                	lui	a5,0x2
    1f28:	80078793          	addi	a5,a5,-2048 # 1800 <xTaskResumeAll+0x9c>
    1f2c:	30079073          	csrw	mstatus,a5
    1f30:	00008637          	lui	a2,0x8
    1f34:	6585                	lui	a1,0x1
    1f36:	00008537          	lui	a0,0x8
    1f3a:	1d060613          	addi	a2,a2,464 # 81d0 <_read+0xd4>
    1f3e:	34d58593          	addi	a1,a1,845 # 134d <xTaskCreate+0x6f>
    1f42:	14050513          	addi	a0,a0,320 # 8140 <_read+0x44>
    1f46:	709010ef          	jal	ra,3e4e <iprintf>
    1f4a:	a001                	j	1f4a <xTaskGenericNotify+0x172>
    1f4c:	200007b7          	lui	a5,0x20000
    1f50:	2307a783          	lw	a5,560(a5) # 20000230 <pxCurrentTCB>
    1f54:	57dc                	lw	a5,44(a5)
    1f56:	f2e7f4e3          	bgeu	a5,a4,1e7e <xTaskGenericNotify+0xa6>
    1f5a:	e000e7b7          	lui	a5,0xe000e
    1f5e:	6711                	lui	a4,0x4
    1f60:	20e7a023          	sw	a4,512(a5) # e000e200 <__freertos_irq_stack_top+0xc0009200>
    1f64:	bf29                	j	1e7e <xTaskGenericNotify+0xa6>

00001f66 <vTaskGenericNotifyGiveFromISR>:
    1f66:	db8fe2ef          	jal	t0,51e <__riscv_save_0>
    1f6a:	1141                	addi	sp,sp,-16
    1f6c:	e505                	bnez	a0,1f94 <vTaskGenericNotifyGiveFromISR+0x2e>
    1f6e:	6789                	lui	a5,0x2
    1f70:	80078793          	addi	a5,a5,-2048 # 1800 <xTaskResumeAll+0x9c>
    1f74:	30079073          	csrw	mstatus,a5
    1f78:	00008637          	lui	a2,0x8
    1f7c:	6585                	lui	a1,0x1
    1f7e:	00008537          	lui	a0,0x8
    1f82:	1d060613          	addi	a2,a2,464 # 81d0 <_read+0xd4>
    1f86:	40c58593          	addi	a1,a1,1036 # 140c <xTaskCreate+0x12e>
    1f8a:	14050513          	addi	a0,a0,320 # 8140 <_read+0x44>
    1f8e:	6c1010ef          	jal	ra,3e4e <iprintf>
    1f92:	a001                	j	1f92 <vTaskGenericNotifyGiveFromISR+0x2c>
    1f94:	c585                	beqz	a1,1fbc <vTaskGenericNotifyGiveFromISR+0x56>
    1f96:	6789                	lui	a5,0x2
    1f98:	80078793          	addi	a5,a5,-2048 # 1800 <xTaskResumeAll+0x9c>
    1f9c:	30079073          	csrw	mstatus,a5
    1fa0:	00008637          	lui	a2,0x8
    1fa4:	6585                	lui	a1,0x1
    1fa6:	00008537          	lui	a0,0x8
    1faa:	1d060613          	addi	a2,a2,464 # 81d0 <_read+0xd4>
    1fae:	40d58593          	addi	a1,a1,1037 # 140d <xTaskCreate+0x12f>
    1fb2:	14050513          	addi	a0,a0,320 # 8140 <_read+0x44>
    1fb6:	699010ef          	jal	ra,3e4e <iprintf>
    1fba:	a001                	j	1fba <vTaskGenericNotifyGiveFromISR+0x54>
    1fbc:	842a                	mv	s0,a0
    1fbe:	c632                	sw	a2,12(sp)
    1fc0:	b5ffe0ef          	jal	ra,b1e <xPortSetInterruptMask>
    1fc4:	4789                	li	a5,2
    1fc6:	06044703          	lbu	a4,96(s0)
    1fca:	06f40023          	sb	a5,96(s0)
    1fce:	4c7c                	lw	a5,92(s0)
    1fd0:	0785                	addi	a5,a5,1
    1fd2:	cc7c                	sw	a5,92(s0)
    1fd4:	4785                	li	a5,1
    1fd6:	0ae79e63          	bne	a5,a4,2092 <vTaskGenericNotifyGiveFromISR+0x12c>
    1fda:	541c                	lw	a5,40(s0)
    1fdc:	4632                	lw	a2,12(sp)
    1fde:	c785                	beqz	a5,2006 <vTaskGenericNotifyGiveFromISR+0xa0>
    1fe0:	6789                	lui	a5,0x2
    1fe2:	80078793          	addi	a5,a5,-2048 # 1800 <xTaskResumeAll+0x9c>
    1fe6:	30079073          	csrw	mstatus,a5
    1fea:	00008637          	lui	a2,0x8
    1fee:	6585                	lui	a1,0x1
    1ff0:	00008537          	lui	a0,0x8
    1ff4:	1d060613          	addi	a2,a2,464 # 81d0 <_read+0xd4>
    1ff8:	43358593          	addi	a1,a1,1075 # 1433 <xTaskCreate+0x155>
    1ffc:	14050513          	addi	a0,a0,320 # 8140 <_read+0x44>
    2000:	64f010ef          	jal	ra,3e4e <iprintf>
    2004:	a001                	j	2004 <vTaskGenericNotifyGiveFromISR+0x9e>
    2006:	200007b7          	lui	a5,0x20000
    200a:	2447a783          	lw	a5,580(a5) # 20000244 <uxSchedulerSuspended>
    200e:	5458                	lw	a4,44(s0)
    2010:	e7d1                	bnez	a5,209c <vTaskGenericNotifyGiveFromISR+0x136>
    2012:	440c                	lw	a1,8(s0)
    2014:	4454                	lw	a3,12(s0)
    2016:	485c                	lw	a5,20(s0)
    2018:	c594                	sw	a3,8(a1)
    201a:	4454                	lw	a3,12(s0)
    201c:	0047a803          	lw	a6,4(a5)
    2020:	c2cc                	sw	a1,4(a3)
    2022:	00440593          	addi	a1,s0,4
    2026:	00b81363          	bne	a6,a1,202c <vTaskGenericNotifyGiveFromISR+0xc6>
    202a:	c3d4                	sw	a3,4(a5)
    202c:	4394                	lw	a3,0(a5)
    202e:	00042a23          	sw	zero,20(s0)
    2032:	16fd                	addi	a3,a3,-1
    2034:	c394                	sw	a3,0(a5)
    2036:	200007b7          	lui	a5,0x20000
    203a:	24c78793          	addi	a5,a5,588 # 2000024c <uxTopReadyPriority>
    203e:	4394                	lw	a3,0(a5)
    2040:	00e6f363          	bgeu	a3,a4,2046 <vTaskGenericNotifyGiveFromISR+0xe0>
    2044:	c398                	sw	a4,0(a5)
    2046:	47d1                	li	a5,20
    2048:	02f706b3          	mul	a3,a4,a5
    204c:	200037b7          	lui	a5,0x20003
    2050:	2f878793          	addi	a5,a5,760 # 200032f8 <pxReadyTasksLists>
    2054:	97b6                	add	a5,a5,a3
    2056:	43d4                	lw	a3,4(a5)
    2058:	0086a803          	lw	a6,8(a3)
    205c:	c414                	sw	a3,8(s0)
    205e:	01042623          	sw	a6,12(s0)
    2062:	0086a803          	lw	a6,8(a3)
    2066:	00b82223          	sw	a1,4(a6)
    206a:	c68c                	sw	a1,8(a3)
    206c:	c85c                	sw	a5,20(s0)
    206e:	4394                	lw	a3,0(a5)
    2070:	0685                	addi	a3,a3,1
    2072:	c394                	sw	a3,0(a5)
    2074:	200007b7          	lui	a5,0x20000
    2078:	2307a783          	lw	a5,560(a5) # 20000230 <pxCurrentTCB>
    207c:	57dc                	lw	a5,44(a5)
    207e:	00e7fa63          	bgeu	a5,a4,2092 <vTaskGenericNotifyGiveFromISR+0x12c>
    2082:	c219                	beqz	a2,2088 <vTaskGenericNotifyGiveFromISR+0x122>
    2084:	4785                	li	a5,1
    2086:	c21c                	sw	a5,0(a2)
    2088:	200007b7          	lui	a5,0x20000
    208c:	4705                	li	a4,1
    208e:	26e7a423          	sw	a4,616(a5) # 20000268 <xYieldPending>
    2092:	a99fe0ef          	jal	ra,b2a <vPortClearInterruptMask>
    2096:	0141                	addi	sp,sp,16
    2098:	caafe06f          	j	542 <__riscv_restore_0>
    209c:	200037b7          	lui	a5,0x20003
    20a0:	3ac78793          	addi	a5,a5,940 # 200033ac <xPendingReadyList>
    20a4:	43d4                	lw	a3,4(a5)
    20a6:	468c                	lw	a1,8(a3)
    20a8:	cc54                	sw	a3,28(s0)
    20aa:	d00c                	sw	a1,32(s0)
    20ac:	0086a803          	lw	a6,8(a3)
    20b0:	01840593          	addi	a1,s0,24
    20b4:	00b82223          	sw	a1,4(a6)
    20b8:	c68c                	sw	a1,8(a3)
    20ba:	d41c                	sw	a5,40(s0)
    20bc:	bf4d                	j	206e <vTaskGenericNotifyGiveFromISR+0x108>

000020be <prvCheckForValidListAndQueue>:
    20be:	c60fe2ef          	jal	t0,51e <__riscv_save_0>
    20c2:	20000437          	lui	s0,0x20000
    20c6:	9f9fe0ef          	jal	ra,abe <vPortEnterCritical>
    20ca:	27840413          	addi	s0,s0,632 # 20000278 <xTimerQueue>
    20ce:	401c                	lw	a5,0(s0)
    20d0:	e7b1                	bnez	a5,211c <prvCheckForValidListAndQueue+0x5e>
    20d2:	20003537          	lui	a0,0x20003
    20d6:	3e850913          	addi	s2,a0,1000 # 200033e8 <xActiveTimerList1>
    20da:	3e850513          	addi	a0,a0,1000
    20de:	a53fe0ef          	jal	ra,b30 <vListInitialise>
    20e2:	20003537          	lui	a0,0x20003
    20e6:	3fc50493          	addi	s1,a0,1020 # 200033fc <xActiveTimerList2>
    20ea:	3fc50513          	addi	a0,a0,1020
    20ee:	a43fe0ef          	jal	ra,b30 <vListInitialise>
    20f2:	200007b7          	lui	a5,0x20000
    20f6:	2727a623          	sw	s2,620(a5) # 2000026c <pxCurrentTimerList>
    20fa:	4601                	li	a2,0
    20fc:	200007b7          	lui	a5,0x20000
    2100:	45c1                	li	a1,16
    2102:	4511                	li	a0,4
    2104:	2697a823          	sw	s1,624(a5) # 20000270 <pxOverflowTimerList>
    2108:	c6bfe0ef          	jal	ra,d72 <xQueueGenericCreate>
    210c:	c008                	sw	a0,0(s0)
    210e:	c519                	beqz	a0,211c <prvCheckForValidListAndQueue+0x5e>
    2110:	000085b7          	lui	a1,0x8
    2114:	22058593          	addi	a1,a1,544 # 8220 <_read+0x124>
    2118:	fe3fe0ef          	jal	ra,10fa <vQueueAddToRegistry>
    211c:	9bdfe0ef          	jal	ra,ad8 <vPortExitCritical>
    2120:	c22fe06f          	j	542 <__riscv_restore_0>

00002124 <prvInsertTimerInActiveList>:
    2124:	bfafe2ef          	jal	t0,51e <__riscv_save_0>
    2128:	c14c                	sw	a1,4(a0)
    212a:	c908                	sw	a0,16(a0)
    212c:	87aa                	mv	a5,a0
    212e:	02b66263          	bltu	a2,a1,2152 <prvInsertTimerInActiveList+0x2e>
    2132:	4d18                	lw	a4,24(a0)
    2134:	8e15                	sub	a2,a2,a3
    2136:	4505                	li	a0,1
    2138:	00e67b63          	bgeu	a2,a4,214e <prvInsertTimerInActiveList+0x2a>
    213c:	00478593          	addi	a1,a5,4
    2140:	200007b7          	lui	a5,0x20000
    2144:	2707a503          	lw	a0,624(a5) # 20000270 <pxOverflowTimerList>
    2148:	a03fe0ef          	jal	ra,b4a <vListInsert>
    214c:	4501                	li	a0,0
    214e:	bf4fe06f          	j	542 <__riscv_restore_0>
    2152:	00d67563          	bgeu	a2,a3,215c <prvInsertTimerInActiveList+0x38>
    2156:	4505                	li	a0,1
    2158:	fed5fbe3          	bgeu	a1,a3,214e <prvInsertTimerInActiveList+0x2a>
    215c:	00478593          	addi	a1,a5,4
    2160:	200007b7          	lui	a5,0x20000
    2164:	26c7a503          	lw	a0,620(a5) # 2000026c <pxCurrentTimerList>
    2168:	b7c5                	j	2148 <prvInsertTimerInActiveList+0x24>

0000216a <prvReloadTimer>:
    216a:	bb4fe2ef          	jal	t0,51e <__riscv_save_0>
    216e:	842a                	mv	s0,a0
    2170:	84ae                	mv	s1,a1
    2172:	8932                	mv	s2,a2
    2174:	4c0c                	lw	a1,24(s0)
    2176:	86a6                	mv	a3,s1
    2178:	864a                	mv	a2,s2
    217a:	95a6                	add	a1,a1,s1
    217c:	8522                	mv	a0,s0
    217e:	375d                	jal	2124 <prvInsertTimerInActiveList>
    2180:	e119                	bnez	a0,2186 <prvReloadTimer+0x1c>
    2182:	bc0fe06f          	j	542 <__riscv_restore_0>
    2186:	4c1c                	lw	a5,24(s0)
    2188:	8522                	mv	a0,s0
    218a:	94be                	add	s1,s1,a5
    218c:	501c                	lw	a5,32(s0)
    218e:	9782                	jalr	a5
    2190:	b7d5                	j	2174 <prvReloadTimer+0xa>

00002192 <prvProcessExpiredTimer>:
    2192:	b8cfe2ef          	jal	t0,51e <__riscv_save_0>
    2196:	200007b7          	lui	a5,0x20000
    219a:	26c7a783          	lw	a5,620(a5) # 2000026c <pxCurrentTimerList>
    219e:	1141                	addi	sp,sp,-16
    21a0:	84aa                	mv	s1,a0
    21a2:	47dc                	lw	a5,12(a5)
    21a4:	c62e                	sw	a1,12(sp)
    21a6:	47c0                	lw	s0,12(a5)
    21a8:	00440513          	addi	a0,s0,4
    21ac:	9cdfe0ef          	jal	ra,b78 <uxListRemove>
    21b0:	02444783          	lbu	a5,36(s0)
    21b4:	4632                	lw	a2,12(sp)
    21b6:	0047f713          	andi	a4,a5,4
    21ba:	cb11                	beqz	a4,21ce <prvProcessExpiredTimer+0x3c>
    21bc:	85a6                	mv	a1,s1
    21be:	8522                	mv	a0,s0
    21c0:	376d                	jal	216a <prvReloadTimer>
    21c2:	501c                	lw	a5,32(s0)
    21c4:	8522                	mv	a0,s0
    21c6:	9782                	jalr	a5
    21c8:	0141                	addi	sp,sp,16
    21ca:	b78fe06f          	j	542 <__riscv_restore_0>
    21ce:	9bf9                	andi	a5,a5,-2
    21d0:	02f40223          	sb	a5,36(s0)
    21d4:	b7fd                	j	21c2 <prvProcessExpiredTimer+0x30>

000021d6 <prvSwitchTimerLists>:
    21d6:	b48fe2ef          	jal	t0,51e <__riscv_save_0>
    21da:	20000437          	lui	s0,0x20000
    21de:	26c40693          	addi	a3,s0,620 # 2000026c <pxCurrentTimerList>
    21e2:	4298                	lw	a4,0(a3)
    21e4:	431c                	lw	a5,0(a4)
    21e6:	eb91                	bnez	a5,21fa <prvSwitchTimerLists+0x24>
    21e8:	200007b7          	lui	a5,0x20000
    21ec:	27078793          	addi	a5,a5,624 # 20000270 <pxOverflowTimerList>
    21f0:	4390                	lw	a2,0(a5)
    21f2:	c398                	sw	a4,0(a5)
    21f4:	c290                	sw	a2,0(a3)
    21f6:	b4cfe06f          	j	542 <__riscv_restore_0>
    21fa:	475c                	lw	a5,12(a4)
    21fc:	55fd                	li	a1,-1
    21fe:	4388                	lw	a0,0(a5)
    2200:	3f49                	jal	2192 <prvProcessExpiredTimer>
    2202:	bff1                	j	21de <prvSwitchTimerLists+0x8>

00002204 <prvTimerTask>:
    2204:	af2fe2ef          	jal	t0,4f6 <__riscv_save_10>
    2208:	6921                	lui	s2,0x8
    220a:	1141                	addi	sp,sp,-16
    220c:	20000ab7          	lui	s5,0x20000
    2210:	200009b7          	lui	s3,0x20000
    2214:	20000b37          	lui	s6,0x20000
    2218:	20000bb7          	lui	s7,0x20000
    221c:	1fc90913          	addi	s2,s2,508 # 81fc <_read+0x100>
    2220:	26caa783          	lw	a5,620(s5) # 2000026c <pxCurrentTimerList>
    2224:	4398                	lw	a4,0(a5)
    2226:	cb29                	beqz	a4,2278 <prvTimerTask+0x74>
    2228:	47dc                	lw	a5,12(a5)
    222a:	4c81                	li	s9,0
    222c:	0007ac03          	lw	s8,0(a5)
    2230:	b70ff0ef          	jal	ra,15a0 <vTaskSuspendAll>
    2234:	b7cff0ef          	jal	ra,15b0 <xTaskGetTickCount>
    2238:	2749a783          	lw	a5,628(s3) # 20000274 <xLastTime.5718>
    223c:	842a                	mv	s0,a0
    223e:	27498493          	addi	s1,s3,628
    2242:	278b0a13          	addi	s4,s6,632 # 20000278 <xTimerQueue>
    2246:	02f56c63          	bltu	a0,a5,227e <prvTimerTask+0x7a>
    224a:	c088                	sw	a0,0(s1)
    224c:	020c8f63          	beqz	s9,228a <prvTimerTask+0x86>
    2250:	270ba783          	lw	a5,624(s7) # 20000270 <pxOverflowTimerList>
    2254:	4390                	lw	a2,0(a5)
    2256:	00163613          	seqz	a2,a2
    225a:	000a2503          	lw	a0,0(s4)
    225e:	408c05b3          	sub	a1,s8,s0
    2262:	f05fe0ef          	jal	ra,1166 <vQueueWaitForMessageRestricted>
    2266:	cfeff0ef          	jal	ra,1764 <xTaskResumeAll>
    226a:	ed11                	bnez	a0,2286 <prvTimerTask+0x82>
    226c:	e000e7b7          	lui	a5,0xe000e
    2270:	6711                	lui	a4,0x4
    2272:	20e7a023          	sw	a4,512(a5) # e000e200 <__freertos_irq_stack_top+0xc0009200>
    2276:	a801                	j	2286 <prvTimerTask+0x82>
    2278:	4c85                	li	s9,1
    227a:	4c01                	li	s8,0
    227c:	bf55                	j	2230 <prvTimerTask+0x2c>
    227e:	3fa1                	jal	21d6 <prvSwitchTimerLists>
    2280:	c080                	sw	s0,0(s1)
    2282:	ce2ff0ef          	jal	ra,1764 <xTaskResumeAll>
    2286:	4c21                	li	s8,8
    2288:	a005                	j	22a8 <prvTimerTask+0xa4>
    228a:	4601                	li	a2,0
    228c:	fd8567e3          	bltu	a0,s8,225a <prvTimerTask+0x56>
    2290:	cd4ff0ef          	jal	ra,1764 <xTaskResumeAll>
    2294:	85a2                	mv	a1,s0
    2296:	8562                	mv	a0,s8
    2298:	3ded                	jal	2192 <prvProcessExpiredTimer>
    229a:	b7f5                	j	2286 <prvTimerTask+0x82>
    229c:	4792                	lw	a5,4(sp)
    229e:	45b2                	lw	a1,12(sp)
    22a0:	9782                	jalr	a5
    22a2:	4782                	lw	a5,0(sp)
    22a4:	0007dd63          	bgez	a5,22be <prvTimerTask+0xba>
    22a8:	000a2503          	lw	a0,0(s4)
    22ac:	4601                	li	a2,0
    22ae:	858a                	mv	a1,sp
    22b0:	cbbfe0ef          	jal	ra,f6a <xQueueReceive>
    22b4:	d535                	beqz	a0,2220 <prvTimerTask+0x1c>
    22b6:	4782                	lw	a5,0(sp)
    22b8:	4522                	lw	a0,8(sp)
    22ba:	fe07c1e3          	bltz	a5,229c <prvTimerTask+0x98>
    22be:	4422                	lw	s0,8(sp)
    22c0:	485c                	lw	a5,20(s0)
    22c2:	e395                	bnez	a5,22e6 <prvTimerTask+0xe2>
    22c4:	aecff0ef          	jal	ra,15b0 <xTaskGetTickCount>
    22c8:	409c                	lw	a5,0(s1)
    22ca:	8caa                	mv	s9,a0
    22cc:	00f57363          	bgeu	a0,a5,22d2 <prvTimerTask+0xce>
    22d0:	3719                	jal	21d6 <prvSwitchTimerLists>
    22d2:	4782                	lw	a5,0(sp)
    22d4:	0194a023          	sw	s9,0(s1)
    22d8:	17fd                	addi	a5,a5,-1
    22da:	fcfc67e3          	bltu	s8,a5,22a8 <prvTimerTask+0xa4>
    22de:	078a                	slli	a5,a5,0x2
    22e0:	97ca                	add	a5,a5,s2
    22e2:	439c                	lw	a5,0(a5)
    22e4:	8782                	jr	a5
    22e6:	00440513          	addi	a0,s0,4
    22ea:	88ffe0ef          	jal	ra,b78 <uxListRemove>
    22ee:	bfd9                	j	22c4 <prvTimerTask+0xc0>
    22f0:	02444783          	lbu	a5,36(s0)
    22f4:	4c0c                	lw	a1,24(s0)
    22f6:	4692                	lw	a3,4(sp)
    22f8:	0017e793          	ori	a5,a5,1
    22fc:	02f40223          	sb	a5,36(s0)
    2300:	8666                	mv	a2,s9
    2302:	95b6                	add	a1,a1,a3
    2304:	8522                	mv	a0,s0
    2306:	3d39                	jal	2124 <prvInsertTimerInActiveList>
    2308:	d145                	beqz	a0,22a8 <prvTimerTask+0xa4>
    230a:	02444783          	lbu	a5,36(s0)
    230e:	0047f713          	andi	a4,a5,4
    2312:	cb19                	beqz	a4,2328 <prvTimerTask+0x124>
    2314:	4c1c                	lw	a5,24(s0)
    2316:	4592                	lw	a1,4(sp)
    2318:	8666                	mv	a2,s9
    231a:	8522                	mv	a0,s0
    231c:	95be                	add	a1,a1,a5
    231e:	35b1                	jal	216a <prvReloadTimer>
    2320:	501c                	lw	a5,32(s0)
    2322:	8522                	mv	a0,s0
    2324:	9782                	jalr	a5
    2326:	b749                	j	22a8 <prvTimerTask+0xa4>
    2328:	9bf9                	andi	a5,a5,-2
    232a:	02f40223          	sb	a5,36(s0)
    232e:	bfcd                	j	2320 <prvTimerTask+0x11c>
    2330:	02444783          	lbu	a5,36(s0)
    2334:	9bf9                	andi	a5,a5,-2
    2336:	02f40223          	sb	a5,36(s0)
    233a:	b7bd                	j	22a8 <prvTimerTask+0xa4>
    233c:	02444783          	lbu	a5,36(s0)
    2340:	4592                	lw	a1,4(sp)
    2342:	0017e793          	ori	a5,a5,1
    2346:	02f40223          	sb	a5,36(s0)
    234a:	cc0c                	sw	a1,24(s0)
    234c:	e19d                	bnez	a1,2372 <prvTimerTask+0x16e>
    234e:	6789                	lui	a5,0x2
    2350:	80078793          	addi	a5,a5,-2048 # 1800 <xTaskResumeAll+0x9c>
    2354:	30079073          	csrw	mstatus,a5
    2358:	00008637          	lui	a2,0x8
    235c:	00008537          	lui	a0,0x8
    2360:	22860613          	addi	a2,a2,552 # 8228 <_read+0x12c>
    2364:	35900593          	li	a1,857
    2368:	14050513          	addi	a0,a0,320 # 8140 <_read+0x44>
    236c:	2e3010ef          	jal	ra,3e4e <iprintf>
    2370:	a001                	j	2370 <prvTimerTask+0x16c>
    2372:	86e6                	mv	a3,s9
    2374:	8666                	mv	a2,s9
    2376:	95e6                	add	a1,a1,s9
    2378:	8522                	mv	a0,s0
    237a:	336d                	jal	2124 <prvInsertTimerInActiveList>
    237c:	b735                	j	22a8 <prvTimerTask+0xa4>
    237e:	02444783          	lbu	a5,36(s0)
    2382:	0027f713          	andi	a4,a5,2
    2386:	f75d                	bnez	a4,2334 <prvTimerTask+0x130>
    2388:	8522                	mv	a0,s0
    238a:	d4afe0ef          	jal	ra,8d4 <vPortFree>
    238e:	bf29                	j	22a8 <prvTimerTask+0xa4>

00002390 <xTimerCreateTimerTask>:
    2390:	98efe2ef          	jal	t0,51e <__riscv_save_0>
    2394:	d2bff0ef          	jal	ra,20be <prvCheckForValidListAndQueue>
    2398:	200007b7          	lui	a5,0x20000
    239c:	2787a783          	lw	a5,632(a5) # 20000278 <xTimerQueue>
    23a0:	e39d                	bnez	a5,23c6 <xTimerCreateTimerTask+0x36>
    23a2:	6789                	lui	a5,0x2
    23a4:	80078793          	addi	a5,a5,-2048 # 1800 <xTaskResumeAll+0x9c>
    23a8:	30079073          	csrw	mstatus,a5
    23ac:	00008637          	lui	a2,0x8
    23b0:	00008537          	lui	a0,0x8
    23b4:	22860613          	addi	a2,a2,552 # 8228 <_read+0x12c>
    23b8:	11900593          	li	a1,281
    23bc:	14050513          	addi	a0,a0,320 # 8140 <_read+0x44>
    23c0:	28f010ef          	jal	ra,3e4e <iprintf>
    23c4:	a001                	j	23c4 <xTimerCreateTimerTask+0x34>
    23c6:	200007b7          	lui	a5,0x20000
    23ca:	000085b7          	lui	a1,0x8
    23ce:	00002537          	lui	a0,0x2
    23d2:	27c78793          	addi	a5,a5,636 # 2000027c <xTimerTaskHandle>
    23d6:	4719                	li	a4,6
    23d8:	4681                	li	a3,0
    23da:	10000613          	li	a2,256
    23de:	24c58593          	addi	a1,a1,588 # 824c <_read+0x150>
    23e2:	20450513          	addi	a0,a0,516 # 2204 <prvTimerTask>
    23e6:	ef9fe0ef          	jal	ra,12de <xTaskCreate>
    23ea:	dd45                	beqz	a0,23a2 <xTimerCreateTimerTask+0x12>
    23ec:	956fe06f          	j	542 <__riscv_restore_0>

000023f0 <UART4_IRQHandler>:
    23f0:	92efe2ef          	jal	t0,51e <__riscv_save_0>
    23f4:	40005537          	lui	a0,0x40005
    23f8:	52500593          	li	a1,1317
    23fc:	c0050513          	addi	a0,a0,-1024 # 40004c00 <__freertos_irq_stack_top+0x1ffffc00>
    2400:	25b5                	jal	2a6c <USART_GetITStatus>
    2402:	c519                	beqz	a0,2410 <UART4_IRQHandler+0x20>
    2404:	200007b7          	lui	a5,0x20000
    2408:	2807a783          	lw	a5,640(a5) # 20000280 <global_UART4RecCallback>
    240c:	c391                	beqz	a5,2410 <UART4_IRQHandler+0x20>
    240e:	9782                	jalr	a5
    2410:	932fe06f          	j	542 <__riscv_restore_0>

00002414 <MCAL_WRAPPER_SetUART4RecCallBack>:
    2414:	c519                	beqz	a0,2422 <MCAL_WRAPPER_SetUART4RecCallBack+0xe>
    2416:	200007b7          	lui	a5,0x20000
    241a:	28a7a023          	sw	a0,640(a5) # 20000280 <global_UART4RecCallback>
    241e:	4501                	li	a0,0
    2420:	8082                	ret
    2422:	4505                	li	a0,1
    2424:	8082                	ret

00002426 <MCAL_WRAPPER_SendDataThroughUART4>:
    2426:	c91d                	beqz	a0,245c <MCAL_WRAPPER_SendDataThroughUART4+0x36>
    2428:	8f6fe2ef          	jal	t0,51e <__riscv_save_0>
    242c:	40005937          	lui	s2,0x40005
    2430:	84aa                	mv	s1,a0
    2432:	842e                	mv	s0,a1
    2434:	c0090913          	addi	s2,s2,-1024 # 40004c00 <__freertos_irq_stack_top+0x1ffffc00>
    2438:	e401                	bnez	s0,2440 <MCAL_WRAPPER_SendDataThroughUART4+0x1a>
    243a:	4501                	li	a0,0
    243c:	906fe06f          	j	542 <__riscv_restore_0>
    2440:	08000593          	li	a1,128
    2444:	854a                	mv	a0,s2
    2446:	2531                	jal	2a52 <USART_GetFlagStatus>
    2448:	dd65                	beqz	a0,2440 <MCAL_WRAPPER_SendDataThroughUART4+0x1a>
    244a:	0004c583          	lbu	a1,0(s1)
    244e:	147d                	addi	s0,s0,-1
    2450:	854a                	mv	a0,s2
    2452:	0442                	slli	s0,s0,0x10
    2454:	23ed                	jal	2a3e <USART_SendData>
    2456:	0485                	addi	s1,s1,1
    2458:	8041                	srli	s0,s0,0x10
    245a:	bff9                	j	2438 <MCAL_WRAPPER_SendDataThroughUART4+0x12>
    245c:	4505                	li	a0,1
    245e:	8082                	ret

00002460 <MCAL_WRAPPER_ReceiveDataThroughUART4>:
    2460:	cd1d                	beqz	a0,249e <MCAL_WRAPPER_ReceiveDataThroughUART4+0x3e>
    2462:	8bcfe2ef          	jal	t0,51e <__riscv_save_0>
    2466:	400054b7          	lui	s1,0x40005
    246a:	892a                	mv	s2,a0
    246c:	842e                	mv	s0,a1
    246e:	c0048493          	addi	s1,s1,-1024 # 40004c00 <__freertos_irq_stack_top+0x1ffffc00>
    2472:	e401                	bnez	s0,247a <MCAL_WRAPPER_ReceiveDataThroughUART4+0x1a>
    2474:	4501                	li	a0,0
    2476:	8ccfe06f          	j	542 <__riscv_restore_0>
    247a:	02000593          	li	a1,32
    247e:	8526                	mv	a0,s1
    2480:	2bc9                	jal	2a52 <USART_GetFlagStatus>
    2482:	dd65                	beqz	a0,247a <MCAL_WRAPPER_ReceiveDataThroughUART4+0x1a>
    2484:	8526                	mv	a0,s1
    2486:	23c9                	jal	2a48 <USART_ReceiveData>
    2488:	147d                	addi	s0,s0,-1
    248a:	00a90023          	sb	a0,0(s2)
    248e:	0442                	slli	s0,s0,0x10
    2490:	52500593          	li	a1,1317
    2494:	8526                	mv	a0,s1
    2496:	0905                	addi	s2,s2,1
    2498:	8041                	srli	s0,s0,0x10
    249a:	23d1                	jal	2a5e <USART_ClearFlag>
    249c:	bfd9                	j	2472 <MCAL_WRAPPER_ReceiveDataThroughUART4+0x12>
    249e:	4505                	li	a0,1
    24a0:	8082                	ret
    24a2:	a001                	j	24a2 <MCAL_WRAPPER_ReceiveDataThroughUART4+0x42>
    24a4:	a001                	j	24a4 <MCAL_WRAPPER_ReceiveDataThroughUART4+0x44>

000024a6 <Ecall_M_Mode_Handler>:
    24a6:	a001                	j	24a6 <Ecall_M_Mode_Handler>

000024a8 <Ecall_U_Mode_Handler>:
    24a8:	a001                	j	24a8 <Ecall_U_Mode_Handler>

000024aa <Break_Point_Handler>:
    24aa:	a001                	j	24aa <Break_Point_Handler>
    24ac:	a001                	j	24ac <Break_Point_Handler+0x2>
    24ae:	a001                	j	24ae <Break_Point_Handler+0x4>

000024b0 <WWDG_IRQHandler>:
    24b0:	a001                	j	24b0 <WWDG_IRQHandler>

000024b2 <PVD_IRQHandler>:
    24b2:	a001                	j	24b2 <PVD_IRQHandler>

000024b4 <TAMPER_IRQHandler>:
    24b4:	a001                	j	24b4 <TAMPER_IRQHandler>

000024b6 <RTC_IRQHandler>:
    24b6:	a001                	j	24b6 <RTC_IRQHandler>

000024b8 <FLASH_IRQHandler>:
    24b8:	a001                	j	24b8 <FLASH_IRQHandler>

000024ba <RCC_IRQHandler>:
    24ba:	a001                	j	24ba <RCC_IRQHandler>

000024bc <EXTI0_IRQHandler>:
    24bc:	a001                	j	24bc <EXTI0_IRQHandler>

000024be <EXTI1_IRQHandler>:
    24be:	a001                	j	24be <EXTI1_IRQHandler>

000024c0 <EXTI2_IRQHandler>:
    24c0:	a001                	j	24c0 <EXTI2_IRQHandler>

000024c2 <EXTI3_IRQHandler>:
    24c2:	a001                	j	24c2 <EXTI3_IRQHandler>

000024c4 <EXTI4_IRQHandler>:
    24c4:	a001                	j	24c4 <EXTI4_IRQHandler>

000024c6 <DMA1_Channel1_IRQHandler>:
    24c6:	a001                	j	24c6 <DMA1_Channel1_IRQHandler>

000024c8 <DMA1_Channel2_IRQHandler>:
    24c8:	a001                	j	24c8 <DMA1_Channel2_IRQHandler>

000024ca <DMA1_Channel3_IRQHandler>:
    24ca:	a001                	j	24ca <DMA1_Channel3_IRQHandler>

000024cc <DMA1_Channel4_IRQHandler>:
    24cc:	a001                	j	24cc <DMA1_Channel4_IRQHandler>

000024ce <DMA1_Channel5_IRQHandler>:
    24ce:	a001                	j	24ce <DMA1_Channel5_IRQHandler>

000024d0 <DMA1_Channel6_IRQHandler>:
    24d0:	a001                	j	24d0 <DMA1_Channel6_IRQHandler>

000024d2 <DMA1_Channel7_IRQHandler>:
    24d2:	a001                	j	24d2 <DMA1_Channel7_IRQHandler>

000024d4 <ADC1_2_IRQHandler>:
    24d4:	a001                	j	24d4 <ADC1_2_IRQHandler>

000024d6 <USB_HP_CAN1_TX_IRQHandler>:
    24d6:	a001                	j	24d6 <USB_HP_CAN1_TX_IRQHandler>

000024d8 <USB_LP_CAN1_RX0_IRQHandler>:
    24d8:	a001                	j	24d8 <USB_LP_CAN1_RX0_IRQHandler>

000024da <CAN1_RX1_IRQHandler>:
    24da:	a001                	j	24da <CAN1_RX1_IRQHandler>

000024dc <CAN1_SCE_IRQHandler>:
    24dc:	a001                	j	24dc <CAN1_SCE_IRQHandler>

000024de <EXTI9_5_IRQHandler>:
    24de:	a001                	j	24de <EXTI9_5_IRQHandler>

000024e0 <TIM1_BRK_IRQHandler>:
    24e0:	a001                	j	24e0 <TIM1_BRK_IRQHandler>

000024e2 <TIM1_UP_IRQHandler>:
    24e2:	a001                	j	24e2 <TIM1_UP_IRQHandler>

000024e4 <TIM1_TRG_COM_IRQHandler>:
    24e4:	a001                	j	24e4 <TIM1_TRG_COM_IRQHandler>

000024e6 <TIM1_CC_IRQHandler>:
    24e6:	a001                	j	24e6 <TIM1_CC_IRQHandler>

000024e8 <TIM2_IRQHandler>:
    24e8:	a001                	j	24e8 <TIM2_IRQHandler>

000024ea <TIM3_IRQHandler>:
    24ea:	a001                	j	24ea <TIM3_IRQHandler>

000024ec <TIM4_IRQHandler>:
    24ec:	a001                	j	24ec <TIM4_IRQHandler>

000024ee <I2C1_EV_IRQHandler>:
    24ee:	a001                	j	24ee <I2C1_EV_IRQHandler>

000024f0 <I2C1_ER_IRQHandler>:
    24f0:	a001                	j	24f0 <I2C1_ER_IRQHandler>

000024f2 <I2C2_EV_IRQHandler>:
    24f2:	a001                	j	24f2 <I2C2_EV_IRQHandler>

000024f4 <I2C2_ER_IRQHandler>:
    24f4:	a001                	j	24f4 <I2C2_ER_IRQHandler>

000024f6 <SPI1_IRQHandler>:
    24f6:	a001                	j	24f6 <SPI1_IRQHandler>

000024f8 <SPI2_IRQHandler>:
    24f8:	a001                	j	24f8 <SPI2_IRQHandler>

000024fa <USART1_IRQHandler>:
    24fa:	a001                	j	24fa <USART1_IRQHandler>

000024fc <USART2_IRQHandler>:
    24fc:	a001                	j	24fc <USART2_IRQHandler>

000024fe <USART3_IRQHandler>:
    24fe:	a001                	j	24fe <USART3_IRQHandler>

00002500 <EXTI15_10_IRQHandler>:
    2500:	a001                	j	2500 <EXTI15_10_IRQHandler>

00002502 <RTCAlarm_IRQHandler>:
    2502:	a001                	j	2502 <RTCAlarm_IRQHandler>

00002504 <USBWakeUp_IRQHandler>:
    2504:	a001                	j	2504 <USBWakeUp_IRQHandler>

00002506 <USBHD_IRQHandler>:
    2506:	a001                	j	2506 <USBHD_IRQHandler>

00002508 <USBHDWakeUp_IRQHandler>:
    2508:	a001                	j	2508 <USBHDWakeUp_IRQHandler>
    250a:	a001                	j	250a <USBHDWakeUp_IRQHandler+0x2>

0000250c <DMA1_Channel8_IRQHandler>:
    250c:	a001                	j	250c <DMA1_Channel8_IRQHandler>

0000250e <handle_reset>:
    250e:	1fffe197          	auipc	gp,0x1fffe
    2512:	4e218193          	addi	gp,gp,1250 # 200009f0 <__global_pointer$>
    2516:	20003117          	auipc	sp,0x20003
    251a:	aea10113          	addi	sp,sp,-1302 # 20005000 <__freertos_irq_stack_top>
    251e:	00006517          	auipc	a0,0x6
    2522:	22650513          	addi	a0,a0,550 # 8744 <_data_lma>
    2526:	1fffe597          	auipc	a1,0x1fffe
    252a:	ada58593          	addi	a1,a1,-1318 # 20000000 <_data_vma>
    252e:	82018613          	addi	a2,gp,-2016 # 20000210 <_edata>
    2532:	00c5fa63          	bgeu	a1,a2,2546 <handle_reset+0x38>
    2536:	00052283          	lw	t0,0(a0)
    253a:	0055a023          	sw	t0,0(a1)
    253e:	0511                	addi	a0,a0,4
    2540:	0591                	addi	a1,a1,4
    2542:	fec5eae3          	bltu	a1,a2,2536 <handle_reset+0x28>
    2546:	1fffe517          	auipc	a0,0x1fffe
    254a:	cca50513          	addi	a0,a0,-822 # 20000210 <_edata>
    254e:	20001597          	auipc	a1,0x20001
    2552:	ee658593          	addi	a1,a1,-282 # 20003434 <_ebss>
    2556:	00b57763          	bgeu	a0,a1,2564 <handle_reset+0x56>
    255a:	00052023          	sw	zero,0(a0)
    255e:	0511                	addi	a0,a0,4
    2560:	feb56de3          	bltu	a0,a1,255a <handle_reset+0x4c>
    2564:	42fd                	li	t0,31
    2566:	bc029073          	csrw	0xbc0,t0
    256a:	4289                	li	t0,2
    256c:	80429073          	csrw	0x804,t0
    2570:	000022b7          	lui	t0,0x2
    2574:	80028293          	addi	t0,t0,-2048 # 1800 <xTaskResumeAll+0x9c>
    2578:	3002a073          	csrs	mstatus,t0
    257c:	ffffe297          	auipc	t0,0xffffe
    2580:	abc28293          	addi	t0,t0,-1348 # 38 <_einit>
    2584:	0032e293          	ori	t0,t0,3
    2588:	30529073          	csrw	mtvec,t0
    258c:	1ff000ef          	jal	ra,2f8a <SystemInit>
    2590:	00001297          	auipc	t0,0x1
    2594:	d5628293          	addi	t0,t0,-682 # 32e6 <main>
    2598:	34129073          	csrw	mepc,t0
    259c:	30200073          	mret

000025a0 <GPIO_Init>:
    25a0:	459c                	lw	a5,8(a1)
    25a2:	0107f713          	andi	a4,a5,16
    25a6:	00f7f813          	andi	a6,a5,15
    25aa:	c701                	beqz	a4,25b2 <GPIO_Init+0x12>
    25ac:	41d8                	lw	a4,4(a1)
    25ae:	00e86833          	or	a6,a6,a4
    25b2:	40022737          	lui	a4,0x40022
    25b6:	5b14                	lw	a3,48(a4)
    25b8:	0f000737          	lui	a4,0xf000
    25bc:	8f75                	and	a4,a4,a3
    25be:	ef55                	bnez	a4,267a <GPIO_Init+0xda>
    25c0:	20000737          	lui	a4,0x20000
    25c4:	4685                	li	a3,1
    25c6:	28d70223          	sb	a3,644(a4) # 20000284 <MCU_Version>
    25ca:	40011737          	lui	a4,0x40011
    25ce:	00e51763          	bne	a0,a4,25dc <GPIO_Init+0x3c>
    25d2:	0005d703          	lhu	a4,0(a1)
    25d6:	8335                	srli	a4,a4,0xd
    25d8:	00e59023          	sh	a4,0(a1)
    25dc:	0005d583          	lhu	a1,0(a1)
    25e0:	0ff5f713          	andi	a4,a1,255
    25e4:	c339                	beqz	a4,262a <GPIO_Init+0x8a>
    25e6:	4118                	lw	a4,0(a0)
    25e8:	4681                	li	a3,0
    25ea:	4e85                	li	t4,1
    25ec:	4f3d                	li	t5,15
    25ee:	02800f93          	li	t6,40
    25f2:	04800293          	li	t0,72
    25f6:	4e21                	li	t3,8
    25f8:	00de9633          	sll	a2,t4,a3
    25fc:	00c5f8b3          	and	a7,a1,a2
    2600:	03161163          	bne	a2,a7,2622 <GPIO_Init+0x82>
    2604:	00269893          	slli	a7,a3,0x2
    2608:	011f1333          	sll	t1,t5,a7
    260c:	fff34313          	not	t1,t1
    2610:	00e37733          	and	a4,t1,a4
    2614:	011818b3          	sll	a7,a6,a7
    2618:	00e8e733          	or	a4,a7,a4
    261c:	07f79963          	bne	a5,t6,268e <GPIO_Init+0xee>
    2620:	c950                	sw	a2,20(a0)
    2622:	0685                	addi	a3,a3,1
    2624:	fdc69ae3          	bne	a3,t3,25f8 <GPIO_Init+0x58>
    2628:	c118                	sw	a4,0(a0)
    262a:	0ff00713          	li	a4,255
    262e:	04b77563          	bgeu	a4,a1,2678 <GPIO_Init+0xd8>
    2632:	4154                	lw	a3,4(a0)
    2634:	4621                	li	a2,8
    2636:	4e85                	li	t4,1
    2638:	4f3d                	li	t5,15
    263a:	02800f93          	li	t6,40
    263e:	04800293          	li	t0,72
    2642:	4e41                	li	t3,16
    2644:	00ce98b3          	sll	a7,t4,a2
    2648:	0115f733          	and	a4,a1,a7
    264c:	02e89263          	bne	a7,a4,2670 <GPIO_Init+0xd0>
    2650:	00261713          	slli	a4,a2,0x2
    2654:	1701                	addi	a4,a4,-32
    2656:	00ef1333          	sll	t1,t5,a4
    265a:	fff34313          	not	t1,t1
    265e:	00d376b3          	and	a3,t1,a3
    2662:	00e81733          	sll	a4,a6,a4
    2666:	8ed9                	or	a3,a3,a4
    2668:	03f79763          	bne	a5,t6,2696 <GPIO_Init+0xf6>
    266c:	01152a23          	sw	a7,20(a0)
    2670:	0605                	addi	a2,a2,1
    2672:	fdc619e3          	bne	a2,t3,2644 <GPIO_Init+0xa4>
    2676:	c154                	sw	a3,4(a0)
    2678:	8082                	ret
    267a:	40011737          	lui	a4,0x40011
    267e:	f4e51fe3          	bne	a0,a4,25dc <GPIO_Init+0x3c>
    2682:	20000737          	lui	a4,0x20000
    2686:	28474703          	lbu	a4,644(a4) # 20000284 <MCU_Version>
    268a:	db29                	beqz	a4,25dc <GPIO_Init+0x3c>
    268c:	b799                	j	25d2 <GPIO_Init+0x32>
    268e:	f8579ae3          	bne	a5,t0,2622 <GPIO_Init+0x82>
    2692:	c910                	sw	a2,16(a0)
    2694:	b779                	j	2622 <GPIO_Init+0x82>
    2696:	fc579de3          	bne	a5,t0,2670 <GPIO_Init+0xd0>
    269a:	01152823          	sw	a7,16(a0)
    269e:	bfc9                	j	2670 <GPIO_Init+0xd0>

000026a0 <GPIO_SetBits>:
    26a0:	400117b7          	lui	a5,0x40011
    26a4:	00f51863          	bne	a0,a5,26b4 <GPIO_SetBits+0x14>
    26a8:	200007b7          	lui	a5,0x20000
    26ac:	2847c783          	lbu	a5,644(a5) # 20000284 <MCU_Version>
    26b0:	c391                	beqz	a5,26b4 <GPIO_SetBits+0x14>
    26b2:	81b5                	srli	a1,a1,0xd
    26b4:	c90c                	sw	a1,16(a0)
    26b6:	8082                	ret

000026b8 <NVIC_PriorityGroupConfig>:
    26b8:	200007b7          	lui	a5,0x20000
    26bc:	28a7a423          	sw	a0,648(a5) # 20000288 <NVIC_Priority_Group>
    26c0:	8082                	ret

000026c2 <NVIC_Init>:
    26c2:	200007b7          	lui	a5,0x20000
    26c6:	28878793          	addi	a5,a5,648 # 20000288 <NVIC_Priority_Group>
    26ca:	4394                	lw	a3,0(a5)
    26cc:	00054703          	lbu	a4,0(a0)
    26d0:	e689                	bnez	a3,26da <NVIC_Init+0x18>
    26d2:	00254783          	lbu	a5,2(a0)
    26d6:	0792                	slli	a5,a5,0x4
    26d8:	a831                	j	26f4 <NVIC_Init+0x32>
    26da:	4394                	lw	a3,0(a5)
    26dc:	4605                	li	a2,1
    26de:	04c69163          	bne	a3,a2,2720 <NVIC_Init+0x5e>
    26e2:	00254783          	lbu	a5,2(a0)
    26e6:	00154603          	lbu	a2,1(a0)
    26ea:	0792                	slli	a5,a5,0x4
    26ec:	00d61463          	bne	a2,a3,26f4 <NVIC_Init+0x32>
    26f0:	f807e793          	ori	a5,a5,-128
    26f4:	e000e6b7          	lui	a3,0xe000e
    26f8:	0ff7f793          	andi	a5,a5,255
    26fc:	96ba                	add	a3,a3,a4
    26fe:	40f68023          	sb	a5,1024(a3) # e000e400 <__freertos_irq_stack_top+0xc0009400>
    2702:	4685                	li	a3,1
    2704:	00575793          	srli	a5,a4,0x5
    2708:	00e69733          	sll	a4,a3,a4
    270c:	4154                	lw	a3,4(a0)
    270e:	c6ad                	beqz	a3,2778 <NVIC_Init+0xb6>
    2710:	04078793          	addi	a5,a5,64
    2714:	078a                	slli	a5,a5,0x2
    2716:	e000e6b7          	lui	a3,0xe000e
    271a:	97b6                	add	a5,a5,a3
    271c:	c398                	sw	a4,0(a5)
    271e:	8082                	ret
    2720:	438c                	lw	a1,0(a5)
    2722:	4689                	li	a3,2
    2724:	02d59363          	bne	a1,a3,274a <NVIC_Init+0x88>
    2728:	00154683          	lbu	a3,1(a0)
    272c:	00254783          	lbu	a5,2(a0)
    2730:	00d66563          	bltu	a2,a3,273a <NVIC_Init+0x78>
    2734:	068a                	slli	a3,a3,0x2
    2736:	97b6                	add	a5,a5,a3
    2738:	bf79                	j	26d6 <NVIC_Init+0x14>
    273a:	03e68693          	addi	a3,a3,62 # e000e03e <__freertos_irq_stack_top+0xc000903e>
    273e:	068a                	slli	a3,a3,0x2
    2740:	97b6                	add	a5,a5,a3
    2742:	0ff7f793          	andi	a5,a5,255
    2746:	0792                	slli	a5,a5,0x4
    2748:	b765                	j	26f0 <NVIC_Init+0x2e>
    274a:	4390                	lw	a2,0(a5)
    274c:	468d                	li	a3,3
    274e:	00d61e63          	bne	a2,a3,276a <NVIC_Init+0xa8>
    2752:	00154683          	lbu	a3,1(a0)
    2756:	00254783          	lbu	a5,2(a0)
    275a:	00d66463          	bltu	a2,a3,2762 <NVIC_Init+0xa0>
    275e:	0686                	slli	a3,a3,0x1
    2760:	bfd9                	j	2736 <NVIC_Init+0x74>
    2762:	07c68693          	addi	a3,a3,124
    2766:	0686                	slli	a3,a3,0x1
    2768:	bfe1                	j	2740 <NVIC_Init+0x7e>
    276a:	4394                	lw	a3,0(a5)
    276c:	4791                	li	a5,4
    276e:	f8f69ae3          	bne	a3,a5,2702 <NVIC_Init+0x40>
    2772:	00154783          	lbu	a5,1(a0)
    2776:	b785                	j	26d6 <NVIC_Init+0x14>
    2778:	06078793          	addi	a5,a5,96
    277c:	bf61                	j	2714 <NVIC_Init+0x52>

0000277e <RCC_GetClocksFreq>:
    277e:	40021737          	lui	a4,0x40021
    2782:	435c                	lw	a5,4(a4)
    2784:	4691                	li	a3,4
    2786:	8bb1                	andi	a5,a5,12
    2788:	00d78563          	beq	a5,a3,2792 <RCC_GetClocksFreq+0x14>
    278c:	46a1                	li	a3,8
    278e:	06d78663          	beq	a5,a3,27fa <RCC_GetClocksFreq+0x7c>
    2792:	007a17b7          	lui	a5,0x7a1
    2796:	20078793          	addi	a5,a5,512 # 7a1200 <_data_lma+0x798abc>
    279a:	c11c                	sw	a5,0(a0)
    279c:	40021637          	lui	a2,0x40021
    27a0:	425c                	lw	a5,4(a2)
    27a2:	20000737          	lui	a4,0x20000
    27a6:	00070713          	mv	a4,a4
    27aa:	8391                	srli	a5,a5,0x4
    27ac:	8bbd                	andi	a5,a5,15
    27ae:	97ba                	add	a5,a5,a4
    27b0:	0007c683          	lbu	a3,0(a5)
    27b4:	411c                	lw	a5,0(a0)
    27b6:	00d7d7b3          	srl	a5,a5,a3
    27ba:	c15c                	sw	a5,4(a0)
    27bc:	4254                	lw	a3,4(a2)
    27be:	82a1                	srli	a3,a3,0x8
    27c0:	8a9d                	andi	a3,a3,7
    27c2:	96ba                	add	a3,a3,a4
    27c4:	0006c683          	lbu	a3,0(a3)
    27c8:	00d7d6b3          	srl	a3,a5,a3
    27cc:	c514                	sw	a3,8(a0)
    27ce:	4254                	lw	a3,4(a2)
    27d0:	82ad                	srli	a3,a3,0xb
    27d2:	8a9d                	andi	a3,a3,7
    27d4:	9736                	add	a4,a4,a3
    27d6:	00074703          	lbu	a4,0(a4) # 20000000 <_data_vma>
    27da:	00e7d7b3          	srl	a5,a5,a4
    27de:	c55c                	sw	a5,12(a0)
    27e0:	4258                	lw	a4,4(a2)
    27e2:	8339                	srli	a4,a4,0xe
    27e4:	00377693          	andi	a3,a4,3
    27e8:	80818713          	addi	a4,gp,-2040 # 200001f8 <ADCPrescTable>
    27ec:	9736                	add	a4,a4,a3
    27ee:	00074703          	lbu	a4,0(a4)
    27f2:	02e7d7b3          	divu	a5,a5,a4
    27f6:	c91c                	sw	a5,16(a0)
    27f8:	8082                	ret
    27fa:	435c                	lw	a5,4(a4)
    27fc:	4358                	lw	a4,4(a4)
    27fe:	66c1                	lui	a3,0x10
    2800:	83c9                	srli	a5,a5,0x12
    2802:	8bbd                	andi	a5,a5,15
    2804:	8f75                	and	a4,a4,a3
    2806:	0789                	addi	a5,a5,2
    2808:	46c5                	li	a3,17
    280a:	00d79363          	bne	a5,a3,2810 <RCC_GetClocksFreq+0x92>
    280e:	47c9                	li	a5,18
    2810:	ef01                	bnez	a4,2828 <RCC_GetClocksFreq+0xaa>
    2812:	40024737          	lui	a4,0x40024
    2816:	80072703          	lw	a4,-2048(a4) # 40023800 <__freertos_irq_stack_top+0x2001e800>
    281a:	8b41                	andi	a4,a4,16
    281c:	cf09                	beqz	a4,2836 <RCC_GetClocksFreq+0xb8>
    281e:	007a1737          	lui	a4,0x7a1
    2822:	20070713          	addi	a4,a4,512 # 7a1200 <_data_lma+0x798abc>
    2826:	a821                	j	283e <RCC_GetClocksFreq+0xc0>
    2828:	40021737          	lui	a4,0x40021
    282c:	4358                	lw	a4,4(a4)
    282e:	00e71693          	slli	a3,a4,0xe
    2832:	fe06d6e3          	bgez	a3,281e <RCC_GetClocksFreq+0xa0>
    2836:	003d1737          	lui	a4,0x3d1
    283a:	90070713          	addi	a4,a4,-1792 # 3d0900 <_data_lma+0x3c81bc>
    283e:	02e787b3          	mul	a5,a5,a4
    2842:	bfa1                	j	279a <RCC_GetClocksFreq+0x1c>

00002844 <RCC_AHBPeriphClockCmd>:
    2844:	c599                	beqz	a1,2852 <RCC_AHBPeriphClockCmd+0xe>
    2846:	40021737          	lui	a4,0x40021
    284a:	4b5c                	lw	a5,20(a4)
    284c:	8d5d                	or	a0,a0,a5
    284e:	cb48                	sw	a0,20(a4)
    2850:	8082                	ret
    2852:	400217b7          	lui	a5,0x40021
    2856:	4bd8                	lw	a4,20(a5)
    2858:	fff54513          	not	a0,a0
    285c:	8d79                	and	a0,a0,a4
    285e:	cbc8                	sw	a0,20(a5)
    2860:	8082                	ret

00002862 <RCC_APB2PeriphClockCmd>:
    2862:	c599                	beqz	a1,2870 <RCC_APB2PeriphClockCmd+0xe>
    2864:	40021737          	lui	a4,0x40021
    2868:	4f1c                	lw	a5,24(a4)
    286a:	8d5d                	or	a0,a0,a5
    286c:	cf08                	sw	a0,24(a4)
    286e:	8082                	ret
    2870:	400217b7          	lui	a5,0x40021
    2874:	4f98                	lw	a4,24(a5)
    2876:	fff54513          	not	a0,a0
    287a:	8d79                	and	a0,a0,a4
    287c:	cf88                	sw	a0,24(a5)
    287e:	8082                	ret

00002880 <RCC_APB1PeriphClockCmd>:
    2880:	c599                	beqz	a1,288e <RCC_APB1PeriphClockCmd+0xe>
    2882:	40021737          	lui	a4,0x40021
    2886:	4f5c                	lw	a5,28(a4)
    2888:	8d5d                	or	a0,a0,a5
    288a:	cf48                	sw	a0,28(a4)
    288c:	8082                	ret
    288e:	400217b7          	lui	a5,0x40021
    2892:	4fd8                	lw	a4,28(a5)
    2894:	fff54513          	not	a0,a0
    2898:	8d79                	and	a0,a0,a4
    289a:	cfc8                	sw	a0,28(a5)
    289c:	8082                	ret

0000289e <SPI_Init>:
    289e:	00055703          	lhu	a4,0(a0)
    28a2:	678d                	lui	a5,0x3
    28a4:	04078793          	addi	a5,a5,64 # 3040 <SystemInit+0xb6>
    28a8:	0025d683          	lhu	a3,2(a1)
    28ac:	8f7d                	and	a4,a4,a5
    28ae:	0005d783          	lhu	a5,0(a1)
    28b2:	8fd5                	or	a5,a5,a3
    28b4:	0045d683          	lhu	a3,4(a1)
    28b8:	8fd5                	or	a5,a5,a3
    28ba:	0065d683          	lhu	a3,6(a1)
    28be:	8fd5                	or	a5,a5,a3
    28c0:	0085d683          	lhu	a3,8(a1)
    28c4:	8fd5                	or	a5,a5,a3
    28c6:	00a5d683          	lhu	a3,10(a1)
    28ca:	8fd5                	or	a5,a5,a3
    28cc:	00c5d683          	lhu	a3,12(a1)
    28d0:	8fd5                	or	a5,a5,a3
    28d2:	00e5d683          	lhu	a3,14(a1)
    28d6:	8fd5                	or	a5,a5,a3
    28d8:	8fd9                	or	a5,a5,a4
    28da:	00f51023          	sh	a5,0(a0)
    28de:	01c55703          	lhu	a4,28(a0)
    28e2:	77fd                	lui	a5,0xfffff
    28e4:	7ff78793          	addi	a5,a5,2047 # fffff7ff <__freertos_irq_stack_top+0xdfffa7ff>
    28e8:	8ff9                	and	a5,a5,a4
    28ea:	00f51e23          	sh	a5,28(a0)
    28ee:	0105d783          	lhu	a5,16(a1)
    28f2:	00f51823          	sh	a5,16(a0)
    28f6:	8082                	ret

000028f8 <SPI_Cmd>:
    28f8:	00055783          	lhu	a5,0(a0)
    28fc:	c591                	beqz	a1,2908 <SPI_Cmd+0x10>
    28fe:	0407e793          	ori	a5,a5,64
    2902:	00f51023          	sh	a5,0(a0)
    2906:	8082                	ret
    2908:	07c2                	slli	a5,a5,0x10
    290a:	83c1                	srli	a5,a5,0x10
    290c:	fbf7f793          	andi	a5,a5,-65
    2910:	07c2                	slli	a5,a5,0x10
    2912:	83c1                	srli	a5,a5,0x10
    2914:	b7fd                	j	2902 <SPI_Cmd+0xa>

00002916 <USART_Init>:
    2916:	c09fd2ef          	jal	t0,51e <__riscv_save_0>
    291a:	01055683          	lhu	a3,16(a0)
    291e:	77f5                	lui	a5,0xffffd
    2920:	17fd                	addi	a5,a5,-1
    2922:	8ff5                	and	a5,a5,a3
    2924:	0065d683          	lhu	a3,6(a1)
    2928:	00c5d703          	lhu	a4,12(a1)
    292c:	7179                	addi	sp,sp,-48
    292e:	8fd5                	or	a5,a5,a3
    2930:	00f51823          	sh	a5,16(a0)
    2934:	00c55683          	lhu	a3,12(a0)
    2938:	77fd                	lui	a5,0xfffff
    293a:	9f378793          	addi	a5,a5,-1549 # ffffe9f3 <__freertos_irq_stack_top+0xdfff99f3>
    293e:	8ff5                	and	a5,a5,a3
    2940:	0045d683          	lhu	a3,4(a1)
    2944:	842a                	mv	s0,a0
    2946:	c62e                	sw	a1,12(sp)
    2948:	8fd5                	or	a5,a5,a3
    294a:	0085d683          	lhu	a3,8(a1)
    294e:	8fd5                	or	a5,a5,a3
    2950:	00a5d683          	lhu	a3,10(a1)
    2954:	8fd5                	or	a5,a5,a3
    2956:	00f51623          	sh	a5,12(a0)
    295a:	01455783          	lhu	a5,20(a0)
    295e:	07c2                	slli	a5,a5,0x10
    2960:	83c1                	srli	a5,a5,0x10
    2962:	cff7f793          	andi	a5,a5,-769
    2966:	8fd9                	or	a5,a5,a4
    2968:	00f51a23          	sh	a5,20(a0)
    296c:	0868                	addi	a0,sp,28
    296e:	3d01                	jal	277e <RCC_GetClocksFreq>
    2970:	400147b7          	lui	a5,0x40014
    2974:	80078793          	addi	a5,a5,-2048 # 40013800 <__freertos_irq_stack_top+0x2000e800>
    2978:	45b2                	lw	a1,12(sp)
    297a:	04f41d63          	bne	s0,a5,29d4 <USART_Init+0xbe>
    297e:	57a2                	lw	a5,40(sp)
    2980:	00c45683          	lhu	a3,12(s0)
    2984:	4765                	li	a4,25
    2986:	02e787b3          	mul	a5,a5,a4
    298a:	06c2                	slli	a3,a3,0x10
    298c:	86c1                	srai	a3,a3,0x10
    298e:	4198                	lw	a4,0(a1)
    2990:	0406d463          	bgez	a3,29d8 <USART_Init+0xc2>
    2994:	0706                	slli	a4,a4,0x1
    2996:	00c45603          	lhu	a2,12(s0)
    299a:	0642                	slli	a2,a2,0x10
    299c:	02e7d7b3          	divu	a5,a5,a4
    29a0:	06400713          	li	a4,100
    29a4:	8641                	srai	a2,a2,0x10
    29a6:	02e7d6b3          	divu	a3,a5,a4
    29aa:	02e7f7b3          	remu	a5,a5,a4
    29ae:	0692                	slli	a3,a3,0x4
    29b0:	02065663          	bgez	a2,29dc <USART_Init+0xc6>
    29b4:	078e                	slli	a5,a5,0x3
    29b6:	03278793          	addi	a5,a5,50
    29ba:	02e7d7b3          	divu	a5,a5,a4
    29be:	0077f713          	andi	a4,a5,7
    29c2:	00d767b3          	or	a5,a4,a3
    29c6:	07c2                	slli	a5,a5,0x10
    29c8:	83c1                	srli	a5,a5,0x10
    29ca:	00f41423          	sh	a5,8(s0)
    29ce:	6145                	addi	sp,sp,48
    29d0:	b73fd06f          	j	542 <__riscv_restore_0>
    29d4:	5792                	lw	a5,36(sp)
    29d6:	b76d                	j	2980 <USART_Init+0x6a>
    29d8:	070a                	slli	a4,a4,0x2
    29da:	bf75                	j	2996 <USART_Init+0x80>
    29dc:	0792                	slli	a5,a5,0x4
    29de:	03278793          	addi	a5,a5,50
    29e2:	02e7d7b3          	divu	a5,a5,a4
    29e6:	8bbd                	andi	a5,a5,15
    29e8:	8fd5                	or	a5,a5,a3
    29ea:	bff1                	j	29c6 <USART_Init+0xb0>

000029ec <USART_Cmd>:
    29ec:	c981                	beqz	a1,29fc <USART_Cmd+0x10>
    29ee:	00c55783          	lhu	a5,12(a0)
    29f2:	6709                	lui	a4,0x2
    29f4:	8fd9                	or	a5,a5,a4
    29f6:	00f51623          	sh	a5,12(a0)
    29fa:	8082                	ret
    29fc:	00c55703          	lhu	a4,12(a0)
    2a00:	77f9                	lui	a5,0xffffe
    2a02:	17fd                	addi	a5,a5,-1
    2a04:	8ff9                	and	a5,a5,a4
    2a06:	bfc5                	j	29f6 <USART_Cmd+0xa>

00002a08 <USART_ITConfig>:
    2a08:	0ff5f713          	andi	a4,a1,255
    2a0c:	4785                	li	a5,1
    2a0e:	8315                	srli	a4,a4,0x5
    2a10:	00b795b3          	sll	a1,a5,a1
    2a14:	00f71963          	bne	a4,a5,2a26 <USART_ITConfig+0x1e>
    2a18:	00c50793          	addi	a5,a0,12
    2a1c:	4398                	lw	a4,0(a5)
    2a1e:	ce01                	beqz	a2,2a36 <USART_ITConfig+0x2e>
    2a20:	8dd9                	or	a1,a1,a4
    2a22:	c38c                	sw	a1,0(a5)
    2a24:	8082                	ret
    2a26:	4689                	li	a3,2
    2a28:	01450793          	addi	a5,a0,20
    2a2c:	fed718e3          	bne	a4,a3,2a1c <USART_ITConfig+0x14>
    2a30:	01050793          	addi	a5,a0,16
    2a34:	b7e5                	j	2a1c <USART_ITConfig+0x14>
    2a36:	fff5c593          	not	a1,a1
    2a3a:	8df9                	and	a1,a1,a4
    2a3c:	b7dd                	j	2a22 <USART_ITConfig+0x1a>

00002a3e <USART_SendData>:
    2a3e:	1ff5f593          	andi	a1,a1,511
    2a42:	00b51223          	sh	a1,4(a0)
    2a46:	8082                	ret

00002a48 <USART_ReceiveData>:
    2a48:	00455503          	lhu	a0,4(a0)
    2a4c:	1ff57513          	andi	a0,a0,511
    2a50:	8082                	ret

00002a52 <USART_GetFlagStatus>:
    2a52:	00055503          	lhu	a0,0(a0)
    2a56:	8d6d                	and	a0,a0,a1
    2a58:	00a03533          	snez	a0,a0
    2a5c:	8082                	ret

00002a5e <USART_ClearFlag>:
    2a5e:	fff5c593          	not	a1,a1
    2a62:	05c2                	slli	a1,a1,0x10
    2a64:	81c1                	srli	a1,a1,0x10
    2a66:	00b51023          	sh	a1,0(a0)
    2a6a:	8082                	ret

00002a6c <USART_GetITStatus>:
    2a6c:	0ff5f713          	andi	a4,a1,255
    2a70:	4685                	li	a3,1
    2a72:	8315                	srli	a4,a4,0x5
    2a74:	00b697b3          	sll	a5,a3,a1
    2a78:	02d71363          	bne	a4,a3,2a9e <USART_GetITStatus+0x32>
    2a7c:	00c55703          	lhu	a4,12(a0)
    2a80:	8ff9                	and	a5,a5,a4
    2a82:	00055703          	lhu	a4,0(a0)
    2a86:	4501                	li	a0,0
    2a88:	0742                	slli	a4,a4,0x10
    2a8a:	8341                	srli	a4,a4,0x10
    2a8c:	cb81                	beqz	a5,2a9c <USART_GetITStatus+0x30>
    2a8e:	4505                	li	a0,1
    2a90:	81a1                	srli	a1,a1,0x8
    2a92:	00b515b3          	sll	a1,a0,a1
    2a96:	8f6d                	and	a4,a4,a1
    2a98:	00e03533          	snez	a0,a4
    2a9c:	8082                	ret
    2a9e:	4689                	li	a3,2
    2aa0:	00d71563          	bne	a4,a3,2aaa <USART_GetITStatus+0x3e>
    2aa4:	01055703          	lhu	a4,16(a0)
    2aa8:	bfe1                	j	2a80 <USART_GetITStatus+0x14>
    2aaa:	01455703          	lhu	a4,20(a0)
    2aae:	bfc9                	j	2a80 <USART_GetITStatus+0x14>

00002ab0 <Delay_Init>:
    2ab0:	8101a783          	lw	a5,-2032(gp) # 20000200 <SystemCoreClock>
    2ab4:	007a1737          	lui	a4,0x7a1
    2ab8:	20070713          	addi	a4,a4,512 # 7a1200 <_data_lma+0x798abc>
    2abc:	02e7d7b3          	divu	a5,a5,a4
    2ac0:	20000737          	lui	a4,0x20000
    2ac4:	0ff7f793          	andi	a5,a5,255
    2ac8:	28f70723          	sb	a5,654(a4) # 2000028e <p_us>
    2acc:	3e800713          	li	a4,1000
    2ad0:	02e787b3          	mul	a5,a5,a4
    2ad4:	20000737          	lui	a4,0x20000
    2ad8:	28f71623          	sh	a5,652(a4) # 2000028c <p_ms>
    2adc:	8082                	ret

00002ade <_write>:
    2ade:	a27fd2ef          	jal	t0,504 <__riscv_save_4>
    2ae2:	400144b7          	lui	s1,0x40014
    2ae6:	89ae                	mv	s3,a1
    2ae8:	8932                	mv	s2,a2
    2aea:	4401                	li	s0,0
    2aec:	80048493          	addi	s1,s1,-2048 # 40013800 <__freertos_irq_stack_top+0x2000e800>
    2af0:	01244563          	blt	s0,s2,2afa <_write+0x1c>
    2af4:	854a                	mv	a0,s2
    2af6:	a43fd06f          	j	538 <__riscv_restore_4>
    2afa:	04000593          	li	a1,64
    2afe:	8526                	mv	a0,s1
    2b00:	3f89                	jal	2a52 <USART_GetFlagStatus>
    2b02:	dd65                	beqz	a0,2afa <_write+0x1c>
    2b04:	008987b3          	add	a5,s3,s0
    2b08:	00078583          	lb	a1,0(a5) # ffffe000 <__freertos_irq_stack_top+0xdfff9000>
    2b0c:	8526                	mv	a0,s1
    2b0e:	0405                	addi	s0,s0,1
    2b10:	05c2                	slli	a1,a1,0x10
    2b12:	81c1                	srli	a1,a1,0x10
    2b14:	372d                	jal	2a3e <USART_SendData>
    2b16:	bfe9                	j	2af0 <_write+0x12>

00002b18 <_sbrk>:
    2b18:	80c18713          	addi	a4,gp,-2036 # 200001fc <curbrk.4666>
    2b1c:	431c                	lw	a5,0(a4)
    2b1e:	200036b7          	lui	a3,0x20003
    2b22:	43468693          	addi	a3,a3,1076 # 20003434 <_ebss>
    2b26:	953e                	add	a0,a0,a5
    2b28:	00d56b63          	bltu	a0,a3,2b3e <_sbrk+0x26>
    2b2c:	200056b7          	lui	a3,0x20005
    2b30:	80068693          	addi	a3,a3,-2048 # 20004800 <_heap_end>
    2b34:	00a6e563          	bltu	a3,a0,2b3e <_sbrk+0x26>
    2b38:	c308                	sw	a0,0(a4)
    2b3a:	853e                	mv	a0,a5
    2b3c:	8082                	ret
    2b3e:	57fd                	li	a5,-1
    2b40:	bfed                	j	2b3a <_sbrk+0x22>

00002b42 <MCAL_Config_ConfigAllPins>:
    2b42:	9adfd2ef          	jal	t0,4ee <__riscv_save_12>
    2b46:	711d                	addi	sp,sp,-96
    2b48:	4581                	li	a1,0
    2b4a:	4505                	li	a0,1
    2b4c:	cf9ff0ef          	jal	ra,2844 <RCC_AHBPeriphClockCmd>
    2b50:	4581                	li	a1,0
    2b52:	4509                	li	a0,2
    2b54:	cf1ff0ef          	jal	ra,2844 <RCC_AHBPeriphClockCmd>
    2b58:	4581                	li	a1,0
    2b5a:	4511                	li	a0,4
    2b5c:	ce9ff0ef          	jal	ra,2844 <RCC_AHBPeriphClockCmd>
    2b60:	4581                	li	a1,0
    2b62:	04000513          	li	a0,64
    2b66:	cdfff0ef          	jal	ra,2844 <RCC_AHBPeriphClockCmd>
    2b6a:	4581                	li	a1,0
    2b6c:	6505                	lui	a0,0x1
    2b6e:	cd7ff0ef          	jal	ra,2844 <RCC_AHBPeriphClockCmd>
    2b72:	4581                	li	a1,0
    2b74:	4505                	li	a0,1
    2b76:	cedff0ef          	jal	ra,2862 <RCC_APB2PeriphClockCmd>
    2b7a:	4585                	li	a1,1
    2b7c:	4511                	li	a0,4
    2b7e:	ce5ff0ef          	jal	ra,2862 <RCC_APB2PeriphClockCmd>
    2b82:	4585                	li	a1,1
    2b84:	4521                	li	a0,8
    2b86:	cddff0ef          	jal	ra,2862 <RCC_APB2PeriphClockCmd>
    2b8a:	4585                	li	a1,1
    2b8c:	4541                	li	a0,16
    2b8e:	cd5ff0ef          	jal	ra,2862 <RCC_APB2PeriphClockCmd>
    2b92:	4581                	li	a1,0
    2b94:	20000513          	li	a0,512
    2b98:	ccbff0ef          	jal	ra,2862 <RCC_APB2PeriphClockCmd>
    2b9c:	4581                	li	a1,0
    2b9e:	40000513          	li	a0,1024
    2ba2:	cc1ff0ef          	jal	ra,2862 <RCC_APB2PeriphClockCmd>
    2ba6:	6a85                	lui	s5,0x1
    2ba8:	800a8513          	addi	a0,s5,-2048 # 800 <__stack_size>
    2bac:	4581                	li	a1,0
    2bae:	cb5ff0ef          	jal	ra,2862 <RCC_APB2PeriphClockCmd>
    2bb2:	4585                	li	a1,1
    2bb4:	6505                	lui	a0,0x1
    2bb6:	cadff0ef          	jal	ra,2862 <RCC_APB2PeriphClockCmd>
    2bba:	4581                	li	a1,0
    2bbc:	6509                	lui	a0,0x2
    2bbe:	ca5ff0ef          	jal	ra,2862 <RCC_APB2PeriphClockCmd>
    2bc2:	4581                	li	a1,0
    2bc4:	6511                	lui	a0,0x4
    2bc6:	c9dff0ef          	jal	ra,2862 <RCC_APB2PeriphClockCmd>
    2bca:	4581                	li	a1,0
    2bcc:	4505                	li	a0,1
    2bce:	cb3ff0ef          	jal	ra,2880 <RCC_APB1PeriphClockCmd>
    2bd2:	4581                	li	a1,0
    2bd4:	4509                	li	a0,2
    2bd6:	cabff0ef          	jal	ra,2880 <RCC_APB1PeriphClockCmd>
    2bda:	4581                	li	a1,0
    2bdc:	4511                	li	a0,4
    2bde:	ca3ff0ef          	jal	ra,2880 <RCC_APB1PeriphClockCmd>
    2be2:	4581                	li	a1,0
    2be4:	4521                	li	a0,8
    2be6:	c9bff0ef          	jal	ra,2880 <RCC_APB1PeriphClockCmd>
    2bea:	800a8513          	addi	a0,s5,-2048
    2bee:	4581                	li	a1,0
    2bf0:	c91ff0ef          	jal	ra,2880 <RCC_APB1PeriphClockCmd>
    2bf4:	4581                	li	a1,0
    2bf6:	6511                	lui	a0,0x4
    2bf8:	c89ff0ef          	jal	ra,2880 <RCC_APB1PeriphClockCmd>
    2bfc:	4581                	li	a1,0
    2bfe:	00020537          	lui	a0,0x20
    2c02:	c7fff0ef          	jal	ra,2880 <RCC_APB1PeriphClockCmd>
    2c06:	4581                	li	a1,0
    2c08:	00040537          	lui	a0,0x40
    2c0c:	c75ff0ef          	jal	ra,2880 <RCC_APB1PeriphClockCmd>
    2c10:	4585                	li	a1,1
    2c12:	00080537          	lui	a0,0x80
    2c16:	c6bff0ef          	jal	ra,2880 <RCC_APB1PeriphClockCmd>
    2c1a:	4581                	li	a1,0
    2c1c:	00200537          	lui	a0,0x200
    2c20:	c61ff0ef          	jal	ra,2880 <RCC_APB1PeriphClockCmd>
    2c24:	4581                	li	a1,0
    2c26:	00400537          	lui	a0,0x400
    2c2a:	c57ff0ef          	jal	ra,2880 <RCC_APB1PeriphClockCmd>
    2c2e:	4581                	li	a1,0
    2c30:	00800537          	lui	a0,0x800
    2c34:	c4dff0ef          	jal	ra,2880 <RCC_APB1PeriphClockCmd>
    2c38:	4581                	li	a1,0
    2c3a:	02000537          	lui	a0,0x2000
    2c3e:	c43ff0ef          	jal	ra,2880 <RCC_APB1PeriphClockCmd>
    2c42:	4581                	li	a1,0
    2c44:	08000537          	lui	a0,0x8000
    2c48:	c39ff0ef          	jal	ra,2880 <RCC_APB1PeriphClockCmd>
    2c4c:	4581                	li	a1,0
    2c4e:	10000537          	lui	a0,0x10000
    2c52:	40011437          	lui	s0,0x40011
    2c56:	c2bff0ef          	jal	ra,2880 <RCC_APB1PeriphClockCmd>
    2c5a:	04800493          	li	s1,72
    2c5e:	4b85                	li	s7,1
    2c60:	4d85                	li	s11,1
    2c62:	180c                	addi	a1,sp,48
    2c64:	80040513          	addi	a0,s0,-2048 # 40010800 <__freertos_irq_stack_top+0x2000b800>
    2c68:	03b11823          	sh	s11,48(sp)
    2c6c:	da5e                	sw	s7,52(sp)
    2c6e:	dc26                	sw	s1,56(sp)
    2c70:	931ff0ef          	jal	ra,25a0 <GPIO_Init>
    2c74:	4e09                	li	t3,2
    2c76:	4961                	li	s2,24
    2c78:	180c                	addi	a1,sp,48
    2c7a:	80040513          	addi	a0,s0,-2048
    2c7e:	03c11823          	sh	t3,48(sp)
    2c82:	ce72                	sw	t3,28(sp)
    2c84:	dc4a                	sw	s2,56(sp)
    2c86:	91bff0ef          	jal	ra,25a0 <GPIO_Init>
    2c8a:	4791                	li	a5,4
    2c8c:	180c                	addi	a1,sp,48
    2c8e:	80040513          	addi	a0,s0,-2048
    2c92:	02f11823          	sh	a5,48(sp)
    2c96:	dc26                	sw	s1,56(sp)
    2c98:	909ff0ef          	jal	ra,25a0 <GPIO_Init>
    2c9c:	4321                	li	t1,8
    2c9e:	180c                	addi	a1,sp,48
    2ca0:	80040513          	addi	a0,s0,-2048
    2ca4:	02611823          	sh	t1,48(sp)
    2ca8:	cc1a                	sw	t1,24(sp)
    2caa:	dc26                	sw	s1,56(sp)
    2cac:	8f5ff0ef          	jal	ra,25a0 <GPIO_Init>
    2cb0:	47c1                	li	a5,16
    2cb2:	180c                	addi	a1,sp,48
    2cb4:	80040513          	addi	a0,s0,-2048
    2cb8:	02f11823          	sh	a5,48(sp)
    2cbc:	dc26                	sw	s1,56(sp)
    2cbe:	8e3ff0ef          	jal	ra,25a0 <GPIO_Init>
    2cc2:	02000893          	li	a7,32
    2cc6:	180c                	addi	a1,sp,48
    2cc8:	80040513          	addi	a0,s0,-2048
    2ccc:	03111823          	sh	a7,48(sp)
    2cd0:	ca46                	sw	a7,20(sp)
    2cd2:	dc4a                	sw	s2,56(sp)
    2cd4:	8cdff0ef          	jal	ra,25a0 <GPIO_Init>
    2cd8:	04000813          	li	a6,64
    2cdc:	4a11                	li	s4,4
    2cde:	180c                	addi	a1,sp,48
    2ce0:	80040513          	addi	a0,s0,-2048
    2ce4:	03011823          	sh	a6,48(sp)
    2ce8:	c842                	sw	a6,16(sp)
    2cea:	dc52                	sw	s4,56(sp)
    2cec:	8b5ff0ef          	jal	ra,25a0 <GPIO_Init>
    2cf0:	08000613          	li	a2,128
    2cf4:	180c                	addi	a1,sp,48
    2cf6:	80040513          	addi	a0,s0,-2048
    2cfa:	02c11823          	sh	a2,48(sp)
    2cfe:	c632                	sw	a2,12(sp)
    2d00:	dc4a                	sw	s2,56(sp)
    2d02:	89fff0ef          	jal	ra,25a0 <GPIO_Init>
    2d06:	10000693          	li	a3,256
    2d0a:	180c                	addi	a1,sp,48
    2d0c:	80040513          	addi	a0,s0,-2048
    2d10:	02d11823          	sh	a3,48(sp)
    2d14:	c436                	sw	a3,8(sp)
    2d16:	dc26                	sw	s1,56(sp)
    2d18:	889ff0ef          	jal	ra,25a0 <GPIO_Init>
    2d1c:	20000713          	li	a4,512
    2d20:	180c                	addi	a1,sp,48
    2d22:	80040513          	addi	a0,s0,-2048
    2d26:	02e11823          	sh	a4,48(sp)
    2d2a:	c23a                	sw	a4,4(sp)
    2d2c:	dc4a                	sw	s2,56(sp)
    2d2e:	873ff0ef          	jal	ra,25a0 <GPIO_Init>
    2d32:	40000793          	li	a5,1024
    2d36:	49c1                	li	s3,16
    2d38:	180c                	addi	a1,sp,48
    2d3a:	80040513          	addi	a0,s0,-2048
    2d3e:	02f11823          	sh	a5,48(sp)
    2d42:	c03e                	sw	a5,0(sp)
    2d44:	dc4e                	sw	s3,56(sp)
    2d46:	6b05                	lui	s6,0x1
    2d48:	859ff0ef          	jal	ra,25a0 <GPIO_Init>
    2d4c:	800b0b13          	addi	s6,s6,-2048 # 800 <__stack_size>
    2d50:	180c                	addi	a1,sp,48
    2d52:	80040513          	addi	a0,s0,-2048
    2d56:	dc26                	sw	s1,56(sp)
    2d58:	03611823          	sh	s6,48(sp)
    2d5c:	845ff0ef          	jal	ra,25a0 <GPIO_Init>
    2d60:	180c                	addi	a1,sp,48
    2d62:	80040513          	addi	a0,s0,-2048
    2d66:	dc26                	sw	s1,56(sp)
    2d68:	03511823          	sh	s5,48(sp)
    2d6c:	835ff0ef          	jal	ra,25a0 <GPIO_Init>
    2d70:	6d09                	lui	s10,0x2
    2d72:	180c                	addi	a1,sp,48
    2d74:	80040513          	addi	a0,s0,-2048
    2d78:	dc52                	sw	s4,56(sp)
    2d7a:	03a11823          	sh	s10,48(sp)
    2d7e:	823ff0ef          	jal	ra,25a0 <GPIO_Init>
    2d82:	6c91                	lui	s9,0x4
    2d84:	180c                	addi	a1,sp,48
    2d86:	80040513          	addi	a0,s0,-2048
    2d8a:	dc52                	sw	s4,56(sp)
    2d8c:	03911823          	sh	s9,48(sp)
    2d90:	811ff0ef          	jal	ra,25a0 <GPIO_Init>
    2d94:	7c61                	lui	s8,0xffff8
    2d96:	180c                	addi	a1,sp,48
    2d98:	80040513          	addi	a0,s0,-2048
    2d9c:	dc26                	sw	s1,56(sp)
    2d9e:	03811823          	sh	s8,48(sp)
    2da2:	ffeff0ef          	jal	ra,25a0 <GPIO_Init>
    2da6:	180c                	addi	a1,sp,48
    2da8:	c0040513          	addi	a0,s0,-1024
    2dac:	dc4a                	sw	s2,56(sp)
    2dae:	03711823          	sh	s7,48(sp)
    2db2:	feeff0ef          	jal	ra,25a0 <GPIO_Init>
    2db6:	4e72                	lw	t3,28(sp)
    2db8:	180c                	addi	a1,sp,48
    2dba:	c0040513          	addi	a0,s0,-1024
    2dbe:	03c11823          	sh	t3,48(sp)
    2dc2:	dc52                	sw	s4,56(sp)
    2dc4:	fdcff0ef          	jal	ra,25a0 <GPIO_Init>
    2dc8:	180c                	addi	a1,sp,48
    2dca:	c0040513          	addi	a0,s0,-1024
    2dce:	dc4a                	sw	s2,56(sp)
    2dd0:	03411823          	sh	s4,48(sp)
    2dd4:	fccff0ef          	jal	ra,25a0 <GPIO_Init>
    2dd8:	4362                	lw	t1,24(sp)
    2dda:	180c                	addi	a1,sp,48
    2ddc:	c0040513          	addi	a0,s0,-1024
    2de0:	02611823          	sh	t1,48(sp)
    2de4:	dc52                	sw	s4,56(sp)
    2de6:	fbaff0ef          	jal	ra,25a0 <GPIO_Init>
    2dea:	180c                	addi	a1,sp,48
    2dec:	c0040513          	addi	a0,s0,-1024
    2df0:	dc4a                	sw	s2,56(sp)
    2df2:	03311823          	sh	s3,48(sp)
    2df6:	faaff0ef          	jal	ra,25a0 <GPIO_Init>
    2dfa:	48d2                	lw	a7,20(sp)
    2dfc:	180c                	addi	a1,sp,48
    2dfe:	c0040513          	addi	a0,s0,-1024
    2e02:	03111823          	sh	a7,48(sp)
    2e06:	dc26                	sw	s1,56(sp)
    2e08:	f98ff0ef          	jal	ra,25a0 <GPIO_Init>
    2e0c:	4842                	lw	a6,16(sp)
    2e0e:	180c                	addi	a1,sp,48
    2e10:	c0040513          	addi	a0,s0,-1024
    2e14:	03011823          	sh	a6,48(sp)
    2e18:	dc26                	sw	s1,56(sp)
    2e1a:	f86ff0ef          	jal	ra,25a0 <GPIO_Init>
    2e1e:	4632                	lw	a2,12(sp)
    2e20:	180c                	addi	a1,sp,48
    2e22:	c0040513          	addi	a0,s0,-1024
    2e26:	02c11823          	sh	a2,48(sp)
    2e2a:	dc26                	sw	s1,56(sp)
    2e2c:	f74ff0ef          	jal	ra,25a0 <GPIO_Init>
    2e30:	46a2                	lw	a3,8(sp)
    2e32:	180c                	addi	a1,sp,48
    2e34:	c0040513          	addi	a0,s0,-1024
    2e38:	02d11823          	sh	a3,48(sp)
    2e3c:	dc26                	sw	s1,56(sp)
    2e3e:	f62ff0ef          	jal	ra,25a0 <GPIO_Init>
    2e42:	4712                	lw	a4,4(sp)
    2e44:	180c                	addi	a1,sp,48
    2e46:	c0040513          	addi	a0,s0,-1024
    2e4a:	02e11823          	sh	a4,48(sp)
    2e4e:	dc4e                	sw	s3,56(sp)
    2e50:	f50ff0ef          	jal	ra,25a0 <GPIO_Init>
    2e54:	4782                	lw	a5,0(sp)
    2e56:	180c                	addi	a1,sp,48
    2e58:	c0040513          	addi	a0,s0,-1024
    2e5c:	02f11823          	sh	a5,48(sp)
    2e60:	dc26                	sw	s1,56(sp)
    2e62:	f3eff0ef          	jal	ra,25a0 <GPIO_Init>
    2e66:	180c                	addi	a1,sp,48
    2e68:	c0040513          	addi	a0,s0,-1024
    2e6c:	dc26                	sw	s1,56(sp)
    2e6e:	03611823          	sh	s6,48(sp)
    2e72:	f2eff0ef          	jal	ra,25a0 <GPIO_Init>
    2e76:	180c                	addi	a1,sp,48
    2e78:	c0040513          	addi	a0,s0,-1024
    2e7c:	dc26                	sw	s1,56(sp)
    2e7e:	03511823          	sh	s5,48(sp)
    2e82:	f1eff0ef          	jal	ra,25a0 <GPIO_Init>
    2e86:	180c                	addi	a1,sp,48
    2e88:	c0040513          	addi	a0,s0,-1024
    2e8c:	dc26                	sw	s1,56(sp)
    2e8e:	03a11823          	sh	s10,48(sp)
    2e92:	f0eff0ef          	jal	ra,25a0 <GPIO_Init>
    2e96:	180c                	addi	a1,sp,48
    2e98:	c0040513          	addi	a0,s0,-1024
    2e9c:	dc26                	sw	s1,56(sp)
    2e9e:	03911823          	sh	s9,48(sp)
    2ea2:	efeff0ef          	jal	ra,25a0 <GPIO_Init>
    2ea6:	180c                	addi	a1,sp,48
    2ea8:	c0040513          	addi	a0,s0,-1024
    2eac:	dc26                	sw	s1,56(sp)
    2eae:	03811823          	sh	s8,48(sp)
    2eb2:	eeeff0ef          	jal	ra,25a0 <GPIO_Init>
    2eb6:	180c                	addi	a1,sp,48
    2eb8:	40011537          	lui	a0,0x40011
    2ebc:	dc4e                	sw	s3,56(sp)
    2ebe:	03a11823          	sh	s10,48(sp)
    2ec2:	edeff0ef          	jal	ra,25a0 <GPIO_Init>
    2ec6:	180c                	addi	a1,sp,48
    2ec8:	40011537          	lui	a0,0x40011
    2ecc:	dc4e                	sw	s3,56(sp)
    2ece:	03911823          	sh	s9,48(sp)
    2ed2:	eceff0ef          	jal	ra,25a0 <GPIO_Init>
    2ed6:	180c                	addi	a1,sp,48
    2ed8:	40011537          	lui	a0,0x40011
    2edc:	dc4e                	sw	s3,56(sp)
    2ede:	03811823          	sh	s8,48(sp)
    2ee2:	ebeff0ef          	jal	ra,25a0 <GPIO_Init>
    2ee6:	010407b7          	lui	a5,0x1040
    2eea:	c6be                	sw	a5,76(sp)
    2eec:	020007b7          	lui	a5,0x2000
    2ef0:	cabe                	sw	a5,84(sp)
    2ef2:	02000793          	li	a5,32
    2ef6:	ccbe                	sw	a5,88(sp)
    2ef8:	00ec                	addi	a1,sp,76
    2efa:	479d                	li	a5,7
    2efc:	40013537          	lui	a0,0x40013
    2f00:	04f11e23          	sh	a5,92(sp)
    2f04:	c882                	sw	zero,80(sp)
    2f06:	999ff0ef          	jal	ra,289e <SPI_Init>
    2f0a:	6591                	lui	a1,0x4
    2f0c:	40011537          	lui	a0,0x40011
    2f10:	f90ff0ef          	jal	ra,26a0 <GPIO_SetBits>
    2f14:	6589                	lui	a1,0x2
    2f16:	40011537          	lui	a0,0x40011
    2f1a:	f86ff0ef          	jal	ra,26a0 <GPIO_SetBits>
    2f1e:	4585                	li	a1,1
    2f20:	40013537          	lui	a0,0x40013
    2f24:	9d5ff0ef          	jal	ra,28f8 <SPI_Cmd>
    2f28:	67f1                	lui	a5,0x1c
    2f2a:	20078793          	addi	a5,a5,512 # 1c200 <_data_lma+0x13abc>
    2f2e:	40005437          	lui	s0,0x40005
    2f32:	c482                	sw	zero,72(sp)
    2f34:	de3e                	sw	a5,60(sp)
    2f36:	30000793          	li	a5,768
    2f3a:	c282                	sw	zero,68(sp)
    2f3c:	04f11423          	sh	a5,72(sp)
    2f40:	186c                	addi	a1,sp,60
    2f42:	47b1                	li	a5,12
    2f44:	c0040513          	addi	a0,s0,-1024 # 40004c00 <__freertos_irq_stack_top+0x1ffffc00>
    2f48:	04f11323          	sh	a5,70(sp)
    2f4c:	c082                	sw	zero,64(sp)
    2f4e:	9c9ff0ef          	jal	ra,2916 <USART_Init>
    2f52:	4605                	li	a2,1
    2f54:	52500593          	li	a1,1317
    2f58:	c0040513          	addi	a0,s0,-1024
    2f5c:	aadff0ef          	jal	ra,2a08 <USART_ITConfig>
    2f60:	13d00793          	li	a5,317
    2f64:	02011523          	sh	zero,42(sp)
    2f68:	1028                	addi	a0,sp,40
    2f6a:	02f11423          	sh	a5,40(sp)
    2f6e:	03b10523          	sb	s11,42(sp)
    2f72:	d65e                	sw	s7,44(sp)
    2f74:	f4eff0ef          	jal	ra,26c2 <NVIC_Init>
    2f78:	c0040513          	addi	a0,s0,-1024
    2f7c:	4585                	li	a1,1
    2f7e:	a6fff0ef          	jal	ra,29ec <USART_Cmd>
    2f82:	4501                	li	a0,0
    2f84:	6125                	addi	sp,sp,96
    2f86:	da4fd06f          	j	52a <__riscv_restore_12>

00002f8a <SystemInit>:
    2f8a:	400217b7          	lui	a5,0x40021
    2f8e:	4398                	lw	a4,0(a5)
    2f90:	f8ff06b7          	lui	a3,0xf8ff0
    2f94:	1141                	addi	sp,sp,-16
    2f96:	00176713          	ori	a4,a4,1
    2f9a:	c398                	sw	a4,0(a5)
    2f9c:	43d8                	lw	a4,4(a5)
    2f9e:	00020637          	lui	a2,0x20
    2fa2:	8f75                	and	a4,a4,a3
    2fa4:	c3d8                	sw	a4,4(a5)
    2fa6:	4398                	lw	a4,0(a5)
    2fa8:	fef706b7          	lui	a3,0xfef70
    2fac:	16fd                	addi	a3,a3,-1
    2fae:	8f75                	and	a4,a4,a3
    2fb0:	c398                	sw	a4,0(a5)
    2fb2:	4398                	lw	a4,0(a5)
    2fb4:	fffc06b7          	lui	a3,0xfffc0
    2fb8:	16fd                	addi	a3,a3,-1
    2fba:	8f75                	and	a4,a4,a3
    2fbc:	c398                	sw	a4,0(a5)
    2fbe:	43d8                	lw	a4,4(a5)
    2fc0:	ff8106b7          	lui	a3,0xff810
    2fc4:	16fd                	addi	a3,a3,-1
    2fc6:	8f75                	and	a4,a4,a3
    2fc8:	c3d8                	sw	a4,4(a5)
    2fca:	009f0737          	lui	a4,0x9f0
    2fce:	c798                	sw	a4,8(a5)
    2fd0:	c402                	sw	zero,8(sp)
    2fd2:	c602                	sw	zero,12(sp)
    2fd4:	4398                	lw	a4,0(a5)
    2fd6:	66c1                	lui	a3,0x10
    2fd8:	8f55                	or	a4,a4,a3
    2fda:	c398                	sw	a4,0(a5)
    2fdc:	400216b7          	lui	a3,0x40021
    2fe0:	6705                	lui	a4,0x1
    2fe2:	429c                	lw	a5,0(a3)
    2fe4:	8ff1                	and	a5,a5,a2
    2fe6:	c63e                	sw	a5,12(sp)
    2fe8:	47a2                	lw	a5,8(sp)
    2fea:	0785                	addi	a5,a5,1
    2fec:	c43e                	sw	a5,8(sp)
    2fee:	47b2                	lw	a5,12(sp)
    2ff0:	e781                	bnez	a5,2ff8 <SystemInit+0x6e>
    2ff2:	47a2                	lw	a5,8(sp)
    2ff4:	fee797e3          	bne	a5,a4,2fe2 <SystemInit+0x58>
    2ff8:	400217b7          	lui	a5,0x40021
    2ffc:	439c                	lw	a5,0(a5)
    2ffe:	00e79713          	slli	a4,a5,0xe
    3002:	06075563          	bgez	a4,306c <SystemInit+0xe2>
    3006:	4785                	li	a5,1
    3008:	c63e                	sw	a5,12(sp)
    300a:	4732                	lw	a4,12(sp)
    300c:	4785                	li	a5,1
    300e:	04f71d63          	bne	a4,a5,3068 <SystemInit+0xde>
    3012:	400217b7          	lui	a5,0x40021
    3016:	43d8                	lw	a4,4(a5)
    3018:	ffc106b7          	lui	a3,0xffc10
    301c:	16fd                	addi	a3,a3,-1
    301e:	c3d8                	sw	a4,4(a5)
    3020:	43d8                	lw	a4,4(a5)
    3022:	c3d8                	sw	a4,4(a5)
    3024:	43d8                	lw	a4,4(a5)
    3026:	c3d8                	sw	a4,4(a5)
    3028:	43d8                	lw	a4,4(a5)
    302a:	8f75                	and	a4,a4,a3
    302c:	c3d8                	sw	a4,4(a5)
    302e:	43d8                	lw	a4,4(a5)
    3030:	003d06b7          	lui	a3,0x3d0
    3034:	8f55                	or	a4,a4,a3
    3036:	c3d8                	sw	a4,4(a5)
    3038:	4398                	lw	a4,0(a5)
    303a:	010006b7          	lui	a3,0x1000
    303e:	8f55                	or	a4,a4,a3
    3040:	c398                	sw	a4,0(a5)
    3042:	4398                	lw	a4,0(a5)
    3044:	00671693          	slli	a3,a4,0x6
    3048:	fe06dde3          	bgez	a3,3042 <SystemInit+0xb8>
    304c:	43d8                	lw	a4,4(a5)
    304e:	400216b7          	lui	a3,0x40021
    3052:	9b71                	andi	a4,a4,-4
    3054:	c3d8                	sw	a4,4(a5)
    3056:	43d8                	lw	a4,4(a5)
    3058:	00276713          	ori	a4,a4,2
    305c:	c3d8                	sw	a4,4(a5)
    305e:	4721                	li	a4,8
    3060:	42dc                	lw	a5,4(a3)
    3062:	8bb1                	andi	a5,a5,12
    3064:	fee79ee3          	bne	a5,a4,3060 <SystemInit+0xd6>
    3068:	0141                	addi	sp,sp,16
    306a:	8082                	ret
    306c:	c602                	sw	zero,12(sp)
    306e:	bf71                	j	300a <SystemInit+0x80>

00003070 <SystemCoreClockUpdate>:
    3070:	400216b7          	lui	a3,0x40021
    3074:	42dc                	lw	a5,4(a3)
    3076:	4611                	li	a2,4
    3078:	8bb1                	andi	a5,a5,12
    307a:	81018713          	addi	a4,gp,-2032 # 20000200 <SystemCoreClock>
    307e:	00c78563          	beq	a5,a2,3088 <SystemCoreClockUpdate+0x18>
    3082:	4621                	li	a2,8
    3084:	02c78963          	beq	a5,a2,30b6 <SystemCoreClockUpdate+0x46>
    3088:	007a17b7          	lui	a5,0x7a1
    308c:	20078793          	addi	a5,a5,512 # 7a1200 <_data_lma+0x798abc>
    3090:	c31c                	sw	a5,0(a4)
    3092:	400217b7          	lui	a5,0x40021
    3096:	43dc                	lw	a5,4(a5)
    3098:	8391                	srli	a5,a5,0x4
    309a:	00f7f693          	andi	a3,a5,15
    309e:	200007b7          	lui	a5,0x20000
    30a2:	01078793          	addi	a5,a5,16 # 20000010 <AHBPrescTable>
    30a6:	97b6                	add	a5,a5,a3
    30a8:	0007c683          	lbu	a3,0(a5)
    30ac:	431c                	lw	a5,0(a4)
    30ae:	00d7d7b3          	srl	a5,a5,a3
    30b2:	c31c                	sw	a5,0(a4)
    30b4:	8082                	ret
    30b6:	42dc                	lw	a5,4(a3)
    30b8:	42d4                	lw	a3,4(a3)
    30ba:	6641                	lui	a2,0x10
    30bc:	83c9                	srli	a5,a5,0x12
    30be:	8bbd                	andi	a5,a5,15
    30c0:	8ef1                	and	a3,a3,a2
    30c2:	0789                	addi	a5,a5,2
    30c4:	4645                	li	a2,17
    30c6:	00c79363          	bne	a5,a2,30cc <SystemCoreClockUpdate+0x5c>
    30ca:	47c9                	li	a5,18
    30cc:	ee81                	bnez	a3,30e4 <SystemCoreClockUpdate+0x74>
    30ce:	400246b7          	lui	a3,0x40024
    30d2:	8006a683          	lw	a3,-2048(a3) # 40023800 <__freertos_irq_stack_top+0x2001e800>
    30d6:	8ac1                	andi	a3,a3,16
    30d8:	ce89                	beqz	a3,30f2 <SystemCoreClockUpdate+0x82>
    30da:	007a16b7          	lui	a3,0x7a1
    30de:	20068693          	addi	a3,a3,512 # 7a1200 <_data_lma+0x798abc>
    30e2:	a821                	j	30fa <SystemCoreClockUpdate+0x8a>
    30e4:	400216b7          	lui	a3,0x40021
    30e8:	42d4                	lw	a3,4(a3)
    30ea:	00e69613          	slli	a2,a3,0xe
    30ee:	fe0656e3          	bgez	a2,30da <SystemCoreClockUpdate+0x6a>
    30f2:	003d16b7          	lui	a3,0x3d1
    30f6:	90068693          	addi	a3,a3,-1792 # 3d0900 <_data_lma+0x3c81bc>
    30fa:	02d787b3          	mul	a5,a5,a3
    30fe:	bf49                	j	3090 <SystemCoreClockUpdate+0x20>

00003100 <HAL_WRAPPER_SetAppCommRecCallBack>:
    3100:	c1efd2ef          	jal	t0,51e <__riscv_save_0>
    3104:	b10ff0ef          	jal	ra,2414 <MCAL_WRAPPER_SetUART4RecCallBack>
    3108:	4501                	li	a0,0
    310a:	c38fd06f          	j	542 <__riscv_restore_0>

0000310e <HAL_WRAPPER_GetCommMessage>:
    310e:	c10fd2ef          	jal	t0,51e <__riscv_save_0>
    3112:	4585                	li	a1,1
    3114:	b4cff0ef          	jal	ra,2460 <MCAL_WRAPPER_ReceiveDataThroughUART4>
    3118:	4501                	li	a0,0
    311a:	c28fd06f          	j	542 <__riscv_restore_0>

0000311e <HAL_WRAPPER_SendCommMessage>:
    311e:	c00fd2ef          	jal	t0,51e <__riscv_save_0>
    3122:	1141                	addi	sp,sp,-16
    3124:	00a107a3          	sb	a0,15(sp)
    3128:	4585                	li	a1,1
    312a:	00f10513          	addi	a0,sp,15
    312e:	af8ff0ef          	jal	ra,2426 <MCAL_WRAPPER_SendDataThroughUART4>
    3132:	4501                	li	a0,0
    3134:	0141                	addi	sp,sp,16
    3136:	c0cfd06f          	j	542 <__riscv_restore_0>

0000313a <HAL_Config_ConfigAllHW>:
    313a:	4501                	li	a0,0
    313c:	8082                	ret

0000313e <NMI_Handler>:
    313e:	a001                	j	313e <NMI_Handler>

00003140 <HardFault_Handler>:
    3140:	a001                	j	3140 <HardFault_Handler>

00003142 <Task_RCComm>:
    3142:	bdcfd2ef          	jal	t0,51e <__riscv_save_0>
    3146:	0afdc7b7          	lui	a5,0xafdc
    314a:	1141                	addi	sp,sp,-16
    314c:	15578793          	addi	a5,a5,341 # afdc155 <_data_lma+0xafd3a11>
    3150:	c202                	sw	zero,4(sp)
    3152:	c03e                	sw	a5,0(sp)
    3154:	03400793          	li	a5,52
    3158:	00f10223          	sb	a5,4(sp)
    315c:	6409                	lui	s0,0x2
    315e:	4785                	li	a5,1
    3160:	c402                	sw	zero,8(sp)
    3162:	00011623          	sh	zero,12(sp)
    3166:	00f10323          	sb	a5,6(sp)
    316a:	20000937          	lui	s2,0x20000
    316e:	200004b7          	lui	s1,0x20000
    3172:	71040413          	addi	s0,s0,1808 # 2710 <NVIC_Init+0x4e>
    3176:	29492603          	lw	a2,660(s2) # 20000294 <queue_AppCommToDrone_Handle_t>
    317a:	858a                	mv	a1,sp
    317c:	3e800513          	li	a0,1000
    3180:	cc6fd0ef          	jal	ra,646 <SERVICE_RTOS_AppendToBlockingQueue>
    3184:	2a44a503          	lw	a0,676(s1) # 200002a4 <task_DroneComm_Handle_t>
    3188:	4581                	li	a1,0
    318a:	d4afd0ef          	jal	ra,6d4 <SERVICE_RTOS_Notify>
    318e:	8522                	mv	a0,s0
    3190:	d16fd0ef          	jal	ra,6a6 <SERVICE_RTOS_BlockFor>
    3194:	b7cd                	j	3176 <Task_RCComm+0x34>

00003196 <Task_TakeAction>:
    3196:	b88fd2ef          	jal	t0,51e <__riscv_save_0>
    319a:	200037b7          	lui	a5,0x20003
    319e:	20003737          	lui	a4,0x20003
    31a2:	41078793          	addi	a5,a5,1040 # 20003410 <global_DroneCommMsg_t>
    31a6:	42070713          	addi	a4,a4,1056 # 20003420 <global_MsgToRec_t>
    31aa:	c3d8                	sw	a4,4(a5)
    31ac:	4739                	li	a4,14
    31ae:	00e79523          	sh	a4,10(a5)
    31b2:	00078623          	sb	zero,12(a5)
    31b6:	dd5ff0ef          	jal	ra,2f8a <SystemInit>
    31ba:	eb7ff0ef          	jal	ra,3070 <SystemCoreClockUpdate>
    31be:	4509                	li	a0,2
    31c0:	cf8ff0ef          	jal	ra,26b8 <NVIC_PriorityGroupConfig>
    31c4:	8edff0ef          	jal	ra,2ab0 <Delay_Init>
    31c8:	00003537          	lui	a0,0x3
    31cc:	26850513          	addi	a0,a0,616 # 3268 <UARTReceivedISR>
    31d0:	3f05                	jal	3100 <HAL_WRAPPER_SetAppCommRecCallBack>
    31d2:	971ff0ef          	jal	ra,2b42 <MCAL_Config_ConfigAllPins>
    31d6:	6409                	lui	s0,0x2
    31d8:	378d                	jal	313a <HAL_Config_ConfigAllHW>
    31da:	71040413          	addi	s0,s0,1808 # 2710 <NVIC_Init+0x4e>
    31de:	8522                	mv	a0,s0
    31e0:	cd4fd0ef          	jal	ra,6b4 <SERVICE_RTOS_WaitForNotification>
    31e4:	bfed                	j	31de <Task_TakeAction+0x48>

000031e6 <Task_DroneComm>:
    31e6:	b1efd2ef          	jal	t0,504 <__riscv_save_4>
    31ea:	1101                	addi	sp,sp,-32
    31ec:	20003437          	lui	s0,0x20003
    31f0:	41040793          	addi	a5,s0,1040 # 20003410 <global_DroneCommMsg_t>
    31f4:	01010913          	addi	s2,sp,16
    31f8:	4739                	li	a4,14
    31fa:	c802                	sw	zero,16(sp)
    31fc:	ca02                	sw	zero,20(sp)
    31fe:	cc02                	sw	zero,24(sp)
    3200:	00011e23          	sh	zero,28(sp)
    3204:	000107a3          	sb	zero,15(sp)
    3208:	0127a023          	sw	s2,0(a5)
    320c:	00e79423          	sh	a4,8(a5)
    3210:	41040413          	addi	s0,s0,1040
    3214:	200009b7          	lui	s3,0x20000
    3218:	3e800513          	li	a0,1000
    321c:	c98fd0ef          	jal	ra,6b4 <SERVICE_RTOS_WaitForNotification>
    3220:	2949a603          	lw	a2,660(s3) # 20000294 <queue_AppCommToDrone_Handle_t>
    3224:	00f10693          	addi	a3,sp,15
    3228:	85ca                	mv	a1,s2
    322a:	4501                	li	a0,0
    322c:	c44fd0ef          	jal	ra,670 <SERVICE_RTOS_ReadFromBlockingQueue>
    3230:	29498a13          	addi	s4,s3,660
    3234:	00f14783          	lbu	a5,15(sp)
    3238:	d3e5                	beqz	a5,3218 <Task_DroneComm+0x32>
    323a:	fd79                	bnez	a0,3218 <Task_DroneComm+0x32>
    323c:	4481                	li	s1,0
    323e:	a801                	j	324e <Task_DroneComm+0x68>
    3240:	401c                	lw	a5,0(s0)
    3242:	97a6                	add	a5,a5,s1
    3244:	0007c503          	lbu	a0,0(a5)
    3248:	0485                	addi	s1,s1,1
    324a:	ed5ff0ef          	jal	ra,311e <HAL_WRAPPER_SendCommMessage>
    324e:	00845783          	lhu	a5,8(s0)
    3252:	fef4e7e3          	bltu	s1,a5,3240 <Task_DroneComm+0x5a>
    3256:	000a2603          	lw	a2,0(s4)
    325a:	00f10693          	addi	a3,sp,15
    325e:	85ca                	mv	a1,s2
    3260:	4501                	li	a0,0
    3262:	c0efd0ef          	jal	ra,670 <SERVICE_RTOS_ReadFromBlockingQueue>
    3266:	b7f9                	j	3234 <Task_DroneComm+0x4e>

00003268 <UARTReceivedISR>:
    3268:	ab6fd2ef          	jal	t0,51e <__riscv_save_0>
    326c:	20003437          	lui	s0,0x20003
    3270:	41040413          	addi	s0,s0,1040 # 20003410 <global_DroneCommMsg_t>
    3274:	00c44783          	lbu	a5,12(s0)
    3278:	0ff7f793          	andi	a5,a5,255
    327c:	ef8d                	bnez	a5,32b6 <UARTReceivedISR+0x4e>
    327e:	20000537          	lui	a0,0x20000
    3282:	29250493          	addi	s1,a0,658 # 20000292 <local_u8MsgType.4877>
    3286:	29250513          	addi	a0,a0,658
    328a:	e85ff0ef          	jal	ra,310e <HAL_WRAPPER_GetCommMessage>
    328e:	0004c703          	lbu	a4,0(s1)
    3292:	0aa00793          	li	a5,170
    3296:	00f71e63          	bne	a4,a5,32b2 <UARTReceivedISR+0x4a>
    329a:	4785                	li	a5,1
    329c:	20000737          	lui	a4,0x20000
    32a0:	28f71823          	sh	a5,656(a4) # 20000290 <local_u16CurrentItem.4878>
    32a4:	00f40623          	sb	a5,12(s0)
    32a8:	405c                	lw	a5,4(s0)
    32aa:	faa00713          	li	a4,-86
    32ae:	00e78023          	sb	a4,0(a5)
    32b2:	a90fd06f          	j	542 <__riscv_restore_0>
    32b6:	200004b7          	lui	s1,0x20000
    32ba:	29048493          	addi	s1,s1,656 # 20000290 <local_u16CurrentItem.4878>
    32be:	0004d783          	lhu	a5,0(s1)
    32c2:	4048                	lw	a0,4(s0)
    32c4:	953e                	add	a0,a0,a5
    32c6:	e49ff0ef          	jal	ra,310e <HAL_WRAPPER_GetCommMessage>
    32ca:	0004d783          	lhu	a5,0(s1)
    32ce:	00a45703          	lhu	a4,10(s0)
    32d2:	0785                	addi	a5,a5,1
    32d4:	07c2                	slli	a5,a5,0x10
    32d6:	83c1                	srli	a5,a5,0x10
    32d8:	00f49023          	sh	a5,0(s1)
    32dc:	fcf71be3          	bne	a4,a5,32b2 <UARTReceivedISR+0x4a>
    32e0:	00040623          	sb	zero,12(s0)
    32e4:	b7f9                	j	32b2 <UARTReceivedISR+0x4a>

000032e6 <main>:
    32e6:	a38fd2ef          	jal	t0,51e <__riscv_save_0>
    32ea:	20000637          	lui	a2,0x20000
    32ee:	29c60613          	addi	a2,a2,668 # 2000029c <queue_RawRCData_Handle_t>
    32f2:	45b9                	li	a1,14
    32f4:	4529                	li	a0,10
    32f6:	b2efd0ef          	jal	ra,624 <SERVICE_RTOS_CreateBlockingQueue>
    32fa:	20000637          	lui	a2,0x20000
    32fe:	2a060613          	addi	a2,a2,672 # 200002a0 <queue_TakeAction_Handle_t>
    3302:	4585                	li	a1,1
    3304:	4529                	li	a0,10
    3306:	b1efd0ef          	jal	ra,624 <SERVICE_RTOS_CreateBlockingQueue>
    330a:	20000637          	lui	a2,0x20000
    330e:	29460613          	addi	a2,a2,660 # 20000294 <queue_AppCommToDrone_Handle_t>
    3312:	45b9                	li	a1,14
    3314:	4529                	li	a0,10
    3316:	b0efd0ef          	jal	ra,624 <SERVICE_RTOS_CreateBlockingQueue>
    331a:	20000637          	lui	a2,0x20000
    331e:	29860613          	addi	a2,a2,664 # 20000298 <queue_DroneCommToApp_Handle_t>
    3322:	45b9                	li	a1,14
    3324:	4529                	li	a0,10
    3326:	afefd0ef          	jal	ra,624 <SERVICE_RTOS_CreateBlockingQueue>
    332a:	20000737          	lui	a4,0x20000
    332e:	000085b7          	lui	a1,0x8
    3332:	00003537          	lui	a0,0x3
    3336:	2a870713          	addi	a4,a4,680 # 200002a8 <task_RCComm_Handle_t>
    333a:	468d                	li	a3,3
    333c:	10000613          	li	a2,256
    3340:	25458593          	addi	a1,a1,596 # 8254 <_read+0x158>
    3344:	14250513          	addi	a0,a0,322 # 3142 <Task_RCComm>
    3348:	aaefd0ef          	jal	ra,5f6 <SERVICE_RTOS_TaskCreate>
    334c:	20000737          	lui	a4,0x20000
    3350:	000085b7          	lui	a1,0x8
    3354:	00003537          	lui	a0,0x3
    3358:	2ac70713          	addi	a4,a4,684 # 200002ac <task_TakeAction_Handle_t>
    335c:	4691                	li	a3,4
    335e:	10000613          	li	a2,256
    3362:	26858593          	addi	a1,a1,616 # 8268 <_read+0x16c>
    3366:	19650513          	addi	a0,a0,406 # 3196 <Task_TakeAction>
    336a:	a8cfd0ef          	jal	ra,5f6 <SERVICE_RTOS_TaskCreate>
    336e:	20000737          	lui	a4,0x20000
    3372:	000085b7          	lui	a1,0x8
    3376:	00003537          	lui	a0,0x3
    337a:	2a470713          	addi	a4,a4,676 # 200002a4 <task_DroneComm_Handle_t>
    337e:	4689                	li	a3,2
    3380:	10000613          	li	a2,256
    3384:	27458593          	addi	a1,a1,628 # 8274 <_read+0x178>
    3388:	1e650513          	addi	a0,a0,486 # 31e6 <Task_DroneComm>
    338c:	a6afd0ef          	jal	ra,5f6 <SERVICE_RTOS_TaskCreate>
    3390:	a88fd0ef          	jal	ra,618 <SERVICE_RTOS_StartSchedular>
    3394:	00008437          	lui	s0,0x8
    3398:	28840513          	addi	a0,s0,648 # 8288 <_read+0x18c>
    339c:	3d3000ef          	jal	ra,3f6e <puts>
    33a0:	bfe5                	j	3398 <main+0xb2>

000033a2 <memcpy>:
    33a2:	00a5c7b3          	xor	a5,a1,a0
    33a6:	8b8d                	andi	a5,a5,3
    33a8:	00c50733          	add	a4,a0,a2
    33ac:	e781                	bnez	a5,33b4 <memcpy+0x12>
    33ae:	478d                	li	a5,3
    33b0:	00c7ee63          	bltu	a5,a2,33cc <memcpy+0x2a>
    33b4:	87aa                	mv	a5,a0
    33b6:	0ae57063          	bgeu	a0,a4,3456 <memcpy+0xb4>
    33ba:	0005c683          	lbu	a3,0(a1)
    33be:	0785                	addi	a5,a5,1
    33c0:	0585                	addi	a1,a1,1
    33c2:	fed78fa3          	sb	a3,-1(a5)
    33c6:	fee7eae3          	bltu	a5,a4,33ba <memcpy+0x18>
    33ca:	8082                	ret
    33cc:	00357693          	andi	a3,a0,3
    33d0:	87aa                	mv	a5,a0
    33d2:	ca91                	beqz	a3,33e6 <memcpy+0x44>
    33d4:	0005c683          	lbu	a3,0(a1)
    33d8:	0785                	addi	a5,a5,1
    33da:	0585                	addi	a1,a1,1
    33dc:	fed78fa3          	sb	a3,-1(a5)
    33e0:	0037f693          	andi	a3,a5,3
    33e4:	b7fd                	j	33d2 <memcpy+0x30>
    33e6:	ffc77693          	andi	a3,a4,-4
    33ea:	fe068613          	addi	a2,a3,-32
    33ee:	06c7f063          	bgeu	a5,a2,344e <memcpy+0xac>
    33f2:	0005a383          	lw	t2,0(a1)
    33f6:	0045a283          	lw	t0,4(a1)
    33fa:	0085af83          	lw	t6,8(a1)
    33fe:	00c5af03          	lw	t5,12(a1)
    3402:	0105ae83          	lw	t4,16(a1)
    3406:	0145ae03          	lw	t3,20(a1)
    340a:	0185a303          	lw	t1,24(a1)
    340e:	01c5a883          	lw	a7,28(a1)
    3412:	02458593          	addi	a1,a1,36
    3416:	0077a023          	sw	t2,0(a5)
    341a:	ffc5a803          	lw	a6,-4(a1)
    341e:	0057a223          	sw	t0,4(a5)
    3422:	01f7a423          	sw	t6,8(a5)
    3426:	01e7a623          	sw	t5,12(a5)
    342a:	01d7a823          	sw	t4,16(a5)
    342e:	01c7aa23          	sw	t3,20(a5)
    3432:	0067ac23          	sw	t1,24(a5)
    3436:	0117ae23          	sw	a7,28(a5)
    343a:	02478793          	addi	a5,a5,36
    343e:	ff07ae23          	sw	a6,-4(a5)
    3442:	b775                	j	33ee <memcpy+0x4c>
    3444:	4190                	lw	a2,0(a1)
    3446:	0791                	addi	a5,a5,4
    3448:	0591                	addi	a1,a1,4
    344a:	fec7ae23          	sw	a2,-4(a5)
    344e:	fed7ebe3          	bltu	a5,a3,3444 <memcpy+0xa2>
    3452:	f6e7e4e3          	bltu	a5,a4,33ba <memcpy+0x18>
    3456:	8082                	ret

00003458 <__cvt>:
    3458:	7179                	addi	sp,sp,-48
    345a:	d422                	sw	s0,40(sp)
    345c:	d04a                	sw	s2,32(sp)
    345e:	cc52                	sw	s4,24(sp)
    3460:	ca56                	sw	s5,20(sp)
    3462:	c85a                	sw	s6,16(sp)
    3464:	d606                	sw	ra,44(sp)
    3466:	d226                	sw	s1,36(sp)
    3468:	ce4e                	sw	s3,28(sp)
    346a:	8a3a                	mv	s4,a4
    346c:	8aae                	mv	s5,a1
    346e:	8432                	mv	s0,a2
    3470:	8936                	mv	s2,a3
    3472:	8b42                	mv	s6,a6
    3474:	4701                	li	a4,0
    3476:	00065863          	bgez	a2,3486 <__cvt+0x2e>
    347a:	80000737          	lui	a4,0x80000
    347e:	00c74433          	xor	s0,a4,a2
    3482:	02d00713          	li	a4,45
    3486:	00e78023          	sb	a4,0(a5)
    348a:	fdf8f493          	andi	s1,a7,-33
    348e:	04600793          	li	a5,70
    3492:	468d                	li	a3,3
    3494:	00f48863          	beq	s1,a5,34a4 <__cvt+0x4c>
    3498:	04500793          	li	a5,69
    349c:	4689                	li	a3,2
    349e:	00f49363          	bne	s1,a5,34a4 <__cvt+0x4c>
    34a2:	0905                	addi	s2,s2,1
    34a4:	87da                	mv	a5,s6
    34a6:	00c10893          	addi	a7,sp,12
    34aa:	00810813          	addi	a6,sp,8
    34ae:	874a                	mv	a4,s2
    34b0:	85d6                	mv	a1,s5
    34b2:	8622                	mv	a2,s0
    34b4:	5eb000ef          	jal	ra,429e <_dtoa_r>
    34b8:	04700793          	li	a5,71
    34bc:	89aa                	mv	s3,a0
    34be:	00f49663          	bne	s1,a5,34ca <__cvt+0x72>
    34c2:	001a7a13          	andi	s4,s4,1
    34c6:	040a0a63          	beqz	s4,351a <__cvt+0xc2>
    34ca:	04600793          	li	a5,70
    34ce:	01298a33          	add	s4,s3,s2
    34d2:	02f49763          	bne	s1,a5,3500 <__cvt+0xa8>
    34d6:	0009c703          	lbu	a4,0(s3)
    34da:	03000793          	li	a5,48
    34de:	00f71e63          	bne	a4,a5,34fa <__cvt+0xa2>
    34e2:	4601                	li	a2,0
    34e4:	4681                	li	a3,0
    34e6:	8556                	mv	a0,s5
    34e8:	85a2                	mv	a1,s0
    34ea:	203030ef          	jal	ra,6eec <__eqdf2>
    34ee:	c511                	beqz	a0,34fa <__cvt+0xa2>
    34f0:	4785                	li	a5,1
    34f2:	41278933          	sub	s2,a5,s2
    34f6:	012b2023          	sw	s2,0(s6)
    34fa:	000b2783          	lw	a5,0(s6)
    34fe:	9a3e                	add	s4,s4,a5
    3500:	4601                	li	a2,0
    3502:	4681                	li	a3,0
    3504:	8556                	mv	a0,s5
    3506:	85a2                	mv	a1,s0
    3508:	1e5030ef          	jal	ra,6eec <__eqdf2>
    350c:	e111                	bnez	a0,3510 <__cvt+0xb8>
    350e:	c652                	sw	s4,12(sp)
    3510:	03000713          	li	a4,48
    3514:	47b2                	lw	a5,12(sp)
    3516:	0347e263          	bltu	a5,s4,353a <__cvt+0xe2>
    351a:	47b2                	lw	a5,12(sp)
    351c:	5742                	lw	a4,48(sp)
    351e:	50b2                	lw	ra,44(sp)
    3520:	5422                	lw	s0,40(sp)
    3522:	413787b3          	sub	a5,a5,s3
    3526:	c31c                	sw	a5,0(a4)
    3528:	854e                	mv	a0,s3
    352a:	5492                	lw	s1,36(sp)
    352c:	5902                	lw	s2,32(sp)
    352e:	49f2                	lw	s3,28(sp)
    3530:	4a62                	lw	s4,24(sp)
    3532:	4ad2                	lw	s5,20(sp)
    3534:	4b42                	lw	s6,16(sp)
    3536:	6145                	addi	sp,sp,48
    3538:	8082                	ret
    353a:	00178693          	addi	a3,a5,1
    353e:	c636                	sw	a3,12(sp)
    3540:	00e78023          	sb	a4,0(a5)
    3544:	bfc1                	j	3514 <__cvt+0xbc>

00003546 <__exponent>:
    3546:	00c50023          	sb	a2,0(a0)
    354a:	00250713          	addi	a4,a0,2
    354e:	02b00793          	li	a5,43
    3552:	0005d663          	bgez	a1,355e <__exponent+0x18>
    3556:	40b005b3          	neg	a1,a1
    355a:	02d00793          	li	a5,45
    355e:	00f500a3          	sb	a5,1(a0)
    3562:	47a5                	li	a5,9
    3564:	04b7da63          	bge	a5,a1,35b8 <__exponent+0x72>
    3568:	1141                	addi	sp,sp,-16
    356a:	00f10793          	addi	a5,sp,15
    356e:	88be                	mv	a7,a5
    3570:	4829                	li	a6,10
    3572:	06300313          	li	t1,99
    3576:	0305e6b3          	rem	a3,a1,a6
    357a:	fff78613          	addi	a2,a5,-1
    357e:	03068693          	addi	a3,a3,48
    3582:	fed78fa3          	sb	a3,-1(a5)
    3586:	0305c6b3          	div	a3,a1,a6
    358a:	00b34d63          	blt	t1,a1,35a4 <__exponent+0x5e>
    358e:	03068693          	addi	a3,a3,48
    3592:	17f9                	addi	a5,a5,-2
    3594:	fed60fa3          	sb	a3,-1(a2)
    3598:	0117e963          	bltu	a5,a7,35aa <__exponent+0x64>
    359c:	40a70533          	sub	a0,a4,a0
    35a0:	0141                	addi	sp,sp,16
    35a2:	8082                	ret
    35a4:	87b2                	mv	a5,a2
    35a6:	85b6                	mv	a1,a3
    35a8:	b7f9                	j	3576 <__exponent+0x30>
    35aa:	0785                	addi	a5,a5,1
    35ac:	fff7c683          	lbu	a3,-1(a5)
    35b0:	0705                	addi	a4,a4,1
    35b2:	fed70fa3          	sb	a3,-1(a4) # 7fffffff <__freertos_irq_stack_top+0x5fffafff>
    35b6:	b7cd                	j	3598 <__exponent+0x52>
    35b8:	03000793          	li	a5,48
    35bc:	00450713          	addi	a4,a0,4
    35c0:	03058593          	addi	a1,a1,48
    35c4:	00f50123          	sb	a5,2(a0)
    35c8:	00b501a3          	sb	a1,3(a0)
    35cc:	40a70533          	sub	a0,a4,a0
    35d0:	8082                	ret

000035d2 <_printf_float>:
    35d2:	7119                	addi	sp,sp,-128
    35d4:	ce3a                	sw	a4,28(sp)
    35d6:	de86                	sw	ra,124(sp)
    35d8:	dca2                	sw	s0,120(sp)
    35da:	daa6                	sw	s1,116(sp)
    35dc:	842e                	mv	s0,a1
    35de:	d8ca                	sw	s2,112(sp)
    35e0:	d6ce                	sw	s3,108(sp)
    35e2:	d4d2                	sw	s4,104(sp)
    35e4:	89b6                	mv	s3,a3
    35e6:	d0da                	sw	s6,96(sp)
    35e8:	cede                	sw	s7,92(sp)
    35ea:	cce2                	sw	s8,88(sp)
    35ec:	8932                	mv	s2,a2
    35ee:	d2d6                	sw	s5,100(sp)
    35f0:	cae6                	sw	s9,84(sp)
    35f2:	c8ea                	sw	s10,80(sp)
    35f4:	c6ee                	sw	s11,76(sp)
    35f6:	84aa                	mv	s1,a0
    35f8:	49d010ef          	jal	ra,5294 <_localeconv_r>
    35fc:	00052b83          	lw	s7,0(a0)
    3600:	855e                	mv	a0,s7
    3602:	179000ef          	jal	ra,3f7a <strlen>
    3606:	00042b03          	lw	s6,0(s0)
    360a:	4772                	lw	a4,28(sp)
    360c:	dc02                	sw	zero,56(sp)
    360e:	100b7693          	andi	a3,s6,256
    3612:	8c2a                	mv	s8,a0
    3614:	01844a03          	lbu	s4,24(s0)
    3618:	431c                	lw	a5,0(a4)
    361a:	caf1                	beqz	a3,36ee <_printf_float+0x11c>
    361c:	00478693          	addi	a3,a5,4
    3620:	c314                	sw	a3,0(a4)
    3622:	439c                	lw	a5,0(a5)
    3624:	1008                	addi	a0,sp,32
    3626:	4398                	lw	a4,0(a5)
    3628:	d03a                	sw	a4,32(sp)
    362a:	43d8                	lw	a4,4(a5)
    362c:	d23a                	sw	a4,36(sp)
    362e:	4798                	lw	a4,8(a5)
    3630:	d43a                	sw	a4,40(sp)
    3632:	47dc                	lw	a5,12(a5)
    3634:	d63e                	sw	a5,44(sp)
    3636:	7f2040ef          	jal	ra,7e28 <__trunctfdf2>
    363a:	c428                	sw	a0,72(s0)
    363c:	c46c                	sw	a1,76(s0)
    363e:	04c42c83          	lw	s9,76(s0)
    3642:	00005717          	auipc	a4,0x5
    3646:	c5e70713          	addi	a4,a4,-930 # 82a0 <_read+0x1a4>
    364a:	04842a83          	lw	s5,72(s0)
    364e:	00072d03          	lw	s10,0(a4)
    3652:	00472d83          	lw	s11,4(a4)
    3656:	001c9793          	slli	a5,s9,0x1
    365a:	8385                	srli	a5,a5,0x1
    365c:	866a                	mv	a2,s10
    365e:	86ee                	mv	a3,s11
    3660:	8556                	mv	a0,s5
    3662:	85be                	mv	a1,a5
    3664:	ce3e                	sw	a5,28(sp)
    3666:	648040ef          	jal	ra,7cae <__unorddf2>
    366a:	ed41                	bnez	a0,3702 <_printf_float+0x130>
    366c:	47f2                	lw	a5,28(sp)
    366e:	866a                	mv	a2,s10
    3670:	86ee                	mv	a3,s11
    3672:	8556                	mv	a0,s5
    3674:	85be                	mv	a1,a5
    3676:	18f030ef          	jal	ra,7004 <__ledf2>
    367a:	08a05463          	blez	a0,3702 <_printf_float+0x130>
    367e:	4601                	li	a2,0
    3680:	4681                	li	a3,0
    3682:	8556                	mv	a0,s5
    3684:	85e6                	mv	a1,s9
    3686:	17f030ef          	jal	ra,7004 <__ledf2>
    368a:	00055663          	bgez	a0,3696 <_printf_float+0xc4>
    368e:	02d00793          	li	a5,45
    3692:	04f401a3          	sb	a5,67(s0)
    3696:	04700793          	li	a5,71
    369a:	00005a97          	auipc	s5,0x5
    369e:	c0ea8a93          	addi	s5,s5,-1010 # 82a8 <_read+0x1ac>
    36a2:	0147f663          	bgeu	a5,s4,36ae <_printf_float+0xdc>
    36a6:	00005a97          	auipc	s5,0x5
    36aa:	c06a8a93          	addi	s5,s5,-1018 # 82ac <_read+0x1b0>
    36ae:	ffbb7b13          	andi	s6,s6,-5
    36b2:	478d                	li	a5,3
    36b4:	01642023          	sw	s6,0(s0)
    36b8:	c81c                	sw	a5,16(s0)
    36ba:	4b01                	li	s6,0
    36bc:	874e                	mv	a4,s3
    36be:	86ca                	mv	a3,s2
    36c0:	1870                	addi	a2,sp,60
    36c2:	85a2                	mv	a1,s0
    36c4:	8526                	mv	a0,s1
    36c6:	2ec1                	jal	3a96 <_printf_common>
    36c8:	5cfd                	li	s9,-1
    36ca:	15951e63          	bne	a0,s9,3826 <_printf_float+0x254>
    36ce:	557d                	li	a0,-1
    36d0:	50f6                	lw	ra,124(sp)
    36d2:	5466                	lw	s0,120(sp)
    36d4:	54d6                	lw	s1,116(sp)
    36d6:	5946                	lw	s2,112(sp)
    36d8:	59b6                	lw	s3,108(sp)
    36da:	5a26                	lw	s4,104(sp)
    36dc:	5a96                	lw	s5,100(sp)
    36de:	5b06                	lw	s6,96(sp)
    36e0:	4bf6                	lw	s7,92(sp)
    36e2:	4c66                	lw	s8,88(sp)
    36e4:	4cd6                	lw	s9,84(sp)
    36e6:	4d46                	lw	s10,80(sp)
    36e8:	4db6                	lw	s11,76(sp)
    36ea:	6109                	addi	sp,sp,128
    36ec:	8082                	ret
    36ee:	079d                	addi	a5,a5,7
    36f0:	9be1                	andi	a5,a5,-8
    36f2:	00878693          	addi	a3,a5,8
    36f6:	c314                	sw	a3,0(a4)
    36f8:	4398                	lw	a4,0(a5)
    36fa:	43dc                	lw	a5,4(a5)
    36fc:	c438                	sw	a4,72(s0)
    36fe:	c47c                	sw	a5,76(s0)
    3700:	bf3d                	j	363e <_printf_float+0x6c>
    3702:	8656                	mv	a2,s5
    3704:	86e6                	mv	a3,s9
    3706:	8556                	mv	a0,s5
    3708:	85e6                	mv	a1,s9
    370a:	5a4040ef          	jal	ra,7cae <__unorddf2>
    370e:	cd11                	beqz	a0,372a <_printf_float+0x158>
    3710:	04700793          	li	a5,71
    3714:	00005a97          	auipc	s5,0x5
    3718:	b9ca8a93          	addi	s5,s5,-1124 # 82b0 <_read+0x1b4>
    371c:	f947f9e3          	bgeu	a5,s4,36ae <_printf_float+0xdc>
    3720:	00005a97          	auipc	s5,0x5
    3724:	b94a8a93          	addi	s5,s5,-1132 # 82b4 <_read+0x1b8>
    3728:	b759                	j	36ae <_printf_float+0xdc>
    372a:	405c                	lw	a5,4(s0)
    372c:	577d                	li	a4,-1
    372e:	0dfa7d13          	andi	s10,s4,223
    3732:	08e79563          	bne	a5,a4,37bc <_printf_float+0x1ea>
    3736:	4799                	li	a5,6
    3738:	c05c                	sw	a5,4(s0)
    373a:	4054                	lw	a3,4(s0)
    373c:	400b6713          	ori	a4,s6,1024
    3740:	183c                	addi	a5,sp,56
    3742:	85d6                	mv	a1,s5
    3744:	c03e                	sw	a5,0(sp)
    3746:	c018                	sw	a4,0(s0)
    3748:	03310793          	addi	a5,sp,51
    374c:	c202                	sw	zero,4(sp)
    374e:	88d2                	mv	a7,s4
    3750:	03410813          	addi	a6,sp,52
    3754:	8666                	mv	a2,s9
    3756:	8526                	mv	a0,s1
    3758:	d01ff0ef          	jal	ra,3458 <__cvt>
    375c:	04700793          	li	a5,71
    3760:	8aaa                	mv	s5,a0
    3762:	55d2                	lw	a1,52(sp)
    3764:	00fd1b63          	bne	s10,a5,377a <_printf_float+0x1a8>
    3768:	57f5                	li	a5,-3
    376a:	00f5c563          	blt	a1,a5,3774 <_printf_float+0x1a2>
    376e:	405c                	lw	a5,4(s0)
    3770:	08b7d863          	bge	a5,a1,3800 <_printf_float+0x22e>
    3774:	1a79                	addi	s4,s4,-2
    3776:	0ffa7a13          	andi	s4,s4,255
    377a:	06500793          	li	a5,101
    377e:	0547e663          	bltu	a5,s4,37ca <_printf_float+0x1f8>
    3782:	15fd                	addi	a1,a1,-1
    3784:	8652                	mv	a2,s4
    3786:	05040513          	addi	a0,s0,80
    378a:	da2e                	sw	a1,52(sp)
    378c:	dbbff0ef          	jal	ra,3546 <__exponent>
    3790:	5762                	lw	a4,56(sp)
    3792:	4685                	li	a3,1
    3794:	8b2a                	mv	s6,a0
    3796:	00a707b3          	add	a5,a4,a0
    379a:	c81c                	sw	a5,16(s0)
    379c:	00e6c563          	blt	a3,a4,37a6 <_printf_float+0x1d4>
    37a0:	4018                	lw	a4,0(s0)
    37a2:	8b05                	andi	a4,a4,1
    37a4:	c319                	beqz	a4,37aa <_printf_float+0x1d8>
    37a6:	0785                	addi	a5,a5,1
    37a8:	c81c                	sw	a5,16(s0)
    37aa:	03314783          	lbu	a5,51(sp)
    37ae:	f00787e3          	beqz	a5,36bc <_printf_float+0xea>
    37b2:	02d00793          	li	a5,45
    37b6:	04f401a3          	sb	a5,67(s0)
    37ba:	b709                	j	36bc <_printf_float+0xea>
    37bc:	04700713          	li	a4,71
    37c0:	f6ed1de3          	bne	s10,a4,373a <_printf_float+0x168>
    37c4:	fbbd                	bnez	a5,373a <_printf_float+0x168>
    37c6:	4785                	li	a5,1
    37c8:	bf85                	j	3738 <_printf_float+0x166>
    37ca:	06600793          	li	a5,102
    37ce:	02fa1b63          	bne	s4,a5,3804 <_printf_float+0x232>
    37d2:	405c                	lw	a5,4(s0)
    37d4:	00b05b63          	blez	a1,37ea <_printf_float+0x218>
    37d8:	c80c                	sw	a1,16(s0)
    37da:	e781                	bnez	a5,37e2 <_printf_float+0x210>
    37dc:	4018                	lw	a4,0(s0)
    37de:	8b05                	andi	a4,a4,1
    37e0:	cf09                	beqz	a4,37fa <_printf_float+0x228>
    37e2:	0785                	addi	a5,a5,1
    37e4:	97ae                	add	a5,a5,a1
    37e6:	c81c                	sw	a5,16(s0)
    37e8:	a809                	j	37fa <_printf_float+0x228>
    37ea:	e789                	bnez	a5,37f4 <_printf_float+0x222>
    37ec:	4018                	lw	a4,0(s0)
    37ee:	4685                	li	a3,1
    37f0:	8b05                	andi	a4,a4,1
    37f2:	c319                	beqz	a4,37f8 <_printf_float+0x226>
    37f4:	00278693          	addi	a3,a5,2
    37f8:	c814                	sw	a3,16(s0)
    37fa:	cc2c                	sw	a1,88(s0)
    37fc:	4b01                	li	s6,0
    37fe:	b775                	j	37aa <_printf_float+0x1d8>
    3800:	06700a13          	li	s4,103
    3804:	57e2                	lw	a5,56(sp)
    3806:	00f5c963          	blt	a1,a5,3818 <_printf_float+0x246>
    380a:	401c                	lw	a5,0(s0)
    380c:	c80c                	sw	a1,16(s0)
    380e:	8b85                	andi	a5,a5,1
    3810:	d7ed                	beqz	a5,37fa <_printf_float+0x228>
    3812:	00158793          	addi	a5,a1,1
    3816:	bfc1                	j	37e6 <_printf_float+0x214>
    3818:	4705                	li	a4,1
    381a:	00b04463          	bgtz	a1,3822 <_printf_float+0x250>
    381e:	4709                	li	a4,2
    3820:	8f0d                	sub	a4,a4,a1
    3822:	97ba                	add	a5,a5,a4
    3824:	b7c9                	j	37e6 <_printf_float+0x214>
    3826:	401c                	lw	a5,0(s0)
    3828:	4007f713          	andi	a4,a5,1024
    382c:	e315                	bnez	a4,3850 <_printf_float+0x27e>
    382e:	4814                	lw	a3,16(s0)
    3830:	8656                	mv	a2,s5
    3832:	85ca                	mv	a1,s2
    3834:	8526                	mv	a0,s1
    3836:	9982                	jalr	s3
    3838:	e9950be3          	beq	a0,s9,36ce <_printf_float+0xfc>
    383c:	401c                	lw	a5,0(s0)
    383e:	8b89                	andi	a5,a5,2
    3840:	24079663          	bnez	a5,3a8c <_printf_float+0x4ba>
    3844:	57f2                	lw	a5,60(sp)
    3846:	4448                	lw	a0,12(s0)
    3848:	e8f554e3          	bge	a0,a5,36d0 <_printf_float+0xfe>
    384c:	853e                	mv	a0,a5
    384e:	b549                	j	36d0 <_printf_float+0xfe>
    3850:	06500713          	li	a4,101
    3854:	19477b63          	bgeu	a4,s4,39ea <_printf_float+0x418>
    3858:	4428                	lw	a0,72(s0)
    385a:	446c                	lw	a1,76(s0)
    385c:	4601                	li	a2,0
    385e:	4681                	li	a3,0
    3860:	68c030ef          	jal	ra,6eec <__eqdf2>
    3864:	e939                	bnez	a0,38ba <_printf_float+0x2e8>
    3866:	4685                	li	a3,1
    3868:	00005617          	auipc	a2,0x5
    386c:	a5060613          	addi	a2,a2,-1456 # 82b8 <_read+0x1bc>
    3870:	85ca                	mv	a1,s2
    3872:	8526                	mv	a0,s1
    3874:	9982                	jalr	s3
    3876:	e5950ce3          	beq	a0,s9,36ce <_printf_float+0xfc>
    387a:	5752                	lw	a4,52(sp)
    387c:	57e2                	lw	a5,56(sp)
    387e:	00f74563          	blt	a4,a5,3888 <_printf_float+0x2b6>
    3882:	401c                	lw	a5,0(s0)
    3884:	8b85                	andi	a5,a5,1
    3886:	dbdd                	beqz	a5,383c <_printf_float+0x26a>
    3888:	86e2                	mv	a3,s8
    388a:	865e                	mv	a2,s7
    388c:	85ca                	mv	a1,s2
    388e:	8526                	mv	a0,s1
    3890:	9982                	jalr	s3
    3892:	57fd                	li	a5,-1
    3894:	e2f50de3          	beq	a0,a5,36ce <_printf_float+0xfc>
    3898:	4a01                	li	s4,0
    389a:	01a40a93          	addi	s5,s0,26
    389e:	5b7d                	li	s6,-1
    38a0:	57e2                	lw	a5,56(sp)
    38a2:	17fd                	addi	a5,a5,-1
    38a4:	f8fa5ce3          	bge	s4,a5,383c <_printf_float+0x26a>
    38a8:	4685                	li	a3,1
    38aa:	8656                	mv	a2,s5
    38ac:	85ca                	mv	a1,s2
    38ae:	8526                	mv	a0,s1
    38b0:	9982                	jalr	s3
    38b2:	e1650ee3          	beq	a0,s6,36ce <_printf_float+0xfc>
    38b6:	0a05                	addi	s4,s4,1
    38b8:	b7e5                	j	38a0 <_printf_float+0x2ce>
    38ba:	57d2                	lw	a5,52(sp)
    38bc:	06f04663          	bgtz	a5,3928 <_printf_float+0x356>
    38c0:	4685                	li	a3,1
    38c2:	00005617          	auipc	a2,0x5
    38c6:	9f660613          	addi	a2,a2,-1546 # 82b8 <_read+0x1bc>
    38ca:	85ca                	mv	a1,s2
    38cc:	8526                	mv	a0,s1
    38ce:	9982                	jalr	s3
    38d0:	df950fe3          	beq	a0,s9,36ce <_printf_float+0xfc>
    38d4:	57d2                	lw	a5,52(sp)
    38d6:	5762                	lw	a4,56(sp)
    38d8:	8fd9                	or	a5,a5,a4
    38da:	e781                	bnez	a5,38e2 <_printf_float+0x310>
    38dc:	401c                	lw	a5,0(s0)
    38de:	8b85                	andi	a5,a5,1
    38e0:	dfb1                	beqz	a5,383c <_printf_float+0x26a>
    38e2:	86e2                	mv	a3,s8
    38e4:	865e                	mv	a2,s7
    38e6:	85ca                	mv	a1,s2
    38e8:	8526                	mv	a0,s1
    38ea:	9982                	jalr	s3
    38ec:	57fd                	li	a5,-1
    38ee:	def500e3          	beq	a0,a5,36ce <_printf_float+0xfc>
    38f2:	4a01                	li	s4,0
    38f4:	01a40b13          	addi	s6,s0,26
    38f8:	5bfd                	li	s7,-1
    38fa:	57d2                	lw	a5,52(sp)
    38fc:	40f007b3          	neg	a5,a5
    3900:	00fa4b63          	blt	s4,a5,3916 <_printf_float+0x344>
    3904:	56e2                	lw	a3,56(sp)
    3906:	8656                	mv	a2,s5
    3908:	85ca                	mv	a1,s2
    390a:	8526                	mv	a0,s1
    390c:	9982                	jalr	s3
    390e:	57fd                	li	a5,-1
    3910:	f2f516e3          	bne	a0,a5,383c <_printf_float+0x26a>
    3914:	bb6d                	j	36ce <_printf_float+0xfc>
    3916:	4685                	li	a3,1
    3918:	865a                	mv	a2,s6
    391a:	85ca                	mv	a1,s2
    391c:	8526                	mv	a0,s1
    391e:	9982                	jalr	s3
    3920:	db7507e3          	beq	a0,s7,36ce <_printf_float+0xfc>
    3924:	0a05                	addi	s4,s4,1
    3926:	bfd1                	j	38fa <_printf_float+0x328>
    3928:	4c3c                	lw	a5,88(s0)
    392a:	5a62                	lw	s4,56(sp)
    392c:	0147d363          	bge	a5,s4,3932 <_printf_float+0x360>
    3930:	8a3e                	mv	s4,a5
    3932:	01405a63          	blez	s4,3946 <_printf_float+0x374>
    3936:	86d2                	mv	a3,s4
    3938:	8656                	mv	a2,s5
    393a:	85ca                	mv	a1,s2
    393c:	8526                	mv	a0,s1
    393e:	9982                	jalr	s3
    3940:	57fd                	li	a5,-1
    3942:	d8f506e3          	beq	a0,a5,36ce <_printf_float+0xfc>
    3946:	4c81                	li	s9,0
    3948:	01a40d13          	addi	s10,s0,26
    394c:	5dfd                	li	s11,-1
    394e:	a809                	j	3960 <_printf_float+0x38e>
    3950:	4685                	li	a3,1
    3952:	866a                	mv	a2,s10
    3954:	85ca                	mv	a1,s2
    3956:	8526                	mv	a0,s1
    3958:	9982                	jalr	s3
    395a:	d7b50ae3          	beq	a0,s11,36ce <_printf_float+0xfc>
    395e:	0c85                	addi	s9,s9,1
    3960:	05842b03          	lw	s6,88(s0)
    3964:	87d2                	mv	a5,s4
    3966:	000a5363          	bgez	s4,396c <_printf_float+0x39a>
    396a:	4781                	li	a5,0
    396c:	40fb07b3          	sub	a5,s6,a5
    3970:	fefcc0e3          	blt	s9,a5,3950 <_printf_float+0x37e>
    3974:	5752                	lw	a4,52(sp)
    3976:	57e2                	lw	a5,56(sp)
    3978:	02f74d63          	blt	a4,a5,39b2 <_printf_float+0x3e0>
    397c:	401c                	lw	a5,0(s0)
    397e:	8b85                	andi	a5,a5,1
    3980:	eb8d                	bnez	a5,39b2 <_printf_float+0x3e0>
    3982:	57e2                	lw	a5,56(sp)
    3984:	5752                	lw	a4,52(sp)
    3986:	40e78a33          	sub	s4,a5,a4
    398a:	00eb4463          	blt	s6,a4,3992 <_printf_float+0x3c0>
    398e:	41678a33          	sub	s4,a5,s6
    3992:	01405b63          	blez	s4,39a8 <_printf_float+0x3d6>
    3996:	86d2                	mv	a3,s4
    3998:	016a8633          	add	a2,s5,s6
    399c:	85ca                	mv	a1,s2
    399e:	8526                	mv	a0,s1
    39a0:	9982                	jalr	s3
    39a2:	57fd                	li	a5,-1
    39a4:	d2f505e3          	beq	a0,a5,36ce <_printf_float+0xfc>
    39a8:	4a81                	li	s5,0
    39aa:	01a40b13          	addi	s6,s0,26
    39ae:	5bfd                	li	s7,-1
    39b0:	a015                	j	39d4 <_printf_float+0x402>
    39b2:	86e2                	mv	a3,s8
    39b4:	865e                	mv	a2,s7
    39b6:	85ca                	mv	a1,s2
    39b8:	8526                	mv	a0,s1
    39ba:	9982                	jalr	s3
    39bc:	57fd                	li	a5,-1
    39be:	fcf512e3          	bne	a0,a5,3982 <_printf_float+0x3b0>
    39c2:	b331                	j	36ce <_printf_float+0xfc>
    39c4:	4685                	li	a3,1
    39c6:	865a                	mv	a2,s6
    39c8:	85ca                	mv	a1,s2
    39ca:	8526                	mv	a0,s1
    39cc:	9982                	jalr	s3
    39ce:	d17500e3          	beq	a0,s7,36ce <_printf_float+0xfc>
    39d2:	0a85                	addi	s5,s5,1
    39d4:	5752                	lw	a4,52(sp)
    39d6:	57e2                	lw	a5,56(sp)
    39d8:	8f99                	sub	a5,a5,a4
    39da:	8752                	mv	a4,s4
    39dc:	000a5363          	bgez	s4,39e2 <_printf_float+0x410>
    39e0:	4701                	li	a4,0
    39e2:	8f99                	sub	a5,a5,a4
    39e4:	fefac0e3          	blt	s5,a5,39c4 <_printf_float+0x3f2>
    39e8:	bd91                	j	383c <_printf_float+0x26a>
    39ea:	56e2                	lw	a3,56(sp)
    39ec:	4705                	li	a4,1
    39ee:	00d74463          	blt	a4,a3,39f6 <_printf_float+0x424>
    39f2:	8b85                	andi	a5,a5,1
    39f4:	c7b5                	beqz	a5,3a60 <_printf_float+0x48e>
    39f6:	4685                	li	a3,1
    39f8:	8656                	mv	a2,s5
    39fa:	85ca                	mv	a1,s2
    39fc:	8526                	mv	a0,s1
    39fe:	9982                	jalr	s3
    3a00:	5a7d                	li	s4,-1
    3a02:	cd4506e3          	beq	a0,s4,36ce <_printf_float+0xfc>
    3a06:	86e2                	mv	a3,s8
    3a08:	865e                	mv	a2,s7
    3a0a:	85ca                	mv	a1,s2
    3a0c:	8526                	mv	a0,s1
    3a0e:	9982                	jalr	s3
    3a10:	cb450fe3          	beq	a0,s4,36ce <_printf_float+0xfc>
    3a14:	4428                	lw	a0,72(s0)
    3a16:	446c                	lw	a1,76(s0)
    3a18:	4601                	li	a2,0
    3a1a:	4681                	li	a3,0
    3a1c:	4d0030ef          	jal	ra,6eec <__eqdf2>
    3a20:	c91d                	beqz	a0,3a56 <_printf_float+0x484>
    3a22:	56e2                	lw	a3,56(sp)
    3a24:	001a8613          	addi	a2,s5,1
    3a28:	85ca                	mv	a1,s2
    3a2a:	16fd                	addi	a3,a3,-1
    3a2c:	8526                	mv	a0,s1
    3a2e:	9982                	jalr	s3
    3a30:	c9450fe3          	beq	a0,s4,36ce <_printf_float+0xfc>
    3a34:	86da                	mv	a3,s6
    3a36:	05040613          	addi	a2,s0,80
    3a3a:	b5f9                	j	3908 <_printf_float+0x336>
    3a3c:	4685                	li	a3,1
    3a3e:	8656                	mv	a2,s5
    3a40:	85ca                	mv	a1,s2
    3a42:	8526                	mv	a0,s1
    3a44:	9982                	jalr	s3
    3a46:	c97504e3          	beq	a0,s7,36ce <_printf_float+0xfc>
    3a4a:	0a05                	addi	s4,s4,1
    3a4c:	57e2                	lw	a5,56(sp)
    3a4e:	17fd                	addi	a5,a5,-1
    3a50:	fefa46e3          	blt	s4,a5,3a3c <_printf_float+0x46a>
    3a54:	b7c5                	j	3a34 <_printf_float+0x462>
    3a56:	4a01                	li	s4,0
    3a58:	01a40a93          	addi	s5,s0,26
    3a5c:	5bfd                	li	s7,-1
    3a5e:	b7fd                	j	3a4c <_printf_float+0x47a>
    3a60:	4685                	li	a3,1
    3a62:	8656                	mv	a2,s5
    3a64:	85ca                	mv	a1,s2
    3a66:	8526                	mv	a0,s1
    3a68:	9982                	jalr	s3
    3a6a:	fd9515e3          	bne	a0,s9,3a34 <_printf_float+0x462>
    3a6e:	b185                	j	36ce <_printf_float+0xfc>
    3a70:	4685                	li	a3,1
    3a72:	8656                	mv	a2,s5
    3a74:	85ca                	mv	a1,s2
    3a76:	8526                	mv	a0,s1
    3a78:	9982                	jalr	s3
    3a7a:	c5650ae3          	beq	a0,s6,36ce <_printf_float+0xfc>
    3a7e:	0a05                	addi	s4,s4,1
    3a80:	445c                	lw	a5,12(s0)
    3a82:	5772                	lw	a4,60(sp)
    3a84:	8f99                	sub	a5,a5,a4
    3a86:	fefa45e3          	blt	s4,a5,3a70 <_printf_float+0x49e>
    3a8a:	bb6d                	j	3844 <_printf_float+0x272>
    3a8c:	4a01                	li	s4,0
    3a8e:	01940a93          	addi	s5,s0,25
    3a92:	5b7d                	li	s6,-1
    3a94:	b7f5                	j	3a80 <_printf_float+0x4ae>

00003a96 <_printf_common>:
    3a96:	7179                	addi	sp,sp,-48
    3a98:	ca56                	sw	s5,20(sp)
    3a9a:	499c                	lw	a5,16(a1)
    3a9c:	8aba                	mv	s5,a4
    3a9e:	4598                	lw	a4,8(a1)
    3aa0:	d422                	sw	s0,40(sp)
    3aa2:	d226                	sw	s1,36(sp)
    3aa4:	ce4e                	sw	s3,28(sp)
    3aa6:	cc52                	sw	s4,24(sp)
    3aa8:	d606                	sw	ra,44(sp)
    3aaa:	d04a                	sw	s2,32(sp)
    3aac:	c85a                	sw	s6,16(sp)
    3aae:	c65e                	sw	s7,12(sp)
    3ab0:	89aa                	mv	s3,a0
    3ab2:	842e                	mv	s0,a1
    3ab4:	84b2                	mv	s1,a2
    3ab6:	8a36                	mv	s4,a3
    3ab8:	00e7d363          	bge	a5,a4,3abe <_printf_common+0x28>
    3abc:	87ba                	mv	a5,a4
    3abe:	c09c                	sw	a5,0(s1)
    3ac0:	04344703          	lbu	a4,67(s0)
    3ac4:	c319                	beqz	a4,3aca <_printf_common+0x34>
    3ac6:	0785                	addi	a5,a5,1
    3ac8:	c09c                	sw	a5,0(s1)
    3aca:	401c                	lw	a5,0(s0)
    3acc:	0207f793          	andi	a5,a5,32
    3ad0:	c781                	beqz	a5,3ad8 <_printf_common+0x42>
    3ad2:	409c                	lw	a5,0(s1)
    3ad4:	0789                	addi	a5,a5,2
    3ad6:	c09c                	sw	a5,0(s1)
    3ad8:	00042903          	lw	s2,0(s0)
    3adc:	00697913          	andi	s2,s2,6
    3ae0:	00091a63          	bnez	s2,3af4 <_printf_common+0x5e>
    3ae4:	01940b13          	addi	s6,s0,25
    3ae8:	5bfd                	li	s7,-1
    3aea:	445c                	lw	a5,12(s0)
    3aec:	4098                	lw	a4,0(s1)
    3aee:	8f99                	sub	a5,a5,a4
    3af0:	04f94c63          	blt	s2,a5,3b48 <_printf_common+0xb2>
    3af4:	401c                	lw	a5,0(s0)
    3af6:	04344683          	lbu	a3,67(s0)
    3afa:	0207f793          	andi	a5,a5,32
    3afe:	00d036b3          	snez	a3,a3
    3b02:	eba5                	bnez	a5,3b72 <_printf_common+0xdc>
    3b04:	04340613          	addi	a2,s0,67
    3b08:	85d2                	mv	a1,s4
    3b0a:	854e                	mv	a0,s3
    3b0c:	9a82                	jalr	s5
    3b0e:	57fd                	li	a5,-1
    3b10:	04f50363          	beq	a0,a5,3b56 <_printf_common+0xc0>
    3b14:	401c                	lw	a5,0(s0)
    3b16:	4611                	li	a2,4
    3b18:	4098                	lw	a4,0(s1)
    3b1a:	8b99                	andi	a5,a5,6
    3b1c:	4454                	lw	a3,12(s0)
    3b1e:	4481                	li	s1,0
    3b20:	00c79763          	bne	a5,a2,3b2e <_printf_common+0x98>
    3b24:	40e684b3          	sub	s1,a3,a4
    3b28:	0004d363          	bgez	s1,3b2e <_printf_common+0x98>
    3b2c:	4481                	li	s1,0
    3b2e:	441c                	lw	a5,8(s0)
    3b30:	4818                	lw	a4,16(s0)
    3b32:	00f75463          	bge	a4,a5,3b3a <_printf_common+0xa4>
    3b36:	8f99                	sub	a5,a5,a4
    3b38:	94be                	add	s1,s1,a5
    3b3a:	4901                	li	s2,0
    3b3c:	0469                	addi	s0,s0,26
    3b3e:	5b7d                	li	s6,-1
    3b40:	05249863          	bne	s1,s2,3b90 <_printf_common+0xfa>
    3b44:	4501                	li	a0,0
    3b46:	a809                	j	3b58 <_printf_common+0xc2>
    3b48:	4685                	li	a3,1
    3b4a:	865a                	mv	a2,s6
    3b4c:	85d2                	mv	a1,s4
    3b4e:	854e                	mv	a0,s3
    3b50:	9a82                	jalr	s5
    3b52:	01751e63          	bne	a0,s7,3b6e <_printf_common+0xd8>
    3b56:	557d                	li	a0,-1
    3b58:	50b2                	lw	ra,44(sp)
    3b5a:	5422                	lw	s0,40(sp)
    3b5c:	5492                	lw	s1,36(sp)
    3b5e:	5902                	lw	s2,32(sp)
    3b60:	49f2                	lw	s3,28(sp)
    3b62:	4a62                	lw	s4,24(sp)
    3b64:	4ad2                	lw	s5,20(sp)
    3b66:	4b42                	lw	s6,16(sp)
    3b68:	4bb2                	lw	s7,12(sp)
    3b6a:	6145                	addi	sp,sp,48
    3b6c:	8082                	ret
    3b6e:	0905                	addi	s2,s2,1
    3b70:	bfad                	j	3aea <_printf_common+0x54>
    3b72:	00d40733          	add	a4,s0,a3
    3b76:	03000613          	li	a2,48
    3b7a:	04c701a3          	sb	a2,67(a4)
    3b7e:	04544703          	lbu	a4,69(s0)
    3b82:	00168793          	addi	a5,a3,1
    3b86:	97a2                	add	a5,a5,s0
    3b88:	0689                	addi	a3,a3,2
    3b8a:	04e781a3          	sb	a4,67(a5)
    3b8e:	bf9d                	j	3b04 <_printf_common+0x6e>
    3b90:	4685                	li	a3,1
    3b92:	8622                	mv	a2,s0
    3b94:	85d2                	mv	a1,s4
    3b96:	854e                	mv	a0,s3
    3b98:	9a82                	jalr	s5
    3b9a:	fb650ee3          	beq	a0,s6,3b56 <_printf_common+0xc0>
    3b9e:	0905                	addi	s2,s2,1
    3ba0:	b745                	j	3b40 <_printf_common+0xaa>

00003ba2 <_printf_i>:
    3ba2:	7179                	addi	sp,sp,-48
    3ba4:	d422                	sw	s0,40(sp)
    3ba6:	d226                	sw	s1,36(sp)
    3ba8:	d04a                	sw	s2,32(sp)
    3baa:	ce4e                	sw	s3,28(sp)
    3bac:	d606                	sw	ra,44(sp)
    3bae:	cc52                	sw	s4,24(sp)
    3bb0:	ca56                	sw	s5,20(sp)
    3bb2:	c85a                	sw	s6,16(sp)
    3bb4:	89b6                	mv	s3,a3
    3bb6:	0185c683          	lbu	a3,24(a1)
    3bba:	06900793          	li	a5,105
    3bbe:	8932                	mv	s2,a2
    3bc0:	84aa                	mv	s1,a0
    3bc2:	842e                	mv	s0,a1
    3bc4:	04358613          	addi	a2,a1,67
    3bc8:	02f68d63          	beq	a3,a5,3c02 <_printf_i+0x60>
    3bcc:	06d7e263          	bltu	a5,a3,3c30 <_printf_i+0x8e>
    3bd0:	05800793          	li	a5,88
    3bd4:	18f68963          	beq	a3,a5,3d66 <_printf_i+0x1c4>
    3bd8:	00d7ed63          	bltu	a5,a3,3bf2 <_printf_i+0x50>
    3bdc:	22068263          	beqz	a3,3e00 <_printf_i+0x25e>
    3be0:	04300793          	li	a5,67
    3be4:	0af68f63          	beq	a3,a5,3ca2 <_printf_i+0x100>
    3be8:	04240a93          	addi	s5,s0,66
    3bec:	04d40123          	sb	a3,66(s0)
    3bf0:	a0d1                	j	3cb4 <_printf_i+0x112>
    3bf2:	06300793          	li	a5,99
    3bf6:	0af68663          	beq	a3,a5,3ca2 <_printf_i+0x100>
    3bfa:	06400793          	li	a5,100
    3bfe:	fef695e3          	bne	a3,a5,3be8 <_printf_i+0x46>
    3c02:	401c                	lw	a5,0(s0)
    3c04:	4308                	lw	a0,0(a4)
    3c06:	0807f693          	andi	a3,a5,128
    3c0a:	00450593          	addi	a1,a0,4
    3c0e:	c6cd                	beqz	a3,3cb8 <_printf_i+0x116>
    3c10:	411c                	lw	a5,0(a0)
    3c12:	c30c                	sw	a1,0(a4)
    3c14:	0007d863          	bgez	a5,3c24 <_printf_i+0x82>
    3c18:	02d00713          	li	a4,45
    3c1c:	40f007b3          	neg	a5,a5
    3c20:	04e401a3          	sb	a4,67(s0)
    3c24:	00004697          	auipc	a3,0x4
    3c28:	69868693          	addi	a3,a3,1688 # 82bc <_read+0x1c0>
    3c2c:	4729                	li	a4,10
    3c2e:	a875                	j	3cea <_printf_i+0x148>
    3c30:	07000793          	li	a5,112
    3c34:	16f68563          	beq	a3,a5,3d9e <_printf_i+0x1fc>
    3c38:	02d7e563          	bltu	a5,a3,3c62 <_printf_i+0xc0>
    3c3c:	06e00793          	li	a5,110
    3c40:	18f68c63          	beq	a3,a5,3dd8 <_printf_i+0x236>
    3c44:	06f00793          	li	a5,111
    3c48:	faf690e3          	bne	a3,a5,3be8 <_printf_i+0x46>
    3c4c:	400c                	lw	a1,0(s0)
    3c4e:	431c                	lw	a5,0(a4)
    3c50:	0805f813          	andi	a6,a1,128
    3c54:	00478513          	addi	a0,a5,4
    3c58:	06080863          	beqz	a6,3cc8 <_printf_i+0x126>
    3c5c:	c308                	sw	a0,0(a4)
    3c5e:	439c                	lw	a5,0(a5)
    3c60:	a895                	j	3cd4 <_printf_i+0x132>
    3c62:	07500793          	li	a5,117
    3c66:	fef683e3          	beq	a3,a5,3c4c <_printf_i+0xaa>
    3c6a:	07800793          	li	a5,120
    3c6e:	12f68c63          	beq	a3,a5,3da6 <_printf_i+0x204>
    3c72:	07300793          	li	a5,115
    3c76:	f6f699e3          	bne	a3,a5,3be8 <_printf_i+0x46>
    3c7a:	431c                	lw	a5,0(a4)
    3c7c:	41d0                	lw	a2,4(a1)
    3c7e:	4581                	li	a1,0
    3c80:	00478693          	addi	a3,a5,4
    3c84:	c314                	sw	a3,0(a4)
    3c86:	0007aa83          	lw	s5,0(a5)
    3c8a:	8556                	mv	a0,s5
    3c8c:	728010ef          	jal	ra,53b4 <memchr>
    3c90:	c501                	beqz	a0,3c98 <_printf_i+0xf6>
    3c92:	41550533          	sub	a0,a0,s5
    3c96:	c048                	sw	a0,4(s0)
    3c98:	405c                	lw	a5,4(s0)
    3c9a:	c81c                	sw	a5,16(s0)
    3c9c:	040401a3          	sb	zero,67(s0)
    3ca0:	a871                	j	3d3c <_printf_i+0x19a>
    3ca2:	431c                	lw	a5,0(a4)
    3ca4:	04240a93          	addi	s5,s0,66
    3ca8:	00478693          	addi	a3,a5,4
    3cac:	439c                	lw	a5,0(a5)
    3cae:	c314                	sw	a3,0(a4)
    3cb0:	04f40123          	sb	a5,66(s0)
    3cb4:	4785                	li	a5,1
    3cb6:	b7d5                	j	3c9a <_printf_i+0xf8>
    3cb8:	0407f693          	andi	a3,a5,64
    3cbc:	411c                	lw	a5,0(a0)
    3cbe:	c30c                	sw	a1,0(a4)
    3cc0:	dab1                	beqz	a3,3c14 <_printf_i+0x72>
    3cc2:	07c2                	slli	a5,a5,0x10
    3cc4:	87c1                	srai	a5,a5,0x10
    3cc6:	b7b9                	j	3c14 <_printf_i+0x72>
    3cc8:	0405f593          	andi	a1,a1,64
    3ccc:	c308                	sw	a0,0(a4)
    3cce:	d9c1                	beqz	a1,3c5e <_printf_i+0xbc>
    3cd0:	0007d783          	lhu	a5,0(a5)
    3cd4:	06f00713          	li	a4,111
    3cd8:	0ee68863          	beq	a3,a4,3dc8 <_printf_i+0x226>
    3cdc:	00004697          	auipc	a3,0x4
    3ce0:	5e068693          	addi	a3,a3,1504 # 82bc <_read+0x1c0>
    3ce4:	4729                	li	a4,10
    3ce6:	040401a3          	sb	zero,67(s0)
    3cea:	404c                	lw	a1,4(s0)
    3cec:	c40c                	sw	a1,8(s0)
    3cee:	0005c563          	bltz	a1,3cf8 <_printf_i+0x156>
    3cf2:	4008                	lw	a0,0(s0)
    3cf4:	996d                	andi	a0,a0,-5
    3cf6:	c008                	sw	a0,0(s0)
    3cf8:	e399                	bnez	a5,3cfe <_printf_i+0x15c>
    3cfa:	8ab2                	mv	s5,a2
    3cfc:	cd91                	beqz	a1,3d18 <_printf_i+0x176>
    3cfe:	8ab2                	mv	s5,a2
    3d00:	02e7f5b3          	remu	a1,a5,a4
    3d04:	1afd                	addi	s5,s5,-1
    3d06:	95b6                	add	a1,a1,a3
    3d08:	0005c583          	lbu	a1,0(a1)
    3d0c:	00ba8023          	sb	a1,0(s5)
    3d10:	02e7d5b3          	divu	a1,a5,a4
    3d14:	0ce7f063          	bgeu	a5,a4,3dd4 <_printf_i+0x232>
    3d18:	47a1                	li	a5,8
    3d1a:	00f71e63          	bne	a4,a5,3d36 <_printf_i+0x194>
    3d1e:	401c                	lw	a5,0(s0)
    3d20:	8b85                	andi	a5,a5,1
    3d22:	cb91                	beqz	a5,3d36 <_printf_i+0x194>
    3d24:	4058                	lw	a4,4(s0)
    3d26:	481c                	lw	a5,16(s0)
    3d28:	00e7c763          	blt	a5,a4,3d36 <_printf_i+0x194>
    3d2c:	03000793          	li	a5,48
    3d30:	fefa8fa3          	sb	a5,-1(s5)
    3d34:	1afd                	addi	s5,s5,-1
    3d36:	41560633          	sub	a2,a2,s5
    3d3a:	c810                	sw	a2,16(s0)
    3d3c:	874e                	mv	a4,s3
    3d3e:	86ca                	mv	a3,s2
    3d40:	0070                	addi	a2,sp,12
    3d42:	85a2                	mv	a1,s0
    3d44:	8526                	mv	a0,s1
    3d46:	d51ff0ef          	jal	ra,3a96 <_printf_common>
    3d4a:	5a7d                	li	s4,-1
    3d4c:	0b451e63          	bne	a0,s4,3e08 <_printf_i+0x266>
    3d50:	557d                	li	a0,-1
    3d52:	50b2                	lw	ra,44(sp)
    3d54:	5422                	lw	s0,40(sp)
    3d56:	5492                	lw	s1,36(sp)
    3d58:	5902                	lw	s2,32(sp)
    3d5a:	49f2                	lw	s3,28(sp)
    3d5c:	4a62                	lw	s4,24(sp)
    3d5e:	4ad2                	lw	s5,20(sp)
    3d60:	4b42                	lw	s6,16(sp)
    3d62:	6145                	addi	sp,sp,48
    3d64:	8082                	ret
    3d66:	04d582a3          	sb	a3,69(a1)
    3d6a:	00004697          	auipc	a3,0x4
    3d6e:	55268693          	addi	a3,a3,1362 # 82bc <_read+0x1c0>
    3d72:	400c                	lw	a1,0(s0)
    3d74:	4308                	lw	a0,0(a4)
    3d76:	0805f813          	andi	a6,a1,128
    3d7a:	411c                	lw	a5,0(a0)
    3d7c:	0511                	addi	a0,a0,4
    3d7e:	02080d63          	beqz	a6,3db8 <_printf_i+0x216>
    3d82:	c308                	sw	a0,0(a4)
    3d84:	0015f713          	andi	a4,a1,1
    3d88:	c701                	beqz	a4,3d90 <_printf_i+0x1ee>
    3d8a:	0205e593          	ori	a1,a1,32
    3d8e:	c00c                	sw	a1,0(s0)
    3d90:	4741                	li	a4,16
    3d92:	fbb1                	bnez	a5,3ce6 <_printf_i+0x144>
    3d94:	400c                	lw	a1,0(s0)
    3d96:	fdf5f593          	andi	a1,a1,-33
    3d9a:	c00c                	sw	a1,0(s0)
    3d9c:	b7a9                	j	3ce6 <_printf_i+0x144>
    3d9e:	419c                	lw	a5,0(a1)
    3da0:	0207e793          	ori	a5,a5,32
    3da4:	c19c                	sw	a5,0(a1)
    3da6:	07800793          	li	a5,120
    3daa:	04f402a3          	sb	a5,69(s0)
    3dae:	00004697          	auipc	a3,0x4
    3db2:	52268693          	addi	a3,a3,1314 # 82d0 <_read+0x1d4>
    3db6:	bf75                	j	3d72 <_printf_i+0x1d0>
    3db8:	0405f813          	andi	a6,a1,64
    3dbc:	c308                	sw	a0,0(a4)
    3dbe:	fc0803e3          	beqz	a6,3d84 <_printf_i+0x1e2>
    3dc2:	07c2                	slli	a5,a5,0x10
    3dc4:	83c1                	srli	a5,a5,0x10
    3dc6:	bf7d                	j	3d84 <_printf_i+0x1e2>
    3dc8:	00004697          	auipc	a3,0x4
    3dcc:	4f468693          	addi	a3,a3,1268 # 82bc <_read+0x1c0>
    3dd0:	4721                	li	a4,8
    3dd2:	bf11                	j	3ce6 <_printf_i+0x144>
    3dd4:	87ae                	mv	a5,a1
    3dd6:	b72d                	j	3d00 <_printf_i+0x15e>
    3dd8:	4194                	lw	a3,0(a1)
    3dda:	431c                	lw	a5,0(a4)
    3ddc:	49cc                	lw	a1,20(a1)
    3dde:	0806f813          	andi	a6,a3,128
    3de2:	00478513          	addi	a0,a5,4
    3de6:	00080663          	beqz	a6,3df2 <_printf_i+0x250>
    3dea:	c308                	sw	a0,0(a4)
    3dec:	439c                	lw	a5,0(a5)
    3dee:	c38c                	sw	a1,0(a5)
    3df0:	a801                	j	3e00 <_printf_i+0x25e>
    3df2:	c308                	sw	a0,0(a4)
    3df4:	0406f693          	andi	a3,a3,64
    3df8:	439c                	lw	a5,0(a5)
    3dfa:	daf5                	beqz	a3,3dee <_printf_i+0x24c>
    3dfc:	00b79023          	sh	a1,0(a5)
    3e00:	00042823          	sw	zero,16(s0)
    3e04:	8ab2                	mv	s5,a2
    3e06:	bf1d                	j	3d3c <_printf_i+0x19a>
    3e08:	4814                	lw	a3,16(s0)
    3e0a:	8656                	mv	a2,s5
    3e0c:	85ca                	mv	a1,s2
    3e0e:	8526                	mv	a0,s1
    3e10:	9982                	jalr	s3
    3e12:	f3450fe3          	beq	a0,s4,3d50 <_printf_i+0x1ae>
    3e16:	401c                	lw	a5,0(s0)
    3e18:	8b89                	andi	a5,a5,2
    3e1a:	e78d                	bnez	a5,3e44 <_printf_i+0x2a2>
    3e1c:	47b2                	lw	a5,12(sp)
    3e1e:	4448                	lw	a0,12(s0)
    3e20:	f2f559e3          	bge	a0,a5,3d52 <_printf_i+0x1b0>
    3e24:	853e                	mv	a0,a5
    3e26:	b735                	j	3d52 <_printf_i+0x1b0>
    3e28:	4685                	li	a3,1
    3e2a:	8656                	mv	a2,s5
    3e2c:	85ca                	mv	a1,s2
    3e2e:	8526                	mv	a0,s1
    3e30:	9982                	jalr	s3
    3e32:	f1650fe3          	beq	a0,s6,3d50 <_printf_i+0x1ae>
    3e36:	0a05                	addi	s4,s4,1
    3e38:	445c                	lw	a5,12(s0)
    3e3a:	4732                	lw	a4,12(sp)
    3e3c:	8f99                	sub	a5,a5,a4
    3e3e:	fefa45e3          	blt	s4,a5,3e28 <_printf_i+0x286>
    3e42:	bfe9                	j	3e1c <_printf_i+0x27a>
    3e44:	4a01                	li	s4,0
    3e46:	01940a93          	addi	s5,s0,25
    3e4a:	5b7d                	li	s6,-1
    3e4c:	b7f5                	j	3e38 <_printf_i+0x296>

00003e4e <iprintf>:
    3e4e:	7139                	addi	sp,sp,-64
    3e50:	da3e                	sw	a5,52(sp)
    3e52:	d22e                	sw	a1,36(sp)
    3e54:	d432                	sw	a2,40(sp)
    3e56:	d636                	sw	a3,44(sp)
    3e58:	d83a                	sw	a4,48(sp)
    3e5a:	dc42                	sw	a6,56(sp)
    3e5c:	de46                	sw	a7,60(sp)
    3e5e:	81418793          	addi	a5,gp,-2028 # 20000204 <_impure_ptr>
    3e62:	cc22                	sw	s0,24(sp)
    3e64:	4380                	lw	s0,0(a5)
    3e66:	ca26                	sw	s1,20(sp)
    3e68:	ce06                	sw	ra,28(sp)
    3e6a:	84aa                	mv	s1,a0
    3e6c:	c411                	beqz	s0,3e78 <iprintf+0x2a>
    3e6e:	4c1c                	lw	a5,24(s0)
    3e70:	e781                	bnez	a5,3e78 <iprintf+0x2a>
    3e72:	8522                	mv	a0,s0
    3e74:	2a8010ef          	jal	ra,511c <__sinit>
    3e78:	440c                	lw	a1,8(s0)
    3e7a:	1054                	addi	a3,sp,36
    3e7c:	8626                	mv	a2,s1
    3e7e:	8522                	mv	a0,s0
    3e80:	c636                	sw	a3,12(sp)
    3e82:	663010ef          	jal	ra,5ce4 <_vfiprintf_r>
    3e86:	40f2                	lw	ra,28(sp)
    3e88:	4462                	lw	s0,24(sp)
    3e8a:	44d2                	lw	s1,20(sp)
    3e8c:	6121                	addi	sp,sp,64
    3e8e:	8082                	ret

00003e90 <_puts_r>:
    3e90:	1101                	addi	sp,sp,-32
    3e92:	ca26                	sw	s1,20(sp)
    3e94:	c84a                	sw	s2,16(sp)
    3e96:	ce06                	sw	ra,28(sp)
    3e98:	cc22                	sw	s0,24(sp)
    3e9a:	c64e                	sw	s3,12(sp)
    3e9c:	c452                	sw	s4,8(sp)
    3e9e:	84aa                	mv	s1,a0
    3ea0:	892e                	mv	s2,a1
    3ea2:	c509                	beqz	a0,3eac <_puts_r+0x1c>
    3ea4:	4d1c                	lw	a5,24(a0)
    3ea6:	e399                	bnez	a5,3eac <_puts_r+0x1c>
    3ea8:	274010ef          	jal	ra,511c <__sinit>
    3eac:	4c9c                	lw	a5,24(s1)
    3eae:	4480                	lw	s0,8(s1)
    3eb0:	e781                	bnez	a5,3eb8 <_puts_r+0x28>
    3eb2:	8526                	mv	a0,s1
    3eb4:	268010ef          	jal	ra,511c <__sinit>
    3eb8:	00004797          	auipc	a5,0x4
    3ebc:	4a878793          	addi	a5,a5,1192 # 8360 <__sf_fake_stdin>
    3ec0:	02f41c63          	bne	s0,a5,3ef8 <_puts_r+0x68>
    3ec4:	40c0                	lw	s0,4(s1)
    3ec6:	00c45783          	lhu	a5,12(s0)
    3eca:	8ba1                	andi	a5,a5,8
    3ecc:	c7b1                	beqz	a5,3f18 <_puts_r+0x88>
    3ece:	481c                	lw	a5,16(s0)
    3ed0:	c7a1                	beqz	a5,3f18 <_puts_r+0x88>
    3ed2:	59fd                	li	s3,-1
    3ed4:	4a29                	li	s4,10
    3ed6:	441c                	lw	a5,8(s0)
    3ed8:	00094583          	lbu	a1,0(s2)
    3edc:	17fd                	addi	a5,a5,-1
    3ede:	e9b1                	bnez	a1,3f32 <_puts_r+0xa2>
    3ee0:	c41c                	sw	a5,8(s0)
    3ee2:	0607de63          	bgez	a5,3f5e <_puts_r+0xce>
    3ee6:	8622                	mv	a2,s0
    3ee8:	45a9                	li	a1,10
    3eea:	8526                	mv	a0,s1
    3eec:	2045                	jal	3f8c <__swbuf_r>
    3eee:	57fd                	li	a5,-1
    3ef0:	02f50863          	beq	a0,a5,3f20 <_puts_r+0x90>
    3ef4:	4529                	li	a0,10
    3ef6:	a035                	j	3f22 <_puts_r+0x92>
    3ef8:	00004797          	auipc	a5,0x4
    3efc:	48878793          	addi	a5,a5,1160 # 8380 <__sf_fake_stdout>
    3f00:	00f41463          	bne	s0,a5,3f08 <_puts_r+0x78>
    3f04:	4480                	lw	s0,8(s1)
    3f06:	b7c1                	j	3ec6 <_puts_r+0x36>
    3f08:	00004797          	auipc	a5,0x4
    3f0c:	43878793          	addi	a5,a5,1080 # 8340 <__sf_fake_stderr>
    3f10:	faf41be3          	bne	s0,a5,3ec6 <_puts_r+0x36>
    3f14:	44c0                	lw	s0,12(s1)
    3f16:	bf45                	j	3ec6 <_puts_r+0x36>
    3f18:	85a2                	mv	a1,s0
    3f1a:	8526                	mv	a0,s1
    3f1c:	2a1d                	jal	4052 <__swsetup_r>
    3f1e:	d955                	beqz	a0,3ed2 <_puts_r+0x42>
    3f20:	557d                	li	a0,-1
    3f22:	40f2                	lw	ra,28(sp)
    3f24:	4462                	lw	s0,24(sp)
    3f26:	44d2                	lw	s1,20(sp)
    3f28:	4942                	lw	s2,16(sp)
    3f2a:	49b2                	lw	s3,12(sp)
    3f2c:	4a22                	lw	s4,8(sp)
    3f2e:	6105                	addi	sp,sp,32
    3f30:	8082                	ret
    3f32:	c41c                	sw	a5,8(s0)
    3f34:	0905                	addi	s2,s2,1
    3f36:	0007d763          	bgez	a5,3f44 <_puts_r+0xb4>
    3f3a:	4c18                	lw	a4,24(s0)
    3f3c:	00e7cb63          	blt	a5,a4,3f52 <_puts_r+0xc2>
    3f40:	01458963          	beq	a1,s4,3f52 <_puts_r+0xc2>
    3f44:	401c                	lw	a5,0(s0)
    3f46:	00178713          	addi	a4,a5,1
    3f4a:	c018                	sw	a4,0(s0)
    3f4c:	00b78023          	sb	a1,0(a5)
    3f50:	b759                	j	3ed6 <_puts_r+0x46>
    3f52:	8622                	mv	a2,s0
    3f54:	8526                	mv	a0,s1
    3f56:	281d                	jal	3f8c <__swbuf_r>
    3f58:	f7351fe3          	bne	a0,s3,3ed6 <_puts_r+0x46>
    3f5c:	b7d1                	j	3f20 <_puts_r+0x90>
    3f5e:	401c                	lw	a5,0(s0)
    3f60:	00178713          	addi	a4,a5,1
    3f64:	c018                	sw	a4,0(s0)
    3f66:	4729                	li	a4,10
    3f68:	00e78023          	sb	a4,0(a5)
    3f6c:	b761                	j	3ef4 <_puts_r+0x64>

00003f6e <puts>:
    3f6e:	81418793          	addi	a5,gp,-2028 # 20000204 <_impure_ptr>
    3f72:	85aa                	mv	a1,a0
    3f74:	4388                	lw	a0,0(a5)
    3f76:	f1bff06f          	j	3e90 <_puts_r>

00003f7a <strlen>:
    3f7a:	87aa                	mv	a5,a0
    3f7c:	0785                	addi	a5,a5,1
    3f7e:	fff7c703          	lbu	a4,-1(a5)
    3f82:	ff6d                	bnez	a4,3f7c <strlen+0x2>
    3f84:	40a78533          	sub	a0,a5,a0
    3f88:	157d                	addi	a0,a0,-1
    3f8a:	8082                	ret

00003f8c <__swbuf_r>:
    3f8c:	1101                	addi	sp,sp,-32
    3f8e:	cc22                	sw	s0,24(sp)
    3f90:	ca26                	sw	s1,20(sp)
    3f92:	c84a                	sw	s2,16(sp)
    3f94:	ce06                	sw	ra,28(sp)
    3f96:	c64e                	sw	s3,12(sp)
    3f98:	84aa                	mv	s1,a0
    3f9a:	892e                	mv	s2,a1
    3f9c:	8432                	mv	s0,a2
    3f9e:	c509                	beqz	a0,3fa8 <__swbuf_r+0x1c>
    3fa0:	4d1c                	lw	a5,24(a0)
    3fa2:	e399                	bnez	a5,3fa8 <__swbuf_r+0x1c>
    3fa4:	178010ef          	jal	ra,511c <__sinit>
    3fa8:	00004797          	auipc	a5,0x4
    3fac:	3b878793          	addi	a5,a5,952 # 8360 <__sf_fake_stdin>
    3fb0:	06f41b63          	bne	s0,a5,4026 <__swbuf_r+0x9a>
    3fb4:	40c0                	lw	s0,4(s1)
    3fb6:	4c1c                	lw	a5,24(s0)
    3fb8:	c41c                	sw	a5,8(s0)
    3fba:	00c45783          	lhu	a5,12(s0)
    3fbe:	8ba1                	andi	a5,a5,8
    3fc0:	c3d9                	beqz	a5,4046 <__swbuf_r+0xba>
    3fc2:	481c                	lw	a5,16(s0)
    3fc4:	c3c9                	beqz	a5,4046 <__swbuf_r+0xba>
    3fc6:	481c                	lw	a5,16(s0)
    3fc8:	4008                	lw	a0,0(s0)
    3fca:	0ff97993          	andi	s3,s2,255
    3fce:	0ff97913          	andi	s2,s2,255
    3fd2:	8d1d                	sub	a0,a0,a5
    3fd4:	485c                	lw	a5,20(s0)
    3fd6:	00f54763          	blt	a0,a5,3fe4 <__swbuf_r+0x58>
    3fda:	85a2                	mv	a1,s0
    3fdc:	8526                	mv	a0,s1
    3fde:	01c010ef          	jal	ra,4ffa <_fflush_r>
    3fe2:	e535                	bnez	a0,404e <__swbuf_r+0xc2>
    3fe4:	441c                	lw	a5,8(s0)
    3fe6:	0505                	addi	a0,a0,1
    3fe8:	17fd                	addi	a5,a5,-1
    3fea:	c41c                	sw	a5,8(s0)
    3fec:	401c                	lw	a5,0(s0)
    3fee:	00178713          	addi	a4,a5,1
    3ff2:	c018                	sw	a4,0(s0)
    3ff4:	01378023          	sb	s3,0(a5)
    3ff8:	485c                	lw	a5,20(s0)
    3ffa:	00a78963          	beq	a5,a0,400c <__swbuf_r+0x80>
    3ffe:	00c45783          	lhu	a5,12(s0)
    4002:	8b85                	andi	a5,a5,1
    4004:	cb89                	beqz	a5,4016 <__swbuf_r+0x8a>
    4006:	47a9                	li	a5,10
    4008:	00f91763          	bne	s2,a5,4016 <__swbuf_r+0x8a>
    400c:	85a2                	mv	a1,s0
    400e:	8526                	mv	a0,s1
    4010:	7eb000ef          	jal	ra,4ffa <_fflush_r>
    4014:	ed0d                	bnez	a0,404e <__swbuf_r+0xc2>
    4016:	40f2                	lw	ra,28(sp)
    4018:	4462                	lw	s0,24(sp)
    401a:	854a                	mv	a0,s2
    401c:	44d2                	lw	s1,20(sp)
    401e:	4942                	lw	s2,16(sp)
    4020:	49b2                	lw	s3,12(sp)
    4022:	6105                	addi	sp,sp,32
    4024:	8082                	ret
    4026:	00004797          	auipc	a5,0x4
    402a:	35a78793          	addi	a5,a5,858 # 8380 <__sf_fake_stdout>
    402e:	00f41463          	bne	s0,a5,4036 <__swbuf_r+0xaa>
    4032:	4480                	lw	s0,8(s1)
    4034:	b749                	j	3fb6 <__swbuf_r+0x2a>
    4036:	00004797          	auipc	a5,0x4
    403a:	30a78793          	addi	a5,a5,778 # 8340 <__sf_fake_stderr>
    403e:	f6f41ce3          	bne	s0,a5,3fb6 <__swbuf_r+0x2a>
    4042:	44c0                	lw	s0,12(s1)
    4044:	bf8d                	j	3fb6 <__swbuf_r+0x2a>
    4046:	85a2                	mv	a1,s0
    4048:	8526                	mv	a0,s1
    404a:	2021                	jal	4052 <__swsetup_r>
    404c:	dd2d                	beqz	a0,3fc6 <__swbuf_r+0x3a>
    404e:	597d                	li	s2,-1
    4050:	b7d9                	j	4016 <__swbuf_r+0x8a>

00004052 <__swsetup_r>:
    4052:	1141                	addi	sp,sp,-16
    4054:	81418793          	addi	a5,gp,-2028 # 20000204 <_impure_ptr>
    4058:	c226                	sw	s1,4(sp)
    405a:	4384                	lw	s1,0(a5)
    405c:	c422                	sw	s0,8(sp)
    405e:	c04a                	sw	s2,0(sp)
    4060:	c606                	sw	ra,12(sp)
    4062:	892a                	mv	s2,a0
    4064:	842e                	mv	s0,a1
    4066:	c491                	beqz	s1,4072 <__swsetup_r+0x20>
    4068:	4c9c                	lw	a5,24(s1)
    406a:	e781                	bnez	a5,4072 <__swsetup_r+0x20>
    406c:	8526                	mv	a0,s1
    406e:	0ae010ef          	jal	ra,511c <__sinit>
    4072:	00004797          	auipc	a5,0x4
    4076:	2ee78793          	addi	a5,a5,750 # 8360 <__sf_fake_stdin>
    407a:	02f41c63          	bne	s0,a5,40b2 <__swsetup_r+0x60>
    407e:	40c0                	lw	s0,4(s1)
    4080:	00c41703          	lh	a4,12(s0)
    4084:	01071793          	slli	a5,a4,0x10
    4088:	83c1                	srli	a5,a5,0x10
    408a:	0087f693          	andi	a3,a5,8
    408e:	eebd                	bnez	a3,410c <__swsetup_r+0xba>
    4090:	0107f693          	andi	a3,a5,16
    4094:	ee9d                	bnez	a3,40d2 <__swsetup_r+0x80>
    4096:	47a5                	li	a5,9
    4098:	00f92023          	sw	a5,0(s2)
    409c:	04076713          	ori	a4,a4,64
    40a0:	00e41623          	sh	a4,12(s0)
    40a4:	557d                	li	a0,-1
    40a6:	40b2                	lw	ra,12(sp)
    40a8:	4422                	lw	s0,8(sp)
    40aa:	4492                	lw	s1,4(sp)
    40ac:	4902                	lw	s2,0(sp)
    40ae:	0141                	addi	sp,sp,16
    40b0:	8082                	ret
    40b2:	00004797          	auipc	a5,0x4
    40b6:	2ce78793          	addi	a5,a5,718 # 8380 <__sf_fake_stdout>
    40ba:	00f41463          	bne	s0,a5,40c2 <__swsetup_r+0x70>
    40be:	4480                	lw	s0,8(s1)
    40c0:	b7c1                	j	4080 <__swsetup_r+0x2e>
    40c2:	00004797          	auipc	a5,0x4
    40c6:	27e78793          	addi	a5,a5,638 # 8340 <__sf_fake_stderr>
    40ca:	faf41be3          	bne	s0,a5,4080 <__swsetup_r+0x2e>
    40ce:	44c0                	lw	s0,12(s1)
    40d0:	bf45                	j	4080 <__swsetup_r+0x2e>
    40d2:	8b91                	andi	a5,a5,4
    40d4:	c795                	beqz	a5,4100 <__swsetup_r+0xae>
    40d6:	584c                	lw	a1,52(s0)
    40d8:	c991                	beqz	a1,40ec <__swsetup_r+0x9a>
    40da:	04440793          	addi	a5,s0,68
    40de:	00f58563          	beq	a1,a5,40e8 <__swsetup_r+0x96>
    40e2:	854a                	mv	a0,s2
    40e4:	209010ef          	jal	ra,5aec <_free_r>
    40e8:	02042a23          	sw	zero,52(s0)
    40ec:	00c45783          	lhu	a5,12(s0)
    40f0:	00042223          	sw	zero,4(s0)
    40f4:	fdb7f793          	andi	a5,a5,-37
    40f8:	00f41623          	sh	a5,12(s0)
    40fc:	481c                	lw	a5,16(s0)
    40fe:	c01c                	sw	a5,0(s0)
    4100:	00c45783          	lhu	a5,12(s0)
    4104:	0087e793          	ori	a5,a5,8
    4108:	00f41623          	sh	a5,12(s0)
    410c:	481c                	lw	a5,16(s0)
    410e:	ef89                	bnez	a5,4128 <__swsetup_r+0xd6>
    4110:	00c45783          	lhu	a5,12(s0)
    4114:	20000713          	li	a4,512
    4118:	2807f793          	andi	a5,a5,640
    411c:	00e78663          	beq	a5,a4,4128 <__swsetup_r+0xd6>
    4120:	85a2                	mv	a1,s0
    4122:	854a                	mv	a0,s2
    4124:	1e2010ef          	jal	ra,5306 <__smakebuf_r>
    4128:	00c45783          	lhu	a5,12(s0)
    412c:	0017f713          	andi	a4,a5,1
    4130:	c705                	beqz	a4,4158 <__swsetup_r+0x106>
    4132:	485c                	lw	a5,20(s0)
    4134:	00042423          	sw	zero,8(s0)
    4138:	40f007b3          	neg	a5,a5
    413c:	cc1c                	sw	a5,24(s0)
    413e:	481c                	lw	a5,16(s0)
    4140:	4501                	li	a0,0
    4142:	f3b5                	bnez	a5,40a6 <__swsetup_r+0x54>
    4144:	00c41783          	lh	a5,12(s0)
    4148:	0807f713          	andi	a4,a5,128
    414c:	df29                	beqz	a4,40a6 <__swsetup_r+0x54>
    414e:	0407e793          	ori	a5,a5,64
    4152:	00f41623          	sh	a5,12(s0)
    4156:	b7b9                	j	40a4 <__swsetup_r+0x52>
    4158:	8b89                	andi	a5,a5,2
    415a:	4701                	li	a4,0
    415c:	e391                	bnez	a5,4160 <__swsetup_r+0x10e>
    415e:	4858                	lw	a4,20(s0)
    4160:	c418                	sw	a4,8(s0)
    4162:	bff1                	j	413e <__swsetup_r+0xec>

00004164 <quorem>:
    4164:	1101                	addi	sp,sp,-32
    4166:	cc22                	sw	s0,24(sp)
    4168:	491c                	lw	a5,16(a0)
    416a:	4980                	lw	s0,16(a1)
    416c:	ce06                	sw	ra,28(sp)
    416e:	ca26                	sw	s1,20(sp)
    4170:	c84a                	sw	s2,16(sp)
    4172:	c64e                	sw	s3,12(sp)
    4174:	c452                	sw	s4,8(sp)
    4176:	c256                	sw	s5,4(sp)
    4178:	1287c163          	blt	a5,s0,429a <quorem+0x136>
    417c:	147d                	addi	s0,s0,-1
    417e:	00241813          	slli	a6,s0,0x2
    4182:	01458993          	addi	s3,a1,20
    4186:	01098a33          	add	s4,s3,a6
    418a:	01450913          	addi	s2,a0,20
    418e:	984a                	add	a6,a6,s2
    4190:	000a2783          	lw	a5,0(s4)
    4194:	00082703          	lw	a4,0(a6)
    4198:	0785                	addi	a5,a5,1
    419a:	02f754b3          	divu	s1,a4,a5
    419e:	06f76663          	bltu	a4,a5,420a <quorem+0xa6>
    41a2:	68c1                	lui	a7,0x10
    41a4:	834e                	mv	t1,s3
    41a6:	8e4a                	mv	t3,s2
    41a8:	4e81                	li	t4,0
    41aa:	4f01                	li	t5,0
    41ac:	18fd                	addi	a7,a7,-1
    41ae:	0311                	addi	t1,t1,4
    41b0:	ffc32603          	lw	a2,-4(t1)
    41b4:	0e11                	addi	t3,t3,4
    41b6:	01167733          	and	a4,a2,a7
    41ba:	8241                	srli	a2,a2,0x10
    41bc:	02970733          	mul	a4,a4,s1
    41c0:	02960633          	mul	a2,a2,s1
    41c4:	9776                	add	a4,a4,t4
    41c6:	01075693          	srli	a3,a4,0x10
    41ca:	011777b3          	and	a5,a4,a7
    41ce:	40ff07b3          	sub	a5,t5,a5
    41d2:	9636                	add	a2,a2,a3
    41d4:	ffce2683          	lw	a3,-4(t3)
    41d8:	01065e93          	srli	t4,a2,0x10
    41dc:	01167633          	and	a2,a2,a7
    41e0:	0116f733          	and	a4,a3,a7
    41e4:	97ba                	add	a5,a5,a4
    41e6:	82c1                	srli	a3,a3,0x10
    41e8:	4107d713          	srai	a4,a5,0x10
    41ec:	8e91                	sub	a3,a3,a2
    41ee:	96ba                	add	a3,a3,a4
    41f0:	4106df13          	srai	t5,a3,0x10
    41f4:	0117f7b3          	and	a5,a5,a7
    41f8:	06c2                	slli	a3,a3,0x10
    41fa:	8fd5                	or	a5,a5,a3
    41fc:	fefe2e23          	sw	a5,-4(t3)
    4200:	fa6a77e3          	bgeu	s4,t1,41ae <quorem+0x4a>
    4204:	00082783          	lw	a5,0(a6)
    4208:	cbbd                	beqz	a5,427e <quorem+0x11a>
    420a:	8aaa                	mv	s5,a0
    420c:	6c2010ef          	jal	ra,58ce <__mcmp>
    4210:	04054963          	bltz	a0,4262 <quorem+0xfe>
    4214:	6641                	lui	a2,0x10
    4216:	0485                	addi	s1,s1,1
    4218:	85ca                	mv	a1,s2
    421a:	4501                	li	a0,0
    421c:	167d                	addi	a2,a2,-1
    421e:	0991                	addi	s3,s3,4
    4220:	ffc9a803          	lw	a6,-4(s3)
    4224:	4198                	lw	a4,0(a1)
    4226:	0591                	addi	a1,a1,4
    4228:	00c876b3          	and	a3,a6,a2
    422c:	8d15                	sub	a0,a0,a3
    422e:	00c776b3          	and	a3,a4,a2
    4232:	96aa                	add	a3,a3,a0
    4234:	01075793          	srli	a5,a4,0x10
    4238:	01085813          	srli	a6,a6,0x10
    423c:	4106d713          	srai	a4,a3,0x10
    4240:	410787b3          	sub	a5,a5,a6
    4244:	97ba                	add	a5,a5,a4
    4246:	4107d513          	srai	a0,a5,0x10
    424a:	8ef1                	and	a3,a3,a2
    424c:	07c2                	slli	a5,a5,0x10
    424e:	8fd5                	or	a5,a5,a3
    4250:	fef5ae23          	sw	a5,-4(a1)
    4254:	fd3a75e3          	bgeu	s4,s3,421e <quorem+0xba>
    4258:	00241793          	slli	a5,s0,0x2
    425c:	97ca                	add	a5,a5,s2
    425e:	4398                	lw	a4,0(a5)
    4260:	c71d                	beqz	a4,428e <quorem+0x12a>
    4262:	8526                	mv	a0,s1
    4264:	40f2                	lw	ra,28(sp)
    4266:	4462                	lw	s0,24(sp)
    4268:	44d2                	lw	s1,20(sp)
    426a:	4942                	lw	s2,16(sp)
    426c:	49b2                	lw	s3,12(sp)
    426e:	4a22                	lw	s4,8(sp)
    4270:	4a92                	lw	s5,4(sp)
    4272:	6105                	addi	sp,sp,32
    4274:	8082                	ret
    4276:	00082783          	lw	a5,0(a6)
    427a:	e789                	bnez	a5,4284 <quorem+0x120>
    427c:	147d                	addi	s0,s0,-1
    427e:	1871                	addi	a6,a6,-4
    4280:	ff096be3          	bltu	s2,a6,4276 <quorem+0x112>
    4284:	c900                	sw	s0,16(a0)
    4286:	b751                	j	420a <quorem+0xa6>
    4288:	4398                	lw	a4,0(a5)
    428a:	e709                	bnez	a4,4294 <quorem+0x130>
    428c:	147d                	addi	s0,s0,-1
    428e:	17f1                	addi	a5,a5,-4
    4290:	fef96ce3          	bltu	s2,a5,4288 <quorem+0x124>
    4294:	008aa823          	sw	s0,16(s5)
    4298:	b7e9                	j	4262 <quorem+0xfe>
    429a:	4501                	li	a0,0
    429c:	b7e1                	j	4264 <quorem+0x100>

0000429e <_dtoa_r>:
    429e:	7175                	addi	sp,sp,-144
    42a0:	d83e                	sw	a5,48(sp)
    42a2:	515c                	lw	a5,36(a0)
    42a4:	c522                	sw	s0,136(sp)
    42a6:	c326                	sw	s1,132(sp)
    42a8:	c14a                	sw	s2,128(sp)
    42aa:	dece                	sw	s3,124(sp)
    42ac:	dcd2                	sw	s4,120(sp)
    42ae:	d4e2                	sw	s8,104(sp)
    42b0:	c706                	sw	ra,140(sp)
    42b2:	dad6                	sw	s5,116(sp)
    42b4:	d8da                	sw	s6,112(sp)
    42b6:	d6de                	sw	s7,108(sp)
    42b8:	d2e6                	sw	s9,100(sp)
    42ba:	d0ea                	sw	s10,96(sp)
    42bc:	ceee                	sw	s11,92(sp)
    42be:	c236                	sw	a3,4(sp)
    42c0:	c63a                	sw	a4,12(sp)
    42c2:	ca46                	sw	a7,20(sp)
    42c4:	84aa                	mv	s1,a0
    42c6:	842e                	mv	s0,a1
    42c8:	8932                	mv	s2,a2
    42ca:	89c2                	mv	s3,a6
    42cc:	8a2e                	mv	s4,a1
    42ce:	8c32                	mv	s8,a2
    42d0:	ef89                	bnez	a5,42ea <_dtoa_r+0x4c>
    42d2:	4541                	li	a0,16
    42d4:	0d4010ef          	jal	ra,53a8 <malloc>
    42d8:	d0c8                	sw	a0,36(s1)
    42da:	00052223          	sw	zero,4(a0)
    42de:	00052423          	sw	zero,8(a0)
    42e2:	00052023          	sw	zero,0(a0)
    42e6:	00052623          	sw	zero,12(a0)
    42ea:	50dc                	lw	a5,36(s1)
    42ec:	438c                	lw	a1,0(a5)
    42ee:	cd89                	beqz	a1,4308 <_dtoa_r+0x6a>
    42f0:	43d8                	lw	a4,4(a5)
    42f2:	4785                	li	a5,1
    42f4:	8526                	mv	a0,s1
    42f6:	00e797b3          	sll	a5,a5,a4
    42fa:	c59c                	sw	a5,8(a1)
    42fc:	c1d8                	sw	a4,4(a1)
    42fe:	158010ef          	jal	ra,5456 <_Bfree>
    4302:	50dc                	lw	a5,36(s1)
    4304:	0007a023          	sw	zero,0(a5)
    4308:	04095363          	bgez	s2,434e <_dtoa_r+0xb0>
    430c:	4785                	li	a5,1
    430e:	00191c13          	slli	s8,s2,0x1
    4312:	00f9a023          	sw	a5,0(s3)
    4316:	001c5c13          	srli	s8,s8,0x1
    431a:	7ff007b7          	lui	a5,0x7ff00
    431e:	00fc7733          	and	a4,s8,a5
    4322:	06f71463          	bne	a4,a5,438a <_dtoa_r+0xec>
    4326:	5742                	lw	a4,48(sp)
    4328:	6789                	lui	a5,0x2
    432a:	0c32                	slli	s8,s8,0xc
    432c:	70f78793          	addi	a5,a5,1807 # 270f <NVIC_Init+0x4d>
    4330:	00cc5c13          	srli	s8,s8,0xc
    4334:	c31c                	sw	a5,0(a4)
    4336:	008c6c33          	or	s8,s8,s0
    433a:	320c05e3          	beqz	s8,4e64 <_dtoa_r+0xbc6>
    433e:	47d2                	lw	a5,20(sp)
    4340:	eb91                	bnez	a5,4354 <_dtoa_r+0xb6>
    4342:	00004797          	auipc	a5,0x4
    4346:	ffa78793          	addi	a5,a5,-6 # 833c <_read+0x240>
    434a:	c03e                	sw	a5,0(sp)
    434c:	a839                	j	436a <_dtoa_r+0xcc>
    434e:	0009a023          	sw	zero,0(s3)
    4352:	b7e1                	j	431a <_dtoa_r+0x7c>
    4354:	00004797          	auipc	a5,0x4
    4358:	fe878793          	addi	a5,a5,-24 # 833c <_read+0x240>
    435c:	c03e                	sw	a5,0(sp)
    435e:	00004797          	auipc	a5,0x4
    4362:	fe178793          	addi	a5,a5,-31 # 833f <_read+0x243>
    4366:	4752                	lw	a4,20(sp)
    4368:	c31c                	sw	a5,0(a4)
    436a:	40ba                	lw	ra,140(sp)
    436c:	442a                	lw	s0,136(sp)
    436e:	4502                	lw	a0,0(sp)
    4370:	449a                	lw	s1,132(sp)
    4372:	490a                	lw	s2,128(sp)
    4374:	59f6                	lw	s3,124(sp)
    4376:	5a66                	lw	s4,120(sp)
    4378:	5ad6                	lw	s5,116(sp)
    437a:	5b46                	lw	s6,112(sp)
    437c:	5bb6                	lw	s7,108(sp)
    437e:	5c26                	lw	s8,104(sp)
    4380:	5c96                	lw	s9,100(sp)
    4382:	5d06                	lw	s10,96(sp)
    4384:	4df6                	lw	s11,92(sp)
    4386:	6149                	addi	sp,sp,144
    4388:	8082                	ret
    438a:	4601                	li	a2,0
    438c:	4681                	li	a3,0
    438e:	8522                	mv	a0,s0
    4390:	85e2                	mv	a1,s8
    4392:	ce22                	sw	s0,28(sp)
    4394:	d462                	sw	s8,40(sp)
    4396:	357020ef          	jal	ra,6eec <__eqdf2>
    439a:	e105                	bnez	a0,43ba <_dtoa_r+0x11c>
    439c:	5742                	lw	a4,48(sp)
    439e:	4785                	li	a5,1
    43a0:	c31c                	sw	a5,0(a4)
    43a2:	00004797          	auipc	a5,0x4
    43a6:	f1678793          	addi	a5,a5,-234 # 82b8 <_read+0x1bc>
    43aa:	c03e                	sw	a5,0(sp)
    43ac:	47d2                	lw	a5,20(sp)
    43ae:	dfd5                	beqz	a5,436a <_dtoa_r+0xcc>
    43b0:	00004797          	auipc	a5,0x4
    43b4:	f0978793          	addi	a5,a5,-247 # 82b9 <_read+0x1bd>
    43b8:	b77d                	j	4366 <_dtoa_r+0xc8>
    43ba:	00b8                	addi	a4,sp,72
    43bc:	00f4                	addi	a3,sp,76
    43be:	8662                	mv	a2,s8
    43c0:	85a2                	mv	a1,s0
    43c2:	8526                	mv	a0,s1
    43c4:	014c5913          	srli	s2,s8,0x14
    43c8:	62a010ef          	jal	ra,59f2 <__d2b>
    43cc:	7ff97913          	andi	s2,s2,2047
    43d0:	89aa                	mv	s3,a0
    43d2:	4aa6                	lw	s5,72(sp)
    43d4:	10090d63          	beqz	s2,44ee <_dtoa_r+0x250>
    43d8:	57a2                	lw	a5,40(sp)
    43da:	4572                	lw	a0,28(sp)
    43dc:	c0190913          	addi	s2,s2,-1023
    43e0:	00c79593          	slli	a1,a5,0xc
    43e4:	81b1                	srli	a1,a1,0xc
    43e6:	3ff007b7          	lui	a5,0x3ff00
    43ea:	8ddd                	or	a1,a1,a5
    43ec:	dc02                	sw	zero,56(sp)
    43ee:	00004797          	auipc	a5,0x4
    43f2:	efa78793          	addi	a5,a5,-262 # 82e8 <_read+0x1ec>
    43f6:	4390                	lw	a2,0(a5)
    43f8:	43d4                	lw	a3,4(a5)
    43fa:	178030ef          	jal	ra,7572 <__subdf3>
    43fe:	00004797          	auipc	a5,0x4
    4402:	ef278793          	addi	a5,a5,-270 # 82f0 <_read+0x1f4>
    4406:	4390                	lw	a2,0(a5)
    4408:	43d4                	lw	a3,4(a5)
    440a:	4b1020ef          	jal	ra,70ba <__muldf3>
    440e:	00004797          	auipc	a5,0x4
    4412:	eea78793          	addi	a5,a5,-278 # 82f8 <_read+0x1fc>
    4416:	4390                	lw	a2,0(a5)
    4418:	43d4                	lw	a3,4(a5)
    441a:	5ef010ef          	jal	ra,6208 <__adddf3>
    441e:	8b2a                	mv	s6,a0
    4420:	854a                	mv	a0,s2
    4422:	8bae                	mv	s7,a1
    4424:	12f030ef          	jal	ra,7d52 <__floatsidf>
    4428:	00004797          	auipc	a5,0x4
    442c:	ed878793          	addi	a5,a5,-296 # 8300 <_read+0x204>
    4430:	4390                	lw	a2,0(a5)
    4432:	43d4                	lw	a3,4(a5)
    4434:	487020ef          	jal	ra,70ba <__muldf3>
    4438:	862a                	mv	a2,a0
    443a:	86ae                	mv	a3,a1
    443c:	855a                	mv	a0,s6
    443e:	85de                	mv	a1,s7
    4440:	5c9010ef          	jal	ra,6208 <__adddf3>
    4444:	8b2a                	mv	s6,a0
    4446:	8bae                	mv	s7,a1
    4448:	0a3030ef          	jal	ra,7cea <__fixdfsi>
    444c:	842a                	mv	s0,a0
    444e:	4601                	li	a2,0
    4450:	4681                	li	a3,0
    4452:	855a                	mv	a0,s6
    4454:	85de                	mv	a1,s7
    4456:	3af020ef          	jal	ra,7004 <__ledf2>
    445a:	00055b63          	bgez	a0,4470 <_dtoa_r+0x1d2>
    445e:	8522                	mv	a0,s0
    4460:	0f3030ef          	jal	ra,7d52 <__floatsidf>
    4464:	865a                	mv	a2,s6
    4466:	86de                	mv	a3,s7
    4468:	285020ef          	jal	ra,6eec <__eqdf2>
    446c:	c111                	beqz	a0,4470 <_dtoa_r+0x1d2>
    446e:	147d                	addi	s0,s0,-1
    4470:	4705                	li	a4,1
    4472:	47d9                	li	a5,22
    4474:	d63a                	sw	a4,44(sp)
    4476:	0287e363          	bltu	a5,s0,449c <_dtoa_r+0x1fe>
    447a:	00341713          	slli	a4,s0,0x3
    447e:	00004797          	auipc	a5,0x4
    4482:	f4a78793          	addi	a5,a5,-182 # 83c8 <__mprec_tens>
    4486:	97ba                	add	a5,a5,a4
    4488:	4390                	lw	a2,0(a5)
    448a:	43d4                	lw	a3,4(a5)
    448c:	4572                	lw	a0,28(sp)
    448e:	55a2                	lw	a1,40(sp)
    4490:	375020ef          	jal	ra,7004 <__ledf2>
    4494:	00055363          	bgez	a0,449a <_dtoa_r+0x1fc>
    4498:	147d                	addi	s0,s0,-1
    449a:	d602                	sw	zero,44(sp)
    449c:	412a8933          	sub	s2,s5,s2
    44a0:	fff90b93          	addi	s7,s2,-1
    44a4:	4b01                	li	s6,0
    44a6:	000bd663          	bgez	s7,44b2 <_dtoa_r+0x214>
    44aa:	4b05                	li	s6,1
    44ac:	412b0b33          	sub	s6,s6,s2
    44b0:	4b81                	li	s7,0
    44b2:	06044e63          	bltz	s0,452e <_dtoa_r+0x290>
    44b6:	9ba2                	add	s7,s7,s0
    44b8:	cc22                	sw	s0,24(sp)
    44ba:	4a81                	li	s5,0
    44bc:	4712                	lw	a4,4(sp)
    44be:	47a5                	li	a5,9
    44c0:	14e7e563          	bltu	a5,a4,460a <_dtoa_r+0x36c>
    44c4:	4795                	li	a5,5
    44c6:	4c85                	li	s9,1
    44c8:	00e7d663          	bge	a5,a4,44d4 <_dtoa_r+0x236>
    44cc:	ffc70793          	addi	a5,a4,-4
    44d0:	c23e                	sw	a5,4(sp)
    44d2:	4c81                	li	s9,0
    44d4:	4712                	lw	a4,4(sp)
    44d6:	478d                	li	a5,3
    44d8:	10f70e63          	beq	a4,a5,45f4 <_dtoa_r+0x356>
    44dc:	04e7cf63          	blt	a5,a4,453a <_dtoa_r+0x29c>
    44e0:	4789                	li	a5,2
    44e2:	c802                	sw	zero,16(sp)
    44e4:	06f70d63          	beq	a4,a5,455e <_dtoa_r+0x2c0>
    44e8:	4785                	li	a5,1
    44ea:	c83e                	sw	a5,16(sp)
    44ec:	a08d                	j	454e <_dtoa_r+0x2b0>
    44ee:	4936                	lw	s2,76(sp)
    44f0:	02000793          	li	a5,32
    44f4:	9956                	add	s2,s2,s5
    44f6:	43290713          	addi	a4,s2,1074
    44fa:	02e7d563          	bge	a5,a4,4524 <_dtoa_r+0x286>
    44fe:	04000513          	li	a0,64
    4502:	8d19                	sub	a0,a0,a4
    4504:	41290793          	addi	a5,s2,1042
    4508:	00ac1533          	sll	a0,s8,a0
    450c:	00f45433          	srl	s0,s0,a5
    4510:	8d41                	or	a0,a0,s0
    4512:	0b1030ef          	jal	ra,7dc2 <__floatunsidf>
    4516:	fe1007b7          	lui	a5,0xfe100
    451a:	95be                	add	a1,a1,a5
    451c:	4785                	li	a5,1
    451e:	197d                	addi	s2,s2,-1
    4520:	dc3e                	sw	a5,56(sp)
    4522:	b5f1                	j	43ee <_dtoa_r+0x150>
    4524:	40e78533          	sub	a0,a5,a4
    4528:	00a41533          	sll	a0,s0,a0
    452c:	b7dd                	j	4512 <_dtoa_r+0x274>
    452e:	408b0b33          	sub	s6,s6,s0
    4532:	40800ab3          	neg	s5,s0
    4536:	cc02                	sw	zero,24(sp)
    4538:	b751                	j	44bc <_dtoa_r+0x21e>
    453a:	4712                	lw	a4,4(sp)
    453c:	4791                	li	a5,4
    453e:	00f70e63          	beq	a4,a5,455a <_dtoa_r+0x2bc>
    4542:	4705                	li	a4,1
    4544:	c83a                	sw	a4,16(sp)
    4546:	4712                	lw	a4,4(sp)
    4548:	4795                	li	a5,5
    454a:	0af70663          	beq	a4,a5,45f6 <_dtoa_r+0x358>
    454e:	57fd                	li	a5,-1
    4550:	c43e                	sw	a5,8(sp)
    4552:	5dfd                	li	s11,-1
    4554:	47c9                	li	a5,18
    4556:	c602                	sw	zero,12(sp)
    4558:	a819                	j	456e <_dtoa_r+0x2d0>
    455a:	4785                	li	a5,1
    455c:	c83e                	sw	a5,16(sp)
    455e:	47b2                	lw	a5,12(sp)
    4560:	0af04863          	bgtz	a5,4610 <_dtoa_r+0x372>
    4564:	4785                	li	a5,1
    4566:	4705                	li	a4,1
    4568:	c43e                	sw	a5,8(sp)
    456a:	4d85                	li	s11,1
    456c:	c63a                	sw	a4,12(sp)
    456e:	0244a903          	lw	s2,36(s1)
    4572:	4711                	li	a4,4
    4574:	00092223          	sw	zero,4(s2)
    4578:	01470693          	addi	a3,a4,20
    457c:	00492583          	lw	a1,4(s2)
    4580:	08d7fc63          	bgeu	a5,a3,4618 <_dtoa_r+0x37a>
    4584:	8526                	mv	a0,s1
    4586:	649000ef          	jal	ra,53ce <_Balloc>
    458a:	50dc                	lw	a5,36(s1)
    458c:	00a92023          	sw	a0,0(s2)
    4590:	439c                	lw	a5,0(a5)
    4592:	c03e                	sw	a5,0(sp)
    4594:	47b9                	li	a5,14
    4596:	1db7e663          	bltu	a5,s11,4762 <_dtoa_r+0x4c4>
    459a:	1c0c8463          	beqz	s9,4762 <_dtoa_r+0x4c4>
    459e:	0a805e63          	blez	s0,465a <_dtoa_r+0x3bc>
    45a2:	00f47793          	andi	a5,s0,15
    45a6:	00379713          	slli	a4,a5,0x3
    45aa:	40445c93          	srai	s9,s0,0x4
    45ae:	00004797          	auipc	a5,0x4
    45b2:	e1a78793          	addi	a5,a5,-486 # 83c8 <__mprec_tens>
    45b6:	97ba                	add	a5,a5,a4
    45b8:	010cf693          	andi	a3,s9,16
    45bc:	4398                	lw	a4,0(a5)
    45be:	4909                	li	s2,2
    45c0:	43dc                	lw	a5,4(a5)
    45c2:	c685                	beqz	a3,45ea <_dtoa_r+0x34c>
    45c4:	00004697          	auipc	a3,0x4
    45c8:	ddc68693          	addi	a3,a3,-548 # 83a0 <__mprec_bigtens>
    45cc:	5290                	lw	a2,32(a3)
    45ce:	4572                	lw	a0,28(sp)
    45d0:	52d4                	lw	a3,36(a3)
    45d2:	55a2                	lw	a1,40(sp)
    45d4:	d03a                	sw	a4,32(sp)
    45d6:	d23e                	sw	a5,36(sp)
    45d8:	360020ef          	jal	ra,6938 <__divdf3>
    45dc:	5702                	lw	a4,32(sp)
    45de:	5792                	lw	a5,36(sp)
    45e0:	00fcfc93          	andi	s9,s9,15
    45e4:	8a2a                	mv	s4,a0
    45e6:	8c2e                	mv	s8,a1
    45e8:	490d                	li	s2,3
    45ea:	00004d17          	auipc	s10,0x4
    45ee:	db6d0d13          	addi	s10,s10,-586 # 83a0 <__mprec_bigtens>
    45f2:	a889                	j	4644 <_dtoa_r+0x3a6>
    45f4:	c802                	sw	zero,16(sp)
    45f6:	47b2                	lw	a5,12(sp)
    45f8:	97a2                	add	a5,a5,s0
    45fa:	c43e                	sw	a5,8(sp)
    45fc:	00178d93          	addi	s11,a5,1
    4600:	87ee                	mv	a5,s11
    4602:	f7b046e3          	bgtz	s11,456e <_dtoa_r+0x2d0>
    4606:	4785                	li	a5,1
    4608:	b79d                	j	456e <_dtoa_r+0x2d0>
    460a:	4c85                	li	s9,1
    460c:	c202                	sw	zero,4(sp)
    460e:	bde9                	j	44e8 <_dtoa_r+0x24a>
    4610:	47b2                	lw	a5,12(sp)
    4612:	c43e                	sw	a5,8(sp)
    4614:	8dbe                	mv	s11,a5
    4616:	bfa1                	j	456e <_dtoa_r+0x2d0>
    4618:	0585                	addi	a1,a1,1
    461a:	00b92223          	sw	a1,4(s2)
    461e:	0706                	slli	a4,a4,0x1
    4620:	bfa1                	j	4578 <_dtoa_r+0x2da>
    4622:	001cf693          	andi	a3,s9,1
    4626:	ce81                	beqz	a3,463e <_dtoa_r+0x3a0>
    4628:	000d2603          	lw	a2,0(s10)
    462c:	004d2683          	lw	a3,4(s10)
    4630:	853a                	mv	a0,a4
    4632:	85be                	mv	a1,a5
    4634:	287020ef          	jal	ra,70ba <__muldf3>
    4638:	0905                	addi	s2,s2,1
    463a:	872a                	mv	a4,a0
    463c:	87ae                	mv	a5,a1
    463e:	401cdc93          	srai	s9,s9,0x1
    4642:	0d21                	addi	s10,s10,8
    4644:	fc0c9fe3          	bnez	s9,4622 <_dtoa_r+0x384>
    4648:	863a                	mv	a2,a4
    464a:	86be                	mv	a3,a5
    464c:	8552                	mv	a0,s4
    464e:	85e2                	mv	a1,s8
    4650:	2e8020ef          	jal	ra,6938 <__divdf3>
    4654:	8a2a                	mv	s4,a0
    4656:	8c2e                	mv	s8,a1
    4658:	a081                	j	4698 <_dtoa_r+0x3fa>
    465a:	4909                	li	s2,2
    465c:	cc15                	beqz	s0,4698 <_dtoa_r+0x3fa>
    465e:	40800cb3          	neg	s9,s0
    4662:	00fcf793          	andi	a5,s9,15
    4666:	00379713          	slli	a4,a5,0x3
    466a:	00004797          	auipc	a5,0x4
    466e:	d5e78793          	addi	a5,a5,-674 # 83c8 <__mprec_tens>
    4672:	97ba                	add	a5,a5,a4
    4674:	4390                	lw	a2,0(a5)
    4676:	43d4                	lw	a3,4(a5)
    4678:	4572                	lw	a0,28(sp)
    467a:	55a2                	lw	a1,40(sp)
    467c:	404cdc93          	srai	s9,s9,0x4
    4680:	00004d17          	auipc	s10,0x4
    4684:	d20d0d13          	addi	s10,s10,-736 # 83a0 <__mprec_bigtens>
    4688:	233020ef          	jal	ra,70ba <__muldf3>
    468c:	8a2a                	mv	s4,a0
    468e:	8c2e                	mv	s8,a1
    4690:	4781                	li	a5,0
    4692:	120c9c63          	bnez	s9,47ca <_dtoa_r+0x52c>
    4696:	ffdd                	bnez	a5,4654 <_dtoa_r+0x3b6>
    4698:	57b2                	lw	a5,44(sp)
    469a:	14078763          	beqz	a5,47e8 <_dtoa_r+0x54a>
    469e:	00004717          	auipc	a4,0x4
    46a2:	c6a70713          	addi	a4,a4,-918 # 8308 <_read+0x20c>
    46a6:	4310                	lw	a2,0(a4)
    46a8:	4354                	lw	a3,4(a4)
    46aa:	8552                	mv	a0,s4
    46ac:	85e2                	mv	a1,s8
    46ae:	d052                	sw	s4,32(sp)
    46b0:	155020ef          	jal	ra,7004 <__ledf2>
    46b4:	12055a63          	bgez	a0,47e8 <_dtoa_r+0x54a>
    46b8:	120d8b63          	beqz	s11,47ee <_dtoa_r+0x550>
    46bc:	47a2                	lw	a5,8(sp)
    46be:	0af05063          	blez	a5,475e <_dtoa_r+0x4c0>
    46c2:	00004717          	auipc	a4,0x4
    46c6:	c4e70713          	addi	a4,a4,-946 # 8310 <_read+0x214>
    46ca:	5782                	lw	a5,32(sp)
    46cc:	4310                	lw	a2,0(a4)
    46ce:	4354                	lw	a3,4(a4)
    46d0:	853e                	mv	a0,a5
    46d2:	85e2                	mv	a1,s8
    46d4:	1e7020ef          	jal	ra,70ba <__muldf3>
    46d8:	47a2                	lw	a5,8(sp)
    46da:	fff40d13          	addi	s10,s0,-1
    46de:	8a2a                	mv	s4,a0
    46e0:	8c2e                	mv	s8,a1
    46e2:	0905                	addi	s2,s2,1
    46e4:	8762                	mv	a4,s8
    46e6:	854a                	mv	a0,s2
    46e8:	de3e                	sw	a5,60(sp)
    46ea:	da52                	sw	s4,52(sp)
    46ec:	8cba                	mv	s9,a4
    46ee:	d03a                	sw	a4,32(sp)
    46f0:	662030ef          	jal	ra,7d52 <__floatsidf>
    46f4:	5852                	lw	a6,52(sp)
    46f6:	5702                	lw	a4,32(sp)
    46f8:	fcc00937          	lui	s2,0xfcc00
    46fc:	8642                	mv	a2,a6
    46fe:	86ba                	mv	a3,a4
    4700:	1bb020ef          	jal	ra,70ba <__muldf3>
    4704:	00004697          	auipc	a3,0x4
    4708:	c1468693          	addi	a3,a3,-1004 # 8318 <_read+0x21c>
    470c:	4290                	lw	a2,0(a3)
    470e:	42d4                	lw	a3,4(a3)
    4710:	8c52                	mv	s8,s4
    4712:	2f7010ef          	jal	ra,6208 <__adddf3>
    4716:	57f2                	lw	a5,60(sp)
    4718:	8a2a                	mv	s4,a0
    471a:	992e                	add	s2,s2,a1
    471c:	efe1                	bnez	a5,47f4 <_dtoa_r+0x556>
    471e:	00004797          	auipc	a5,0x4
    4722:	c0278793          	addi	a5,a5,-1022 # 8320 <_read+0x224>
    4726:	5852                	lw	a6,52(sp)
    4728:	5702                	lw	a4,32(sp)
    472a:	4390                	lw	a2,0(a5)
    472c:	43d4                	lw	a3,4(a5)
    472e:	8542                	mv	a0,a6
    4730:	85ba                	mv	a1,a4
    4732:	641020ef          	jal	ra,7572 <__subdf3>
    4736:	8652                	mv	a2,s4
    4738:	86ca                	mv	a3,s2
    473a:	8c2a                	mv	s8,a0
    473c:	8cae                	mv	s9,a1
    473e:	019020ef          	jal	ra,6f56 <__gedf2>
    4742:	54a04a63          	bgtz	a0,4c96 <_dtoa_r+0x9f8>
    4746:	800007b7          	lui	a5,0x80000
    474a:	0127c7b3          	xor	a5,a5,s2
    474e:	8652                	mv	a2,s4
    4750:	86be                	mv	a3,a5
    4752:	8562                	mv	a0,s8
    4754:	85e6                	mv	a1,s9
    4756:	0af020ef          	jal	ra,7004 <__ledf2>
    475a:	52054b63          	bltz	a0,4c90 <_dtoa_r+0x9f2>
    475e:	4a72                	lw	s4,28(sp)
    4760:	5c22                	lw	s8,40(sp)
    4762:	47b6                	lw	a5,76(sp)
    4764:	3007c763          	bltz	a5,4a72 <_dtoa_r+0x7d4>
    4768:	4739                	li	a4,14
    476a:	30874463          	blt	a4,s0,4a72 <_dtoa_r+0x7d4>
    476e:	00341713          	slli	a4,s0,0x3
    4772:	00004797          	auipc	a5,0x4
    4776:	c5678793          	addi	a5,a5,-938 # 83c8 <__mprec_tens>
    477a:	97ba                	add	a5,a5,a4
    477c:	0007ab03          	lw	s6,0(a5)
    4780:	0047ab83          	lw	s7,4(a5)
    4784:	47b2                	lw	a5,12(sp)
    4786:	2007d263          	bgez	a5,498a <_dtoa_r+0x6ec>
    478a:	21b04063          	bgtz	s11,498a <_dtoa_r+0x6ec>
    478e:	500d9163          	bnez	s11,4c90 <_dtoa_r+0x9f2>
    4792:	00004797          	auipc	a5,0x4
    4796:	b8e78793          	addi	a5,a5,-1138 # 8320 <_read+0x224>
    479a:	4390                	lw	a2,0(a5)
    479c:	43d4                	lw	a3,4(a5)
    479e:	855a                	mv	a0,s6
    47a0:	85de                	mv	a1,s7
    47a2:	119020ef          	jal	ra,70ba <__muldf3>
    47a6:	8652                	mv	a2,s4
    47a8:	86e2                	mv	a3,s8
    47aa:	7ac020ef          	jal	ra,6f56 <__gedf2>
    47ae:	4a81                	li	s5,0
    47b0:	4901                	li	s2,0
    47b2:	4a055763          	bgez	a0,4c60 <_dtoa_r+0x9c2>
    47b6:	4782                	lw	a5,0(sp)
    47b8:	4702                	lw	a4,0(sp)
    47ba:	0405                	addi	s0,s0,1
    47bc:	00178a13          	addi	s4,a5,1
    47c0:	03100793          	li	a5,49
    47c4:	00f70023          	sb	a5,0(a4)
    47c8:	a145                	j	4c68 <_dtoa_r+0x9ca>
    47ca:	001cf713          	andi	a4,s9,1
    47ce:	cb09                	beqz	a4,47e0 <_dtoa_r+0x542>
    47d0:	000d2603          	lw	a2,0(s10)
    47d4:	004d2683          	lw	a3,4(s10)
    47d8:	0905                	addi	s2,s2,1
    47da:	0e1020ef          	jal	ra,70ba <__muldf3>
    47de:	4785                	li	a5,1
    47e0:	401cdc93          	srai	s9,s9,0x1
    47e4:	0d21                	addi	s10,s10,8
    47e6:	b575                	j	4692 <_dtoa_r+0x3f4>
    47e8:	8d22                	mv	s10,s0
    47ea:	87ee                	mv	a5,s11
    47ec:	bde5                	j	46e4 <_dtoa_r+0x446>
    47ee:	8d22                	mv	s10,s0
    47f0:	4781                	li	a5,0
    47f2:	bdcd                	j	46e4 <_dtoa_r+0x446>
    47f4:	fff78693          	addi	a3,a5,-1
    47f8:	00369613          	slli	a2,a3,0x3
    47fc:	00004697          	auipc	a3,0x4
    4800:	bcc68693          	addi	a3,a3,-1076 # 83c8 <__mprec_tens>
    4804:	96b2                	add	a3,a3,a2
    4806:	4288                	lw	a0,0(a3)
    4808:	42cc                	lw	a1,4(a3)
    480a:	4682                	lw	a3,0(sp)
    480c:	97b6                	add	a5,a5,a3
    480e:	da3e                	sw	a5,52(sp)
    4810:	47c2                	lw	a5,16(sp)
    4812:	c3e9                	beqz	a5,48d4 <_dtoa_r+0x636>
    4814:	00004797          	auipc	a5,0x4
    4818:	b1478793          	addi	a5,a5,-1260 # 8328 <_read+0x22c>
    481c:	862a                	mv	a2,a0
    481e:	86ae                	mv	a3,a1
    4820:	4388                	lw	a0,0(a5)
    4822:	43cc                	lw	a1,4(a5)
    4824:	de4a                	sw	s2,60(sp)
    4826:	d052                	sw	s4,32(sp)
    4828:	110020ef          	jal	ra,6938 <__divdf3>
    482c:	5802                	lw	a6,32(sp)
    482e:	5772                	lw	a4,60(sp)
    4830:	00004917          	auipc	s2,0x4
    4834:	ae090913          	addi	s2,s2,-1312 # 8310 <_read+0x214>
    4838:	8642                	mv	a2,a6
    483a:	86ba                	mv	a3,a4
    483c:	537020ef          	jal	ra,7572 <__subdf3>
    4840:	4a02                	lw	s4,0(sp)
    4842:	d02a                	sw	a0,32(sp)
    4844:	d22e                	sw	a1,36(sp)
    4846:	85e6                	mv	a1,s9
    4848:	8562                	mv	a0,s8
    484a:	4a0030ef          	jal	ra,7cea <__fixdfsi>
    484e:	de2a                	sw	a0,60(sp)
    4850:	502030ef          	jal	ra,7d52 <__floatsidf>
    4854:	862a                	mv	a2,a0
    4856:	86ae                	mv	a3,a1
    4858:	8562                	mv	a0,s8
    485a:	85e6                	mv	a1,s9
    485c:	517020ef          	jal	ra,7572 <__subdf3>
    4860:	57f2                	lw	a5,60(sp)
    4862:	8c2a                	mv	s8,a0
    4864:	8cae                	mv	s9,a1
    4866:	862a                	mv	a2,a0
    4868:	86ae                	mv	a3,a1
    486a:	5502                	lw	a0,32(sp)
    486c:	5592                	lw	a1,36(sp)
    486e:	0a05                	addi	s4,s4,1
    4870:	03078793          	addi	a5,a5,48
    4874:	fefa0fa3          	sb	a5,-1(s4)
    4878:	6de020ef          	jal	ra,6f56 <__gedf2>
    487c:	0ea04863          	bgtz	a0,496c <_dtoa_r+0x6ce>
    4880:	00004797          	auipc	a5,0x4
    4884:	a8878793          	addi	a5,a5,-1400 # 8308 <_read+0x20c>
    4888:	4388                	lw	a0,0(a5)
    488a:	43cc                	lw	a1,4(a5)
    488c:	8662                	mv	a2,s8
    488e:	86e6                	mv	a3,s9
    4890:	4e3020ef          	jal	ra,7572 <__subdf3>
    4894:	862a                	mv	a2,a0
    4896:	86ae                	mv	a3,a1
    4898:	5502                	lw	a0,32(sp)
    489a:	5592                	lw	a1,36(sp)
    489c:	6ba020ef          	jal	ra,6f56 <__gedf2>
    48a0:	18a04263          	bgtz	a0,4a24 <_dtoa_r+0x786>
    48a4:	57d2                	lw	a5,52(sp)
    48a6:	eafa0ce3          	beq	s4,a5,475e <_dtoa_r+0x4c0>
    48aa:	00092603          	lw	a2,0(s2)
    48ae:	00492683          	lw	a3,4(s2)
    48b2:	5502                	lw	a0,32(sp)
    48b4:	5592                	lw	a1,36(sp)
    48b6:	005020ef          	jal	ra,70ba <__muldf3>
    48ba:	00092603          	lw	a2,0(s2)
    48be:	00492683          	lw	a3,4(s2)
    48c2:	d02a                	sw	a0,32(sp)
    48c4:	d22e                	sw	a1,36(sp)
    48c6:	8562                	mv	a0,s8
    48c8:	85e6                	mv	a1,s9
    48ca:	7f0020ef          	jal	ra,70ba <__muldf3>
    48ce:	8c2a                	mv	s8,a0
    48d0:	8cae                	mv	s9,a1
    48d2:	bf95                	j	4846 <_dtoa_r+0x5a8>
    48d4:	8652                	mv	a2,s4
    48d6:	86ca                	mv	a3,s2
    48d8:	7e2020ef          	jal	ra,70ba <__muldf3>
    48dc:	5a52                	lw	s4,52(sp)
    48de:	4902                	lw	s2,0(sp)
    48e0:	d02a                	sw	a0,32(sp)
    48e2:	d22e                	sw	a1,36(sp)
    48e4:	85e6                	mv	a1,s9
    48e6:	8562                	mv	a0,s8
    48e8:	402030ef          	jal	ra,7cea <__fixdfsi>
    48ec:	de2a                	sw	a0,60(sp)
    48ee:	464030ef          	jal	ra,7d52 <__floatsidf>
    48f2:	862a                	mv	a2,a0
    48f4:	86ae                	mv	a3,a1
    48f6:	8562                	mv	a0,s8
    48f8:	85e6                	mv	a1,s9
    48fa:	479020ef          	jal	ra,7572 <__subdf3>
    48fe:	5772                	lw	a4,60(sp)
    4900:	57d2                	lw	a5,52(sp)
    4902:	0905                	addi	s2,s2,1
    4904:	03070713          	addi	a4,a4,48
    4908:	fee90fa3          	sb	a4,-1(s2)
    490c:	8c2a                	mv	s8,a0
    490e:	8cae                	mv	s9,a1
    4910:	06f91263          	bne	s2,a5,4974 <_dtoa_r+0x6d6>
    4914:	00004917          	auipc	s2,0x4
    4918:	a1490913          	addi	s2,s2,-1516 # 8328 <_read+0x22c>
    491c:	00092603          	lw	a2,0(s2)
    4920:	00492683          	lw	a3,4(s2)
    4924:	5502                	lw	a0,32(sp)
    4926:	5592                	lw	a1,36(sp)
    4928:	0e1010ef          	jal	ra,6208 <__adddf3>
    492c:	862a                	mv	a2,a0
    492e:	86ae                	mv	a3,a1
    4930:	8562                	mv	a0,s8
    4932:	85e6                	mv	a1,s9
    4934:	622020ef          	jal	ra,6f56 <__gedf2>
    4938:	0ea04663          	bgtz	a0,4a24 <_dtoa_r+0x786>
    493c:	5602                	lw	a2,32(sp)
    493e:	5692                	lw	a3,36(sp)
    4940:	00092503          	lw	a0,0(s2)
    4944:	00492583          	lw	a1,4(s2)
    4948:	42b020ef          	jal	ra,7572 <__subdf3>
    494c:	862a                	mv	a2,a0
    494e:	86ae                	mv	a3,a1
    4950:	8562                	mv	a0,s8
    4952:	85e6                	mv	a1,s9
    4954:	6b0020ef          	jal	ra,7004 <__ledf2>
    4958:	03000793          	li	a5,48
    495c:	e00551e3          	bgez	a0,475e <_dtoa_r+0x4c0>
    4960:	fffa4703          	lbu	a4,-1(s4)
    4964:	fffa0693          	addi	a3,s4,-1
    4968:	00f70463          	beq	a4,a5,4970 <_dtoa_r+0x6d2>
    496c:	846a                	mv	s0,s10
    496e:	a859                	j	4a04 <_dtoa_r+0x766>
    4970:	8a36                	mv	s4,a3
    4972:	b7fd                	j	4960 <_dtoa_r+0x6c2>
    4974:	00004797          	auipc	a5,0x4
    4978:	99c78793          	addi	a5,a5,-1636 # 8310 <_read+0x214>
    497c:	4390                	lw	a2,0(a5)
    497e:	43d4                	lw	a3,4(a5)
    4980:	73a020ef          	jal	ra,70ba <__muldf3>
    4984:	8c2a                	mv	s8,a0
    4986:	8cae                	mv	s9,a1
    4988:	bfb1                	j	48e4 <_dtoa_r+0x646>
    498a:	87e2                	mv	a5,s8
    498c:	8cbe                	mv	s9,a5
    498e:	4782                	lw	a5,0(sp)
    4990:	8c52                	mv	s8,s4
    4992:	00004a97          	auipc	s5,0x4
    4996:	97ea8a93          	addi	s5,s5,-1666 # 8310 <_read+0x214>
    499a:	00178913          	addi	s2,a5,1
    499e:	9dbe                	add	s11,s11,a5
    49a0:	865a                	mv	a2,s6
    49a2:	86de                	mv	a3,s7
    49a4:	8562                	mv	a0,s8
    49a6:	85e6                	mv	a1,s9
    49a8:	791010ef          	jal	ra,6938 <__divdf3>
    49ac:	33e030ef          	jal	ra,7cea <__fixdfsi>
    49b0:	8d2a                	mv	s10,a0
    49b2:	3a0030ef          	jal	ra,7d52 <__floatsidf>
    49b6:	865a                	mv	a2,s6
    49b8:	86de                	mv	a3,s7
    49ba:	700020ef          	jal	ra,70ba <__muldf3>
    49be:	862a                	mv	a2,a0
    49c0:	86ae                	mv	a3,a1
    49c2:	8562                	mv	a0,s8
    49c4:	85e6                	mv	a1,s9
    49c6:	3ad020ef          	jal	ra,7572 <__subdf3>
    49ca:	030d0793          	addi	a5,s10,48
    49ce:	fef90fa3          	sb	a5,-1(s2)
    49d2:	862a                	mv	a2,a0
    49d4:	86ae                	mv	a3,a1
    49d6:	8a4a                	mv	s4,s2
    49d8:	072d9e63          	bne	s11,s2,4a54 <_dtoa_r+0x7b6>
    49dc:	02d010ef          	jal	ra,6208 <__adddf3>
    49e0:	865a                	mv	a2,s6
    49e2:	86de                	mv	a3,s7
    49e4:	8c2a                	mv	s8,a0
    49e6:	8cae                	mv	s9,a1
    49e8:	56e020ef          	jal	ra,6f56 <__gedf2>
    49ec:	02a04b63          	bgtz	a0,4a22 <_dtoa_r+0x784>
    49f0:	865a                	mv	a2,s6
    49f2:	86de                	mv	a3,s7
    49f4:	8562                	mv	a0,s8
    49f6:	85e6                	mv	a1,s9
    49f8:	4f4020ef          	jal	ra,6eec <__eqdf2>
    49fc:	e501                	bnez	a0,4a04 <_dtoa_r+0x766>
    49fe:	001d7793          	andi	a5,s10,1
    4a02:	e385                	bnez	a5,4a22 <_dtoa_r+0x784>
    4a04:	85ce                	mv	a1,s3
    4a06:	8526                	mv	a0,s1
    4a08:	24f000ef          	jal	ra,5456 <_Bfree>
    4a0c:	57c2                	lw	a5,48(sp)
    4a0e:	000a0023          	sb	zero,0(s4)
    4a12:	0405                	addi	s0,s0,1
    4a14:	c380                	sw	s0,0(a5)
    4a16:	47d2                	lw	a5,20(sp)
    4a18:	940789e3          	beqz	a5,436a <_dtoa_r+0xcc>
    4a1c:	0147a023          	sw	s4,0(a5)
    4a20:	b2a9                	j	436a <_dtoa_r+0xcc>
    4a22:	8d22                	mv	s10,s0
    4a24:	03900713          	li	a4,57
    4a28:	fffa4683          	lbu	a3,-1(s4)
    4a2c:	fffa0793          	addi	a5,s4,-1
    4a30:	00e69a63          	bne	a3,a4,4a44 <_dtoa_r+0x7a6>
    4a34:	4682                	lw	a3,0(sp)
    4a36:	00f69d63          	bne	a3,a5,4a50 <_dtoa_r+0x7b2>
    4a3a:	03000713          	li	a4,48
    4a3e:	0d05                	addi	s10,s10,1
    4a40:	00e68023          	sb	a4,0(a3)
    4a44:	0007c703          	lbu	a4,0(a5)
    4a48:	0705                	addi	a4,a4,1
    4a4a:	00e78023          	sb	a4,0(a5)
    4a4e:	bf39                	j	496c <_dtoa_r+0x6ce>
    4a50:	8a3e                	mv	s4,a5
    4a52:	bfd9                	j	4a28 <_dtoa_r+0x78a>
    4a54:	000aa603          	lw	a2,0(s5)
    4a58:	004aa683          	lw	a3,4(s5)
    4a5c:	0905                	addi	s2,s2,1
    4a5e:	65c020ef          	jal	ra,70ba <__muldf3>
    4a62:	4601                	li	a2,0
    4a64:	4681                	li	a3,0
    4a66:	8c2a                	mv	s8,a0
    4a68:	8cae                	mv	s9,a1
    4a6a:	482020ef          	jal	ra,6eec <__eqdf2>
    4a6e:	f90d                	bnez	a0,49a0 <_dtoa_r+0x702>
    4a70:	bf51                	j	4a04 <_dtoa_r+0x766>
    4a72:	4742                	lw	a4,16(sp)
    4a74:	10070063          	beqz	a4,4b74 <_dtoa_r+0x8d6>
    4a78:	4692                	lw	a3,4(sp)
    4a7a:	4705                	li	a4,1
    4a7c:	0cd74563          	blt	a4,a3,4b46 <_dtoa_r+0x8a8>
    4a80:	5762                	lw	a4,56(sp)
    4a82:	43378793          	addi	a5,a5,1075
    4a86:	e709                	bnez	a4,4a90 <_dtoa_r+0x7f2>
    4a88:	4726                	lw	a4,72(sp)
    4a8a:	03600793          	li	a5,54
    4a8e:	8f99                	sub	a5,a5,a4
    4a90:	8d56                	mv	s10,s5
    4a92:	8cda                	mv	s9,s6
    4a94:	4585                	li	a1,1
    4a96:	8526                	mv	a0,s1
    4a98:	9b3e                	add	s6,s6,a5
    4a9a:	9bbe                	add	s7,s7,a5
    4a9c:	347000ef          	jal	ra,55e2 <__i2b>
    4aa0:	892a                	mv	s2,a0
    4aa2:	01905e63          	blez	s9,4abe <_dtoa_r+0x820>
    4aa6:	01705c63          	blez	s7,4abe <_dtoa_r+0x820>
    4aaa:	87e6                	mv	a5,s9
    4aac:	019bd363          	bge	s7,s9,4ab2 <_dtoa_r+0x814>
    4ab0:	87de                	mv	a5,s7
    4ab2:	40fb0b33          	sub	s6,s6,a5
    4ab6:	40fc8cb3          	sub	s9,s9,a5
    4aba:	40fb8bb3          	sub	s7,s7,a5
    4abe:	040a8063          	beqz	s5,4afe <_dtoa_r+0x860>
    4ac2:	47c2                	lw	a5,16(sp)
    4ac4:	cfc5                	beqz	a5,4b7c <_dtoa_r+0x8de>
    4ac6:	03a05463          	blez	s10,4aee <_dtoa_r+0x850>
    4aca:	85ca                	mv	a1,s2
    4acc:	866a                	mv	a2,s10
    4ace:	8526                	mv	a0,s1
    4ad0:	473000ef          	jal	ra,5742 <__pow5mult>
    4ad4:	864e                	mv	a2,s3
    4ad6:	85aa                	mv	a1,a0
    4ad8:	892a                	mv	s2,a0
    4ada:	8526                	mv	a0,s1
    4adc:	323000ef          	jal	ra,55fe <__multiply>
    4ae0:	ce2a                	sw	a0,28(sp)
    4ae2:	85ce                	mv	a1,s3
    4ae4:	8526                	mv	a0,s1
    4ae6:	171000ef          	jal	ra,5456 <_Bfree>
    4aea:	47f2                	lw	a5,28(sp)
    4aec:	89be                	mv	s3,a5
    4aee:	41aa8633          	sub	a2,s5,s10
    4af2:	c611                	beqz	a2,4afe <_dtoa_r+0x860>
    4af4:	85ce                	mv	a1,s3
    4af6:	8526                	mv	a0,s1
    4af8:	44b000ef          	jal	ra,5742 <__pow5mult>
    4afc:	89aa                	mv	s3,a0
    4afe:	4585                	li	a1,1
    4b00:	8526                	mv	a0,s1
    4b02:	2e1000ef          	jal	ra,55e2 <__i2b>
    4b06:	47e2                	lw	a5,24(sp)
    4b08:	8aaa                	mv	s5,a0
    4b0a:	06f05b63          	blez	a5,4b80 <_dtoa_r+0x8e2>
    4b0e:	863e                	mv	a2,a5
    4b10:	85aa                	mv	a1,a0
    4b12:	8526                	mv	a0,s1
    4b14:	42f000ef          	jal	ra,5742 <__pow5mult>
    4b18:	4712                	lw	a4,4(sp)
    4b1a:	4785                	li	a5,1
    4b1c:	8aaa                	mv	s5,a0
    4b1e:	4d01                	li	s10,0
    4b20:	06e7c863          	blt	a5,a4,4b90 <_dtoa_r+0x8f2>
    4b24:	4d01                	li	s10,0
    4b26:	060a1263          	bnez	s4,4b8a <_dtoa_r+0x8ec>
    4b2a:	00cc1793          	slli	a5,s8,0xc
    4b2e:	8d52                	mv	s10,s4
    4b30:	efa9                	bnez	a5,4b8a <_dtoa_r+0x8ec>
    4b32:	7ff005b7          	lui	a1,0x7ff00
    4b36:	00bc7c33          	and	s8,s8,a1
    4b3a:	040c0863          	beqz	s8,4b8a <_dtoa_r+0x8ec>
    4b3e:	0b05                	addi	s6,s6,1
    4b40:	0b85                	addi	s7,s7,1
    4b42:	4d05                	li	s10,1
    4b44:	a099                	j	4b8a <_dtoa_r+0x8ec>
    4b46:	fffd8d13          	addi	s10,s11,-1
    4b4a:	01aaca63          	blt	s5,s10,4b5e <_dtoa_r+0x8c0>
    4b4e:	41aa8d33          	sub	s10,s5,s10
    4b52:	000dde63          	bgez	s11,4b6e <_dtoa_r+0x8d0>
    4b56:	41bb0cb3          	sub	s9,s6,s11
    4b5a:	4781                	li	a5,0
    4b5c:	bf25                	j	4a94 <_dtoa_r+0x7f6>
    4b5e:	47e2                	lw	a5,24(sp)
    4b60:	415d0ab3          	sub	s5,s10,s5
    4b64:	97d6                	add	a5,a5,s5
    4b66:	cc3e                	sw	a5,24(sp)
    4b68:	8aea                	mv	s5,s10
    4b6a:	4d01                	li	s10,0
    4b6c:	b7dd                	j	4b52 <_dtoa_r+0x8b4>
    4b6e:	8cda                	mv	s9,s6
    4b70:	87ee                	mv	a5,s11
    4b72:	b70d                	j	4a94 <_dtoa_r+0x7f6>
    4b74:	8d56                	mv	s10,s5
    4b76:	8cda                	mv	s9,s6
    4b78:	4901                	li	s2,0
    4b7a:	b725                	j	4aa2 <_dtoa_r+0x804>
    4b7c:	8656                	mv	a2,s5
    4b7e:	bf9d                	j	4af4 <_dtoa_r+0x856>
    4b80:	4712                	lw	a4,4(sp)
    4b82:	4785                	li	a5,1
    4b84:	4d01                	li	s10,0
    4b86:	f8e7dfe3          	bge	a5,a4,4b24 <_dtoa_r+0x886>
    4b8a:	47e2                	lw	a5,24(sp)
    4b8c:	4505                	li	a0,1
    4b8e:	cf89                	beqz	a5,4ba8 <_dtoa_r+0x90a>
    4b90:	010aa783          	lw	a5,16(s5)
    4b94:	078d                	addi	a5,a5,3
    4b96:	078a                	slli	a5,a5,0x2
    4b98:	97d6                	add	a5,a5,s5
    4b9a:	43c8                	lw	a0,4(a5)
    4b9c:	197000ef          	jal	ra,5532 <__hi0bits>
    4ba0:	02000793          	li	a5,32
    4ba4:	40a78533          	sub	a0,a5,a0
    4ba8:	955e                	add	a0,a0,s7
    4baa:	897d                	andi	a0,a0,31
    4bac:	c151                	beqz	a0,4c30 <_dtoa_r+0x992>
    4bae:	02000793          	li	a5,32
    4bb2:	8f89                	sub	a5,a5,a0
    4bb4:	4711                	li	a4,4
    4bb6:	06f75a63          	bge	a4,a5,4c2a <_dtoa_r+0x98c>
    4bba:	47f1                	li	a5,28
    4bbc:	40a78533          	sub	a0,a5,a0
    4bc0:	9b2a                	add	s6,s6,a0
    4bc2:	9caa                	add	s9,s9,a0
    4bc4:	9baa                	add	s7,s7,a0
    4bc6:	01605863          	blez	s6,4bd6 <_dtoa_r+0x938>
    4bca:	85ce                	mv	a1,s3
    4bcc:	865a                	mv	a2,s6
    4bce:	8526                	mv	a0,s1
    4bd0:	431000ef          	jal	ra,5800 <__lshift>
    4bd4:	89aa                	mv	s3,a0
    4bd6:	01705863          	blez	s7,4be6 <_dtoa_r+0x948>
    4bda:	85d6                	mv	a1,s5
    4bdc:	865e                	mv	a2,s7
    4bde:	8526                	mv	a0,s1
    4be0:	421000ef          	jal	ra,5800 <__lshift>
    4be4:	8aaa                	mv	s5,a0
    4be6:	57b2                	lw	a5,44(sp)
    4be8:	c7b1                	beqz	a5,4c34 <_dtoa_r+0x996>
    4bea:	85d6                	mv	a1,s5
    4bec:	854e                	mv	a0,s3
    4bee:	4e1000ef          	jal	ra,58ce <__mcmp>
    4bf2:	04055163          	bgez	a0,4c34 <_dtoa_r+0x996>
    4bf6:	85ce                	mv	a1,s3
    4bf8:	4681                	li	a3,0
    4bfa:	4629                	li	a2,10
    4bfc:	8526                	mv	a0,s1
    4bfe:	09d000ef          	jal	ra,549a <__multadd>
    4c02:	47c2                	lw	a5,16(sp)
    4c04:	147d                	addi	s0,s0,-1
    4c06:	89aa                	mv	s3,a0
    4c08:	26078c63          	beqz	a5,4e80 <_dtoa_r+0xbe2>
    4c0c:	85ca                	mv	a1,s2
    4c0e:	4681                	li	a3,0
    4c10:	4629                	li	a2,10
    4c12:	8526                	mv	a0,s1
    4c14:	087000ef          	jal	ra,549a <__multadd>
    4c18:	47a2                	lw	a5,8(sp)
    4c1a:	892a                	mv	s2,a0
    4c1c:	08f04563          	bgtz	a5,4ca6 <_dtoa_r+0xa08>
    4c20:	4712                	lw	a4,4(sp)
    4c22:	4789                	li	a5,2
    4c24:	08e7d163          	bge	a5,a4,4ca6 <_dtoa_r+0xa08>
    4c28:	a829                	j	4c42 <_dtoa_r+0x9a4>
    4c2a:	f8e78ee3          	beq	a5,a4,4bc6 <_dtoa_r+0x928>
    4c2e:	853e                	mv	a0,a5
    4c30:	0571                	addi	a0,a0,28
    4c32:	b779                	j	4bc0 <_dtoa_r+0x922>
    4c34:	07b04563          	bgtz	s11,4c9e <_dtoa_r+0xa00>
    4c38:	4712                	lw	a4,4(sp)
    4c3a:	4789                	li	a5,2
    4c3c:	06e7d163          	bge	a5,a4,4c9e <_dtoa_r+0xa00>
    4c40:	c46e                	sw	s11,8(sp)
    4c42:	47a2                	lw	a5,8(sp)
    4c44:	ef91                	bnez	a5,4c60 <_dtoa_r+0x9c2>
    4c46:	85d6                	mv	a1,s5
    4c48:	4681                	li	a3,0
    4c4a:	4615                	li	a2,5
    4c4c:	8526                	mv	a0,s1
    4c4e:	04d000ef          	jal	ra,549a <__multadd>
    4c52:	8aaa                	mv	s5,a0
    4c54:	85aa                	mv	a1,a0
    4c56:	854e                	mv	a0,s3
    4c58:	477000ef          	jal	ra,58ce <__mcmp>
    4c5c:	b4a04de3          	bgtz	a0,47b6 <_dtoa_r+0x518>
    4c60:	47b2                	lw	a5,12(sp)
    4c62:	4a02                	lw	s4,0(sp)
    4c64:	fff7c413          	not	s0,a5
    4c68:	4b01                	li	s6,0
    4c6a:	85d6                	mv	a1,s5
    4c6c:	8526                	mv	a0,s1
    4c6e:	7e8000ef          	jal	ra,5456 <_Bfree>
    4c72:	d80909e3          	beqz	s2,4a04 <_dtoa_r+0x766>
    4c76:	000b0863          	beqz	s6,4c86 <_dtoa_r+0x9e8>
    4c7a:	012b0663          	beq	s6,s2,4c86 <_dtoa_r+0x9e8>
    4c7e:	85da                	mv	a1,s6
    4c80:	8526                	mv	a0,s1
    4c82:	7d4000ef          	jal	ra,5456 <_Bfree>
    4c86:	85ca                	mv	a1,s2
    4c88:	8526                	mv	a0,s1
    4c8a:	7cc000ef          	jal	ra,5456 <_Bfree>
    4c8e:	bb9d                	j	4a04 <_dtoa_r+0x766>
    4c90:	4a81                	li	s5,0
    4c92:	4901                	li	s2,0
    4c94:	b7f1                	j	4c60 <_dtoa_r+0x9c2>
    4c96:	846a                	mv	s0,s10
    4c98:	4a81                	li	s5,0
    4c9a:	4901                	li	s2,0
    4c9c:	be29                	j	47b6 <_dtoa_r+0x518>
    4c9e:	47c2                	lw	a5,16(sp)
    4ca0:	c46e                	sw	s11,8(sp)
    4ca2:	1e078663          	beqz	a5,4e8e <_dtoa_r+0xbf0>
    4ca6:	01905863          	blez	s9,4cb6 <_dtoa_r+0xa18>
    4caa:	85ca                	mv	a1,s2
    4cac:	8666                	mv	a2,s9
    4cae:	8526                	mv	a0,s1
    4cb0:	351000ef          	jal	ra,5800 <__lshift>
    4cb4:	892a                	mv	s2,a0
    4cb6:	854a                	mv	a0,s2
    4cb8:	020d0663          	beqz	s10,4ce4 <_dtoa_r+0xa46>
    4cbc:	00492583          	lw	a1,4(s2)
    4cc0:	8526                	mv	a0,s1
    4cc2:	70c000ef          	jal	ra,53ce <_Balloc>
    4cc6:	01092603          	lw	a2,16(s2)
    4cca:	8b2a                	mv	s6,a0
    4ccc:	00c90593          	addi	a1,s2,12
    4cd0:	0609                	addi	a2,a2,2
    4cd2:	060a                	slli	a2,a2,0x2
    4cd4:	0531                	addi	a0,a0,12
    4cd6:	eccfe0ef          	jal	ra,33a2 <memcpy>
    4cda:	4605                	li	a2,1
    4cdc:	85da                	mv	a1,s6
    4cde:	8526                	mv	a0,s1
    4ce0:	321000ef          	jal	ra,5800 <__lshift>
    4ce4:	4782                	lw	a5,0(sp)
    4ce6:	4722                	lw	a4,8(sp)
    4ce8:	8b4a                	mv	s6,s2
    4cea:	00178c13          	addi	s8,a5,1
    4cee:	97ba                	add	a5,a5,a4
    4cf0:	c63e                	sw	a5,12(sp)
    4cf2:	001a7793          	andi	a5,s4,1
    4cf6:	892a                	mv	s2,a0
    4cf8:	c43e                	sw	a5,8(sp)
    4cfa:	85d6                	mv	a1,s5
    4cfc:	854e                	mv	a0,s3
    4cfe:	c66ff0ef          	jal	ra,4164 <quorem>
    4d02:	85da                	mv	a1,s6
    4d04:	8d2a                	mv	s10,a0
    4d06:	03050d93          	addi	s11,a0,48
    4d0a:	854e                	mv	a0,s3
    4d0c:	3c3000ef          	jal	ra,58ce <__mcmp>
    4d10:	864a                	mv	a2,s2
    4d12:	8baa                	mv	s7,a0
    4d14:	85d6                	mv	a1,s5
    4d16:	8526                	mv	a0,s1
    4d18:	3e9000ef          	jal	ra,5900 <__mdiff>
    4d1c:	4550                	lw	a2,12(a0)
    4d1e:	fffc0c93          	addi	s9,s8,-1 # ffff7fff <__freertos_irq_stack_top+0xdfff2fff>
    4d22:	8a2a                	mv	s4,a0
    4d24:	4705                	li	a4,1
    4d26:	e611                	bnez	a2,4d32 <_dtoa_r+0xa94>
    4d28:	85aa                	mv	a1,a0
    4d2a:	854e                	mv	a0,s3
    4d2c:	3a3000ef          	jal	ra,58ce <__mcmp>
    4d30:	872a                	mv	a4,a0
    4d32:	85d2                	mv	a1,s4
    4d34:	8526                	mv	a0,s1
    4d36:	c83a                	sw	a4,16(sp)
    4d38:	71e000ef          	jal	ra,5456 <_Bfree>
    4d3c:	4792                	lw	a5,4(sp)
    4d3e:	4742                	lw	a4,16(sp)
    4d40:	8a62                	mv	s4,s8
    4d42:	00e7e6b3          	or	a3,a5,a4
    4d46:	47a2                	lw	a5,8(sp)
    4d48:	8edd                	or	a3,a3,a5
    4d4a:	ee81                	bnez	a3,4d62 <_dtoa_r+0xac4>
    4d4c:	03900713          	li	a4,57
    4d50:	04ed8863          	beq	s11,a4,4da0 <_dtoa_r+0xb02>
    4d54:	01705463          	blez	s7,4d5c <_dtoa_r+0xabe>
    4d58:	031d0d93          	addi	s11,s10,49
    4d5c:	01bc8023          	sb	s11,0(s9) # 4000 <__swbuf_r+0x74>
    4d60:	b729                	j	4c6a <_dtoa_r+0x9cc>
    4d62:	000bca63          	bltz	s7,4d76 <_dtoa_r+0xad8>
    4d66:	4792                	lw	a5,4(sp)
    4d68:	0177ebb3          	or	s7,a5,s7
    4d6c:	47a2                	lw	a5,8(sp)
    4d6e:	00fbebb3          	or	s7,s7,a5
    4d72:	040b9563          	bnez	s7,4dbc <_dtoa_r+0xb1e>
    4d76:	fee053e3          	blez	a4,4d5c <_dtoa_r+0xabe>
    4d7a:	85ce                	mv	a1,s3
    4d7c:	4605                	li	a2,1
    4d7e:	8526                	mv	a0,s1
    4d80:	281000ef          	jal	ra,5800 <__lshift>
    4d84:	85d6                	mv	a1,s5
    4d86:	89aa                	mv	s3,a0
    4d88:	347000ef          	jal	ra,58ce <__mcmp>
    4d8c:	00a04663          	bgtz	a0,4d98 <_dtoa_r+0xafa>
    4d90:	f571                	bnez	a0,4d5c <_dtoa_r+0xabe>
    4d92:	001df713          	andi	a4,s11,1
    4d96:	d379                	beqz	a4,4d5c <_dtoa_r+0xabe>
    4d98:	03900713          	li	a4,57
    4d9c:	faed9ee3          	bne	s11,a4,4d58 <_dtoa_r+0xaba>
    4da0:	03900793          	li	a5,57
    4da4:	00fc8023          	sb	a5,0(s9)
    4da8:	03900693          	li	a3,57
    4dac:	fffa4783          	lbu	a5,-1(s4)
    4db0:	fffa0713          	addi	a4,s4,-1
    4db4:	08d78c63          	beq	a5,a3,4e4c <_dtoa_r+0xbae>
    4db8:	0785                	addi	a5,a5,1
    4dba:	a045                	j	4e5a <_dtoa_r+0xbbc>
    4dbc:	00e05b63          	blez	a4,4dd2 <_dtoa_r+0xb34>
    4dc0:	03900713          	li	a4,57
    4dc4:	fced8ee3          	beq	s11,a4,4da0 <_dtoa_r+0xb02>
    4dc8:	001d8793          	addi	a5,s11,1
    4dcc:	00fc8023          	sb	a5,0(s9)
    4dd0:	bd69                	j	4c6a <_dtoa_r+0x9cc>
    4dd2:	47b2                	lw	a5,12(sp)
    4dd4:	ffbc0fa3          	sb	s11,-1(s8)
    4dd8:	05878163          	beq	a5,s8,4e1a <_dtoa_r+0xb7c>
    4ddc:	85ce                	mv	a1,s3
    4dde:	4681                	li	a3,0
    4de0:	4629                	li	a2,10
    4de2:	8526                	mv	a0,s1
    4de4:	6b6000ef          	jal	ra,549a <__multadd>
    4de8:	89aa                	mv	s3,a0
    4dea:	4681                	li	a3,0
    4dec:	4629                	li	a2,10
    4dee:	85da                	mv	a1,s6
    4df0:	8526                	mv	a0,s1
    4df2:	012b1863          	bne	s6,s2,4e02 <_dtoa_r+0xb64>
    4df6:	6a4000ef          	jal	ra,549a <__multadd>
    4dfa:	8b2a                	mv	s6,a0
    4dfc:	892a                	mv	s2,a0
    4dfe:	0c05                	addi	s8,s8,1
    4e00:	bded                	j	4cfa <_dtoa_r+0xa5c>
    4e02:	698000ef          	jal	ra,549a <__multadd>
    4e06:	85ca                	mv	a1,s2
    4e08:	8b2a                	mv	s6,a0
    4e0a:	4681                	li	a3,0
    4e0c:	4629                	li	a2,10
    4e0e:	8526                	mv	a0,s1
    4e10:	68a000ef          	jal	ra,549a <__multadd>
    4e14:	892a                	mv	s2,a0
    4e16:	b7e5                	j	4dfe <_dtoa_r+0xb60>
    4e18:	4b01                	li	s6,0
    4e1a:	85ce                	mv	a1,s3
    4e1c:	4605                	li	a2,1
    4e1e:	8526                	mv	a0,s1
    4e20:	1e1000ef          	jal	ra,5800 <__lshift>
    4e24:	85d6                	mv	a1,s5
    4e26:	89aa                	mv	s3,a0
    4e28:	2a7000ef          	jal	ra,58ce <__mcmp>
    4e2c:	f6a04ee3          	bgtz	a0,4da8 <_dtoa_r+0xb0a>
    4e30:	e501                	bnez	a0,4e38 <_dtoa_r+0xb9a>
    4e32:	001df793          	andi	a5,s11,1
    4e36:	fbad                	bnez	a5,4da8 <_dtoa_r+0xb0a>
    4e38:	03000793          	li	a5,48
    4e3c:	fffa4703          	lbu	a4,-1(s4)
    4e40:	fffa0693          	addi	a3,s4,-1
    4e44:	e2f713e3          	bne	a4,a5,4c6a <_dtoa_r+0x9cc>
    4e48:	8a36                	mv	s4,a3
    4e4a:	bfcd                	j	4e3c <_dtoa_r+0xb9e>
    4e4c:	4782                	lw	a5,0(sp)
    4e4e:	00e79963          	bne	a5,a4,4e60 <_dtoa_r+0xbc2>
    4e52:	4702                	lw	a4,0(sp)
    4e54:	0405                	addi	s0,s0,1
    4e56:	03100793          	li	a5,49
    4e5a:	00f70023          	sb	a5,0(a4)
    4e5e:	b531                	j	4c6a <_dtoa_r+0x9cc>
    4e60:	8a3a                	mv	s4,a4
    4e62:	b7a9                	j	4dac <_dtoa_r+0xb0e>
    4e64:	4752                	lw	a4,20(sp)
    4e66:	00003797          	auipc	a5,0x3
    4e6a:	4ca78793          	addi	a5,a5,1226 # 8330 <_read+0x234>
    4e6e:	c03e                	sw	a5,0(sp)
    4e70:	00003797          	auipc	a5,0x3
    4e74:	4c878793          	addi	a5,a5,1224 # 8338 <_read+0x23c>
    4e78:	ce071763          	bnez	a4,4366 <_dtoa_r+0xc8>
    4e7c:	ceeff06f          	j	436a <_dtoa_r+0xcc>
    4e80:	47a2                	lw	a5,8(sp)
    4e82:	00f04663          	bgtz	a5,4e8e <_dtoa_r+0xbf0>
    4e86:	4712                	lw	a4,4(sp)
    4e88:	4789                	li	a5,2
    4e8a:	dae7cce3          	blt	a5,a4,4c42 <_dtoa_r+0x9a4>
    4e8e:	4a02                	lw	s4,0(sp)
    4e90:	85d6                	mv	a1,s5
    4e92:	854e                	mv	a0,s3
    4e94:	ad0ff0ef          	jal	ra,4164 <quorem>
    4e98:	4782                	lw	a5,0(sp)
    4e9a:	0a05                	addi	s4,s4,1
    4e9c:	03050d93          	addi	s11,a0,48
    4ea0:	40fa0733          	sub	a4,s4,a5
    4ea4:	47a2                	lw	a5,8(sp)
    4ea6:	ffba0fa3          	sb	s11,-1(s4)
    4eaa:	f6f757e3          	bge	a4,a5,4e18 <_dtoa_r+0xb7a>
    4eae:	85ce                	mv	a1,s3
    4eb0:	4681                	li	a3,0
    4eb2:	4629                	li	a2,10
    4eb4:	8526                	mv	a0,s1
    4eb6:	23d5                	jal	549a <__multadd>
    4eb8:	89aa                	mv	s3,a0
    4eba:	bfd9                	j	4e90 <_dtoa_r+0xbf2>

00004ebc <__sflush_r>:
    4ebc:	00c5d783          	lhu	a5,12(a1) # 7ff0000c <__freertos_irq_stack_top+0x5fefb00c>
    4ec0:	1101                	addi	sp,sp,-32
    4ec2:	cc22                	sw	s0,24(sp)
    4ec4:	ca26                	sw	s1,20(sp)
    4ec6:	ce06                	sw	ra,28(sp)
    4ec8:	c84a                	sw	s2,16(sp)
    4eca:	c64e                	sw	s3,12(sp)
    4ecc:	0087f713          	andi	a4,a5,8
    4ed0:	84aa                	mv	s1,a0
    4ed2:	842e                	mv	s0,a1
    4ed4:	ef79                	bnez	a4,4fb2 <__sflush_r+0xf6>
    4ed6:	41d8                	lw	a4,4(a1)
    4ed8:	00e04d63          	bgtz	a4,4ef2 <__sflush_r+0x36>
    4edc:	41b8                	lw	a4,64(a1)
    4ede:	00e04a63          	bgtz	a4,4ef2 <__sflush_r+0x36>
    4ee2:	4501                	li	a0,0
    4ee4:	40f2                	lw	ra,28(sp)
    4ee6:	4462                	lw	s0,24(sp)
    4ee8:	44d2                	lw	s1,20(sp)
    4eea:	4942                	lw	s2,16(sp)
    4eec:	49b2                	lw	s3,12(sp)
    4eee:	6105                	addi	sp,sp,32
    4ef0:	8082                	ret
    4ef2:	5458                	lw	a4,44(s0)
    4ef4:	d77d                	beqz	a4,4ee2 <__sflush_r+0x26>
    4ef6:	0004a903          	lw	s2,0(s1)
    4efa:	01379693          	slli	a3,a5,0x13
    4efe:	0004a023          	sw	zero,0(s1)
    4f02:	0606de63          	bgez	a3,4f7e <__sflush_r+0xc2>
    4f06:	4870                	lw	a2,84(s0)
    4f08:	00c45783          	lhu	a5,12(s0)
    4f0c:	8b91                	andi	a5,a5,4
    4f0e:	c799                	beqz	a5,4f1c <__sflush_r+0x60>
    4f10:	405c                	lw	a5,4(s0)
    4f12:	8e1d                	sub	a2,a2,a5
    4f14:	585c                	lw	a5,52(s0)
    4f16:	c399                	beqz	a5,4f1c <__sflush_r+0x60>
    4f18:	403c                	lw	a5,64(s0)
    4f1a:	8e1d                	sub	a2,a2,a5
    4f1c:	545c                	lw	a5,44(s0)
    4f1e:	500c                	lw	a1,32(s0)
    4f20:	4681                	li	a3,0
    4f22:	8526                	mv	a0,s1
    4f24:	9782                	jalr	a5
    4f26:	57fd                	li	a5,-1
    4f28:	00c45703          	lhu	a4,12(s0)
    4f2c:	00f51d63          	bne	a0,a5,4f46 <__sflush_r+0x8a>
    4f30:	4094                	lw	a3,0(s1)
    4f32:	47f5                	li	a5,29
    4f34:	06d7e963          	bltu	a5,a3,4fa6 <__sflush_r+0xea>
    4f38:	204007b7          	lui	a5,0x20400
    4f3c:	0785                	addi	a5,a5,1
    4f3e:	00d7d7b3          	srl	a5,a5,a3
    4f42:	8b85                	andi	a5,a5,1
    4f44:	c3ad                	beqz	a5,4fa6 <__sflush_r+0xea>
    4f46:	481c                	lw	a5,16(s0)
    4f48:	00042223          	sw	zero,4(s0)
    4f4c:	c01c                	sw	a5,0(s0)
    4f4e:	01371793          	slli	a5,a4,0x13
    4f52:	0007d863          	bgez	a5,4f62 <__sflush_r+0xa6>
    4f56:	57fd                	li	a5,-1
    4f58:	00f51463          	bne	a0,a5,4f60 <__sflush_r+0xa4>
    4f5c:	409c                	lw	a5,0(s1)
    4f5e:	e391                	bnez	a5,4f62 <__sflush_r+0xa6>
    4f60:	c868                	sw	a0,84(s0)
    4f62:	584c                	lw	a1,52(s0)
    4f64:	0124a023          	sw	s2,0(s1)
    4f68:	ddad                	beqz	a1,4ee2 <__sflush_r+0x26>
    4f6a:	04440793          	addi	a5,s0,68
    4f6e:	00f58563          	beq	a1,a5,4f78 <__sflush_r+0xbc>
    4f72:	8526                	mv	a0,s1
    4f74:	379000ef          	jal	ra,5aec <_free_r>
    4f78:	02042a23          	sw	zero,52(s0)
    4f7c:	b79d                	j	4ee2 <__sflush_r+0x26>
    4f7e:	500c                	lw	a1,32(s0)
    4f80:	4601                	li	a2,0
    4f82:	4685                	li	a3,1
    4f84:	8526                	mv	a0,s1
    4f86:	9702                	jalr	a4
    4f88:	57fd                	li	a5,-1
    4f8a:	862a                	mv	a2,a0
    4f8c:	f6f51ee3          	bne	a0,a5,4f08 <__sflush_r+0x4c>
    4f90:	409c                	lw	a5,0(s1)
    4f92:	dbbd                	beqz	a5,4f08 <__sflush_r+0x4c>
    4f94:	4775                	li	a4,29
    4f96:	00e78563          	beq	a5,a4,4fa0 <__sflush_r+0xe4>
    4f9a:	4759                	li	a4,22
    4f9c:	04e79463          	bne	a5,a4,4fe4 <__sflush_r+0x128>
    4fa0:	0124a023          	sw	s2,0(s1)
    4fa4:	bf3d                	j	4ee2 <__sflush_r+0x26>
    4fa6:	04076713          	ori	a4,a4,64
    4faa:	00e41623          	sh	a4,12(s0)
    4fae:	557d                	li	a0,-1
    4fb0:	bf15                	j	4ee4 <__sflush_r+0x28>
    4fb2:	0105a983          	lw	s3,16(a1)
    4fb6:	f20986e3          	beqz	s3,4ee2 <__sflush_r+0x26>
    4fba:	0005a903          	lw	s2,0(a1)
    4fbe:	8b8d                	andi	a5,a5,3
    4fc0:	0135a023          	sw	s3,0(a1)
    4fc4:	41390933          	sub	s2,s2,s3
    4fc8:	4701                	li	a4,0
    4fca:	e391                	bnez	a5,4fce <__sflush_r+0x112>
    4fcc:	49d8                	lw	a4,20(a1)
    4fce:	c418                	sw	a4,8(s0)
    4fd0:	f12059e3          	blez	s2,4ee2 <__sflush_r+0x26>
    4fd4:	541c                	lw	a5,40(s0)
    4fd6:	500c                	lw	a1,32(s0)
    4fd8:	86ca                	mv	a3,s2
    4fda:	864e                	mv	a2,s3
    4fdc:	8526                	mv	a0,s1
    4fde:	9782                	jalr	a5
    4fe0:	00a04963          	bgtz	a0,4ff2 <__sflush_r+0x136>
    4fe4:	00c45783          	lhu	a5,12(s0)
    4fe8:	0407e793          	ori	a5,a5,64
    4fec:	00f41623          	sh	a5,12(s0)
    4ff0:	bf7d                	j	4fae <__sflush_r+0xf2>
    4ff2:	99aa                	add	s3,s3,a0
    4ff4:	40a90933          	sub	s2,s2,a0
    4ff8:	bfe1                	j	4fd0 <__sflush_r+0x114>

00004ffa <_fflush_r>:
    4ffa:	499c                	lw	a5,16(a1)
    4ffc:	c3a5                	beqz	a5,505c <_fflush_r+0x62>
    4ffe:	1101                	addi	sp,sp,-32
    5000:	cc22                	sw	s0,24(sp)
    5002:	ce06                	sw	ra,28(sp)
    5004:	842a                	mv	s0,a0
    5006:	c511                	beqz	a0,5012 <_fflush_r+0x18>
    5008:	4d1c                	lw	a5,24(a0)
    500a:	e781                	bnez	a5,5012 <_fflush_r+0x18>
    500c:	c62e                	sw	a1,12(sp)
    500e:	2239                	jal	511c <__sinit>
    5010:	45b2                	lw	a1,12(sp)
    5012:	00003797          	auipc	a5,0x3
    5016:	34e78793          	addi	a5,a5,846 # 8360 <__sf_fake_stdin>
    501a:	00f59c63          	bne	a1,a5,5032 <_fflush_r+0x38>
    501e:	404c                	lw	a1,4(s0)
    5020:	00c59783          	lh	a5,12(a1)
    5024:	c79d                	beqz	a5,5052 <_fflush_r+0x58>
    5026:	8522                	mv	a0,s0
    5028:	4462                	lw	s0,24(sp)
    502a:	40f2                	lw	ra,28(sp)
    502c:	6105                	addi	sp,sp,32
    502e:	e8fff06f          	j	4ebc <__sflush_r>
    5032:	00003797          	auipc	a5,0x3
    5036:	34e78793          	addi	a5,a5,846 # 8380 <__sf_fake_stdout>
    503a:	00f59463          	bne	a1,a5,5042 <_fflush_r+0x48>
    503e:	440c                	lw	a1,8(s0)
    5040:	b7c5                	j	5020 <_fflush_r+0x26>
    5042:	00003797          	auipc	a5,0x3
    5046:	2fe78793          	addi	a5,a5,766 # 8340 <__sf_fake_stderr>
    504a:	fcf59be3          	bne	a1,a5,5020 <_fflush_r+0x26>
    504e:	444c                	lw	a1,12(s0)
    5050:	bfc1                	j	5020 <_fflush_r+0x26>
    5052:	40f2                	lw	ra,28(sp)
    5054:	4462                	lw	s0,24(sp)
    5056:	4501                	li	a0,0
    5058:	6105                	addi	sp,sp,32
    505a:	8082                	ret
    505c:	4501                	li	a0,0
    505e:	8082                	ret

00005060 <std>:
    5060:	1141                	addi	sp,sp,-16
    5062:	c422                	sw	s0,8(sp)
    5064:	c606                	sw	ra,12(sp)
    5066:	842a                	mv	s0,a0
    5068:	00b51623          	sh	a1,12(a0)
    506c:	00c51723          	sh	a2,14(a0)
    5070:	00052023          	sw	zero,0(a0)
    5074:	00052223          	sw	zero,4(a0)
    5078:	00052423          	sw	zero,8(a0)
    507c:	06052223          	sw	zero,100(a0)
    5080:	00052823          	sw	zero,16(a0)
    5084:	00052a23          	sw	zero,20(a0)
    5088:	00052c23          	sw	zero,24(a0)
    508c:	4621                	li	a2,8
    508e:	4581                	li	a1,0
    5090:	05c50513          	addi	a0,a0,92
    5094:	cbafb0ef          	jal	ra,54e <memset>
    5098:	00001797          	auipc	a5,0x1
    509c:	f1e78793          	addi	a5,a5,-226 # 5fb6 <__sread>
    50a0:	d05c                	sw	a5,36(s0)
    50a2:	00001797          	auipc	a5,0x1
    50a6:	f4478793          	addi	a5,a5,-188 # 5fe6 <__swrite>
    50aa:	d41c                	sw	a5,40(s0)
    50ac:	00001797          	auipc	a5,0x1
    50b0:	f8878793          	addi	a5,a5,-120 # 6034 <__sseek>
    50b4:	d45c                	sw	a5,44(s0)
    50b6:	00001797          	auipc	a5,0x1
    50ba:	fb478793          	addi	a5,a5,-76 # 606a <__sclose>
    50be:	d000                	sw	s0,32(s0)
    50c0:	d81c                	sw	a5,48(s0)
    50c2:	40b2                	lw	ra,12(sp)
    50c4:	4422                	lw	s0,8(sp)
    50c6:	0141                	addi	sp,sp,16
    50c8:	8082                	ret

000050ca <_cleanup_r>:
    50ca:	00000597          	auipc	a1,0x0
    50ce:	f3058593          	addi	a1,a1,-208 # 4ffa <_fflush_r>
    50d2:	aa99                	j	5228 <_fwalk_reent>

000050d4 <__sfmoreglue>:
    50d4:	1141                	addi	sp,sp,-16
    50d6:	c226                	sw	s1,4(sp)
    50d8:	06800613          	li	a2,104
    50dc:	fff58493          	addi	s1,a1,-1
    50e0:	02c484b3          	mul	s1,s1,a2
    50e4:	c04a                	sw	s2,0(sp)
    50e6:	892e                	mv	s2,a1
    50e8:	c422                	sw	s0,8(sp)
    50ea:	c606                	sw	ra,12(sp)
    50ec:	07448593          	addi	a1,s1,116
    50f0:	2a9000ef          	jal	ra,5b98 <_malloc_r>
    50f4:	842a                	mv	s0,a0
    50f6:	cd01                	beqz	a0,510e <__sfmoreglue+0x3a>
    50f8:	00052023          	sw	zero,0(a0)
    50fc:	01252223          	sw	s2,4(a0)
    5100:	0531                	addi	a0,a0,12
    5102:	c408                	sw	a0,8(s0)
    5104:	06848613          	addi	a2,s1,104
    5108:	4581                	li	a1,0
    510a:	c44fb0ef          	jal	ra,54e <memset>
    510e:	8522                	mv	a0,s0
    5110:	40b2                	lw	ra,12(sp)
    5112:	4422                	lw	s0,8(sp)
    5114:	4492                	lw	s1,4(sp)
    5116:	4902                	lw	s2,0(sp)
    5118:	0141                	addi	sp,sp,16
    511a:	8082                	ret

0000511c <__sinit>:
    511c:	4d1c                	lw	a5,24(a0)
    511e:	e7a5                	bnez	a5,5186 <__sinit+0x6a>
    5120:	1141                	addi	sp,sp,-16
    5122:	c606                	sw	ra,12(sp)
    5124:	c422                	sw	s0,8(sp)
    5126:	00000797          	auipc	a5,0x0
    512a:	fa478793          	addi	a5,a5,-92 # 50ca <_cleanup_r>
    512e:	d51c                	sw	a5,40(a0)
    5130:	81c18793          	addi	a5,gp,-2020 # 2000020c <_global_impure_ptr>
    5134:	439c                	lw	a5,0(a5)
    5136:	04052423          	sw	zero,72(a0)
    513a:	04052623          	sw	zero,76(a0)
    513e:	04052823          	sw	zero,80(a0)
    5142:	00f51463          	bne	a0,a5,514a <__sinit+0x2e>
    5146:	4785                	li	a5,1
    5148:	cd1c                	sw	a5,24(a0)
    514a:	842a                	mv	s0,a0
    514c:	2835                	jal	5188 <__sfp>
    514e:	c048                	sw	a0,4(s0)
    5150:	8522                	mv	a0,s0
    5152:	281d                	jal	5188 <__sfp>
    5154:	c408                	sw	a0,8(s0)
    5156:	8522                	mv	a0,s0
    5158:	2805                	jal	5188 <__sfp>
    515a:	c448                	sw	a0,12(s0)
    515c:	4048                	lw	a0,4(s0)
    515e:	4601                	li	a2,0
    5160:	4591                	li	a1,4
    5162:	effff0ef          	jal	ra,5060 <std>
    5166:	4408                	lw	a0,8(s0)
    5168:	4605                	li	a2,1
    516a:	45a5                	li	a1,9
    516c:	ef5ff0ef          	jal	ra,5060 <std>
    5170:	4448                	lw	a0,12(s0)
    5172:	4609                	li	a2,2
    5174:	45c9                	li	a1,18
    5176:	eebff0ef          	jal	ra,5060 <std>
    517a:	4785                	li	a5,1
    517c:	cc1c                	sw	a5,24(s0)
    517e:	40b2                	lw	ra,12(sp)
    5180:	4422                	lw	s0,8(sp)
    5182:	0141                	addi	sp,sp,16
    5184:	8082                	ret
    5186:	8082                	ret

00005188 <__sfp>:
    5188:	1141                	addi	sp,sp,-16
    518a:	81c18793          	addi	a5,gp,-2020 # 2000020c <_global_impure_ptr>
    518e:	c226                	sw	s1,4(sp)
    5190:	4384                	lw	s1,0(a5)
    5192:	c04a                	sw	s2,0(sp)
    5194:	c606                	sw	ra,12(sp)
    5196:	4c9c                	lw	a5,24(s1)
    5198:	c422                	sw	s0,8(sp)
    519a:	892a                	mv	s2,a0
    519c:	e781                	bnez	a5,51a4 <__sfp+0x1c>
    519e:	8526                	mv	a0,s1
    51a0:	f7dff0ef          	jal	ra,511c <__sinit>
    51a4:	04848493          	addi	s1,s1,72
    51a8:	4480                	lw	s0,8(s1)
    51aa:	40dc                	lw	a5,4(s1)
    51ac:	17fd                	addi	a5,a5,-1
    51ae:	0007d663          	bgez	a5,51ba <__sfp+0x32>
    51b2:	409c                	lw	a5,0(s1)
    51b4:	cfb9                	beqz	a5,5212 <__sfp+0x8a>
    51b6:	4084                	lw	s1,0(s1)
    51b8:	bfc5                	j	51a8 <__sfp+0x20>
    51ba:	00c41703          	lh	a4,12(s0)
    51be:	e739                	bnez	a4,520c <__sfp+0x84>
    51c0:	77c1                	lui	a5,0xffff0
    51c2:	0785                	addi	a5,a5,1
    51c4:	06042223          	sw	zero,100(s0)
    51c8:	00042023          	sw	zero,0(s0)
    51cc:	00042223          	sw	zero,4(s0)
    51d0:	00042423          	sw	zero,8(s0)
    51d4:	c45c                	sw	a5,12(s0)
    51d6:	00042823          	sw	zero,16(s0)
    51da:	00042a23          	sw	zero,20(s0)
    51de:	00042c23          	sw	zero,24(s0)
    51e2:	4621                	li	a2,8
    51e4:	4581                	li	a1,0
    51e6:	05c40513          	addi	a0,s0,92
    51ea:	b64fb0ef          	jal	ra,54e <memset>
    51ee:	02042a23          	sw	zero,52(s0)
    51f2:	02042c23          	sw	zero,56(s0)
    51f6:	04042423          	sw	zero,72(s0)
    51fa:	04042623          	sw	zero,76(s0)
    51fe:	8522                	mv	a0,s0
    5200:	40b2                	lw	ra,12(sp)
    5202:	4422                	lw	s0,8(sp)
    5204:	4492                	lw	s1,4(sp)
    5206:	4902                	lw	s2,0(sp)
    5208:	0141                	addi	sp,sp,16
    520a:	8082                	ret
    520c:	06840413          	addi	s0,s0,104
    5210:	bf71                	j	51ac <__sfp+0x24>
    5212:	4591                	li	a1,4
    5214:	854a                	mv	a0,s2
    5216:	ebfff0ef          	jal	ra,50d4 <__sfmoreglue>
    521a:	c088                	sw	a0,0(s1)
    521c:	fd49                	bnez	a0,51b6 <__sfp+0x2e>
    521e:	47b1                	li	a5,12
    5220:	00f92023          	sw	a5,0(s2)
    5224:	4401                	li	s0,0
    5226:	bfe1                	j	51fe <__sfp+0x76>

00005228 <_fwalk_reent>:
    5228:	7179                	addi	sp,sp,-48
    522a:	d422                	sw	s0,40(sp)
    522c:	d04a                	sw	s2,32(sp)
    522e:	cc52                	sw	s4,24(sp)
    5230:	ca56                	sw	s5,20(sp)
    5232:	c85a                	sw	s6,16(sp)
    5234:	c65e                	sw	s7,12(sp)
    5236:	d606                	sw	ra,44(sp)
    5238:	d226                	sw	s1,36(sp)
    523a:	ce4e                	sw	s3,28(sp)
    523c:	8a2a                	mv	s4,a0
    523e:	8aae                	mv	s5,a1
    5240:	04850413          	addi	s0,a0,72
    5244:	4901                	li	s2,0
    5246:	4b05                	li	s6,1
    5248:	5bfd                	li	s7,-1
    524a:	ec09                	bnez	s0,5264 <_fwalk_reent+0x3c>
    524c:	50b2                	lw	ra,44(sp)
    524e:	5422                	lw	s0,40(sp)
    5250:	854a                	mv	a0,s2
    5252:	5492                	lw	s1,36(sp)
    5254:	5902                	lw	s2,32(sp)
    5256:	49f2                	lw	s3,28(sp)
    5258:	4a62                	lw	s4,24(sp)
    525a:	4ad2                	lw	s5,20(sp)
    525c:	4b42                	lw	s6,16(sp)
    525e:	4bb2                	lw	s7,12(sp)
    5260:	6145                	addi	sp,sp,48
    5262:	8082                	ret
    5264:	4404                	lw	s1,8(s0)
    5266:	00442983          	lw	s3,4(s0)
    526a:	19fd                	addi	s3,s3,-1
    526c:	0009d463          	bgez	s3,5274 <_fwalk_reent+0x4c>
    5270:	4000                	lw	s0,0(s0)
    5272:	bfe1                	j	524a <_fwalk_reent+0x22>
    5274:	00c4d783          	lhu	a5,12(s1)
    5278:	00fb7b63          	bgeu	s6,a5,528e <_fwalk_reent+0x66>
    527c:	00e49783          	lh	a5,14(s1)
    5280:	01778763          	beq	a5,s7,528e <_fwalk_reent+0x66>
    5284:	85a6                	mv	a1,s1
    5286:	8552                	mv	a0,s4
    5288:	9a82                	jalr	s5
    528a:	00a96933          	or	s2,s2,a0
    528e:	06848493          	addi	s1,s1,104
    5292:	bfe1                	j	526a <_fwalk_reent+0x42>

00005294 <_localeconv_r>:
    5294:	81418793          	addi	a5,gp,-2028 # 20000204 <_impure_ptr>
    5298:	439c                	lw	a5,0(a5)
    529a:	5388                	lw	a0,32(a5)
    529c:	e509                	bnez	a0,52a6 <_localeconv_r+0x12>
    529e:	1fffb517          	auipc	a0,0x1fffb
    52a2:	de250513          	addi	a0,a0,-542 # 20000080 <__global_locale>
    52a6:	0f050513          	addi	a0,a0,240
    52aa:	8082                	ret

000052ac <__swhatbuf_r>:
    52ac:	7119                	addi	sp,sp,-128
    52ae:	daa6                	sw	s1,116(sp)
    52b0:	84ae                	mv	s1,a1
    52b2:	00e59583          	lh	a1,14(a1)
    52b6:	dca2                	sw	s0,120(sp)
    52b8:	de86                	sw	ra,124(sp)
    52ba:	8432                	mv	s0,a2
    52bc:	0005dc63          	bgez	a1,52d4 <__swhatbuf_r+0x28>
    52c0:	00c4d783          	lhu	a5,12(s1)
    52c4:	0006a023          	sw	zero,0(a3)
    52c8:	0807f793          	andi	a5,a5,128
    52cc:	e785                	bnez	a5,52f4 <__swhatbuf_r+0x48>
    52ce:	40000793          	li	a5,1024
    52d2:	a01d                	j	52f8 <__swhatbuf_r+0x4c>
    52d4:	0830                	addi	a2,sp,24
    52d6:	c636                	sw	a3,12(sp)
    52d8:	601000ef          	jal	ra,60d8 <_fstat_r>
    52dc:	46b2                	lw	a3,12(sp)
    52de:	fe0541e3          	bltz	a0,52c0 <__swhatbuf_r+0x14>
    52e2:	4772                	lw	a4,28(sp)
    52e4:	67bd                	lui	a5,0xf
    52e6:	8ff9                	and	a5,a5,a4
    52e8:	7779                	lui	a4,0xffffe
    52ea:	97ba                	add	a5,a5,a4
    52ec:	0017b793          	seqz	a5,a5
    52f0:	c29c                	sw	a5,0(a3)
    52f2:	bff1                	j	52ce <__swhatbuf_r+0x22>
    52f4:	04000793          	li	a5,64
    52f8:	c01c                	sw	a5,0(s0)
    52fa:	50f6                	lw	ra,124(sp)
    52fc:	5466                	lw	s0,120(sp)
    52fe:	54d6                	lw	s1,116(sp)
    5300:	4501                	li	a0,0
    5302:	6109                	addi	sp,sp,128
    5304:	8082                	ret

00005306 <__smakebuf_r>:
    5306:	00c5d783          	lhu	a5,12(a1)
    530a:	1101                	addi	sp,sp,-32
    530c:	cc22                	sw	s0,24(sp)
    530e:	ce06                	sw	ra,28(sp)
    5310:	ca26                	sw	s1,20(sp)
    5312:	c84a                	sw	s2,16(sp)
    5314:	8b89                	andi	a5,a5,2
    5316:	842e                	mv	s0,a1
    5318:	cf89                	beqz	a5,5332 <__smakebuf_r+0x2c>
    531a:	04740793          	addi	a5,s0,71
    531e:	c01c                	sw	a5,0(s0)
    5320:	c81c                	sw	a5,16(s0)
    5322:	4785                	li	a5,1
    5324:	c85c                	sw	a5,20(s0)
    5326:	40f2                	lw	ra,28(sp)
    5328:	4462                	lw	s0,24(sp)
    532a:	44d2                	lw	s1,20(sp)
    532c:	4942                	lw	s2,16(sp)
    532e:	6105                	addi	sp,sp,32
    5330:	8082                	ret
    5332:	0074                	addi	a3,sp,12
    5334:	0030                	addi	a2,sp,8
    5336:	84aa                	mv	s1,a0
    5338:	f75ff0ef          	jal	ra,52ac <__swhatbuf_r>
    533c:	45a2                	lw	a1,8(sp)
    533e:	892a                	mv	s2,a0
    5340:	8526                	mv	a0,s1
    5342:	057000ef          	jal	ra,5b98 <_malloc_r>
    5346:	ed01                	bnez	a0,535e <__smakebuf_r+0x58>
    5348:	00c41783          	lh	a5,12(s0)
    534c:	2007f713          	andi	a4,a5,512
    5350:	fb79                	bnez	a4,5326 <__smakebuf_r+0x20>
    5352:	9bf1                	andi	a5,a5,-4
    5354:	0027e793          	ori	a5,a5,2
    5358:	00f41623          	sh	a5,12(s0)
    535c:	bf7d                	j	531a <__smakebuf_r+0x14>
    535e:	00000797          	auipc	a5,0x0
    5362:	d6c78793          	addi	a5,a5,-660 # 50ca <_cleanup_r>
    5366:	d49c                	sw	a5,40(s1)
    5368:	00c45783          	lhu	a5,12(s0)
    536c:	c008                	sw	a0,0(s0)
    536e:	c808                	sw	a0,16(s0)
    5370:	0807e793          	ori	a5,a5,128
    5374:	00f41623          	sh	a5,12(s0)
    5378:	47a2                	lw	a5,8(sp)
    537a:	c85c                	sw	a5,20(s0)
    537c:	47b2                	lw	a5,12(sp)
    537e:	cf91                	beqz	a5,539a <__smakebuf_r+0x94>
    5380:	00e41583          	lh	a1,14(s0)
    5384:	8526                	mv	a0,s1
    5386:	587000ef          	jal	ra,610c <_isatty_r>
    538a:	c901                	beqz	a0,539a <__smakebuf_r+0x94>
    538c:	00c45783          	lhu	a5,12(s0)
    5390:	9bf1                	andi	a5,a5,-4
    5392:	0017e793          	ori	a5,a5,1
    5396:	00f41623          	sh	a5,12(s0)
    539a:	00c45783          	lhu	a5,12(s0)
    539e:	00f96933          	or	s2,s2,a5
    53a2:	01241623          	sh	s2,12(s0)
    53a6:	b741                	j	5326 <__smakebuf_r+0x20>

000053a8 <malloc>:
    53a8:	81418793          	addi	a5,gp,-2028 # 20000204 <_impure_ptr>
    53ac:	85aa                	mv	a1,a0
    53ae:	4388                	lw	a0,0(a5)
    53b0:	7e80006f          	j	5b98 <_malloc_r>

000053b4 <memchr>:
    53b4:	0ff5f593          	andi	a1,a1,255
    53b8:	962a                	add	a2,a2,a0
    53ba:	00c51463          	bne	a0,a2,53c2 <memchr+0xe>
    53be:	4501                	li	a0,0
    53c0:	8082                	ret
    53c2:	00054783          	lbu	a5,0(a0)
    53c6:	feb78de3          	beq	a5,a1,53c0 <memchr+0xc>
    53ca:	0505                	addi	a0,a0,1
    53cc:	b7fd                	j	53ba <memchr+0x6>

000053ce <_Balloc>:
    53ce:	515c                	lw	a5,36(a0)
    53d0:	1141                	addi	sp,sp,-16
    53d2:	c422                	sw	s0,8(sp)
    53d4:	c04a                	sw	s2,0(sp)
    53d6:	c606                	sw	ra,12(sp)
    53d8:	c226                	sw	s1,4(sp)
    53da:	842a                	mv	s0,a0
    53dc:	892e                	mv	s2,a1
    53de:	ef89                	bnez	a5,53f8 <_Balloc+0x2a>
    53e0:	4541                	li	a0,16
    53e2:	fc7ff0ef          	jal	ra,53a8 <malloc>
    53e6:	d048                	sw	a0,36(s0)
    53e8:	00052223          	sw	zero,4(a0)
    53ec:	00052423          	sw	zero,8(a0)
    53f0:	00052023          	sw	zero,0(a0)
    53f4:	00052623          	sw	zero,12(a0)
    53f8:	5044                	lw	s1,36(s0)
    53fa:	44dc                	lw	a5,12(s1)
    53fc:	c795                	beqz	a5,5428 <_Balloc+0x5a>
    53fe:	5058                	lw	a4,36(s0)
    5400:	00291793          	slli	a5,s2,0x2
    5404:	4758                	lw	a4,12(a4)
    5406:	97ba                	add	a5,a5,a4
    5408:	4388                	lw	a0,0(a5)
    540a:	ed1d                	bnez	a0,5448 <_Balloc+0x7a>
    540c:	4485                	li	s1,1
    540e:	012494b3          	sll	s1,s1,s2
    5412:	00548613          	addi	a2,s1,5
    5416:	060a                	slli	a2,a2,0x2
    5418:	4585                	li	a1,1
    541a:	8522                	mv	a0,s0
    541c:	256d                	jal	5ac6 <_calloc_r>
    541e:	cd11                	beqz	a0,543a <_Balloc+0x6c>
    5420:	01252223          	sw	s2,4(a0)
    5424:	c504                	sw	s1,8(a0)
    5426:	a01d                	j	544c <_Balloc+0x7e>
    5428:	02100613          	li	a2,33
    542c:	4591                	li	a1,4
    542e:	8522                	mv	a0,s0
    5430:	2d59                	jal	5ac6 <_calloc_r>
    5432:	505c                	lw	a5,36(s0)
    5434:	c4c8                	sw	a0,12(s1)
    5436:	47dc                	lw	a5,12(a5)
    5438:	f3f9                	bnez	a5,53fe <_Balloc+0x30>
    543a:	4501                	li	a0,0
    543c:	40b2                	lw	ra,12(sp)
    543e:	4422                	lw	s0,8(sp)
    5440:	4492                	lw	s1,4(sp)
    5442:	4902                	lw	s2,0(sp)
    5444:	0141                	addi	sp,sp,16
    5446:	8082                	ret
    5448:	4118                	lw	a4,0(a0)
    544a:	c398                	sw	a4,0(a5)
    544c:	00052823          	sw	zero,16(a0)
    5450:	00052623          	sw	zero,12(a0)
    5454:	b7e5                	j	543c <_Balloc+0x6e>

00005456 <_Bfree>:
    5456:	515c                	lw	a5,36(a0)
    5458:	1101                	addi	sp,sp,-32
    545a:	cc22                	sw	s0,24(sp)
    545c:	ce06                	sw	ra,28(sp)
    545e:	842a                	mv	s0,a0
    5460:	ef99                	bnez	a5,547e <_Bfree+0x28>
    5462:	4541                	li	a0,16
    5464:	c62e                	sw	a1,12(sp)
    5466:	f43ff0ef          	jal	ra,53a8 <malloc>
    546a:	45b2                	lw	a1,12(sp)
    546c:	d048                	sw	a0,36(s0)
    546e:	00052223          	sw	zero,4(a0)
    5472:	00052423          	sw	zero,8(a0)
    5476:	00052023          	sw	zero,0(a0)
    547a:	00052623          	sw	zero,12(a0)
    547e:	c991                	beqz	a1,5492 <_Bfree+0x3c>
    5480:	5054                	lw	a3,36(s0)
    5482:	41dc                	lw	a5,4(a1)
    5484:	00279713          	slli	a4,a5,0x2
    5488:	46dc                	lw	a5,12(a3)
    548a:	97ba                	add	a5,a5,a4
    548c:	4398                	lw	a4,0(a5)
    548e:	c198                	sw	a4,0(a1)
    5490:	c38c                	sw	a1,0(a5)
    5492:	40f2                	lw	ra,28(sp)
    5494:	4462                	lw	s0,24(sp)
    5496:	6105                	addi	sp,sp,32
    5498:	8082                	ret

0000549a <__multadd>:
    549a:	7179                	addi	sp,sp,-48
    549c:	ce4e                	sw	s3,28(sp)
    549e:	89aa                	mv	s3,a0
    54a0:	6541                	lui	a0,0x10
    54a2:	d422                	sw	s0,40(sp)
    54a4:	d226                	sw	s1,36(sp)
    54a6:	842e                	mv	s0,a1
    54a8:	4984                	lw	s1,16(a1)
    54aa:	d606                	sw	ra,44(sp)
    54ac:	d04a                	sw	s2,32(sp)
    54ae:	05d1                	addi	a1,a1,20
    54b0:	4801                	li	a6,0
    54b2:	157d                	addi	a0,a0,-1
    54b4:	419c                	lw	a5,0(a1)
    54b6:	0591                	addi	a1,a1,4
    54b8:	0805                	addi	a6,a6,1
    54ba:	00a7f733          	and	a4,a5,a0
    54be:	02c70733          	mul	a4,a4,a2
    54c2:	83c1                	srli	a5,a5,0x10
    54c4:	02c787b3          	mul	a5,a5,a2
    54c8:	9736                	add	a4,a4,a3
    54ca:	01075693          	srli	a3,a4,0x10
    54ce:	8f69                	and	a4,a4,a0
    54d0:	97b6                	add	a5,a5,a3
    54d2:	0107d693          	srli	a3,a5,0x10
    54d6:	07c2                	slli	a5,a5,0x10
    54d8:	97ba                	add	a5,a5,a4
    54da:	fef5ae23          	sw	a5,-4(a1)
    54de:	fc984be3          	blt	a6,s1,54b4 <__multadd+0x1a>
    54e2:	c2a1                	beqz	a3,5522 <__multadd+0x88>
    54e4:	441c                	lw	a5,8(s0)
    54e6:	02f4c763          	blt	s1,a5,5514 <__multadd+0x7a>
    54ea:	404c                	lw	a1,4(s0)
    54ec:	854e                	mv	a0,s3
    54ee:	c636                	sw	a3,12(sp)
    54f0:	0585                	addi	a1,a1,1
    54f2:	eddff0ef          	jal	ra,53ce <_Balloc>
    54f6:	4810                	lw	a2,16(s0)
    54f8:	00c40593          	addi	a1,s0,12
    54fc:	892a                	mv	s2,a0
    54fe:	0609                	addi	a2,a2,2
    5500:	060a                	slli	a2,a2,0x2
    5502:	0531                	addi	a0,a0,12
    5504:	e9ffd0ef          	jal	ra,33a2 <memcpy>
    5508:	85a2                	mv	a1,s0
    550a:	854e                	mv	a0,s3
    550c:	f4bff0ef          	jal	ra,5456 <_Bfree>
    5510:	46b2                	lw	a3,12(sp)
    5512:	844a                	mv	s0,s2
    5514:	00448793          	addi	a5,s1,4
    5518:	078a                	slli	a5,a5,0x2
    551a:	97a2                	add	a5,a5,s0
    551c:	c3d4                	sw	a3,4(a5)
    551e:	0485                	addi	s1,s1,1
    5520:	c804                	sw	s1,16(s0)
    5522:	8522                	mv	a0,s0
    5524:	50b2                	lw	ra,44(sp)
    5526:	5422                	lw	s0,40(sp)
    5528:	5492                	lw	s1,36(sp)
    552a:	5902                	lw	s2,32(sp)
    552c:	49f2                	lw	s3,28(sp)
    552e:	6145                	addi	sp,sp,48
    5530:	8082                	ret

00005532 <__hi0bits>:
    5532:	7741                	lui	a4,0xffff0
    5534:	8f69                	and	a4,a4,a0
    5536:	87aa                	mv	a5,a0
    5538:	4501                	li	a0,0
    553a:	e319                	bnez	a4,5540 <__hi0bits+0xe>
    553c:	07c2                	slli	a5,a5,0x10
    553e:	4541                	li	a0,16
    5540:	ff000737          	lui	a4,0xff000
    5544:	8f7d                	and	a4,a4,a5
    5546:	e319                	bnez	a4,554c <__hi0bits+0x1a>
    5548:	0521                	addi	a0,a0,8
    554a:	07a2                	slli	a5,a5,0x8
    554c:	f0000737          	lui	a4,0xf0000
    5550:	8f7d                	and	a4,a4,a5
    5552:	e319                	bnez	a4,5558 <__hi0bits+0x26>
    5554:	0511                	addi	a0,a0,4
    5556:	0792                	slli	a5,a5,0x4
    5558:	c0000737          	lui	a4,0xc0000
    555c:	8f7d                	and	a4,a4,a5
    555e:	e319                	bnez	a4,5564 <__hi0bits+0x32>
    5560:	0509                	addi	a0,a0,2
    5562:	078a                	slli	a5,a5,0x2
    5564:	0007c963          	bltz	a5,5576 <__hi0bits+0x44>
    5568:	00179713          	slli	a4,a5,0x1
    556c:	0505                	addi	a0,a0,1
    556e:	00074463          	bltz	a4,5576 <__hi0bits+0x44>
    5572:	02000513          	li	a0,32
    5576:	8082                	ret

00005578 <__lo0bits>:
    5578:	411c                	lw	a5,0(a0)
    557a:	0077f713          	andi	a4,a5,7
    557e:	c30d                	beqz	a4,55a0 <__lo0bits+0x28>
    5580:	0017f693          	andi	a3,a5,1
    5584:	4701                	li	a4,0
    5586:	e699                	bnez	a3,5594 <__lo0bits+0x1c>
    5588:	0027f713          	andi	a4,a5,2
    558c:	c711                	beqz	a4,5598 <__lo0bits+0x20>
    558e:	8385                	srli	a5,a5,0x1
    5590:	c11c                	sw	a5,0(a0)
    5592:	4705                	li	a4,1
    5594:	853a                	mv	a0,a4
    5596:	8082                	ret
    5598:	8389                	srli	a5,a5,0x2
    559a:	c11c                	sw	a5,0(a0)
    559c:	4709                	li	a4,2
    559e:	bfdd                	j	5594 <__lo0bits+0x1c>
    55a0:	01079693          	slli	a3,a5,0x10
    55a4:	82c1                	srli	a3,a3,0x10
    55a6:	4701                	li	a4,0
    55a8:	e299                	bnez	a3,55ae <__lo0bits+0x36>
    55aa:	83c1                	srli	a5,a5,0x10
    55ac:	4741                	li	a4,16
    55ae:	0ff7f693          	andi	a3,a5,255
    55b2:	e299                	bnez	a3,55b8 <__lo0bits+0x40>
    55b4:	0721                	addi	a4,a4,8
    55b6:	83a1                	srli	a5,a5,0x8
    55b8:	00f7f693          	andi	a3,a5,15
    55bc:	e299                	bnez	a3,55c2 <__lo0bits+0x4a>
    55be:	0711                	addi	a4,a4,4
    55c0:	8391                	srli	a5,a5,0x4
    55c2:	0037f693          	andi	a3,a5,3
    55c6:	e299                	bnez	a3,55cc <__lo0bits+0x54>
    55c8:	0709                	addi	a4,a4,2
    55ca:	8389                	srli	a5,a5,0x2
    55cc:	0017f693          	andi	a3,a5,1
    55d0:	e681                	bnez	a3,55d8 <__lo0bits+0x60>
    55d2:	8385                	srli	a5,a5,0x1
    55d4:	0705                	addi	a4,a4,1
    55d6:	c399                	beqz	a5,55dc <__lo0bits+0x64>
    55d8:	c11c                	sw	a5,0(a0)
    55da:	bf6d                	j	5594 <__lo0bits+0x1c>
    55dc:	02000713          	li	a4,32
    55e0:	bf55                	j	5594 <__lo0bits+0x1c>

000055e2 <__i2b>:
    55e2:	1141                	addi	sp,sp,-16
    55e4:	c422                	sw	s0,8(sp)
    55e6:	842e                	mv	s0,a1
    55e8:	4585                	li	a1,1
    55ea:	c606                	sw	ra,12(sp)
    55ec:	de3ff0ef          	jal	ra,53ce <_Balloc>
    55f0:	c940                	sw	s0,20(a0)
    55f2:	40b2                	lw	ra,12(sp)
    55f4:	4422                	lw	s0,8(sp)
    55f6:	4705                	li	a4,1
    55f8:	c918                	sw	a4,16(a0)
    55fa:	0141                	addi	sp,sp,16
    55fc:	8082                	ret

000055fe <__multiply>:
    55fe:	4998                	lw	a4,16(a1)
    5600:	4a1c                	lw	a5,16(a2)
    5602:	7179                	addi	sp,sp,-48
    5604:	d226                	sw	s1,36(sp)
    5606:	d606                	sw	ra,44(sp)
    5608:	d422                	sw	s0,40(sp)
    560a:	d04a                	sw	s2,32(sp)
    560c:	ce4e                	sw	s3,28(sp)
    560e:	84ae                	mv	s1,a1
    5610:	00f75463          	bge	a4,a5,5618 <__multiply+0x1a>
    5614:	84b2                	mv	s1,a2
    5616:	862e                	mv	a2,a1
    5618:	0104a983          	lw	s3,16(s1)
    561c:	01062903          	lw	s2,16(a2) # 10010 <_data_lma+0x78cc>
    5620:	449c                	lw	a5,8(s1)
    5622:	40cc                	lw	a1,4(s1)
    5624:	01298433          	add	s0,s3,s2
    5628:	0087d363          	bge	a5,s0,562e <__multiply+0x30>
    562c:	0585                	addi	a1,a1,1
    562e:	c632                	sw	a2,12(sp)
    5630:	d9fff0ef          	jal	ra,53ce <_Balloc>
    5634:	4632                	lw	a2,12(sp)
    5636:	01450813          	addi	a6,a0,20 # 10014 <_data_lma+0x78d0>
    563a:	00241313          	slli	t1,s0,0x2
    563e:	9342                	add	t1,t1,a6
    5640:	87c2                	mv	a5,a6
    5642:	0267ed63          	bltu	a5,t1,567c <__multiply+0x7e>
    5646:	01448593          	addi	a1,s1,20
    564a:	00299893          	slli	a7,s3,0x2
    564e:	0651                	addi	a2,a2,20
    5650:	00291e13          	slli	t3,s2,0x2
    5654:	66c1                	lui	a3,0x10
    5656:	98ae                	add	a7,a7,a1
    5658:	9e32                	add	t3,t3,a2
    565a:	16fd                	addi	a3,a3,-1
    565c:	03c66463          	bltu	a2,t3,5684 <__multiply+0x86>
    5660:	00805663          	blez	s0,566c <__multiply+0x6e>
    5664:	1371                	addi	t1,t1,-4
    5666:	00032783          	lw	a5,0(t1)
    566a:	cbf1                	beqz	a5,573e <__multiply+0x140>
    566c:	c900                	sw	s0,16(a0)
    566e:	50b2                	lw	ra,44(sp)
    5670:	5422                	lw	s0,40(sp)
    5672:	5492                	lw	s1,36(sp)
    5674:	5902                	lw	s2,32(sp)
    5676:	49f2                	lw	s3,28(sp)
    5678:	6145                	addi	sp,sp,48
    567a:	8082                	ret
    567c:	0007a023          	sw	zero,0(a5)
    5680:	0791                	addi	a5,a5,4
    5682:	b7c1                	j	5642 <__multiply+0x44>
    5684:	00062f83          	lw	t6,0(a2)
    5688:	00dfffb3          	and	t6,t6,a3
    568c:	040f8a63          	beqz	t6,56e0 <__multiply+0xe2>
    5690:	8f42                	mv	t5,a6
    5692:	82ae                	mv	t0,a1
    5694:	4481                	li	s1,0
    5696:	0002a703          	lw	a4,0(t0)
    569a:	000f2383          	lw	t2,0(t5)
    569e:	0f11                	addi	t5,t5,4
    56a0:	00d77eb3          	and	t4,a4,a3
    56a4:	03fe8eb3          	mul	t4,t4,t6
    56a8:	00d3f7b3          	and	a5,t2,a3
    56ac:	0103d393          	srli	t2,t2,0x10
    56b0:	0291                	addi	t0,t0,4
    56b2:	9ebe                	add	t4,t4,a5
    56b4:	01075793          	srli	a5,a4,0x10
    56b8:	03f787b3          	mul	a5,a5,t6
    56bc:	9ea6                	add	t4,t4,s1
    56be:	010ed713          	srli	a4,t4,0x10
    56c2:	00defeb3          	and	t4,t4,a3
    56c6:	979e                	add	a5,a5,t2
    56c8:	97ba                	add	a5,a5,a4
    56ca:	0107d493          	srli	s1,a5,0x10
    56ce:	07c2                	slli	a5,a5,0x10
    56d0:	01d7e7b3          	or	a5,a5,t4
    56d4:	feff2e23          	sw	a5,-4(t5)
    56d8:	fb12efe3          	bltu	t0,a7,5696 <__multiply+0x98>
    56dc:	009f2023          	sw	s1,0(t5)
    56e0:	00265283          	lhu	t0,2(a2)
    56e4:	04028a63          	beqz	t0,5738 <__multiply+0x13a>
    56e8:	00082783          	lw	a5,0(a6)
    56ec:	8ec2                	mv	t4,a6
    56ee:	8f2e                	mv	t5,a1
    56f0:	4f81                	li	t6,0
    56f2:	000f2703          	lw	a4,0(t5)
    56f6:	002ed383          	lhu	t2,2(t4)
    56fa:	8ff5                	and	a5,a5,a3
    56fc:	8f75                	and	a4,a4,a3
    56fe:	02570733          	mul	a4,a4,t0
    5702:	0e91                	addi	t4,t4,4
    5704:	0f11                	addi	t5,t5,4
    5706:	971e                	add	a4,a4,t2
    5708:	977e                	add	a4,a4,t6
    570a:	01071f93          	slli	t6,a4,0x10
    570e:	00ffe7b3          	or	a5,t6,a5
    5712:	fefeae23          	sw	a5,-4(t4)
    5716:	ffef5783          	lhu	a5,-2(t5)
    571a:	000eaf83          	lw	t6,0(t4)
    571e:	8341                	srli	a4,a4,0x10
    5720:	025787b3          	mul	a5,a5,t0
    5724:	00dfffb3          	and	t6,t6,a3
    5728:	97fe                	add	a5,a5,t6
    572a:	97ba                	add	a5,a5,a4
    572c:	0107df93          	srli	t6,a5,0x10
    5730:	fd1f61e3          	bltu	t5,a7,56f2 <__multiply+0xf4>
    5734:	00fea023          	sw	a5,0(t4)
    5738:	0611                	addi	a2,a2,4
    573a:	0811                	addi	a6,a6,4
    573c:	b705                	j	565c <__multiply+0x5e>
    573e:	147d                	addi	s0,s0,-1
    5740:	b705                	j	5660 <__multiply+0x62>

00005742 <__pow5mult>:
    5742:	1101                	addi	sp,sp,-32
    5744:	ca26                	sw	s1,20(sp)
    5746:	c84a                	sw	s2,16(sp)
    5748:	c64e                	sw	s3,12(sp)
    574a:	ce06                	sw	ra,28(sp)
    574c:	cc22                	sw	s0,24(sp)
    574e:	c452                	sw	s4,8(sp)
    5750:	00367793          	andi	a5,a2,3
    5754:	892a                	mv	s2,a0
    5756:	84b2                	mv	s1,a2
    5758:	89ae                	mv	s3,a1
    575a:	cf89                	beqz	a5,5774 <__pow5mult+0x32>
    575c:	17fd                	addi	a5,a5,-1
    575e:	00003717          	auipc	a4,0x3
    5762:	d3270713          	addi	a4,a4,-718 # 8490 <p05.3319>
    5766:	078a                	slli	a5,a5,0x2
    5768:	97ba                	add	a5,a5,a4
    576a:	4390                	lw	a2,0(a5)
    576c:	4681                	li	a3,0
    576e:	d2dff0ef          	jal	ra,549a <__multadd>
    5772:	89aa                	mv	s3,a0
    5774:	8489                	srai	s1,s1,0x2
    5776:	cca5                	beqz	s1,57ee <__pow5mult+0xac>
    5778:	02492783          	lw	a5,36(s2)
    577c:	ef91                	bnez	a5,5798 <__pow5mult+0x56>
    577e:	4541                	li	a0,16
    5780:	c29ff0ef          	jal	ra,53a8 <malloc>
    5784:	02a92223          	sw	a0,36(s2)
    5788:	00052223          	sw	zero,4(a0)
    578c:	00052423          	sw	zero,8(a0)
    5790:	00052023          	sw	zero,0(a0)
    5794:	00052623          	sw	zero,12(a0)
    5798:	02492a03          	lw	s4,36(s2)
    579c:	008a2403          	lw	s0,8(s4)
    57a0:	e819                	bnez	s0,57b6 <__pow5mult+0x74>
    57a2:	27100593          	li	a1,625
    57a6:	854a                	mv	a0,s2
    57a8:	e3bff0ef          	jal	ra,55e2 <__i2b>
    57ac:	00aa2423          	sw	a0,8(s4)
    57b0:	842a                	mv	s0,a0
    57b2:	00052023          	sw	zero,0(a0)
    57b6:	0014f793          	andi	a5,s1,1
    57ba:	cf81                	beqz	a5,57d2 <__pow5mult+0x90>
    57bc:	85ce                	mv	a1,s3
    57be:	8622                	mv	a2,s0
    57c0:	854a                	mv	a0,s2
    57c2:	e3dff0ef          	jal	ra,55fe <__multiply>
    57c6:	8a2a                	mv	s4,a0
    57c8:	85ce                	mv	a1,s3
    57ca:	854a                	mv	a0,s2
    57cc:	c8bff0ef          	jal	ra,5456 <_Bfree>
    57d0:	89d2                	mv	s3,s4
    57d2:	8485                	srai	s1,s1,0x1
    57d4:	cc89                	beqz	s1,57ee <__pow5mult+0xac>
    57d6:	4008                	lw	a0,0(s0)
    57d8:	e909                	bnez	a0,57ea <__pow5mult+0xa8>
    57da:	8622                	mv	a2,s0
    57dc:	85a2                	mv	a1,s0
    57de:	854a                	mv	a0,s2
    57e0:	e1fff0ef          	jal	ra,55fe <__multiply>
    57e4:	c008                	sw	a0,0(s0)
    57e6:	00052023          	sw	zero,0(a0)
    57ea:	842a                	mv	s0,a0
    57ec:	b7e9                	j	57b6 <__pow5mult+0x74>
    57ee:	40f2                	lw	ra,28(sp)
    57f0:	4462                	lw	s0,24(sp)
    57f2:	854e                	mv	a0,s3
    57f4:	44d2                	lw	s1,20(sp)
    57f6:	4942                	lw	s2,16(sp)
    57f8:	49b2                	lw	s3,12(sp)
    57fa:	4a22                	lw	s4,8(sp)
    57fc:	6105                	addi	sp,sp,32
    57fe:	8082                	ret

00005800 <__lshift>:
    5800:	7179                	addi	sp,sp,-48
    5802:	d226                	sw	s1,36(sp)
    5804:	84ae                	mv	s1,a1
    5806:	ce4e                	sw	s3,28(sp)
    5808:	0104a983          	lw	s3,16(s1)
    580c:	d422                	sw	s0,40(sp)
    580e:	41cc                	lw	a1,4(a1)
    5810:	40565413          	srai	s0,a2,0x5
    5814:	449c                	lw	a5,8(s1)
    5816:	99a2                	add	s3,s3,s0
    5818:	d04a                	sw	s2,32(sp)
    581a:	ca56                	sw	s5,20(sp)
    581c:	d606                	sw	ra,44(sp)
    581e:	cc52                	sw	s4,24(sp)
    5820:	8aaa                	mv	s5,a0
    5822:	00198913          	addi	s2,s3,1
    5826:	0927c463          	blt	a5,s2,58ae <__lshift+0xae>
    582a:	8556                	mv	a0,s5
    582c:	c632                	sw	a2,12(sp)
    582e:	ba1ff0ef          	jal	ra,53ce <_Balloc>
    5832:	4632                	lw	a2,12(sp)
    5834:	01450793          	addi	a5,a0,20
    5838:	8a2a                	mv	s4,a0
    583a:	86be                	mv	a3,a5
    583c:	4701                	li	a4,0
    583e:	0691                	addi	a3,a3,4
    5840:	06874a63          	blt	a4,s0,58b4 <__lshift+0xb4>
    5844:	00045363          	bgez	s0,584a <__lshift+0x4a>
    5848:	4401                	li	s0,0
    584a:	4894                	lw	a3,16(s1)
    584c:	040a                	slli	s0,s0,0x2
    584e:	00878733          	add	a4,a5,s0
    5852:	068a                	slli	a3,a3,0x2
    5854:	01448793          	addi	a5,s1,20
    5858:	8a7d                	andi	a2,a2,31
    585a:	96be                	add	a3,a3,a5
    585c:	c225                	beqz	a2,58bc <__lshift+0xbc>
    585e:	02000813          	li	a6,32
    5862:	40c80833          	sub	a6,a6,a2
    5866:	4581                	li	a1,0
    5868:	4388                	lw	a0,0(a5)
    586a:	0711                	addi	a4,a4,4
    586c:	0791                	addi	a5,a5,4
    586e:	00c51533          	sll	a0,a0,a2
    5872:	8dc9                	or	a1,a1,a0
    5874:	feb72e23          	sw	a1,-4(a4)
    5878:	ffc7a583          	lw	a1,-4(a5)
    587c:	0105d5b3          	srl	a1,a1,a6
    5880:	fed7e4e3          	bltu	a5,a3,5868 <__lshift+0x68>
    5884:	c30c                	sw	a1,0(a4)
    5886:	c199                	beqz	a1,588c <__lshift+0x8c>
    5888:	00298913          	addi	s2,s3,2
    588c:	197d                	addi	s2,s2,-1
    588e:	012a2823          	sw	s2,16(s4)
    5892:	8556                	mv	a0,s5
    5894:	85a6                	mv	a1,s1
    5896:	bc1ff0ef          	jal	ra,5456 <_Bfree>
    589a:	50b2                	lw	ra,44(sp)
    589c:	5422                	lw	s0,40(sp)
    589e:	8552                	mv	a0,s4
    58a0:	5492                	lw	s1,36(sp)
    58a2:	5902                	lw	s2,32(sp)
    58a4:	49f2                	lw	s3,28(sp)
    58a6:	4a62                	lw	s4,24(sp)
    58a8:	4ad2                	lw	s5,20(sp)
    58aa:	6145                	addi	sp,sp,48
    58ac:	8082                	ret
    58ae:	0585                	addi	a1,a1,1
    58b0:	0786                	slli	a5,a5,0x1
    58b2:	bf95                	j	5826 <__lshift+0x26>
    58b4:	fe06ae23          	sw	zero,-4(a3) # fffc <_data_lma+0x78b8>
    58b8:	0705                	addi	a4,a4,1
    58ba:	b751                	j	583e <__lshift+0x3e>
    58bc:	0791                	addi	a5,a5,4
    58be:	ffc7a603          	lw	a2,-4(a5)
    58c2:	0711                	addi	a4,a4,4
    58c4:	fec72e23          	sw	a2,-4(a4)
    58c8:	fed7eae3          	bltu	a5,a3,58bc <__lshift+0xbc>
    58cc:	b7c1                	j	588c <__lshift+0x8c>

000058ce <__mcmp>:
    58ce:	491c                	lw	a5,16(a0)
    58d0:	4998                	lw	a4,16(a1)
    58d2:	8f99                	sub	a5,a5,a4
    58d4:	e38d                	bnez	a5,58f6 <__mcmp+0x28>
    58d6:	070a                	slli	a4,a4,0x2
    58d8:	0551                	addi	a0,a0,20
    58da:	05d1                	addi	a1,a1,20
    58dc:	00e506b3          	add	a3,a0,a4
    58e0:	95ba                	add	a1,a1,a4
    58e2:	16f1                	addi	a3,a3,-4
    58e4:	15f1                	addi	a1,a1,-4
    58e6:	4290                	lw	a2,0(a3)
    58e8:	4198                	lw	a4,0(a1)
    58ea:	00e60863          	beq	a2,a4,58fa <__mcmp+0x2c>
    58ee:	57fd                	li	a5,-1
    58f0:	00e66363          	bltu	a2,a4,58f6 <__mcmp+0x28>
    58f4:	4785                	li	a5,1
    58f6:	853e                	mv	a0,a5
    58f8:	8082                	ret
    58fa:	fed564e3          	bltu	a0,a3,58e2 <__mcmp+0x14>
    58fe:	bfe5                	j	58f6 <__mcmp+0x28>

00005900 <__mdiff>:
    5900:	1101                	addi	sp,sp,-32
    5902:	ca26                	sw	s1,20(sp)
    5904:	84ae                	mv	s1,a1
    5906:	c64e                	sw	s3,12(sp)
    5908:	85b2                	mv	a1,a2
    590a:	89aa                	mv	s3,a0
    590c:	8526                	mv	a0,s1
    590e:	cc22                	sw	s0,24(sp)
    5910:	ce06                	sw	ra,28(sp)
    5912:	c84a                	sw	s2,16(sp)
    5914:	8432                	mv	s0,a2
    5916:	fb9ff0ef          	jal	ra,58ce <__mcmp>
    591a:	e105                	bnez	a0,593a <__mdiff+0x3a>
    591c:	4581                	li	a1,0
    591e:	854e                	mv	a0,s3
    5920:	aafff0ef          	jal	ra,53ce <_Balloc>
    5924:	4785                	li	a5,1
    5926:	c91c                	sw	a5,16(a0)
    5928:	00052a23          	sw	zero,20(a0)
    592c:	40f2                	lw	ra,28(sp)
    592e:	4462                	lw	s0,24(sp)
    5930:	44d2                	lw	s1,20(sp)
    5932:	4942                	lw	s2,16(sp)
    5934:	49b2                	lw	s3,12(sp)
    5936:	6105                	addi	sp,sp,32
    5938:	8082                	ret
    593a:	4905                	li	s2,1
    593c:	00054663          	bltz	a0,5948 <__mdiff+0x48>
    5940:	87a2                	mv	a5,s0
    5942:	4901                	li	s2,0
    5944:	8426                	mv	s0,s1
    5946:	84be                	mv	s1,a5
    5948:	404c                	lw	a1,4(s0)
    594a:	854e                	mv	a0,s3
    594c:	a83ff0ef          	jal	ra,53ce <_Balloc>
    5950:	01042303          	lw	t1,16(s0)
    5954:	0104a883          	lw	a7,16(s1)
    5958:	01440613          	addi	a2,s0,20
    595c:	00231e13          	slli	t3,t1,0x2
    5960:	01448813          	addi	a6,s1,20
    5964:	088a                	slli	a7,a7,0x2
    5966:	6ec1                	lui	t4,0x10
    5968:	01252623          	sw	s2,12(a0)
    596c:	9e32                	add	t3,t3,a2
    596e:	98c2                	add	a7,a7,a6
    5970:	01450693          	addi	a3,a0,20
    5974:	4f01                	li	t5,0
    5976:	1efd                	addi	t4,t4,-1
    5978:	4218                	lw	a4,0(a2)
    597a:	00082f83          	lw	t6,0(a6)
    597e:	0691                	addi	a3,a3,4
    5980:	01d775b3          	and	a1,a4,t4
    5984:	01dff7b3          	and	a5,t6,t4
    5988:	95fa                	add	a1,a1,t5
    598a:	8d9d                	sub	a1,a1,a5
    598c:	010fdf93          	srli	t6,t6,0x10
    5990:	01075793          	srli	a5,a4,0x10
    5994:	41f787b3          	sub	a5,a5,t6
    5998:	4105d713          	srai	a4,a1,0x10
    599c:	97ba                	add	a5,a5,a4
    599e:	4107df13          	srai	t5,a5,0x10
    59a2:	01d5f5b3          	and	a1,a1,t4
    59a6:	07c2                	slli	a5,a5,0x10
    59a8:	8fcd                	or	a5,a5,a1
    59aa:	0811                	addi	a6,a6,4
    59ac:	fef6ae23          	sw	a5,-4(a3)
    59b0:	0611                	addi	a2,a2,4
    59b2:	fd1863e3          	bltu	a6,a7,5978 <__mdiff+0x78>
    59b6:	65c1                	lui	a1,0x10
    59b8:	15fd                	addi	a1,a1,-1
    59ba:	01c66863          	bltu	a2,t3,59ca <__mdiff+0xca>
    59be:	16f1                	addi	a3,a3,-4
    59c0:	429c                	lw	a5,0(a3)
    59c2:	c795                	beqz	a5,59ee <__mdiff+0xee>
    59c4:	00652823          	sw	t1,16(a0)
    59c8:	b795                	j	592c <__mdiff+0x2c>
    59ca:	421c                	lw	a5,0(a2)
    59cc:	0691                	addi	a3,a3,4
    59ce:	0611                	addi	a2,a2,4
    59d0:	00b7f733          	and	a4,a5,a1
    59d4:	977a                	add	a4,a4,t5
    59d6:	41075813          	srai	a6,a4,0x10
    59da:	83c1                	srli	a5,a5,0x10
    59dc:	97c2                	add	a5,a5,a6
    59de:	4107df13          	srai	t5,a5,0x10
    59e2:	8f6d                	and	a4,a4,a1
    59e4:	07c2                	slli	a5,a5,0x10
    59e6:	8fd9                	or	a5,a5,a4
    59e8:	fef6ae23          	sw	a5,-4(a3)
    59ec:	b7f9                	j	59ba <__mdiff+0xba>
    59ee:	137d                	addi	t1,t1,-1
    59f0:	b7f9                	j	59be <__mdiff+0xbe>

000059f2 <__d2b>:
    59f2:	7179                	addi	sp,sp,-48
    59f4:	d422                	sw	s0,40(sp)
    59f6:	842e                	mv	s0,a1
    59f8:	4585                	li	a1,1
    59fa:	d226                	sw	s1,36(sp)
    59fc:	d04a                	sw	s2,32(sp)
    59fe:	84b2                	mv	s1,a2
    5a00:	ce4e                	sw	s3,28(sp)
    5a02:	cc52                	sw	s4,24(sp)
    5a04:	893a                	mv	s2,a4
    5a06:	d606                	sw	ra,44(sp)
    5a08:	8a36                	mv	s4,a3
    5a0a:	9c5ff0ef          	jal	ra,53ce <_Balloc>
    5a0e:	00100737          	lui	a4,0x100
    5a12:	fff70793          	addi	a5,a4,-1 # fffff <_data_lma+0xf78bb>
    5a16:	8fe5                	and	a5,a5,s1
    5a18:	80d1                	srli	s1,s1,0x14
    5a1a:	7ff4f493          	andi	s1,s1,2047
    5a1e:	89aa                	mv	s3,a0
    5a20:	e0b5                	bnez	s1,5a84 <__d2b+0x92>
    5a22:	c63e                	sw	a5,12(sp)
    5a24:	c42d                	beqz	s0,5a8e <__d2b+0x9c>
    5a26:	0028                	addi	a0,sp,8
    5a28:	c422                	sw	s0,8(sp)
    5a2a:	b4fff0ef          	jal	ra,5578 <__lo0bits>
    5a2e:	46a2                	lw	a3,8(sp)
    5a30:	cd21                	beqz	a0,5a88 <__d2b+0x96>
    5a32:	4732                	lw	a4,12(sp)
    5a34:	02000793          	li	a5,32
    5a38:	8f89                	sub	a5,a5,a0
    5a3a:	00f717b3          	sll	a5,a4,a5
    5a3e:	8fd5                	or	a5,a5,a3
    5a40:	00a75733          	srl	a4,a4,a0
    5a44:	00f9aa23          	sw	a5,20(s3)
    5a48:	c63a                	sw	a4,12(sp)
    5a4a:	4432                	lw	s0,12(sp)
    5a4c:	0089ac23          	sw	s0,24(s3)
    5a50:	00803433          	snez	s0,s0
    5a54:	0405                	addi	s0,s0,1
    5a56:	0089a823          	sw	s0,16(s3)
    5a5a:	c4b9                	beqz	s1,5aa8 <__d2b+0xb6>
    5a5c:	bcd48493          	addi	s1,s1,-1075
    5a60:	94aa                	add	s1,s1,a0
    5a62:	03500793          	li	a5,53
    5a66:	009a2023          	sw	s1,0(s4)
    5a6a:	40a78533          	sub	a0,a5,a0
    5a6e:	00a92023          	sw	a0,0(s2)
    5a72:	50b2                	lw	ra,44(sp)
    5a74:	5422                	lw	s0,40(sp)
    5a76:	854e                	mv	a0,s3
    5a78:	5492                	lw	s1,36(sp)
    5a7a:	5902                	lw	s2,32(sp)
    5a7c:	49f2                	lw	s3,28(sp)
    5a7e:	4a62                	lw	s4,24(sp)
    5a80:	6145                	addi	sp,sp,48
    5a82:	8082                	ret
    5a84:	8fd9                	or	a5,a5,a4
    5a86:	bf71                	j	5a22 <__d2b+0x30>
    5a88:	00d9aa23          	sw	a3,20(s3)
    5a8c:	bf7d                	j	5a4a <__d2b+0x58>
    5a8e:	0068                	addi	a0,sp,12
    5a90:	ae9ff0ef          	jal	ra,5578 <__lo0bits>
    5a94:	47b2                	lw	a5,12(sp)
    5a96:	02050513          	addi	a0,a0,32
    5a9a:	4405                	li	s0,1
    5a9c:	00f9aa23          	sw	a5,20(s3)
    5aa0:	4785                	li	a5,1
    5aa2:	00f9a823          	sw	a5,16(s3)
    5aa6:	bf55                	j	5a5a <__d2b+0x68>
    5aa8:	00241793          	slli	a5,s0,0x2
    5aac:	bce50513          	addi	a0,a0,-1074
    5ab0:	97ce                	add	a5,a5,s3
    5ab2:	00aa2023          	sw	a0,0(s4)
    5ab6:	4b88                	lw	a0,16(a5)
    5ab8:	0416                	slli	s0,s0,0x5
    5aba:	a79ff0ef          	jal	ra,5532 <__hi0bits>
    5abe:	8c09                	sub	s0,s0,a0
    5ac0:	00892023          	sw	s0,0(s2)
    5ac4:	b77d                	j	5a72 <__d2b+0x80>

00005ac6 <_calloc_r>:
    5ac6:	02c58633          	mul	a2,a1,a2
    5aca:	1101                	addi	sp,sp,-32
    5acc:	cc22                	sw	s0,24(sp)
    5ace:	ce06                	sw	ra,28(sp)
    5ad0:	85b2                	mv	a1,a2
    5ad2:	c632                	sw	a2,12(sp)
    5ad4:	20d1                	jal	5b98 <_malloc_r>
    5ad6:	842a                	mv	s0,a0
    5ad8:	c509                	beqz	a0,5ae2 <_calloc_r+0x1c>
    5ada:	4632                	lw	a2,12(sp)
    5adc:	4581                	li	a1,0
    5ade:	a71fa0ef          	jal	ra,54e <memset>
    5ae2:	8522                	mv	a0,s0
    5ae4:	40f2                	lw	ra,28(sp)
    5ae6:	4462                	lw	s0,24(sp)
    5ae8:	6105                	addi	sp,sp,32
    5aea:	8082                	ret

00005aec <_free_r>:
    5aec:	c5cd                	beqz	a1,5b96 <_free_r+0xaa>
    5aee:	ffc5a783          	lw	a5,-4(a1) # fffc <_data_lma+0x78b8>
    5af2:	1141                	addi	sp,sp,-16
    5af4:	c422                	sw	s0,8(sp)
    5af6:	c606                	sw	ra,12(sp)
    5af8:	c226                	sw	s1,4(sp)
    5afa:	ffc58413          	addi	s0,a1,-4
    5afe:	0007d363          	bgez	a5,5b04 <_free_r+0x18>
    5b02:	943e                	add	s0,s0,a5
    5b04:	84aa                	mv	s1,a0
    5b06:	2565                	jal	61ae <__malloc_lock>
    5b08:	1fffa797          	auipc	a5,0x1fffa
    5b0c:	7a878793          	addi	a5,a5,1960 # 200002b0 <__malloc_free_list>
    5b10:	439c                	lw	a5,0(a5)
    5b12:	ef89                	bnez	a5,5b2c <_free_r+0x40>
    5b14:	00042223          	sw	zero,4(s0)
    5b18:	1fffa797          	auipc	a5,0x1fffa
    5b1c:	7887ac23          	sw	s0,1944(a5) # 200002b0 <__malloc_free_list>
    5b20:	4422                	lw	s0,8(sp)
    5b22:	40b2                	lw	ra,12(sp)
    5b24:	8526                	mv	a0,s1
    5b26:	4492                	lw	s1,4(sp)
    5b28:	0141                	addi	sp,sp,16
    5b2a:	a559                	j	61b0 <__malloc_unlock>
    5b2c:	00f47e63          	bgeu	s0,a5,5b48 <_free_r+0x5c>
    5b30:	4014                	lw	a3,0(s0)
    5b32:	00d40733          	add	a4,s0,a3
    5b36:	00e79663          	bne	a5,a4,5b42 <_free_r+0x56>
    5b3a:	4398                	lw	a4,0(a5)
    5b3c:	43dc                	lw	a5,4(a5)
    5b3e:	9736                	add	a4,a4,a3
    5b40:	c018                	sw	a4,0(s0)
    5b42:	c05c                	sw	a5,4(s0)
    5b44:	bfd1                	j	5b18 <_free_r+0x2c>
    5b46:	87ba                	mv	a5,a4
    5b48:	43d8                	lw	a4,4(a5)
    5b4a:	c319                	beqz	a4,5b50 <_free_r+0x64>
    5b4c:	fee47de3          	bgeu	s0,a4,5b46 <_free_r+0x5a>
    5b50:	4394                	lw	a3,0(a5)
    5b52:	00d78633          	add	a2,a5,a3
    5b56:	00861f63          	bne	a2,s0,5b74 <_free_r+0x88>
    5b5a:	4010                	lw	a2,0(s0)
    5b5c:	96b2                	add	a3,a3,a2
    5b5e:	c394                	sw	a3,0(a5)
    5b60:	00d78633          	add	a2,a5,a3
    5b64:	fac71ee3          	bne	a4,a2,5b20 <_free_r+0x34>
    5b68:	4310                	lw	a2,0(a4)
    5b6a:	4358                	lw	a4,4(a4)
    5b6c:	96b2                	add	a3,a3,a2
    5b6e:	c394                	sw	a3,0(a5)
    5b70:	c3d8                	sw	a4,4(a5)
    5b72:	b77d                	j	5b20 <_free_r+0x34>
    5b74:	00c47563          	bgeu	s0,a2,5b7e <_free_r+0x92>
    5b78:	47b1                	li	a5,12
    5b7a:	c09c                	sw	a5,0(s1)
    5b7c:	b755                	j	5b20 <_free_r+0x34>
    5b7e:	4010                	lw	a2,0(s0)
    5b80:	00c406b3          	add	a3,s0,a2
    5b84:	00d71663          	bne	a4,a3,5b90 <_free_r+0xa4>
    5b88:	4314                	lw	a3,0(a4)
    5b8a:	4358                	lw	a4,4(a4)
    5b8c:	96b2                	add	a3,a3,a2
    5b8e:	c014                	sw	a3,0(s0)
    5b90:	c058                	sw	a4,4(s0)
    5b92:	c3c0                	sw	s0,4(a5)
    5b94:	b771                	j	5b20 <_free_r+0x34>
    5b96:	8082                	ret

00005b98 <_malloc_r>:
    5b98:	1101                	addi	sp,sp,-32
    5b9a:	ca26                	sw	s1,20(sp)
    5b9c:	00358493          	addi	s1,a1,3
    5ba0:	98f1                	andi	s1,s1,-4
    5ba2:	ce06                	sw	ra,28(sp)
    5ba4:	cc22                	sw	s0,24(sp)
    5ba6:	c84a                	sw	s2,16(sp)
    5ba8:	c64e                	sw	s3,12(sp)
    5baa:	04a1                	addi	s1,s1,8
    5bac:	47b1                	li	a5,12
    5bae:	04f4f763          	bgeu	s1,a5,5bfc <_malloc_r+0x64>
    5bb2:	44b1                	li	s1,12
    5bb4:	04b4e663          	bltu	s1,a1,5c00 <_malloc_r+0x68>
    5bb8:	892a                	mv	s2,a0
    5bba:	2bd5                	jal	61ae <__malloc_lock>
    5bbc:	1fffa797          	auipc	a5,0x1fffa
    5bc0:	6f478793          	addi	a5,a5,1780 # 200002b0 <__malloc_free_list>
    5bc4:	4398                	lw	a4,0(a5)
    5bc6:	843a                	mv	s0,a4
    5bc8:	e431                	bnez	s0,5c14 <_malloc_r+0x7c>
    5bca:	1fffa797          	auipc	a5,0x1fffa
    5bce:	6ea78793          	addi	a5,a5,1770 # 200002b4 <__malloc_sbrk_start>
    5bd2:	439c                	lw	a5,0(a5)
    5bd4:	eb81                	bnez	a5,5be4 <_malloc_r+0x4c>
    5bd6:	4581                	li	a1,0
    5bd8:	854a                	mv	a0,s2
    5bda:	266d                	jal	5f84 <_sbrk_r>
    5bdc:	1fffa797          	auipc	a5,0x1fffa
    5be0:	6ca7ac23          	sw	a0,1752(a5) # 200002b4 <__malloc_sbrk_start>
    5be4:	85a6                	mv	a1,s1
    5be6:	854a                	mv	a0,s2
    5be8:	2e71                	jal	5f84 <_sbrk_r>
    5bea:	59fd                	li	s3,-1
    5bec:	07351963          	bne	a0,s3,5c5e <_malloc_r+0xc6>
    5bf0:	47b1                	li	a5,12
    5bf2:	00f92023          	sw	a5,0(s2)
    5bf6:	854a                	mv	a0,s2
    5bf8:	2b65                	jal	61b0 <__malloc_unlock>
    5bfa:	a029                	j	5c04 <_malloc_r+0x6c>
    5bfc:	fa04dce3          	bgez	s1,5bb4 <_malloc_r+0x1c>
    5c00:	47b1                	li	a5,12
    5c02:	c11c                	sw	a5,0(a0)
    5c04:	4501                	li	a0,0
    5c06:	40f2                	lw	ra,28(sp)
    5c08:	4462                	lw	s0,24(sp)
    5c0a:	44d2                	lw	s1,20(sp)
    5c0c:	4942                	lw	s2,16(sp)
    5c0e:	49b2                	lw	s3,12(sp)
    5c10:	6105                	addi	sp,sp,32
    5c12:	8082                	ret
    5c14:	401c                	lw	a5,0(s0)
    5c16:	8f85                	sub	a5,a5,s1
    5c18:	0407c063          	bltz	a5,5c58 <_malloc_r+0xc0>
    5c1c:	46ad                	li	a3,11
    5c1e:	00f6f663          	bgeu	a3,a5,5c2a <_malloc_r+0x92>
    5c22:	c01c                	sw	a5,0(s0)
    5c24:	943e                	add	s0,s0,a5
    5c26:	c004                	sw	s1,0(s0)
    5c28:	a801                	j	5c38 <_malloc_r+0xa0>
    5c2a:	405c                	lw	a5,4(s0)
    5c2c:	02871463          	bne	a4,s0,5c54 <_malloc_r+0xbc>
    5c30:	1fffa717          	auipc	a4,0x1fffa
    5c34:	68f72023          	sw	a5,1664(a4) # 200002b0 <__malloc_free_list>
    5c38:	854a                	mv	a0,s2
    5c3a:	2b9d                	jal	61b0 <__malloc_unlock>
    5c3c:	00b40513          	addi	a0,s0,11
    5c40:	00440793          	addi	a5,s0,4
    5c44:	9961                	andi	a0,a0,-8
    5c46:	40f50733          	sub	a4,a0,a5
    5c4a:	df55                	beqz	a4,5c06 <_malloc_r+0x6e>
    5c4c:	943a                	add	s0,s0,a4
    5c4e:	8f89                	sub	a5,a5,a0
    5c50:	c01c                	sw	a5,0(s0)
    5c52:	bf55                	j	5c06 <_malloc_r+0x6e>
    5c54:	c35c                	sw	a5,4(a4)
    5c56:	b7cd                	j	5c38 <_malloc_r+0xa0>
    5c58:	8722                	mv	a4,s0
    5c5a:	4040                	lw	s0,4(s0)
    5c5c:	b7b5                	j	5bc8 <_malloc_r+0x30>
    5c5e:	00350413          	addi	s0,a0,3
    5c62:	9871                	andi	s0,s0,-4
    5c64:	fc8501e3          	beq	a0,s0,5c26 <_malloc_r+0x8e>
    5c68:	40a405b3          	sub	a1,s0,a0
    5c6c:	854a                	mv	a0,s2
    5c6e:	2e19                	jal	5f84 <_sbrk_r>
    5c70:	fb351be3          	bne	a0,s3,5c26 <_malloc_r+0x8e>
    5c74:	bfb5                	j	5bf0 <_malloc_r+0x58>

00005c76 <__sfputc_r>:
    5c76:	461c                	lw	a5,8(a2)
    5c78:	17fd                	addi	a5,a5,-1
    5c7a:	c61c                	sw	a5,8(a2)
    5c7c:	0007da63          	bgez	a5,5c90 <__sfputc_r+0x1a>
    5c80:	4e18                	lw	a4,24(a2)
    5c82:	00e7c563          	blt	a5,a4,5c8c <__sfputc_r+0x16>
    5c86:	47a9                	li	a5,10
    5c88:	00f59463          	bne	a1,a5,5c90 <__sfputc_r+0x1a>
    5c8c:	b00fe06f          	j	3f8c <__swbuf_r>
    5c90:	421c                	lw	a5,0(a2)
    5c92:	852e                	mv	a0,a1
    5c94:	00178713          	addi	a4,a5,1
    5c98:	c218                	sw	a4,0(a2)
    5c9a:	00b78023          	sb	a1,0(a5)
    5c9e:	8082                	ret

00005ca0 <__sfputs_r>:
    5ca0:	1101                	addi	sp,sp,-32
    5ca2:	cc22                	sw	s0,24(sp)
    5ca4:	ca26                	sw	s1,20(sp)
    5ca6:	c84a                	sw	s2,16(sp)
    5ca8:	c64e                	sw	s3,12(sp)
    5caa:	c452                	sw	s4,8(sp)
    5cac:	ce06                	sw	ra,28(sp)
    5cae:	892a                	mv	s2,a0
    5cb0:	89ae                	mv	s3,a1
    5cb2:	8432                	mv	s0,a2
    5cb4:	00d604b3          	add	s1,a2,a3
    5cb8:	5a7d                	li	s4,-1
    5cba:	00941463          	bne	s0,s1,5cc2 <__sfputs_r+0x22>
    5cbe:	4501                	li	a0,0
    5cc0:	a811                	j	5cd4 <__sfputs_r+0x34>
    5cc2:	00044583          	lbu	a1,0(s0)
    5cc6:	864e                	mv	a2,s3
    5cc8:	854a                	mv	a0,s2
    5cca:	fadff0ef          	jal	ra,5c76 <__sfputc_r>
    5cce:	0405                	addi	s0,s0,1
    5cd0:	ff4515e3          	bne	a0,s4,5cba <__sfputs_r+0x1a>
    5cd4:	40f2                	lw	ra,28(sp)
    5cd6:	4462                	lw	s0,24(sp)
    5cd8:	44d2                	lw	s1,20(sp)
    5cda:	4942                	lw	s2,16(sp)
    5cdc:	49b2                	lw	s3,12(sp)
    5cde:	4a22                	lw	s4,8(sp)
    5ce0:	6105                	addi	sp,sp,32
    5ce2:	8082                	ret

00005ce4 <_vfiprintf_r>:
    5ce4:	7135                	addi	sp,sp,-160
    5ce6:	cd22                	sw	s0,152(sp)
    5ce8:	cb26                	sw	s1,148(sp)
    5cea:	c94a                	sw	s2,144(sp)
    5cec:	c74e                	sw	s3,140(sp)
    5cee:	cf06                	sw	ra,156(sp)
    5cf0:	c552                	sw	s4,136(sp)
    5cf2:	c356                	sw	s5,132(sp)
    5cf4:	c15a                	sw	s6,128(sp)
    5cf6:	dede                	sw	s7,124(sp)
    5cf8:	dce2                	sw	s8,120(sp)
    5cfa:	dae6                	sw	s9,116(sp)
    5cfc:	89aa                	mv	s3,a0
    5cfe:	84ae                	mv	s1,a1
    5d00:	8932                	mv	s2,a2
    5d02:	8436                	mv	s0,a3
    5d04:	c509                	beqz	a0,5d0e <_vfiprintf_r+0x2a>
    5d06:	4d1c                	lw	a5,24(a0)
    5d08:	e399                	bnez	a5,5d0e <_vfiprintf_r+0x2a>
    5d0a:	c12ff0ef          	jal	ra,511c <__sinit>
    5d0e:	00002797          	auipc	a5,0x2
    5d12:	65278793          	addi	a5,a5,1618 # 8360 <__sf_fake_stdin>
    5d16:	0cf49d63          	bne	s1,a5,5df0 <_vfiprintf_r+0x10c>
    5d1a:	0049a483          	lw	s1,4(s3)
    5d1e:	00c4d783          	lhu	a5,12(s1)
    5d22:	8ba1                	andi	a5,a5,8
    5d24:	cbe5                	beqz	a5,5e14 <_vfiprintf_r+0x130>
    5d26:	489c                	lw	a5,16(s1)
    5d28:	c7f5                	beqz	a5,5e14 <_vfiprintf_r+0x130>
    5d2a:	02000793          	li	a5,32
    5d2e:	02f104a3          	sb	a5,41(sp)
    5d32:	03000793          	li	a5,48
    5d36:	d202                	sw	zero,36(sp)
    5d38:	02f10523          	sb	a5,42(sp)
    5d3c:	c622                	sw	s0,12(sp)
    5d3e:	02500b93          	li	s7,37
    5d42:	00002a97          	auipc	s5,0x2
    5d46:	75aa8a93          	addi	s5,s5,1882 # 849c <p05.3319+0xc>
    5d4a:	4c05                	li	s8,1
    5d4c:	4b29                	li	s6,10
    5d4e:	844a                	mv	s0,s2
    5d50:	00044783          	lbu	a5,0(s0)
    5d54:	c399                	beqz	a5,5d5a <_vfiprintf_r+0x76>
    5d56:	0f779263          	bne	a5,s7,5e3a <_vfiprintf_r+0x156>
    5d5a:	41240cb3          	sub	s9,s0,s2
    5d5e:	000c8e63          	beqz	s9,5d7a <_vfiprintf_r+0x96>
    5d62:	86e6                	mv	a3,s9
    5d64:	864a                	mv	a2,s2
    5d66:	85a6                	mv	a1,s1
    5d68:	854e                	mv	a0,s3
    5d6a:	f37ff0ef          	jal	ra,5ca0 <__sfputs_r>
    5d6e:	57fd                	li	a5,-1
    5d70:	1ef50763          	beq	a0,a5,5f5e <_vfiprintf_r+0x27a>
    5d74:	5692                	lw	a3,36(sp)
    5d76:	96e6                	add	a3,a3,s9
    5d78:	d236                	sw	a3,36(sp)
    5d7a:	00044783          	lbu	a5,0(s0)
    5d7e:	1e078063          	beqz	a5,5f5e <_vfiprintf_r+0x27a>
    5d82:	57fd                	li	a5,-1
    5d84:	00140913          	addi	s2,s0,1
    5d88:	c802                	sw	zero,16(sp)
    5d8a:	ce02                	sw	zero,28(sp)
    5d8c:	ca3e                	sw	a5,20(sp)
    5d8e:	cc02                	sw	zero,24(sp)
    5d90:	040109a3          	sb	zero,83(sp)
    5d94:	d482                	sw	zero,104(sp)
    5d96:	00094583          	lbu	a1,0(s2)
    5d9a:	4615                	li	a2,5
    5d9c:	8556                	mv	a0,s5
    5d9e:	e16ff0ef          	jal	ra,53b4 <memchr>
    5da2:	00190413          	addi	s0,s2,1
    5da6:	47c2                	lw	a5,16(sp)
    5da8:	e959                	bnez	a0,5e3e <_vfiprintf_r+0x15a>
    5daa:	0107f713          	andi	a4,a5,16
    5dae:	c709                	beqz	a4,5db8 <_vfiprintf_r+0xd4>
    5db0:	02000713          	li	a4,32
    5db4:	04e109a3          	sb	a4,83(sp)
    5db8:	0087f713          	andi	a4,a5,8
    5dbc:	c709                	beqz	a4,5dc6 <_vfiprintf_r+0xe2>
    5dbe:	02b00713          	li	a4,43
    5dc2:	04e109a3          	sb	a4,83(sp)
    5dc6:	00094683          	lbu	a3,0(s2)
    5dca:	02a00713          	li	a4,42
    5dce:	08e68063          	beq	a3,a4,5e4e <_vfiprintf_r+0x16a>
    5dd2:	47f2                	lw	a5,28(sp)
    5dd4:	844a                	mv	s0,s2
    5dd6:	4681                	li	a3,0
    5dd8:	4625                	li	a2,9
    5dda:	00044703          	lbu	a4,0(s0)
    5dde:	00140593          	addi	a1,s0,1
    5de2:	fd070713          	addi	a4,a4,-48
    5de6:	0ae67963          	bgeu	a2,a4,5e98 <_vfiprintf_r+0x1b4>
    5dea:	cab5                	beqz	a3,5e5e <_vfiprintf_r+0x17a>
    5dec:	ce3e                	sw	a5,28(sp)
    5dee:	a885                	j	5e5e <_vfiprintf_r+0x17a>
    5df0:	00002797          	auipc	a5,0x2
    5df4:	59078793          	addi	a5,a5,1424 # 8380 <__sf_fake_stdout>
    5df8:	00f49563          	bne	s1,a5,5e02 <_vfiprintf_r+0x11e>
    5dfc:	0089a483          	lw	s1,8(s3)
    5e00:	bf39                	j	5d1e <_vfiprintf_r+0x3a>
    5e02:	00002797          	auipc	a5,0x2
    5e06:	53e78793          	addi	a5,a5,1342 # 8340 <__sf_fake_stderr>
    5e0a:	f0f49ae3          	bne	s1,a5,5d1e <_vfiprintf_r+0x3a>
    5e0e:	00c9a483          	lw	s1,12(s3)
    5e12:	b731                	j	5d1e <_vfiprintf_r+0x3a>
    5e14:	85a6                	mv	a1,s1
    5e16:	854e                	mv	a0,s3
    5e18:	a3afe0ef          	jal	ra,4052 <__swsetup_r>
    5e1c:	d519                	beqz	a0,5d2a <_vfiprintf_r+0x46>
    5e1e:	557d                	li	a0,-1
    5e20:	40fa                	lw	ra,156(sp)
    5e22:	446a                	lw	s0,152(sp)
    5e24:	44da                	lw	s1,148(sp)
    5e26:	494a                	lw	s2,144(sp)
    5e28:	49ba                	lw	s3,140(sp)
    5e2a:	4a2a                	lw	s4,136(sp)
    5e2c:	4a9a                	lw	s5,132(sp)
    5e2e:	4b0a                	lw	s6,128(sp)
    5e30:	5bf6                	lw	s7,124(sp)
    5e32:	5c66                	lw	s8,120(sp)
    5e34:	5cd6                	lw	s9,116(sp)
    5e36:	610d                	addi	sp,sp,160
    5e38:	8082                	ret
    5e3a:	0405                	addi	s0,s0,1
    5e3c:	bf11                	j	5d50 <_vfiprintf_r+0x6c>
    5e3e:	41550533          	sub	a0,a0,s5
    5e42:	00ac1533          	sll	a0,s8,a0
    5e46:	8fc9                	or	a5,a5,a0
    5e48:	c83e                	sw	a5,16(sp)
    5e4a:	8922                	mv	s2,s0
    5e4c:	b7a9                	j	5d96 <_vfiprintf_r+0xb2>
    5e4e:	4732                	lw	a4,12(sp)
    5e50:	00470693          	addi	a3,a4,4
    5e54:	4318                	lw	a4,0(a4)
    5e56:	c636                	sw	a3,12(sp)
    5e58:	02074963          	bltz	a4,5e8a <_vfiprintf_r+0x1a6>
    5e5c:	ce3a                	sw	a4,28(sp)
    5e5e:	00044703          	lbu	a4,0(s0)
    5e62:	02e00793          	li	a5,46
    5e66:	04f71f63          	bne	a4,a5,5ec4 <_vfiprintf_r+0x1e0>
    5e6a:	00144703          	lbu	a4,1(s0)
    5e6e:	02a00793          	li	a5,42
    5e72:	02f71b63          	bne	a4,a5,5ea8 <_vfiprintf_r+0x1c4>
    5e76:	47b2                	lw	a5,12(sp)
    5e78:	0409                	addi	s0,s0,2
    5e7a:	00478713          	addi	a4,a5,4
    5e7e:	439c                	lw	a5,0(a5)
    5e80:	c63a                	sw	a4,12(sp)
    5e82:	0207c163          	bltz	a5,5ea4 <_vfiprintf_r+0x1c0>
    5e86:	ca3e                	sw	a5,20(sp)
    5e88:	a835                	j	5ec4 <_vfiprintf_r+0x1e0>
    5e8a:	40e00733          	neg	a4,a4
    5e8e:	0027e793          	ori	a5,a5,2
    5e92:	ce3a                	sw	a4,28(sp)
    5e94:	c83e                	sw	a5,16(sp)
    5e96:	b7e1                	j	5e5e <_vfiprintf_r+0x17a>
    5e98:	036787b3          	mul	a5,a5,s6
    5e9c:	4685                	li	a3,1
    5e9e:	842e                	mv	s0,a1
    5ea0:	97ba                	add	a5,a5,a4
    5ea2:	bf25                	j	5dda <_vfiprintf_r+0xf6>
    5ea4:	57fd                	li	a5,-1
    5ea6:	b7c5                	j	5e86 <_vfiprintf_r+0x1a2>
    5ea8:	0405                	addi	s0,s0,1
    5eaa:	ca02                	sw	zero,20(sp)
    5eac:	4681                	li	a3,0
    5eae:	4781                	li	a5,0
    5eb0:	4625                	li	a2,9
    5eb2:	00044703          	lbu	a4,0(s0)
    5eb6:	00140593          	addi	a1,s0,1
    5eba:	fd070713          	addi	a4,a4,-48
    5ebe:	06e67863          	bgeu	a2,a4,5f2e <_vfiprintf_r+0x24a>
    5ec2:	f2f1                	bnez	a3,5e86 <_vfiprintf_r+0x1a2>
    5ec4:	00044583          	lbu	a1,0(s0)
    5ec8:	460d                	li	a2,3
    5eca:	00002517          	auipc	a0,0x2
    5ece:	5da50513          	addi	a0,a0,1498 # 84a4 <p05.3319+0x14>
    5ed2:	ce2ff0ef          	jal	ra,53b4 <memchr>
    5ed6:	cd11                	beqz	a0,5ef2 <_vfiprintf_r+0x20e>
    5ed8:	00002797          	auipc	a5,0x2
    5edc:	5cc78793          	addi	a5,a5,1484 # 84a4 <p05.3319+0x14>
    5ee0:	8d1d                	sub	a0,a0,a5
    5ee2:	04000793          	li	a5,64
    5ee6:	00a797b3          	sll	a5,a5,a0
    5eea:	4542                	lw	a0,16(sp)
    5eec:	0405                	addi	s0,s0,1
    5eee:	8d5d                	or	a0,a0,a5
    5ef0:	c82a                	sw	a0,16(sp)
    5ef2:	00044583          	lbu	a1,0(s0)
    5ef6:	4619                	li	a2,6
    5ef8:	00002517          	auipc	a0,0x2
    5efc:	5b050513          	addi	a0,a0,1456 # 84a8 <p05.3319+0x18>
    5f00:	00140913          	addi	s2,s0,1
    5f04:	02b10423          	sb	a1,40(sp)
    5f08:	cacff0ef          	jal	ra,53b4 <memchr>
    5f0c:	c12d                	beqz	a0,5f6e <_vfiprintf_r+0x28a>
    5f0e:	ffffd797          	auipc	a5,0xffffd
    5f12:	6c478793          	addi	a5,a5,1732 # 35d2 <_printf_float>
    5f16:	e795                	bnez	a5,5f42 <_vfiprintf_r+0x25e>
    5f18:	4742                	lw	a4,16(sp)
    5f1a:	47b2                	lw	a5,12(sp)
    5f1c:	10077713          	andi	a4,a4,256
    5f20:	cf09                	beqz	a4,5f3a <_vfiprintf_r+0x256>
    5f22:	0791                	addi	a5,a5,4
    5f24:	c63e                	sw	a5,12(sp)
    5f26:	5792                	lw	a5,36(sp)
    5f28:	97d2                	add	a5,a5,s4
    5f2a:	d23e                	sw	a5,36(sp)
    5f2c:	b50d                	j	5d4e <_vfiprintf_r+0x6a>
    5f2e:	036787b3          	mul	a5,a5,s6
    5f32:	4685                	li	a3,1
    5f34:	842e                	mv	s0,a1
    5f36:	97ba                	add	a5,a5,a4
    5f38:	bfad                	j	5eb2 <_vfiprintf_r+0x1ce>
    5f3a:	079d                	addi	a5,a5,7
    5f3c:	9be1                	andi	a5,a5,-8
    5f3e:	07a1                	addi	a5,a5,8
    5f40:	b7d5                	j	5f24 <_vfiprintf_r+0x240>
    5f42:	0078                	addi	a4,sp,12
    5f44:	00000697          	auipc	a3,0x0
    5f48:	d5c68693          	addi	a3,a3,-676 # 5ca0 <__sfputs_r>
    5f4c:	8626                	mv	a2,s1
    5f4e:	080c                	addi	a1,sp,16
    5f50:	854e                	mv	a0,s3
    5f52:	e80fd0ef          	jal	ra,35d2 <_printf_float>
    5f56:	57fd                	li	a5,-1
    5f58:	8a2a                	mv	s4,a0
    5f5a:	fcf516e3          	bne	a0,a5,5f26 <_vfiprintf_r+0x242>
    5f5e:	00c4d783          	lhu	a5,12(s1)
    5f62:	0407f793          	andi	a5,a5,64
    5f66:	ea079ce3          	bnez	a5,5e1e <_vfiprintf_r+0x13a>
    5f6a:	5512                	lw	a0,36(sp)
    5f6c:	bd55                	j	5e20 <_vfiprintf_r+0x13c>
    5f6e:	0078                	addi	a4,sp,12
    5f70:	00000697          	auipc	a3,0x0
    5f74:	d3068693          	addi	a3,a3,-720 # 5ca0 <__sfputs_r>
    5f78:	8626                	mv	a2,s1
    5f7a:	080c                	addi	a1,sp,16
    5f7c:	854e                	mv	a0,s3
    5f7e:	c25fd0ef          	jal	ra,3ba2 <_printf_i>
    5f82:	bfd1                	j	5f56 <_vfiprintf_r+0x272>

00005f84 <_sbrk_r>:
    5f84:	1141                	addi	sp,sp,-16
    5f86:	c422                	sw	s0,8(sp)
    5f88:	842a                	mv	s0,a0
    5f8a:	852e                	mv	a0,a1
    5f8c:	1fffd797          	auipc	a5,0x1fffd
    5f90:	4a07a223          	sw	zero,1188(a5) # 20003430 <errno>
    5f94:	c606                	sw	ra,12(sp)
    5f96:	b83fc0ef          	jal	ra,2b18 <_sbrk>
    5f9a:	57fd                	li	a5,-1
    5f9c:	00f51963          	bne	a0,a5,5fae <_sbrk_r+0x2a>
    5fa0:	1fffd797          	auipc	a5,0x1fffd
    5fa4:	49078793          	addi	a5,a5,1168 # 20003430 <errno>
    5fa8:	439c                	lw	a5,0(a5)
    5faa:	c391                	beqz	a5,5fae <_sbrk_r+0x2a>
    5fac:	c01c                	sw	a5,0(s0)
    5fae:	40b2                	lw	ra,12(sp)
    5fb0:	4422                	lw	s0,8(sp)
    5fb2:	0141                	addi	sp,sp,16
    5fb4:	8082                	ret

00005fb6 <__sread>:
    5fb6:	1141                	addi	sp,sp,-16
    5fb8:	c422                	sw	s0,8(sp)
    5fba:	842e                	mv	s0,a1
    5fbc:	00e59583          	lh	a1,14(a1)
    5fc0:	c606                	sw	ra,12(sp)
    5fc2:	2ac5                	jal	61b2 <_read_r>
    5fc4:	00054963          	bltz	a0,5fd6 <__sread+0x20>
    5fc8:	487c                	lw	a5,84(s0)
    5fca:	97aa                	add	a5,a5,a0
    5fcc:	c87c                	sw	a5,84(s0)
    5fce:	40b2                	lw	ra,12(sp)
    5fd0:	4422                	lw	s0,8(sp)
    5fd2:	0141                	addi	sp,sp,16
    5fd4:	8082                	ret
    5fd6:	00c45783          	lhu	a5,12(s0)
    5fda:	777d                	lui	a4,0xfffff
    5fdc:	177d                	addi	a4,a4,-1
    5fde:	8ff9                	and	a5,a5,a4
    5fe0:	00f41623          	sh	a5,12(s0)
    5fe4:	b7ed                	j	5fce <__sread+0x18>

00005fe6 <__swrite>:
    5fe6:	00c5d783          	lhu	a5,12(a1)
    5fea:	1101                	addi	sp,sp,-32
    5fec:	cc22                	sw	s0,24(sp)
    5fee:	ca26                	sw	s1,20(sp)
    5ff0:	c84a                	sw	s2,16(sp)
    5ff2:	c64e                	sw	s3,12(sp)
    5ff4:	ce06                	sw	ra,28(sp)
    5ff6:	1007f793          	andi	a5,a5,256
    5ffa:	84aa                	mv	s1,a0
    5ffc:	842e                	mv	s0,a1
    5ffe:	8932                	mv	s2,a2
    6000:	89b6                	mv	s3,a3
    6002:	c791                	beqz	a5,600e <__swrite+0x28>
    6004:	00e59583          	lh	a1,14(a1)
    6008:	4689                	li	a3,2
    600a:	4601                	li	a2,0
    600c:	2a0d                	jal	613e <_lseek_r>
    600e:	00c45783          	lhu	a5,12(s0)
    6012:	777d                	lui	a4,0xfffff
    6014:	177d                	addi	a4,a4,-1
    6016:	8ff9                	and	a5,a5,a4
    6018:	00f41623          	sh	a5,12(s0)
    601c:	00e41583          	lh	a1,14(s0)
    6020:	4462                	lw	s0,24(sp)
    6022:	40f2                	lw	ra,28(sp)
    6024:	86ce                	mv	a3,s3
    6026:	864a                	mv	a2,s2
    6028:	49b2                	lw	s3,12(sp)
    602a:	4942                	lw	s2,16(sp)
    602c:	8526                	mv	a0,s1
    602e:	44d2                	lw	s1,20(sp)
    6030:	6105                	addi	sp,sp,32
    6032:	a83d                	j	6070 <_write_r>

00006034 <__sseek>:
    6034:	1141                	addi	sp,sp,-16
    6036:	c422                	sw	s0,8(sp)
    6038:	842e                	mv	s0,a1
    603a:	00e59583          	lh	a1,14(a1)
    603e:	c606                	sw	ra,12(sp)
    6040:	28fd                	jal	613e <_lseek_r>
    6042:	57fd                	li	a5,-1
    6044:	00c45703          	lhu	a4,12(s0)
    6048:	00f51b63          	bne	a0,a5,605e <__sseek+0x2a>
    604c:	77fd                	lui	a5,0xfffff
    604e:	17fd                	addi	a5,a5,-1
    6050:	8ff9                	and	a5,a5,a4
    6052:	00f41623          	sh	a5,12(s0)
    6056:	40b2                	lw	ra,12(sp)
    6058:	4422                	lw	s0,8(sp)
    605a:	0141                	addi	sp,sp,16
    605c:	8082                	ret
    605e:	6785                	lui	a5,0x1
    6060:	8fd9                	or	a5,a5,a4
    6062:	00f41623          	sh	a5,12(s0)
    6066:	c868                	sw	a0,84(s0)
    6068:	b7fd                	j	6056 <__sseek+0x22>

0000606a <__sclose>:
    606a:	00e59583          	lh	a1,14(a1)
    606e:	a825                	j	60a6 <_close_r>

00006070 <_write_r>:
    6070:	1141                	addi	sp,sp,-16
    6072:	c422                	sw	s0,8(sp)
    6074:	842a                	mv	s0,a0
    6076:	852e                	mv	a0,a1
    6078:	85b2                	mv	a1,a2
    607a:	8636                	mv	a2,a3
    607c:	1fffd797          	auipc	a5,0x1fffd
    6080:	3a07aa23          	sw	zero,948(a5) # 20003430 <errno>
    6084:	c606                	sw	ra,12(sp)
    6086:	a59fc0ef          	jal	ra,2ade <_write>
    608a:	57fd                	li	a5,-1
    608c:	00f51963          	bne	a0,a5,609e <_write_r+0x2e>
    6090:	1fffd797          	auipc	a5,0x1fffd
    6094:	3a078793          	addi	a5,a5,928 # 20003430 <errno>
    6098:	439c                	lw	a5,0(a5)
    609a:	c391                	beqz	a5,609e <_write_r+0x2e>
    609c:	c01c                	sw	a5,0(s0)
    609e:	40b2                	lw	ra,12(sp)
    60a0:	4422                	lw	s0,8(sp)
    60a2:	0141                	addi	sp,sp,16
    60a4:	8082                	ret

000060a6 <_close_r>:
    60a6:	1141                	addi	sp,sp,-16
    60a8:	c422                	sw	s0,8(sp)
    60aa:	842a                	mv	s0,a0
    60ac:	852e                	mv	a0,a1
    60ae:	1fffd797          	auipc	a5,0x1fffd
    60b2:	3807a123          	sw	zero,898(a5) # 20003430 <errno>
    60b6:	c606                	sw	ra,12(sp)
    60b8:	004020ef          	jal	ra,80bc <_close>
    60bc:	57fd                	li	a5,-1
    60be:	00f51963          	bne	a0,a5,60d0 <_close_r+0x2a>
    60c2:	1fffd797          	auipc	a5,0x1fffd
    60c6:	36e78793          	addi	a5,a5,878 # 20003430 <errno>
    60ca:	439c                	lw	a5,0(a5)
    60cc:	c391                	beqz	a5,60d0 <_close_r+0x2a>
    60ce:	c01c                	sw	a5,0(s0)
    60d0:	40b2                	lw	ra,12(sp)
    60d2:	4422                	lw	s0,8(sp)
    60d4:	0141                	addi	sp,sp,16
    60d6:	8082                	ret

000060d8 <_fstat_r>:
    60d8:	1141                	addi	sp,sp,-16
    60da:	c422                	sw	s0,8(sp)
    60dc:	842a                	mv	s0,a0
    60de:	852e                	mv	a0,a1
    60e0:	85b2                	mv	a1,a2
    60e2:	1fffd797          	auipc	a5,0x1fffd
    60e6:	3407a723          	sw	zero,846(a5) # 20003430 <errno>
    60ea:	c606                	sw	ra,12(sp)
    60ec:	7e1010ef          	jal	ra,80cc <_fstat>
    60f0:	57fd                	li	a5,-1
    60f2:	00f51963          	bne	a0,a5,6104 <_fstat_r+0x2c>
    60f6:	1fffd797          	auipc	a5,0x1fffd
    60fa:	33a78793          	addi	a5,a5,826 # 20003430 <errno>
    60fe:	439c                	lw	a5,0(a5)
    6100:	c391                	beqz	a5,6104 <_fstat_r+0x2c>
    6102:	c01c                	sw	a5,0(s0)
    6104:	40b2                	lw	ra,12(sp)
    6106:	4422                	lw	s0,8(sp)
    6108:	0141                	addi	sp,sp,16
    610a:	8082                	ret

0000610c <_isatty_r>:
    610c:	1141                	addi	sp,sp,-16
    610e:	c422                	sw	s0,8(sp)
    6110:	842a                	mv	s0,a0
    6112:	852e                	mv	a0,a1
    6114:	1fffd797          	auipc	a5,0x1fffd
    6118:	3007ae23          	sw	zero,796(a5) # 20003430 <errno>
    611c:	c606                	sw	ra,12(sp)
    611e:	7bf010ef          	jal	ra,80dc <_isatty>
    6122:	57fd                	li	a5,-1
    6124:	00f51963          	bne	a0,a5,6136 <_isatty_r+0x2a>
    6128:	1fffd797          	auipc	a5,0x1fffd
    612c:	30878793          	addi	a5,a5,776 # 20003430 <errno>
    6130:	439c                	lw	a5,0(a5)
    6132:	c391                	beqz	a5,6136 <_isatty_r+0x2a>
    6134:	c01c                	sw	a5,0(s0)
    6136:	40b2                	lw	ra,12(sp)
    6138:	4422                	lw	s0,8(sp)
    613a:	0141                	addi	sp,sp,16
    613c:	8082                	ret

0000613e <_lseek_r>:
    613e:	1141                	addi	sp,sp,-16
    6140:	c422                	sw	s0,8(sp)
    6142:	842a                	mv	s0,a0
    6144:	852e                	mv	a0,a1
    6146:	85b2                	mv	a1,a2
    6148:	8636                	mv	a2,a3
    614a:	1fffd797          	auipc	a5,0x1fffd
    614e:	2e07a323          	sw	zero,742(a5) # 20003430 <errno>
    6152:	c606                	sw	ra,12(sp)
    6154:	799010ef          	jal	ra,80ec <_lseek>
    6158:	57fd                	li	a5,-1
    615a:	00f51963          	bne	a0,a5,616c <_lseek_r+0x2e>
    615e:	1fffd797          	auipc	a5,0x1fffd
    6162:	2d278793          	addi	a5,a5,722 # 20003430 <errno>
    6166:	439c                	lw	a5,0(a5)
    6168:	c391                	beqz	a5,616c <_lseek_r+0x2e>
    616a:	c01c                	sw	a5,0(s0)
    616c:	40b2                	lw	ra,12(sp)
    616e:	4422                	lw	s0,8(sp)
    6170:	0141                	addi	sp,sp,16
    6172:	8082                	ret

00006174 <__ascii_mbtowc>:
    6174:	e185                	bnez	a1,6194 <__ascii_mbtowc+0x20>
    6176:	1141                	addi	sp,sp,-16
    6178:	006c                	addi	a1,sp,12
    617a:	4501                	li	a0,0
    617c:	ca11                	beqz	a2,6190 <__ascii_mbtowc+0x1c>
    617e:	5579                	li	a0,-2
    6180:	ca81                	beqz	a3,6190 <__ascii_mbtowc+0x1c>
    6182:	00064783          	lbu	a5,0(a2)
    6186:	c19c                	sw	a5,0(a1)
    6188:	00064503          	lbu	a0,0(a2)
    618c:	00a03533          	snez	a0,a0
    6190:	0141                	addi	sp,sp,16
    6192:	8082                	ret
    6194:	4501                	li	a0,0
    6196:	ca19                	beqz	a2,61ac <__ascii_mbtowc+0x38>
    6198:	5579                	li	a0,-2
    619a:	ca89                	beqz	a3,61ac <__ascii_mbtowc+0x38>
    619c:	00064783          	lbu	a5,0(a2)
    61a0:	c19c                	sw	a5,0(a1)
    61a2:	00064503          	lbu	a0,0(a2)
    61a6:	00a03533          	snez	a0,a0
    61aa:	8082                	ret
    61ac:	8082                	ret

000061ae <__malloc_lock>:
    61ae:	8082                	ret

000061b0 <__malloc_unlock>:
    61b0:	8082                	ret

000061b2 <_read_r>:
    61b2:	1141                	addi	sp,sp,-16
    61b4:	c422                	sw	s0,8(sp)
    61b6:	842a                	mv	s0,a0
    61b8:	852e                	mv	a0,a1
    61ba:	85b2                	mv	a1,a2
    61bc:	8636                	mv	a2,a3
    61be:	1fffd797          	auipc	a5,0x1fffd
    61c2:	2607a923          	sw	zero,626(a5) # 20003430 <errno>
    61c6:	c606                	sw	ra,12(sp)
    61c8:	735010ef          	jal	ra,80fc <_read>
    61cc:	57fd                	li	a5,-1
    61ce:	00f51963          	bne	a0,a5,61e0 <_read_r+0x2e>
    61d2:	1fffd797          	auipc	a5,0x1fffd
    61d6:	25e78793          	addi	a5,a5,606 # 20003430 <errno>
    61da:	439c                	lw	a5,0(a5)
    61dc:	c391                	beqz	a5,61e0 <_read_r+0x2e>
    61de:	c01c                	sw	a5,0(s0)
    61e0:	40b2                	lw	ra,12(sp)
    61e2:	4422                	lw	s0,8(sp)
    61e4:	0141                	addi	sp,sp,16
    61e6:	8082                	ret

000061e8 <__ascii_wctomb>:
    61e8:	cd91                	beqz	a1,6204 <__ascii_wctomb+0x1c>
    61ea:	0ff00793          	li	a5,255
    61ee:	00c7f763          	bgeu	a5,a2,61fc <__ascii_wctomb+0x14>
    61f2:	08a00793          	li	a5,138
    61f6:	c11c                	sw	a5,0(a0)
    61f8:	557d                	li	a0,-1
    61fa:	8082                	ret
    61fc:	00c58023          	sb	a2,0(a1)
    6200:	4505                	li	a0,1
    6202:	8082                	ret
    6204:	4501                	li	a0,0
    6206:	8082                	ret

00006208 <__adddf3>:
    6208:	00100837          	lui	a6,0x100
    620c:	1101                	addi	sp,sp,-32
    620e:	187d                	addi	a6,a6,-1
    6210:	00b87733          	and	a4,a6,a1
    6214:	ca26                	sw	s1,20(sp)
    6216:	00d87833          	and	a6,a6,a3
    621a:	0145d493          	srli	s1,a1,0x14
    621e:	0146d313          	srli	t1,a3,0x14
    6222:	00371e13          	slli	t3,a4,0x3
    6226:	c64e                	sw	s3,12(sp)
    6228:	01d55713          	srli	a4,a0,0x1d
    622c:	080e                	slli	a6,a6,0x3
    622e:	01d65793          	srli	a5,a2,0x1d
    6232:	7ff4f493          	andi	s1,s1,2047
    6236:	7ff37313          	andi	t1,t1,2047
    623a:	ce06                	sw	ra,28(sp)
    623c:	cc22                	sw	s0,24(sp)
    623e:	c84a                	sw	s2,16(sp)
    6240:	01f5d993          	srli	s3,a1,0x1f
    6244:	01f6de93          	srli	t4,a3,0x1f
    6248:	01c76733          	or	a4,a4,t3
    624c:	00351f13          	slli	t5,a0,0x3
    6250:	0107e833          	or	a6,a5,a6
    6254:	00361f93          	slli	t6,a2,0x3
    6258:	40648e33          	sub	t3,s1,t1
    625c:	19d98063          	beq	s3,t4,63dc <__adddf3+0x1d4>
    6260:	13c05663          	blez	t3,638c <__adddf3+0x184>
    6264:	1c030463          	beqz	t1,642c <__adddf3+0x224>
    6268:	008006b7          	lui	a3,0x800
    626c:	7ff00793          	li	a5,2047
    6270:	00d86833          	or	a6,a6,a3
    6274:	36f48f63          	beq	s1,a5,65f2 <__adddf3+0x3ea>
    6278:	03800793          	li	a5,56
    627c:	35c7c063          	blt	a5,t3,65bc <__adddf3+0x3b4>
    6280:	47fd                	li	a5,31
    6282:	47c7cd63          	blt	a5,t3,66fc <__adddf3+0x4f4>
    6286:	02000513          	li	a0,32
    628a:	41c50533          	sub	a0,a0,t3
    628e:	01cfd7b3          	srl	a5,t6,t3
    6292:	00a816b3          	sll	a3,a6,a0
    6296:	00af9933          	sll	s2,t6,a0
    629a:	8edd                	or	a3,a3,a5
    629c:	01203933          	snez	s2,s2
    62a0:	01c857b3          	srl	a5,a6,t3
    62a4:	0126e933          	or	s2,a3,s2
    62a8:	8f1d                	sub	a4,a4,a5
    62aa:	412f0933          	sub	s2,t5,s2
    62ae:	012f37b3          	sltu	a5,t5,s2
    62b2:	40f70633          	sub	a2,a4,a5
    62b6:	00861793          	slli	a5,a2,0x8
    62ba:	2407d463          	bgez	a5,6502 <__adddf3+0x2fa>
    62be:	00800737          	lui	a4,0x800
    62c2:	177d                	addi	a4,a4,-1
    62c4:	00e67433          	and	s0,a2,a4
    62c8:	2c040c63          	beqz	s0,65a0 <__adddf3+0x398>
    62cc:	8522                	mv	a0,s0
    62ce:	579010ef          	jal	ra,8046 <__clzsi2>
    62d2:	ff850713          	addi	a4,a0,-8
    62d6:	02000793          	li	a5,32
    62da:	8f99                	sub	a5,a5,a4
    62dc:	00f957b3          	srl	a5,s2,a5
    62e0:	00e41633          	sll	a2,s0,a4
    62e4:	8fd1                	or	a5,a5,a2
    62e6:	00e91933          	sll	s2,s2,a4
    62ea:	2a974163          	blt	a4,s1,658c <__adddf3+0x384>
    62ee:	40970533          	sub	a0,a4,s1
    62f2:	00150613          	addi	a2,a0,1
    62f6:	477d                	li	a4,31
    62f8:	38c74d63          	blt	a4,a2,6692 <__adddf3+0x48a>
    62fc:	02000713          	li	a4,32
    6300:	8f11                	sub	a4,a4,a2
    6302:	00c956b3          	srl	a3,s2,a2
    6306:	00e91933          	sll	s2,s2,a4
    630a:	00e79733          	sll	a4,a5,a4
    630e:	8f55                	or	a4,a4,a3
    6310:	01203933          	snez	s2,s2
    6314:	01276933          	or	s2,a4,s2
    6318:	00c7d633          	srl	a2,a5,a2
    631c:	4481                	li	s1,0
    631e:	00797793          	andi	a5,s2,7
    6322:	cf81                	beqz	a5,633a <__adddf3+0x132>
    6324:	00f97713          	andi	a4,s2,15
    6328:	4791                	li	a5,4
    632a:	00f70863          	beq	a4,a5,633a <__adddf3+0x132>
    632e:	00490713          	addi	a4,s2,4
    6332:	01273933          	sltu	s2,a4,s2
    6336:	964a                	add	a2,a2,s2
    6338:	893a                	mv	s2,a4
    633a:	00861793          	slli	a5,a2,0x8
    633e:	1c07d663          	bgez	a5,650a <__adddf3+0x302>
    6342:	00148513          	addi	a0,s1,1
    6346:	7ff00793          	li	a5,2047
    634a:	85ce                	mv	a1,s3
    634c:	20f50463          	beq	a0,a5,6554 <__adddf3+0x34c>
    6350:	ff8007b7          	lui	a5,0xff800
    6354:	17fd                	addi	a5,a5,-1
    6356:	8ff1                	and	a5,a5,a2
    6358:	01d79893          	slli	a7,a5,0x1d
    635c:	00395913          	srli	s2,s2,0x3
    6360:	07a6                	slli	a5,a5,0x9
    6362:	0128e8b3          	or	a7,a7,s2
    6366:	83b1                	srli	a5,a5,0xc
    6368:	7ff57513          	andi	a0,a0,2047
    636c:	00c79693          	slli	a3,a5,0xc
    6370:	0552                	slli	a0,a0,0x14
    6372:	40f2                	lw	ra,28(sp)
    6374:	4462                	lw	s0,24(sp)
    6376:	82b1                	srli	a3,a3,0xc
    6378:	05fe                	slli	a1,a1,0x1f
    637a:	8ec9                	or	a3,a3,a0
    637c:	8ecd                	or	a3,a3,a1
    637e:	44d2                	lw	s1,20(sp)
    6380:	4942                	lw	s2,16(sp)
    6382:	49b2                	lw	s3,12(sp)
    6384:	8546                	mv	a0,a7
    6386:	85b6                	mv	a1,a3
    6388:	6105                	addi	sp,sp,32
    638a:	8082                	ret
    638c:	0a0e1e63          	bnez	t3,6448 <__adddf3+0x240>
    6390:	00148313          	addi	t1,s1,1
    6394:	7fe37313          	andi	t1,t1,2046
    6398:	22031763          	bnez	t1,65c6 <__adddf3+0x3be>
    639c:	01e767b3          	or	a5,a4,t5
    63a0:	01f868b3          	or	a7,a6,t6
    63a4:	1a049d63          	bnez	s1,655e <__adddf3+0x356>
    63a8:	40078763          	beqz	a5,67b6 <__adddf3+0x5ae>
    63ac:	44088663          	beqz	a7,67f8 <__adddf3+0x5f0>
    63b0:	41ff0933          	sub	s2,t5,t6
    63b4:	410707b3          	sub	a5,a4,a6
    63b8:	012f3633          	sltu	a2,t5,s2
    63bc:	40c78633          	sub	a2,a5,a2
    63c0:	00861793          	slli	a5,a2,0x8
    63c4:	4c07d663          	bgez	a5,6890 <__adddf3+0x688>
    63c8:	41ef8933          	sub	s2,t6,t5
    63cc:	40e807b3          	sub	a5,a6,a4
    63d0:	012fb633          	sltu	a2,t6,s2
    63d4:	40c78633          	sub	a2,a5,a2
    63d8:	89f6                	mv	s3,t4
    63da:	b791                	j	631e <__adddf3+0x116>
    63dc:	0fc05063          	blez	t3,64bc <__adddf3+0x2b4>
    63e0:	0c030063          	beqz	t1,64a0 <__adddf3+0x298>
    63e4:	008006b7          	lui	a3,0x800
    63e8:	7ff00793          	li	a5,2047
    63ec:	00d86833          	or	a6,a6,a3
    63f0:	3af48a63          	beq	s1,a5,67a4 <__adddf3+0x59c>
    63f4:	03800793          	li	a5,56
    63f8:	13c7cb63          	blt	a5,t3,652e <__adddf3+0x326>
    63fc:	47fd                	li	a5,31
    63fe:	35c7df63          	bge	a5,t3,675c <__adddf3+0x554>
    6402:	fe0e0913          	addi	s2,t3,-32
    6406:	02000793          	li	a5,32
    640a:	012856b3          	srl	a3,a6,s2
    640e:	00fe0a63          	beq	t3,a5,6422 <__adddf3+0x21a>
    6412:	04000913          	li	s2,64
    6416:	41c90933          	sub	s2,s2,t3
    641a:	01281933          	sll	s2,a6,s2
    641e:	012fefb3          	or	t6,t6,s2
    6422:	01f03933          	snez	s2,t6
    6426:	00d96933          	or	s2,s2,a3
    642a:	a231                	j	6536 <__adddf3+0x32e>
    642c:	01f867b3          	or	a5,a6,t6
    6430:	1c078a63          	beqz	a5,6604 <__adddf3+0x3fc>
    6434:	fffe0793          	addi	a5,t3,-1
    6438:	38078c63          	beqz	a5,67d0 <__adddf3+0x5c8>
    643c:	7ff00693          	li	a3,2047
    6440:	1ade0963          	beq	t3,a3,65f2 <__adddf3+0x3ea>
    6444:	8e3e                	mv	t3,a5
    6446:	bd0d                	j	6278 <__adddf3+0x70>
    6448:	409305b3          	sub	a1,t1,s1
    644c:	22049163          	bnez	s1,666e <__adddf3+0x466>
    6450:	01e767b3          	or	a5,a4,t5
    6454:	32078763          	beqz	a5,6782 <__adddf3+0x57a>
    6458:	fff58793          	addi	a5,a1,-1
    645c:	44078163          	beqz	a5,689e <__adddf3+0x696>
    6460:	7ff00693          	li	a3,2047
    6464:	20d58c63          	beq	a1,a3,667c <__adddf3+0x474>
    6468:	85be                	mv	a1,a5
    646a:	03800793          	li	a5,56
    646e:	2ab7cc63          	blt	a5,a1,6726 <__adddf3+0x51e>
    6472:	47fd                	li	a5,31
    6474:	3cb7cf63          	blt	a5,a1,6852 <__adddf3+0x64a>
    6478:	02000793          	li	a5,32
    647c:	8f8d                	sub	a5,a5,a1
    647e:	00f71933          	sll	s2,a4,a5
    6482:	00bf56b3          	srl	a3,t5,a1
    6486:	00ff17b3          	sll	a5,t5,a5
    648a:	00d96933          	or	s2,s2,a3
    648e:	00f037b3          	snez	a5,a5
    6492:	00b75733          	srl	a4,a4,a1
    6496:	00f96933          	or	s2,s2,a5
    649a:	40e80833          	sub	a6,a6,a4
    649e:	ac41                	j	672e <__adddf3+0x526>
    64a0:	01f867b3          	or	a5,a6,t6
    64a4:	34078063          	beqz	a5,67e4 <__adddf3+0x5dc>
    64a8:	fffe0793          	addi	a5,t3,-1
    64ac:	20078a63          	beqz	a5,66c0 <__adddf3+0x4b8>
    64b0:	7ff00693          	li	a3,2047
    64b4:	2ede0863          	beq	t3,a3,67a4 <__adddf3+0x59c>
    64b8:	8e3e                	mv	t3,a5
    64ba:	bf2d                	j	63f4 <__adddf3+0x1ec>
    64bc:	140e1e63          	bnez	t3,6618 <__adddf3+0x410>
    64c0:	00148693          	addi	a3,s1,1
    64c4:	7fe6f793          	andi	a5,a3,2046
    64c8:	34079163          	bnez	a5,680a <__adddf3+0x602>
    64cc:	01e767b3          	or	a5,a4,t5
    64d0:	2c049563          	bnez	s1,679a <__adddf3+0x592>
    64d4:	3e078063          	beqz	a5,68b4 <__adddf3+0x6ac>
    64d8:	01f867b3          	or	a5,a6,t6
    64dc:	30078e63          	beqz	a5,67f8 <__adddf3+0x5f0>
    64e0:	01ff0933          	add	s2,t5,t6
    64e4:	010707b3          	add	a5,a4,a6
    64e8:	01e93f33          	sltu	t5,s2,t5
    64ec:	01e78633          	add	a2,a5,t5
    64f0:	00861793          	slli	a5,a2,0x8
    64f4:	0007d763          	bgez	a5,6502 <__adddf3+0x2fa>
    64f8:	ff8007b7          	lui	a5,0xff800
    64fc:	17fd                	addi	a5,a5,-1
    64fe:	8e7d                	and	a2,a2,a5
    6500:	4485                	li	s1,1
    6502:	00797793          	andi	a5,s2,7
    6506:	e0079fe3          	bnez	a5,6324 <__adddf3+0x11c>
    650a:	01d61793          	slli	a5,a2,0x1d
    650e:	00395893          	srli	a7,s2,0x3
    6512:	00f8e8b3          	or	a7,a7,a5
    6516:	00365793          	srli	a5,a2,0x3
    651a:	7ff00713          	li	a4,2047
    651e:	04e48d63          	beq	s1,a4,6578 <__adddf3+0x370>
    6522:	07b2                	slli	a5,a5,0xc
    6524:	83b1                	srli	a5,a5,0xc
    6526:	7ff4f513          	andi	a0,s1,2047
    652a:	85ce                	mv	a1,s3
    652c:	b581                	j	636c <__adddf3+0x164>
    652e:	01f86933          	or	s2,a6,t6
    6532:	01203933          	snez	s2,s2
    6536:	997a                	add	s2,s2,t5
    6538:	01e937b3          	sltu	a5,s2,t5
    653c:	00e78633          	add	a2,a5,a4
    6540:	00861793          	slli	a5,a2,0x8
    6544:	fa07dfe3          	bgez	a5,6502 <__adddf3+0x2fa>
    6548:	0485                	addi	s1,s1,1
    654a:	7ff00793          	li	a5,2047
    654e:	18f49663          	bne	s1,a5,66da <__adddf3+0x4d2>
    6552:	85ce                	mv	a1,s3
    6554:	7ff00513          	li	a0,2047
    6558:	4781                	li	a5,0
    655a:	4881                	li	a7,0
    655c:	bd01                	j	636c <__adddf3+0x164>
    655e:	ebc1                	bnez	a5,65ee <__adddf3+0x3e6>
    6560:	3a088463          	beqz	a7,6908 <__adddf3+0x700>
    6564:	00361693          	slli	a3,a2,0x3
    6568:	01d81793          	slli	a5,a6,0x1d
    656c:	828d                	srli	a3,a3,0x3
    656e:	00d7e8b3          	or	a7,a5,a3
    6572:	89f6                	mv	s3,t4
    6574:	00385793          	srli	a5,a6,0x3
    6578:	00f8e7b3          	or	a5,a7,a5
    657c:	dbf9                	beqz	a5,6552 <__adddf3+0x34a>
    657e:	4581                	li	a1,0
    6580:	7ff00513          	li	a0,2047
    6584:	000807b7          	lui	a5,0x80
    6588:	4881                	li	a7,0
    658a:	b3cd                	j	636c <__adddf3+0x164>
    658c:	ff800637          	lui	a2,0xff800
    6590:	167d                	addi	a2,a2,-1
    6592:	8e7d                	and	a2,a2,a5
    6594:	00797793          	andi	a5,s2,7
    6598:	8c99                	sub	s1,s1,a4
    659a:	d80795e3          	bnez	a5,6324 <__adddf3+0x11c>
    659e:	b7b5                	j	650a <__adddf3+0x302>
    65a0:	854a                	mv	a0,s2
    65a2:	2a5010ef          	jal	ra,8046 <__clzsi2>
    65a6:	01850713          	addi	a4,a0,24
    65aa:	47fd                	li	a5,31
    65ac:	d2e7d5e3          	bge	a5,a4,62d6 <__adddf3+0xce>
    65b0:	ff850613          	addi	a2,a0,-8
    65b4:	00c917b3          	sll	a5,s2,a2
    65b8:	4901                	li	s2,0
    65ba:	bb05                	j	62ea <__adddf3+0xe2>
    65bc:	01f86933          	or	s2,a6,t6
    65c0:	01203933          	snez	s2,s2
    65c4:	b1dd                	j	62aa <__adddf3+0xa2>
    65c6:	41ff0933          	sub	s2,t5,t6
    65ca:	41070633          	sub	a2,a4,a6
    65ce:	012f3433          	sltu	s0,t5,s2
    65d2:	40860433          	sub	s0,a2,s0
    65d6:	00841793          	slli	a5,s0,0x8
    65da:	2407cd63          	bltz	a5,6834 <__adddf3+0x62c>
    65de:	008968b3          	or	a7,s2,s0
    65e2:	ce0893e3          	bnez	a7,62c8 <__adddf3+0xc0>
    65e6:	4781                	li	a5,0
    65e8:	4981                	li	s3,0
    65ea:	4481                	li	s1,0
    65ec:	bf1d                	j	6522 <__adddf3+0x31a>
    65ee:	f80898e3          	bnez	a7,657e <__adddf3+0x376>
    65f2:	050e                	slli	a0,a0,0x3
    65f4:	01d71793          	slli	a5,a4,0x1d
    65f8:	810d                	srli	a0,a0,0x3
    65fa:	00a7e8b3          	or	a7,a5,a0
    65fe:	00375793          	srli	a5,a4,0x3
    6602:	bf9d                	j	6578 <__adddf3+0x370>
    6604:	050e                	slli	a0,a0,0x3
    6606:	01d71793          	slli	a5,a4,0x1d
    660a:	810d                	srli	a0,a0,0x3
    660c:	00a7e8b3          	or	a7,a5,a0
    6610:	84f2                	mv	s1,t3
    6612:	00375793          	srli	a5,a4,0x3
    6616:	b711                	j	651a <__adddf3+0x312>
    6618:	40930533          	sub	a0,t1,s1
    661c:	12048263          	beqz	s1,6740 <__adddf3+0x538>
    6620:	008006b7          	lui	a3,0x800
    6624:	7ff00793          	li	a5,2047
    6628:	8f55                	or	a4,a4,a3
    662a:	2ef30d63          	beq	t1,a5,6924 <__adddf3+0x71c>
    662e:	03800793          	li	a5,56
    6632:	20a7cb63          	blt	a5,a0,6848 <__adddf3+0x640>
    6636:	47fd                	li	a5,31
    6638:	2aa7c363          	blt	a5,a0,68de <__adddf3+0x6d6>
    663c:	02000793          	li	a5,32
    6640:	8f89                	sub	a5,a5,a0
    6642:	00f71933          	sll	s2,a4,a5
    6646:	00af56b3          	srl	a3,t5,a0
    664a:	00ff17b3          	sll	a5,t5,a5
    664e:	00d96933          	or	s2,s2,a3
    6652:	00f037b3          	snez	a5,a5
    6656:	00a75733          	srl	a4,a4,a0
    665a:	00f96933          	or	s2,s2,a5
    665e:	983a                	add	a6,a6,a4
    6660:	997e                	add	s2,s2,t6
    6662:	01f937b3          	sltu	a5,s2,t6
    6666:	01078633          	add	a2,a5,a6
    666a:	849a                	mv	s1,t1
    666c:	bdd1                	j	6540 <__adddf3+0x338>
    666e:	008006b7          	lui	a3,0x800
    6672:	7ff00793          	li	a5,2047
    6676:	8f55                	or	a4,a4,a3
    6678:	def319e3          	bne	t1,a5,646a <__adddf3+0x262>
    667c:	00361793          	slli	a5,a2,0x3
    6680:	838d                	srli	a5,a5,0x3
    6682:	01d81893          	slli	a7,a6,0x1d
    6686:	0117e8b3          	or	a7,a5,a7
    668a:	89f6                	mv	s3,t4
    668c:	00385793          	srli	a5,a6,0x3
    6690:	b5e5                	j	6578 <__adddf3+0x370>
    6692:	fe150713          	addi	a4,a0,-31
    6696:	02000693          	li	a3,32
    669a:	00e7d733          	srl	a4,a5,a4
    669e:	00d60a63          	beq	a2,a3,66b2 <__adddf3+0x4aa>
    66a2:	04000693          	li	a3,64
    66a6:	40c68633          	sub	a2,a3,a2
    66aa:	00c79633          	sll	a2,a5,a2
    66ae:	00c96933          	or	s2,s2,a2
    66b2:	01203933          	snez	s2,s2
    66b6:	00e96933          	or	s2,s2,a4
    66ba:	4601                	li	a2,0
    66bc:	4481                	li	s1,0
    66be:	b591                	j	6502 <__adddf3+0x2fa>
    66c0:	01ff0933          	add	s2,t5,t6
    66c4:	010707b3          	add	a5,a4,a6
    66c8:	01e93633          	sltu	a2,s2,t5
    66cc:	963e                	add	a2,a2,a5
    66ce:	00861793          	slli	a5,a2,0x8
    66d2:	4485                	li	s1,1
    66d4:	e207d7e3          	bgez	a5,6502 <__adddf3+0x2fa>
    66d8:	4489                	li	s1,2
    66da:	ff8007b7          	lui	a5,0xff800
    66de:	17fd                	addi	a5,a5,-1
    66e0:	8ff1                	and	a5,a5,a2
    66e2:	00195713          	srli	a4,s2,0x1
    66e6:	00197913          	andi	s2,s2,1
    66ea:	01276933          	or	s2,a4,s2
    66ee:	01f79893          	slli	a7,a5,0x1f
    66f2:	0128e933          	or	s2,a7,s2
    66f6:	0017d613          	srli	a2,a5,0x1
    66fa:	b115                	j	631e <__adddf3+0x116>
    66fc:	fe0e0913          	addi	s2,t3,-32
    6700:	02000793          	li	a5,32
    6704:	012856b3          	srl	a3,a6,s2
    6708:	00fe0a63          	beq	t3,a5,671c <__adddf3+0x514>
    670c:	04000913          	li	s2,64
    6710:	41c90933          	sub	s2,s2,t3
    6714:	01281933          	sll	s2,a6,s2
    6718:	012fefb3          	or	t6,t6,s2
    671c:	01f03933          	snez	s2,t6
    6720:	00d96933          	or	s2,s2,a3
    6724:	b659                	j	62aa <__adddf3+0xa2>
    6726:	01e76933          	or	s2,a4,t5
    672a:	01203933          	snez	s2,s2
    672e:	412f8933          	sub	s2,t6,s2
    6732:	012fb7b3          	sltu	a5,t6,s2
    6736:	40f80633          	sub	a2,a6,a5
    673a:	849a                	mv	s1,t1
    673c:	89f6                	mv	s3,t4
    673e:	bea5                	j	62b6 <__adddf3+0xae>
    6740:	01e767b3          	or	a5,a4,t5
    6744:	18078263          	beqz	a5,68c8 <__adddf3+0x6c0>
    6748:	fff50793          	addi	a5,a0,-1
    674c:	1c078463          	beqz	a5,6914 <__adddf3+0x70c>
    6750:	7ff00693          	li	a3,2047
    6754:	12d50463          	beq	a0,a3,687c <__adddf3+0x674>
    6758:	853e                	mv	a0,a5
    675a:	bdd1                	j	662e <__adddf3+0x426>
    675c:	02000793          	li	a5,32
    6760:	41c787b3          	sub	a5,a5,t3
    6764:	00f816b3          	sll	a3,a6,a5
    6768:	00ff9933          	sll	s2,t6,a5
    676c:	01cfd633          	srl	a2,t6,t3
    6770:	8ed1                	or	a3,a3,a2
    6772:	01203933          	snez	s2,s2
    6776:	01c857b3          	srl	a5,a6,t3
    677a:	0126e933          	or	s2,a3,s2
    677e:	973e                	add	a4,a4,a5
    6780:	bb5d                	j	6536 <__adddf3+0x32e>
    6782:	00361793          	slli	a5,a2,0x3
    6786:	838d                	srli	a5,a5,0x3
    6788:	01d81893          	slli	a7,a6,0x1d
    678c:	0117e8b3          	or	a7,a5,a7
    6790:	84ae                	mv	s1,a1
    6792:	00385793          	srli	a5,a6,0x3
    6796:	89f6                	mv	s3,t4
    6798:	b349                	j	651a <__adddf3+0x312>
    679a:	c3ed                	beqz	a5,687c <__adddf3+0x674>
    679c:	01f86933          	or	s2,a6,t6
    67a0:	dc091fe3          	bnez	s2,657e <__adddf3+0x376>
    67a4:	050e                	slli	a0,a0,0x3
    67a6:	01d71793          	slli	a5,a4,0x1d
    67aa:	810d                	srli	a0,a0,0x3
    67ac:	00f568b3          	or	a7,a0,a5
    67b0:	00375793          	srli	a5,a4,0x3
    67b4:	b3d1                	j	6578 <__adddf3+0x370>
    67b6:	0e088163          	beqz	a7,6898 <__adddf3+0x690>
    67ba:	00361693          	slli	a3,a2,0x3
    67be:	01d81793          	slli	a5,a6,0x1d
    67c2:	828d                	srli	a3,a3,0x3
    67c4:	00d7e8b3          	or	a7,a5,a3
    67c8:	89f6                	mv	s3,t4
    67ca:	00385793          	srli	a5,a6,0x3
    67ce:	bb91                	j	6522 <__adddf3+0x31a>
    67d0:	41ff0933          	sub	s2,t5,t6
    67d4:	410707b3          	sub	a5,a4,a6
    67d8:	012f3f33          	sltu	t5,t5,s2
    67dc:	41e78633          	sub	a2,a5,t5
    67e0:	4485                	li	s1,1
    67e2:	bcd1                	j	62b6 <__adddf3+0xae>
    67e4:	050e                	slli	a0,a0,0x3
    67e6:	01d71793          	slli	a5,a4,0x1d
    67ea:	810d                	srli	a0,a0,0x3
    67ec:	00f568b3          	or	a7,a0,a5
    67f0:	84f2                	mv	s1,t3
    67f2:	00375793          	srli	a5,a4,0x3
    67f6:	b315                	j	651a <__adddf3+0x312>
    67f8:	050e                	slli	a0,a0,0x3
    67fa:	01d71793          	slli	a5,a4,0x1d
    67fe:	810d                	srli	a0,a0,0x3
    6800:	00a7e8b3          	or	a7,a5,a0
    6804:	00375793          	srli	a5,a4,0x3
    6808:	bb29                	j	6522 <__adddf3+0x31a>
    680a:	7ff00793          	li	a5,2047
    680e:	d4f682e3          	beq	a3,a5,6552 <__adddf3+0x34a>
    6812:	01ff0933          	add	s2,t5,t6
    6816:	01e93633          	sltu	a2,s2,t5
    681a:	010707b3          	add	a5,a4,a6
    681e:	97b2                	add	a5,a5,a2
    6820:	01f79893          	slli	a7,a5,0x1f
    6824:	00195913          	srli	s2,s2,0x1
    6828:	0128e933          	or	s2,a7,s2
    682c:	0017d613          	srli	a2,a5,0x1
    6830:	84b6                	mv	s1,a3
    6832:	b9c1                	j	6502 <__adddf3+0x2fa>
    6834:	41ef8933          	sub	s2,t6,t5
    6838:	40e80733          	sub	a4,a6,a4
    683c:	012fb633          	sltu	a2,t6,s2
    6840:	40c70433          	sub	s0,a4,a2
    6844:	89f6                	mv	s3,t4
    6846:	b449                	j	62c8 <__adddf3+0xc0>
    6848:	01e76933          	or	s2,a4,t5
    684c:	01203933          	snez	s2,s2
    6850:	bd01                	j	6660 <__adddf3+0x458>
    6852:	fe058793          	addi	a5,a1,-32
    6856:	02000693          	li	a3,32
    685a:	00f757b3          	srl	a5,a4,a5
    685e:	00d58a63          	beq	a1,a3,6872 <__adddf3+0x66a>
    6862:	04000693          	li	a3,64
    6866:	40b685b3          	sub	a1,a3,a1
    686a:	00b71733          	sll	a4,a4,a1
    686e:	00ef6f33          	or	t5,t5,a4
    6872:	01e03933          	snez	s2,t5
    6876:	00f96933          	or	s2,s2,a5
    687a:	bd55                	j	672e <__adddf3+0x526>
    687c:	00361793          	slli	a5,a2,0x3
    6880:	838d                	srli	a5,a5,0x3
    6882:	01d81893          	slli	a7,a6,0x1d
    6886:	0117e8b3          	or	a7,a5,a7
    688a:	00385793          	srli	a5,a6,0x3
    688e:	b1ed                	j	6578 <__adddf3+0x370>
    6890:	00c968b3          	or	a7,s2,a2
    6894:	c60897e3          	bnez	a7,6502 <__adddf3+0x2fa>
    6898:	4781                	li	a5,0
    689a:	4981                	li	s3,0
    689c:	b159                	j	6522 <__adddf3+0x31a>
    689e:	41ef8933          	sub	s2,t6,t5
    68a2:	40e807b3          	sub	a5,a6,a4
    68a6:	012fb633          	sltu	a2,t6,s2
    68aa:	40c78633          	sub	a2,a5,a2
    68ae:	89f6                	mv	s3,t4
    68b0:	4485                	li	s1,1
    68b2:	b411                	j	62b6 <__adddf3+0xae>
    68b4:	00361693          	slli	a3,a2,0x3
    68b8:	01d81793          	slli	a5,a6,0x1d
    68bc:	828d                	srli	a3,a3,0x3
    68be:	00d7e8b3          	or	a7,a5,a3
    68c2:	00385793          	srli	a5,a6,0x3
    68c6:	b9b1                	j	6522 <__adddf3+0x31a>
    68c8:	00361693          	slli	a3,a2,0x3
    68cc:	01d81793          	slli	a5,a6,0x1d
    68d0:	828d                	srli	a3,a3,0x3
    68d2:	00d7e8b3          	or	a7,a5,a3
    68d6:	84aa                	mv	s1,a0
    68d8:	00385793          	srli	a5,a6,0x3
    68dc:	b93d                	j	651a <__adddf3+0x312>
    68de:	fe050793          	addi	a5,a0,-32
    68e2:	02000693          	li	a3,32
    68e6:	00f757b3          	srl	a5,a4,a5
    68ea:	00d50a63          	beq	a0,a3,68fe <__adddf3+0x6f6>
    68ee:	04000693          	li	a3,64
    68f2:	40a68533          	sub	a0,a3,a0
    68f6:	00a71733          	sll	a4,a4,a0
    68fa:	00ef6f33          	or	t5,t5,a4
    68fe:	01e03933          	snez	s2,t5
    6902:	00f96933          	or	s2,s2,a5
    6906:	bba9                	j	6660 <__adddf3+0x458>
    6908:	4581                	li	a1,0
    690a:	7ff00513          	li	a0,2047
    690e:	000807b7          	lui	a5,0x80
    6912:	bca9                	j	636c <__adddf3+0x164>
    6914:	01ff0933          	add	s2,t5,t6
    6918:	010707b3          	add	a5,a4,a6
    691c:	01f93633          	sltu	a2,s2,t6
    6920:	963e                	add	a2,a2,a5
    6922:	b375                	j	66ce <__adddf3+0x4c6>
    6924:	00361693          	slli	a3,a2,0x3
    6928:	01d81793          	slli	a5,a6,0x1d
    692c:	828d                	srli	a3,a3,0x3
    692e:	00d7e8b3          	or	a7,a5,a3
    6932:	00385793          	srli	a5,a6,0x3
    6936:	b189                	j	6578 <__adddf3+0x370>

00006938 <__divdf3>:
    6938:	7139                	addi	sp,sp,-64
    693a:	0145d793          	srli	a5,a1,0x14
    693e:	dc22                	sw	s0,56(sp)
    6940:	d84a                	sw	s2,48(sp)
    6942:	d256                	sw	s5,36(sp)
    6944:	892a                	mv	s2,a0
    6946:	00c59413          	slli	s0,a1,0xc
    694a:	de06                	sw	ra,60(sp)
    694c:	da26                	sw	s1,52(sp)
    694e:	d64e                	sw	s3,44(sp)
    6950:	d452                	sw	s4,40(sp)
    6952:	d05a                	sw	s6,32(sp)
    6954:	ce5e                	sw	s7,28(sp)
    6956:	7ff7f513          	andi	a0,a5,2047
    695a:	8031                	srli	s0,s0,0xc
    695c:	01f5da93          	srli	s5,a1,0x1f
    6960:	10050b63          	beqz	a0,6a76 <__divdf3+0x13e>
    6964:	7ff00793          	li	a5,2047
    6968:	14f50b63          	beq	a0,a5,6abe <__divdf3+0x186>
    696c:	01d95a13          	srli	s4,s2,0x1d
    6970:	040e                	slli	s0,s0,0x3
    6972:	008a6433          	or	s0,s4,s0
    6976:	00800a37          	lui	s4,0x800
    697a:	01446a33          	or	s4,s0,s4
    697e:	00391b13          	slli	s6,s2,0x3
    6982:	c0150493          	addi	s1,a0,-1023
    6986:	4401                	li	s0,0
    6988:	4b81                	li	s7,0
    698a:	0146d813          	srli	a6,a3,0x14
    698e:	00c69913          	slli	s2,a3,0xc
    6992:	7ff87813          	andi	a6,a6,2047
    6996:	88b2                	mv	a7,a2
    6998:	00c95913          	srli	s2,s2,0xc
    699c:	01f6d993          	srli	s3,a3,0x1f
    69a0:	08080e63          	beqz	a6,6a3c <__divdf3+0x104>
    69a4:	7ff00793          	li	a5,2047
    69a8:	04f80063          	beq	a6,a5,69e8 <__divdf3+0xb0>
    69ac:	01d65713          	srli	a4,a2,0x1d
    69b0:	090e                	slli	s2,s2,0x3
    69b2:	01276933          	or	s2,a4,s2
    69b6:	c0180813          	addi	a6,a6,-1023 # ffc01 <_data_lma+0xf74bd>
    69ba:	008007b7          	lui	a5,0x800
    69be:	00f96733          	or	a4,s2,a5
    69c2:	00361893          	slli	a7,a2,0x3
    69c6:	410484b3          	sub	s1,s1,a6
    69ca:	4581                	li	a1,0
    69cc:	47bd                	li	a5,15
    69ce:	013ac833          	xor	a6,s5,s3
    69d2:	1a87e463          	bltu	a5,s0,6b7a <__divdf3+0x242>
    69d6:	00002797          	auipc	a5,0x2
    69da:	bee78793          	addi	a5,a5,-1042 # 85c4 <_ctype_+0x104>
    69de:	040a                	slli	s0,s0,0x2
    69e0:	943e                	add	s0,s0,a5
    69e2:	4010                	lw	a2,0(s0)
    69e4:	963e                	add	a2,a2,a5
    69e6:	8602                	jr	a2
    69e8:	00c96733          	or	a4,s2,a2
    69ec:	80148493          	addi	s1,s1,-2047
    69f0:	10071263          	bnez	a4,6af4 <__divdf3+0x1bc>
    69f4:	00246413          	ori	s0,s0,2
    69f8:	4881                	li	a7,0
    69fa:	4589                	li	a1,2
    69fc:	bfc1                	j	69cc <__divdf3+0x94>
    69fe:	7ff00613          	li	a2,2047
    6a02:	4781                	li	a5,0
    6a04:	4701                	li	a4,0
    6a06:	07b2                	slli	a5,a5,0xc
    6a08:	50f2                	lw	ra,60(sp)
    6a0a:	5462                	lw	s0,56(sp)
    6a0c:	0652                	slli	a2,a2,0x14
    6a0e:	83b1                	srli	a5,a5,0xc
    6a10:	087e                	slli	a6,a6,0x1f
    6a12:	8fd1                	or	a5,a5,a2
    6a14:	0107e7b3          	or	a5,a5,a6
    6a18:	54d2                	lw	s1,52(sp)
    6a1a:	5942                	lw	s2,48(sp)
    6a1c:	59b2                	lw	s3,44(sp)
    6a1e:	5a22                	lw	s4,40(sp)
    6a20:	5a92                	lw	s5,36(sp)
    6a22:	5b02                	lw	s6,32(sp)
    6a24:	4bf2                	lw	s7,28(sp)
    6a26:	853a                	mv	a0,a4
    6a28:	85be                	mv	a1,a5
    6a2a:	6121                	addi	sp,sp,64
    6a2c:	8082                	ret
    6a2e:	4801                	li	a6,0
    6a30:	7ff00613          	li	a2,2047
    6a34:	000807b7          	lui	a5,0x80
    6a38:	4701                	li	a4,0
    6a3a:	b7f1                	j	6a06 <__divdf3+0xce>
    6a3c:	00c96733          	or	a4,s2,a2
    6a40:	c74d                	beqz	a4,6aea <__divdf3+0x1b2>
    6a42:	30090863          	beqz	s2,6d52 <__divdf3+0x41a>
    6a46:	854a                	mv	a0,s2
    6a48:	c432                	sw	a2,8(sp)
    6a4a:	5fc010ef          	jal	ra,8046 <__clzsi2>
    6a4e:	4622                	lw	a2,8(sp)
    6a50:	ff550713          	addi	a4,a0,-11
    6a54:	47f5                	li	a5,29
    6a56:	ff850693          	addi	a3,a0,-8
    6a5a:	8f99                	sub	a5,a5,a4
    6a5c:	00d91933          	sll	s2,s2,a3
    6a60:	00f657b3          	srl	a5,a2,a5
    6a64:	0127e733          	or	a4,a5,s2
    6a68:	00d618b3          	sll	a7,a2,a3
    6a6c:	9526                	add	a0,a0,s1
    6a6e:	3f350493          	addi	s1,a0,1011
    6a72:	4581                	li	a1,0
    6a74:	bfa1                	j	69cc <__divdf3+0x94>
    6a76:	01246a33          	or	s4,s0,s2
    6a7a:	060a0363          	beqz	s4,6ae0 <__divdf3+0x1a8>
    6a7e:	c636                	sw	a3,12(sp)
    6a80:	c432                	sw	a2,8(sp)
    6a82:	2a040663          	beqz	s0,6d2e <__divdf3+0x3f6>
    6a86:	8522                	mv	a0,s0
    6a88:	5be010ef          	jal	ra,8046 <__clzsi2>
    6a8c:	4622                	lw	a2,8(sp)
    6a8e:	46b2                	lw	a3,12(sp)
    6a90:	84aa                	mv	s1,a0
    6a92:	ff550713          	addi	a4,a0,-11
    6a96:	4a75                	li	s4,29
    6a98:	ff848b13          	addi	s6,s1,-8
    6a9c:	40ea0a33          	sub	s4,s4,a4
    6aa0:	01641433          	sll	s0,s0,s6
    6aa4:	01495a33          	srl	s4,s2,s4
    6aa8:	008a6a33          	or	s4,s4,s0
    6aac:	01691b33          	sll	s6,s2,s6
    6ab0:	c0d00513          	li	a0,-1011
    6ab4:	409504b3          	sub	s1,a0,s1
    6ab8:	4401                	li	s0,0
    6aba:	4b81                	li	s7,0
    6abc:	b5f9                	j	698a <__divdf3+0x52>
    6abe:	01246a33          	or	s4,s0,s2
    6ac2:	000a1863          	bnez	s4,6ad2 <__divdf3+0x19a>
    6ac6:	4421                	li	s0,8
    6ac8:	4b01                	li	s6,0
    6aca:	7ff00493          	li	s1,2047
    6ace:	4b89                	li	s7,2
    6ad0:	bd6d                	j	698a <__divdf3+0x52>
    6ad2:	8a22                	mv	s4,s0
    6ad4:	8b4a                	mv	s6,s2
    6ad6:	4431                	li	s0,12
    6ad8:	7ff00493          	li	s1,2047
    6adc:	4b8d                	li	s7,3
    6ade:	b575                	j	698a <__divdf3+0x52>
    6ae0:	4411                	li	s0,4
    6ae2:	4b01                	li	s6,0
    6ae4:	4481                	li	s1,0
    6ae6:	4b85                	li	s7,1
    6ae8:	b54d                	j	698a <__divdf3+0x52>
    6aea:	00146413          	ori	s0,s0,1
    6aee:	4881                	li	a7,0
    6af0:	4585                	li	a1,1
    6af2:	bde9                	j	69cc <__divdf3+0x94>
    6af4:	00346413          	ori	s0,s0,3
    6af8:	874a                	mv	a4,s2
    6afa:	458d                	li	a1,3
    6afc:	bdc1                	j	69cc <__divdf3+0x94>
    6afe:	2e050a63          	beqz	a0,6df2 <__divdf3+0x4ba>
    6b02:	4785                	li	a5,1
    6b04:	8f89                	sub	a5,a5,a0
    6b06:	03800693          	li	a3,56
    6b0a:	32f6dd63          	bge	a3,a5,6e44 <__divdf3+0x50c>
    6b0e:	4601                	li	a2,0
    6b10:	4781                	li	a5,0
    6b12:	4701                	li	a4,0
    6b14:	bdcd                	j	6a06 <__divdf3+0xce>
    6b16:	86ce                	mv	a3,s3
    6b18:	4789                	li	a5,2
    6b1a:	3af58d63          	beq	a1,a5,6ed4 <__divdf3+0x59c>
    6b1e:	478d                	li	a5,3
    6b20:	f0f587e3          	beq	a1,a5,6a2e <__divdf3+0xf6>
    6b24:	4785                	li	a5,1
    6b26:	8836                	mv	a6,a3
    6b28:	fef583e3          	beq	a1,a5,6b0e <__divdf3+0x1d6>
    6b2c:	3ff48513          	addi	a0,s1,1023
    6b30:	fca057e3          	blez	a0,6afe <__divdf3+0x1c6>
    6b34:	0078f793          	andi	a5,a7,7
    6b38:	28079663          	bnez	a5,6dc4 <__divdf3+0x48c>
    6b3c:	0038d693          	srli	a3,a7,0x3
    6b40:	00771793          	slli	a5,a4,0x7
    6b44:	0007d863          	bgez	a5,6b54 <__divdf3+0x21c>
    6b48:	ff0007b7          	lui	a5,0xff000
    6b4c:	17fd                	addi	a5,a5,-1
    6b4e:	8f7d                	and	a4,a4,a5
    6b50:	40048513          	addi	a0,s1,1024
    6b54:	7fe00793          	li	a5,2046
    6b58:	eaa7c3e3          	blt	a5,a0,69fe <__divdf3+0xc6>
    6b5c:	01d71613          	slli	a2,a4,0x1d
    6b60:	00971793          	slli	a5,a4,0x9
    6b64:	83b1                	srli	a5,a5,0xc
    6b66:	00d66733          	or	a4,a2,a3
    6b6a:	7ff57613          	andi	a2,a0,2047
    6b6e:	bd61                	j	6a06 <__divdf3+0xce>
    6b70:	86d6                	mv	a3,s5
    6b72:	8752                	mv	a4,s4
    6b74:	88da                	mv	a7,s6
    6b76:	85de                	mv	a1,s7
    6b78:	b745                	j	6b18 <__divdf3+0x1e0>
    6b7a:	23476163          	bltu	a4,s4,6d9c <__divdf3+0x464>
    6b7e:	20ea0d63          	beq	s4,a4,6d98 <__divdf3+0x460>
    6b82:	86da                	mv	a3,s6
    6b84:	14fd                	addi	s1,s1,-1
    6b86:	8452                	mv	s0,s4
    6b88:	4b01                	li	s6,0
    6b8a:	00871793          	slli	a5,a4,0x8
    6b8e:	0188d313          	srli	t1,a7,0x18
    6b92:	00f36333          	or	t1,t1,a5
    6b96:	01035e93          	srli	t4,t1,0x10
    6b9a:	03d457b3          	divu	a5,s0,t4
    6b9e:	01031f13          	slli	t5,t1,0x10
    6ba2:	010f5f13          	srli	t5,t5,0x10
    6ba6:	0106d593          	srli	a1,a3,0x10
    6baa:	00889e13          	slli	t3,a7,0x8
    6bae:	03d47433          	remu	s0,s0,t4
    6bb2:	02ff0733          	mul	a4,t5,a5
    6bb6:	0442                	slli	s0,s0,0x10
    6bb8:	8dc1                	or	a1,a1,s0
    6bba:	00e5fb63          	bgeu	a1,a4,6bd0 <__divdf3+0x298>
    6bbe:	959a                	add	a1,a1,t1
    6bc0:	fff78613          	addi	a2,a5,-1 # feffffff <__freertos_irq_stack_top+0xdeffafff>
    6bc4:	2665ee63          	bltu	a1,t1,6e40 <__divdf3+0x508>
    6bc8:	26e5fc63          	bgeu	a1,a4,6e40 <__divdf3+0x508>
    6bcc:	17f9                	addi	a5,a5,-2
    6bce:	959a                	add	a1,a1,t1
    6bd0:	8d99                	sub	a1,a1,a4
    6bd2:	03d5d733          	divu	a4,a1,t4
    6bd6:	06c2                	slli	a3,a3,0x10
    6bd8:	82c1                	srli	a3,a3,0x10
    6bda:	03d5f5b3          	remu	a1,a1,t4
    6bde:	02ef0633          	mul	a2,t5,a4
    6be2:	05c2                	slli	a1,a1,0x10
    6be4:	8dd5                	or	a1,a1,a3
    6be6:	00c5fb63          	bgeu	a1,a2,6bfc <__divdf3+0x2c4>
    6bea:	959a                	add	a1,a1,t1
    6bec:	fff70693          	addi	a3,a4,-1 # 7fffff <_data_lma+0x7f78bb>
    6bf0:	2465e663          	bltu	a1,t1,6e3c <__divdf3+0x504>
    6bf4:	24c5f463          	bgeu	a1,a2,6e3c <__divdf3+0x504>
    6bf8:	1779                	addi	a4,a4,-2
    6bfa:	959a                	add	a1,a1,t1
    6bfc:	07c2                	slli	a5,a5,0x10
    6bfe:	6441                	lui	s0,0x10
    6c00:	8f5d                	or	a4,a4,a5
    6c02:	fff40793          	addi	a5,s0,-1 # ffff <_data_lma+0x78bb>
    6c06:	00f77533          	and	a0,a4,a5
    6c0a:	01075893          	srli	a7,a4,0x10
    6c0e:	010e5f93          	srli	t6,t3,0x10
    6c12:	00fe77b3          	and	a5,t3,a5
    6c16:	02f502b3          	mul	t0,a0,a5
    6c1a:	40c586b3          	sub	a3,a1,a2
    6c1e:	02f883b3          	mul	t2,a7,a5
    6c22:	0102d593          	srli	a1,t0,0x10
    6c26:	02af8633          	mul	a2,t6,a0
    6c2a:	961e                	add	a2,a2,t2
    6c2c:	962e                	add	a2,a2,a1
    6c2e:	03f88533          	mul	a0,a7,t6
    6c32:	00767363          	bgeu	a2,t2,6c38 <__divdf3+0x300>
    6c36:	9522                	add	a0,a0,s0
    6c38:	68c1                	lui	a7,0x10
    6c3a:	18fd                	addi	a7,a7,-1
    6c3c:	01065593          	srli	a1,a2,0x10
    6c40:	01167633          	and	a2,a2,a7
    6c44:	0642                	slli	a2,a2,0x10
    6c46:	0112f8b3          	and	a7,t0,a7
    6c4a:	95aa                	add	a1,a1,a0
    6c4c:	9646                	add	a2,a2,a7
    6c4e:	12b6e663          	bltu	a3,a1,6d7a <__divdf3+0x442>
    6c52:	12b68263          	beq	a3,a1,6d76 <__divdf3+0x43e>
    6c56:	40cb0633          	sub	a2,s6,a2
    6c5a:	8e8d                	sub	a3,a3,a1
    6c5c:	00cb3b33          	sltu	s6,s6,a2
    6c60:	41668b33          	sub	s6,a3,s6
    6c64:	3ff48513          	addi	a0,s1,1023
    6c68:	17630c63          	beq	t1,s6,6de0 <__divdf3+0x4a8>
    6c6c:	03db58b3          	divu	a7,s6,t4
    6c70:	01065593          	srli	a1,a2,0x10
    6c74:	03db7b33          	remu	s6,s6,t4
    6c78:	031f06b3          	mul	a3,t5,a7
    6c7c:	0b42                	slli	s6,s6,0x10
    6c7e:	0165eb33          	or	s6,a1,s6
    6c82:	00db7b63          	bgeu	s6,a3,6c98 <__divdf3+0x360>
    6c86:	9b1a                	add	s6,s6,t1
    6c88:	fff88593          	addi	a1,a7,-1 # ffff <_data_lma+0x78bb>
    6c8c:	206b6d63          	bltu	s6,t1,6ea6 <__divdf3+0x56e>
    6c90:	20db7b63          	bgeu	s6,a3,6ea6 <__divdf3+0x56e>
    6c94:	18f9                	addi	a7,a7,-2
    6c96:	9b1a                	add	s6,s6,t1
    6c98:	40db0b33          	sub	s6,s6,a3
    6c9c:	03db56b3          	divu	a3,s6,t4
    6ca0:	0642                	slli	a2,a2,0x10
    6ca2:	8241                	srli	a2,a2,0x10
    6ca4:	03db7b33          	remu	s6,s6,t4
    6ca8:	02df0f33          	mul	t5,t5,a3
    6cac:	0b42                	slli	s6,s6,0x10
    6cae:	01666633          	or	a2,a2,s6
    6cb2:	01e67b63          	bgeu	a2,t5,6cc8 <__divdf3+0x390>
    6cb6:	961a                	add	a2,a2,t1
    6cb8:	fff68593          	addi	a1,a3,-1 # 7fffff <_data_lma+0x7f78bb>
    6cbc:	1e666763          	bltu	a2,t1,6eaa <__divdf3+0x572>
    6cc0:	1fe67563          	bgeu	a2,t5,6eaa <__divdf3+0x572>
    6cc4:	16f9                	addi	a3,a3,-2
    6cc6:	961a                	add	a2,a2,t1
    6cc8:	08c2                	slli	a7,a7,0x10
    6cca:	00d8e8b3          	or	a7,a7,a3
    6cce:	01089593          	slli	a1,a7,0x10
    6cd2:	0108d293          	srli	t0,a7,0x10
    6cd6:	81c1                	srli	a1,a1,0x10
    6cd8:	02f58eb3          	mul	t4,a1,a5
    6cdc:	41e60633          	sub	a2,a2,t5
    6ce0:	02bf85b3          	mul	a1,t6,a1
    6ce4:	010ed693          	srli	a3,t4,0x10
    6ce8:	02f287b3          	mul	a5,t0,a5
    6cec:	95be                	add	a1,a1,a5
    6cee:	96ae                	add	a3,a3,a1
    6cf0:	025f8fb3          	mul	t6,t6,t0
    6cf4:	00f6f463          	bgeu	a3,a5,6cfc <__divdf3+0x3c4>
    6cf8:	67c1                	lui	a5,0x10
    6cfa:	9fbe                	add	t6,t6,a5
    6cfc:	65c1                	lui	a1,0x10
    6cfe:	15fd                	addi	a1,a1,-1
    6d00:	0106d793          	srli	a5,a3,0x10
    6d04:	8eed                	and	a3,a3,a1
    6d06:	06c2                	slli	a3,a3,0x10
    6d08:	00befeb3          	and	t4,t4,a1
    6d0c:	9fbe                	add	t6,t6,a5
    6d0e:	96f6                	add	a3,a3,t4
    6d10:	09f67f63          	bgeu	a2,t6,6dae <__divdf3+0x476>
    6d14:	961a                	add	a2,a2,t1
    6d16:	fff88793          	addi	a5,a7,-1
    6d1a:	1a666963          	bltu	a2,t1,6ecc <__divdf3+0x594>
    6d1e:	19f66863          	bltu	a2,t6,6eae <__divdf3+0x576>
    6d22:	1bf60f63          	beq	a2,t6,6ee0 <__divdf3+0x5a8>
    6d26:	88be                	mv	a7,a5
    6d28:	0018e893          	ori	a7,a7,1
    6d2c:	b511                	j	6b30 <__divdf3+0x1f8>
    6d2e:	854a                	mv	a0,s2
    6d30:	316010ef          	jal	ra,8046 <__clzsi2>
    6d34:	01550713          	addi	a4,a0,21
    6d38:	45f1                	li	a1,28
    6d3a:	02050493          	addi	s1,a0,32
    6d3e:	4622                	lw	a2,8(sp)
    6d40:	46b2                	lw	a3,12(sp)
    6d42:	d4e5dae3          	bge	a1,a4,6a96 <__divdf3+0x15e>
    6d46:	ff850413          	addi	s0,a0,-8
    6d4a:	00891a33          	sll	s4,s2,s0
    6d4e:	4b01                	li	s6,0
    6d50:	b385                	j	6ab0 <__divdf3+0x178>
    6d52:	8532                	mv	a0,a2
    6d54:	c432                	sw	a2,8(sp)
    6d56:	2f0010ef          	jal	ra,8046 <__clzsi2>
    6d5a:	01550713          	addi	a4,a0,21
    6d5e:	46f1                	li	a3,28
    6d60:	87aa                	mv	a5,a0
    6d62:	4622                	lw	a2,8(sp)
    6d64:	02050513          	addi	a0,a0,32
    6d68:	cee6d6e3          	bge	a3,a4,6a54 <__divdf3+0x11c>
    6d6c:	17e1                	addi	a5,a5,-8
    6d6e:	00f61733          	sll	a4,a2,a5
    6d72:	4881                	li	a7,0
    6d74:	b9e5                	j	6a6c <__divdf3+0x134>
    6d76:	eecb70e3          	bgeu	s6,a2,6c56 <__divdf3+0x31e>
    6d7a:	9b72                	add	s6,s6,t3
    6d7c:	01cb3533          	sltu	a0,s6,t3
    6d80:	951a                	add	a0,a0,t1
    6d82:	96aa                	add	a3,a3,a0
    6d84:	fff70513          	addi	a0,a4,-1
    6d88:	02d37863          	bgeu	t1,a3,6db8 <__divdf3+0x480>
    6d8c:	10b6e663          	bltu	a3,a1,6e98 <__divdf3+0x560>
    6d90:	10d58263          	beq	a1,a3,6e94 <__divdf3+0x55c>
    6d94:	872a                	mv	a4,a0
    6d96:	b5c1                	j	6c56 <__divdf3+0x31e>
    6d98:	df1b65e3          	bltu	s6,a7,6b82 <__divdf3+0x24a>
    6d9c:	001b5593          	srli	a1,s6,0x1
    6da0:	01fa1693          	slli	a3,s4,0x1f
    6da4:	001a5413          	srli	s0,s4,0x1
    6da8:	8ecd                	or	a3,a3,a1
    6daa:	0b7e                	slli	s6,s6,0x1f
    6dac:	bbf9                	j	6b8a <__divdf3+0x252>
    6dae:	f7f61de3          	bne	a2,t6,6d28 <__divdf3+0x3f0>
    6db2:	d6068fe3          	beqz	a3,6b30 <__divdf3+0x1f8>
    6db6:	bfb9                	j	6d14 <__divdf3+0x3dc>
    6db8:	fcd31ee3          	bne	t1,a3,6d94 <__divdf3+0x45c>
    6dbc:	fdcb78e3          	bgeu	s6,t3,6d8c <__divdf3+0x454>
    6dc0:	872a                	mv	a4,a0
    6dc2:	bd51                	j	6c56 <__divdf3+0x31e>
    6dc4:	00f8f793          	andi	a5,a7,15
    6dc8:	4691                	li	a3,4
    6dca:	d6d789e3          	beq	a5,a3,6b3c <__divdf3+0x204>
    6dce:	ffc8b793          	sltiu	a5,a7,-4
    6dd2:	00488693          	addi	a3,a7,4
    6dd6:	0017c793          	xori	a5,a5,1
    6dda:	828d                	srli	a3,a3,0x3
    6ddc:	973e                	add	a4,a4,a5
    6dde:	b38d                	j	6b40 <__divdf3+0x208>
    6de0:	4681                	li	a3,0
    6de2:	4785                	li	a5,1
    6de4:	fea04ce3          	bgtz	a0,6ddc <__divdf3+0x4a4>
    6de8:	58fd                	li	a7,-1
    6dea:	d0051ce3          	bnez	a0,6b02 <__divdf3+0x1ca>
    6dee:	c0100493          	li	s1,-1023
    6df2:	4785                	li	a5,1
    6df4:	41e48513          	addi	a0,s1,1054
    6df8:	00a716b3          	sll	a3,a4,a0
    6dfc:	00f8d633          	srl	a2,a7,a5
    6e00:	00a89533          	sll	a0,a7,a0
    6e04:	8ed1                	or	a3,a3,a2
    6e06:	00a03533          	snez	a0,a0
    6e0a:	8ec9                	or	a3,a3,a0
    6e0c:	0076f613          	andi	a2,a3,7
    6e10:	00f75733          	srl	a4,a4,a5
    6e14:	ce01                	beqz	a2,6e2c <__divdf3+0x4f4>
    6e16:	00f6f793          	andi	a5,a3,15
    6e1a:	4611                	li	a2,4
    6e1c:	00c78863          	beq	a5,a2,6e2c <__divdf3+0x4f4>
    6e20:	00468793          	addi	a5,a3,4
    6e24:	00d7b6b3          	sltu	a3,a5,a3
    6e28:	9736                	add	a4,a4,a3
    6e2a:	86be                	mv	a3,a5
    6e2c:	00871793          	slli	a5,a4,0x8
    6e30:	0407d863          	bgez	a5,6e80 <__divdf3+0x548>
    6e34:	4605                	li	a2,1
    6e36:	4781                	li	a5,0
    6e38:	4701                	li	a4,0
    6e3a:	b6f1                	j	6a06 <__divdf3+0xce>
    6e3c:	8736                	mv	a4,a3
    6e3e:	bb7d                	j	6bfc <__divdf3+0x2c4>
    6e40:	87b2                	mv	a5,a2
    6e42:	b379                	j	6bd0 <__divdf3+0x298>
    6e44:	46fd                	li	a3,31
    6e46:	faf6d7e3          	bge	a3,a5,6df4 <__divdf3+0x4bc>
    6e4a:	5605                	li	a2,-31
    6e4c:	8e09                	sub	a2,a2,a0
    6e4e:	02000693          	li	a3,32
    6e52:	00c75633          	srl	a2,a4,a2
    6e56:	00d78863          	beq	a5,a3,6e66 <__divdf3+0x52e>
    6e5a:	43e48793          	addi	a5,s1,1086
    6e5e:	00f717b3          	sll	a5,a4,a5
    6e62:	00f8e8b3          	or	a7,a7,a5
    6e66:	011036b3          	snez	a3,a7
    6e6a:	8ed1                	or	a3,a3,a2
    6e6c:	0076f613          	andi	a2,a3,7
    6e70:	4781                	li	a5,0
    6e72:	ce01                	beqz	a2,6e8a <__divdf3+0x552>
    6e74:	00f6f793          	andi	a5,a3,15
    6e78:	4611                	li	a2,4
    6e7a:	4701                	li	a4,0
    6e7c:	fac792e3          	bne	a5,a2,6e20 <__divdf3+0x4e8>
    6e80:	00971793          	slli	a5,a4,0x9
    6e84:	01d71613          	slli	a2,a4,0x1d
    6e88:	83b1                	srli	a5,a5,0xc
    6e8a:	0036d713          	srli	a4,a3,0x3
    6e8e:	8f51                	or	a4,a4,a2
    6e90:	4601                	li	a2,0
    6e92:	be95                	j	6a06 <__divdf3+0xce>
    6e94:	f0cb70e3          	bgeu	s6,a2,6d94 <__divdf3+0x45c>
    6e98:	9b72                	add	s6,s6,t3
    6e9a:	01cb3533          	sltu	a0,s6,t3
    6e9e:	951a                	add	a0,a0,t1
    6ea0:	1779                	addi	a4,a4,-2
    6ea2:	96aa                	add	a3,a3,a0
    6ea4:	bb4d                	j	6c56 <__divdf3+0x31e>
    6ea6:	88ae                	mv	a7,a1
    6ea8:	bbc5                	j	6c98 <__divdf3+0x360>
    6eaa:	86ae                	mv	a3,a1
    6eac:	bd31                	j	6cc8 <__divdf3+0x390>
    6eae:	001e1793          	slli	a5,t3,0x1
    6eb2:	01c7be33          	sltu	t3,a5,t3
    6eb6:	9372                	add	t1,t1,t3
    6eb8:	961a                	add	a2,a2,t1
    6eba:	18f9                	addi	a7,a7,-2
    6ebc:	8e3e                	mv	t3,a5
    6ebe:	e7f615e3          	bne	a2,t6,6d28 <__divdf3+0x3f0>
    6ec2:	c6de07e3          	beq	t3,a3,6b30 <__divdf3+0x1f8>
    6ec6:	0018e893          	ori	a7,a7,1
    6eca:	b19d                	j	6b30 <__divdf3+0x1f8>
    6ecc:	88be                	mv	a7,a5
    6ece:	fff60ae3          	beq	a2,t6,6ec2 <__divdf3+0x58a>
    6ed2:	bd99                	j	6d28 <__divdf3+0x3f0>
    6ed4:	8836                	mv	a6,a3
    6ed6:	7ff00613          	li	a2,2047
    6eda:	4781                	li	a5,0
    6edc:	4701                	li	a4,0
    6ede:	b625                	j	6a06 <__divdf3+0xce>
    6ee0:	fcde67e3          	bltu	t3,a3,6eae <__divdf3+0x576>
    6ee4:	88be                	mv	a7,a5
    6ee6:	fede10e3          	bne	t3,a3,6ec6 <__divdf3+0x58e>
    6eea:	b199                	j	6b30 <__divdf3+0x1f8>

00006eec <__eqdf2>:
    6eec:	0145d713          	srli	a4,a1,0x14
    6ef0:	001007b7          	lui	a5,0x100
    6ef4:	17fd                	addi	a5,a5,-1
    6ef6:	0146d813          	srli	a6,a3,0x14
    6efa:	7ff77713          	andi	a4,a4,2047
    6efe:	7ff00893          	li	a7,2047
    6f02:	00b7fe33          	and	t3,a5,a1
    6f06:	8eaa                	mv	t4,a0
    6f08:	8ff5                	and	a5,a5,a3
    6f0a:	81fd                	srli	a1,a1,0x1f
    6f0c:	8f32                	mv	t5,a2
    6f0e:	7ff87813          	andi	a6,a6,2047
    6f12:	82fd                	srli	a3,a3,0x1f
    6f14:	01170b63          	beq	a4,a7,6f2a <__eqdf2+0x3e>
    6f18:	4305                	li	t1,1
    6f1a:	01180663          	beq	a6,a7,6f26 <__eqdf2+0x3a>
    6f1e:	01071463          	bne	a4,a6,6f26 <__eqdf2+0x3a>
    6f22:	00fe0d63          	beq	t3,a5,6f3c <__eqdf2+0x50>
    6f26:	851a                	mv	a0,t1
    6f28:	8082                	ret
    6f2a:	00ae68b3          	or	a7,t3,a0
    6f2e:	4305                	li	t1,1
    6f30:	fe089be3          	bnez	a7,6f26 <__eqdf2+0x3a>
    6f34:	fee819e3          	bne	a6,a4,6f26 <__eqdf2+0x3a>
    6f38:	8fd1                	or	a5,a5,a2
    6f3a:	f7f5                	bnez	a5,6f26 <__eqdf2+0x3a>
    6f3c:	4305                	li	t1,1
    6f3e:	ffee94e3          	bne	t4,t5,6f26 <__eqdf2+0x3a>
    6f42:	4301                	li	t1,0
    6f44:	fed581e3          	beq	a1,a3,6f26 <__eqdf2+0x3a>
    6f48:	4305                	li	t1,1
    6f4a:	ff71                	bnez	a4,6f26 <__eqdf2+0x3a>
    6f4c:	00ae6533          	or	a0,t3,a0
    6f50:	00a03333          	snez	t1,a0
    6f54:	bfc9                	j	6f26 <__eqdf2+0x3a>

00006f56 <__gedf2>:
    6f56:	0145d713          	srli	a4,a1,0x14
    6f5a:	001007b7          	lui	a5,0x100
    6f5e:	17fd                	addi	a5,a5,-1
    6f60:	0146d813          	srli	a6,a3,0x14
    6f64:	7ff77713          	andi	a4,a4,2047
    6f68:	7ff00893          	li	a7,2047
    6f6c:	00b7f333          	and	t1,a5,a1
    6f70:	8e2a                	mv	t3,a0
    6f72:	8ff5                	and	a5,a5,a3
    6f74:	81fd                	srli	a1,a1,0x1f
    6f76:	8eb2                	mv	t4,a2
    6f78:	7ff87813          	andi	a6,a6,2047
    6f7c:	82fd                	srli	a3,a3,0x1f
    6f7e:	03170863          	beq	a4,a7,6fae <__gedf2+0x58>
    6f82:	03180063          	beq	a6,a7,6fa2 <__gedf2+0x4c>
    6f86:	eb0d                	bnez	a4,6fb8 <__gedf2+0x62>
    6f88:	00a368b3          	or	a7,t1,a0
    6f8c:	00081463          	bnez	a6,6f94 <__gedf2+0x3e>
    6f90:	8e5d                	or	a2,a2,a5
    6f92:	ca29                	beqz	a2,6fe4 <__gedf2+0x8e>
    6f94:	04088563          	beqz	a7,6fde <__gedf2+0x88>
    6f98:	02d58863          	beq	a1,a3,6fc8 <__gedf2+0x72>
    6f9c:	4505                	li	a0,1
    6f9e:	ed95                	bnez	a1,6fda <__gedf2+0x84>
    6fa0:	8082                	ret
    6fa2:	00c7e8b3          	or	a7,a5,a2
    6fa6:	fe0880e3          	beqz	a7,6f86 <__gedf2+0x30>
    6faa:	5579                	li	a0,-2
    6fac:	8082                	ret
    6fae:	00a36533          	or	a0,t1,a0
    6fb2:	fd65                	bnez	a0,6faa <__gedf2+0x54>
    6fb4:	02e80c63          	beq	a6,a4,6fec <__gedf2+0x96>
    6fb8:	00081463          	bnez	a6,6fc0 <__gedf2+0x6a>
    6fbc:	8e5d                	or	a2,a2,a5
    6fbe:	de79                	beqz	a2,6f9c <__gedf2+0x46>
    6fc0:	fcd59ee3          	bne	a1,a3,6f9c <__gedf2+0x46>
    6fc4:	fce84ce3          	blt	a6,a4,6f9c <__gedf2+0x46>
    6fc8:	01074863          	blt	a4,a6,6fd8 <__gedf2+0x82>
    6fcc:	fc67e8e3          	bltu	a5,t1,6f9c <__gedf2+0x46>
    6fd0:	02f30363          	beq	t1,a5,6ff6 <__gedf2+0xa0>
    6fd4:	00f37f63          	bgeu	t1,a5,6ff2 <__gedf2+0x9c>
    6fd8:	e581                	bnez	a1,6fe0 <__gedf2+0x8a>
    6fda:	557d                	li	a0,-1
    6fdc:	8082                	ret
    6fde:	def5                	beqz	a3,6fda <__gedf2+0x84>
    6fe0:	4505                	li	a0,1
    6fe2:	8082                	ret
    6fe4:	4501                	li	a0,0
    6fe6:	fa089be3          	bnez	a7,6f9c <__gedf2+0x46>
    6fea:	8082                	ret
    6fec:	8e5d                	or	a2,a2,a5
    6fee:	da69                	beqz	a2,6fc0 <__gedf2+0x6a>
    6ff0:	bf6d                	j	6faa <__gedf2+0x54>
    6ff2:	4501                	li	a0,0
    6ff4:	8082                	ret
    6ff6:	fbcee3e3          	bltu	t4,t3,6f9c <__gedf2+0x46>
    6ffa:	4501                	li	a0,0
    6ffc:	fbde72e3          	bgeu	t3,t4,6fa0 <__gedf2+0x4a>
    7000:	f1e5                	bnez	a1,6fe0 <__gedf2+0x8a>
    7002:	bfe1                	j	6fda <__gedf2+0x84>

00007004 <__ledf2>:
    7004:	0145d713          	srli	a4,a1,0x14
    7008:	001007b7          	lui	a5,0x100
    700c:	17fd                	addi	a5,a5,-1
    700e:	0146d813          	srli	a6,a3,0x14
    7012:	7ff77713          	andi	a4,a4,2047
    7016:	7ff00893          	li	a7,2047
    701a:	00b7fe33          	and	t3,a5,a1
    701e:	8eaa                	mv	t4,a0
    7020:	8ff5                	and	a5,a5,a3
    7022:	81fd                	srli	a1,a1,0x1f
    7024:	8f32                	mv	t5,a2
    7026:	7ff87813          	andi	a6,a6,2047
    702a:	82fd                	srli	a3,a3,0x1f
    702c:	03170e63          	beq	a4,a7,7068 <__ledf2+0x64>
    7030:	01180d63          	beq	a6,a7,704a <__ledf2+0x46>
    7034:	e329                	bnez	a4,7076 <__ledf2+0x72>
    7036:	00ae68b3          	or	a7,t3,a0
    703a:	00081f63          	bnez	a6,7058 <__ledf2+0x54>
    703e:	8e5d                	or	a2,a2,a5
    7040:	ee01                	bnez	a2,7058 <__ledf2+0x54>
    7042:	4301                	li	t1,0
    7044:	04088c63          	beqz	a7,709c <__ledf2+0x98>
    7048:	a821                	j	7060 <__ledf2+0x5c>
    704a:	00c7e8b3          	or	a7,a5,a2
    704e:	4309                	li	t1,2
    7050:	04089663          	bnez	a7,709c <__ledf2+0x98>
    7054:	d36d                	beqz	a4,7036 <__ledf2+0x32>
    7056:	a005                	j	7076 <__ledf2+0x72>
    7058:	04088463          	beqz	a7,70a0 <__ledf2+0x9c>
    705c:	02d58563          	beq	a1,a3,7086 <__ledf2+0x82>
    7060:	4305                	li	t1,1
    7062:	cd8d                	beqz	a1,709c <__ledf2+0x98>
    7064:	537d                	li	t1,-1
    7066:	a81d                	j	709c <__ledf2+0x98>
    7068:	00ae68b3          	or	a7,t3,a0
    706c:	4309                	li	t1,2
    706e:	02089763          	bnez	a7,709c <__ledf2+0x98>
    7072:	02e80a63          	beq	a6,a4,70a6 <__ledf2+0xa2>
    7076:	00081463          	bnez	a6,707e <__ledf2+0x7a>
    707a:	8e5d                	or	a2,a2,a5
    707c:	d275                	beqz	a2,7060 <__ledf2+0x5c>
    707e:	fed591e3          	bne	a1,a3,7060 <__ledf2+0x5c>
    7082:	fce84fe3          	blt	a6,a4,7060 <__ledf2+0x5c>
    7086:	01074963          	blt	a4,a6,7098 <__ledf2+0x94>
    708a:	fdc7ebe3          	bltu	a5,t3,7060 <__ledf2+0x5c>
    708e:	00fe0f63          	beq	t3,a5,70ac <__ledf2+0xa8>
    7092:	4301                	li	t1,0
    7094:	00fe7463          	bgeu	t3,a5,709c <__ledf2+0x98>
    7098:	d5f1                	beqz	a1,7064 <__ledf2+0x60>
    709a:	4305                	li	t1,1
    709c:	851a                	mv	a0,t1
    709e:	8082                	ret
    70a0:	feed                	bnez	a3,709a <__ledf2+0x96>
    70a2:	537d                	li	t1,-1
    70a4:	bfe5                	j	709c <__ledf2+0x98>
    70a6:	8e5d                	or	a2,a2,a5
    70a8:	da79                	beqz	a2,707e <__ledf2+0x7a>
    70aa:	bfcd                	j	709c <__ledf2+0x98>
    70ac:	fbdf6ae3          	bltu	t5,t4,7060 <__ledf2+0x5c>
    70b0:	4301                	li	t1,0
    70b2:	ffeef5e3          	bgeu	t4,t5,709c <__ledf2+0x98>
    70b6:	f1f5                	bnez	a1,709a <__ledf2+0x96>
    70b8:	b775                	j	7064 <__ledf2+0x60>

000070ba <__muldf3>:
    70ba:	7139                	addi	sp,sp,-64
    70bc:	d84a                	sw	s2,48(sp)
    70be:	0145d913          	srli	s2,a1,0x14
    70c2:	d64e                	sw	s3,44(sp)
    70c4:	d452                	sw	s4,40(sp)
    70c6:	d256                	sw	s5,36(sp)
    70c8:	00c59993          	slli	s3,a1,0xc
    70cc:	de06                	sw	ra,60(sp)
    70ce:	dc22                	sw	s0,56(sp)
    70d0:	da26                	sw	s1,52(sp)
    70d2:	d05a                	sw	s6,32(sp)
    70d4:	ce5e                	sw	s7,28(sp)
    70d6:	7ff97913          	andi	s2,s2,2047
    70da:	8a2a                	mv	s4,a0
    70dc:	00c9d993          	srli	s3,s3,0xc
    70e0:	01f5da93          	srli	s5,a1,0x1f
    70e4:	0e090d63          	beqz	s2,71de <__muldf3+0x124>
    70e8:	7ff00793          	li	a5,2047
    70ec:	18f90663          	beq	s2,a5,7278 <__muldf3+0x1be>
    70f0:	01d55413          	srli	s0,a0,0x1d
    70f4:	098e                	slli	s3,s3,0x3
    70f6:	013469b3          	or	s3,s0,s3
    70fa:	00800437          	lui	s0,0x800
    70fe:	0089e433          	or	s0,s3,s0
    7102:	00351493          	slli	s1,a0,0x3
    7106:	c0190913          	addi	s2,s2,-1023
    710a:	4981                	li	s3,0
    710c:	4b81                	li	s7,0
    710e:	0146d713          	srli	a4,a3,0x14
    7112:	00c69a13          	slli	s4,a3,0xc
    7116:	7ff77713          	andi	a4,a4,2047
    711a:	85b2                	mv	a1,a2
    711c:	00ca5a13          	srli	s4,s4,0xc
    7120:	01f6db13          	srli	s6,a3,0x1f
    7124:	10070b63          	beqz	a4,723a <__muldf3+0x180>
    7128:	7ff00793          	li	a5,2047
    712c:	04f70363          	beq	a4,a5,7172 <__muldf3+0xb8>
    7130:	01d65793          	srli	a5,a2,0x1d
    7134:	0a0e                	slli	s4,s4,0x3
    7136:	0147ea33          	or	s4,a5,s4
    713a:	c0170713          	addi	a4,a4,-1023
    713e:	008007b7          	lui	a5,0x800
    7142:	00fa67b3          	or	a5,s4,a5
    7146:	00361593          	slli	a1,a2,0x3
    714a:	993a                	add	s2,s2,a4
    714c:	4881                	li	a7,0
    714e:	016ac733          	xor	a4,s5,s6
    7152:	46bd                	li	a3,15
    7154:	853a                	mv	a0,a4
    7156:	00190813          	addi	a6,s2,1
    715a:	1736e863          	bltu	a3,s3,72ca <__muldf3+0x210>
    715e:	00001617          	auipc	a2,0x1
    7162:	4a660613          	addi	a2,a2,1190 # 8604 <_ctype_+0x144>
    7166:	098a                	slli	s3,s3,0x2
    7168:	99b2                	add	s3,s3,a2
    716a:	0009a683          	lw	a3,0(s3)
    716e:	96b2                	add	a3,a3,a2
    7170:	8682                	jr	a3
    7172:	00ca67b3          	or	a5,s4,a2
    7176:	7ff90913          	addi	s2,s2,2047
    717a:	12079963          	bnez	a5,72ac <__muldf3+0x1f2>
    717e:	0029e993          	ori	s3,s3,2
    7182:	4581                	li	a1,0
    7184:	4889                	li	a7,2
    7186:	b7e1                	j	714e <__muldf3+0x94>
    7188:	4701                	li	a4,0
    718a:	7ff00793          	li	a5,2047
    718e:	00080437          	lui	s0,0x80
    7192:	4481                	li	s1,0
    7194:	0432                	slli	s0,s0,0xc
    7196:	07d2                	slli	a5,a5,0x14
    7198:	8031                	srli	s0,s0,0xc
    719a:	077e                	slli	a4,a4,0x1f
    719c:	8c5d                	or	s0,s0,a5
    719e:	8c59                	or	s0,s0,a4
    71a0:	85a2                	mv	a1,s0
    71a2:	50f2                	lw	ra,60(sp)
    71a4:	5462                	lw	s0,56(sp)
    71a6:	8526                	mv	a0,s1
    71a8:	5942                	lw	s2,48(sp)
    71aa:	54d2                	lw	s1,52(sp)
    71ac:	59b2                	lw	s3,44(sp)
    71ae:	5a22                	lw	s4,40(sp)
    71b0:	5a92                	lw	s5,36(sp)
    71b2:	5b02                	lw	s6,32(sp)
    71b4:	4bf2                	lw	s7,28(sp)
    71b6:	6121                	addi	sp,sp,64
    71b8:	8082                	ret
    71ba:	855a                	mv	a0,s6
    71bc:	843e                	mv	s0,a5
    71be:	84ae                	mv	s1,a1
    71c0:	8bc6                	mv	s7,a7
    71c2:	4789                	li	a5,2
    71c4:	0efb8d63          	beq	s7,a5,72be <__muldf3+0x204>
    71c8:	478d                	li	a5,3
    71ca:	fafb8fe3          	beq	s7,a5,7188 <__muldf3+0xce>
    71ce:	4785                	li	a5,1
    71d0:	872a                	mv	a4,a0
    71d2:	38fb9e63          	bne	s7,a5,756e <__muldf3+0x4b4>
    71d6:	4781                	li	a5,0
    71d8:	4401                	li	s0,0
    71da:	4481                	li	s1,0
    71dc:	bf65                	j	7194 <__muldf3+0xda>
    71de:	00a9e433          	or	s0,s3,a0
    71e2:	c061                	beqz	s0,72a2 <__muldf3+0x1e8>
    71e4:	c636                	sw	a3,12(sp)
    71e6:	c432                	sw	a2,8(sp)
    71e8:	2a098c63          	beqz	s3,74a0 <__muldf3+0x3e6>
    71ec:	854e                	mv	a0,s3
    71ee:	659000ef          	jal	ra,8046 <__clzsi2>
    71f2:	4622                	lw	a2,8(sp)
    71f4:	46b2                	lw	a3,12(sp)
    71f6:	87aa                	mv	a5,a0
    71f8:	ff550713          	addi	a4,a0,-11
    71fc:	4475                	li	s0,29
    71fe:	ff878493          	addi	s1,a5,-8 # 7ffff8 <_data_lma+0x7f78b4>
    7202:	8c19                	sub	s0,s0,a4
    7204:	009999b3          	sll	s3,s3,s1
    7208:	008a5433          	srl	s0,s4,s0
    720c:	01346433          	or	s0,s0,s3
    7210:	009a14b3          	sll	s1,s4,s1
    7214:	0146d713          	srli	a4,a3,0x14
    7218:	c0d00913          	li	s2,-1011
    721c:	00c69a13          	slli	s4,a3,0xc
    7220:	7ff77713          	andi	a4,a4,2047
    7224:	40f90933          	sub	s2,s2,a5
    7228:	4981                	li	s3,0
    722a:	4b81                	li	s7,0
    722c:	85b2                	mv	a1,a2
    722e:	00ca5a13          	srli	s4,s4,0xc
    7232:	01f6db13          	srli	s6,a3,0x1f
    7236:	ee0719e3          	bnez	a4,7128 <__muldf3+0x6e>
    723a:	00ca67b3          	or	a5,s4,a2
    723e:	c7b1                	beqz	a5,728a <__muldf3+0x1d0>
    7240:	220a0f63          	beqz	s4,747e <__muldf3+0x3c4>
    7244:	8552                	mv	a0,s4
    7246:	c432                	sw	a2,8(sp)
    7248:	5ff000ef          	jal	ra,8046 <__clzsi2>
    724c:	4622                	lw	a2,8(sp)
    724e:	872a                	mv	a4,a0
    7250:	ff550693          	addi	a3,a0,-11
    7254:	47f5                	li	a5,29
    7256:	ff870593          	addi	a1,a4,-8
    725a:	8f95                	sub	a5,a5,a3
    725c:	00ba1a33          	sll	s4,s4,a1
    7260:	00f657b3          	srl	a5,a2,a5
    7264:	0147e7b3          	or	a5,a5,s4
    7268:	00b615b3          	sll	a1,a2,a1
    726c:	40e90933          	sub	s2,s2,a4
    7270:	c0d90913          	addi	s2,s2,-1011
    7274:	4881                	li	a7,0
    7276:	bde1                	j	714e <__muldf3+0x94>
    7278:	00a9e433          	or	s0,s3,a0
    727c:	ec01                	bnez	s0,7294 <__muldf3+0x1da>
    727e:	49a1                	li	s3,8
    7280:	4481                	li	s1,0
    7282:	7ff00913          	li	s2,2047
    7286:	4b89                	li	s7,2
    7288:	b559                	j	710e <__muldf3+0x54>
    728a:	0019e993          	ori	s3,s3,1
    728e:	4581                	li	a1,0
    7290:	4885                	li	a7,1
    7292:	bd75                	j	714e <__muldf3+0x94>
    7294:	844e                	mv	s0,s3
    7296:	84aa                	mv	s1,a0
    7298:	49b1                	li	s3,12
    729a:	7ff00913          	li	s2,2047
    729e:	4b8d                	li	s7,3
    72a0:	b5bd                	j	710e <__muldf3+0x54>
    72a2:	4991                	li	s3,4
    72a4:	4481                	li	s1,0
    72a6:	4901                	li	s2,0
    72a8:	4b85                	li	s7,1
    72aa:	b595                	j	710e <__muldf3+0x54>
    72ac:	0039e993          	ori	s3,s3,3
    72b0:	87d2                	mv	a5,s4
    72b2:	488d                	li	a7,3
    72b4:	bd69                	j	714e <__muldf3+0x94>
    72b6:	4789                	li	a5,2
    72b8:	8556                	mv	a0,s5
    72ba:	f0fb97e3          	bne	s7,a5,71c8 <__muldf3+0x10e>
    72be:	872a                	mv	a4,a0
    72c0:	7ff00793          	li	a5,2047
    72c4:	4401                	li	s0,0
    72c6:	4481                	li	s1,0
    72c8:	b5f1                	j	7194 <__muldf3+0xda>
    72ca:	6ec1                	lui	t4,0x10
    72cc:	fffe8613          	addi	a2,t4,-1 # ffff <_data_lma+0x78bb>
    72d0:	0104d693          	srli	a3,s1,0x10
    72d4:	0105de13          	srli	t3,a1,0x10
    72d8:	8cf1                	and	s1,s1,a2
    72da:	8df1                	and	a1,a1,a2
    72dc:	02958633          	mul	a2,a1,s1
    72e0:	02b68333          	mul	t1,a3,a1
    72e4:	01065893          	srli	a7,a2,0x10
    72e8:	029e0533          	mul	a0,t3,s1
    72ec:	951a                	add	a0,a0,t1
    72ee:	98aa                	add	a7,a7,a0
    72f0:	03c682b3          	mul	t0,a3,t3
    72f4:	0068f363          	bgeu	a7,t1,72fa <__muldf3+0x240>
    72f8:	92f6                	add	t0,t0,t4
    72fa:	6fc1                	lui	t6,0x10
    72fc:	ffff8313          	addi	t1,t6,-1 # ffff <_data_lma+0x78bb>
    7300:	0067f533          	and	a0,a5,t1
    7304:	0107d393          	srli	t2,a5,0x10
    7308:	0068f7b3          	and	a5,a7,t1
    730c:	07c2                	slli	a5,a5,0x10
    730e:	00667333          	and	t1,a2,t1
    7312:	933e                	add	t1,t1,a5
    7314:	02950633          	mul	a2,a0,s1
    7318:	0108d893          	srli	a7,a7,0x10
    731c:	02a687b3          	mul	a5,a3,a0
    7320:	01065f13          	srli	t5,a2,0x10
    7324:	029384b3          	mul	s1,t2,s1
    7328:	94be                	add	s1,s1,a5
    732a:	94fa                	add	s1,s1,t5
    732c:	02768eb3          	mul	t4,a3,t2
    7330:	00f4f363          	bgeu	s1,a5,7336 <__muldf3+0x27c>
    7334:	9efe                	add	t4,t4,t6
    7336:	6a41                	lui	s4,0x10
    7338:	fffa0793          	addi	a5,s4,-1 # ffff <_data_lma+0x78bb>
    733c:	01045f93          	srli	t6,s0,0x10
    7340:	00f476b3          	and	a3,s0,a5
    7344:	00f4f9b3          	and	s3,s1,a5
    7348:	8e7d                	and	a2,a2,a5
    734a:	80c1                	srli	s1,s1,0x10
    734c:	02d58433          	mul	s0,a1,a3
    7350:	09c2                	slli	s3,s3,0x10
    7352:	01d48f33          	add	t5,s1,t4
    7356:	99b2                	add	s3,s3,a2
    7358:	98ce                	add	a7,a7,s3
    735a:	02de07b3          	mul	a5,t3,a3
    735e:	01045e93          	srli	t4,s0,0x10
    7362:	02bf85b3          	mul	a1,t6,a1
    7366:	97ae                	add	a5,a5,a1
    7368:	9ebe                	add	t4,t4,a5
    736a:	03fe0e33          	mul	t3,t3,t6
    736e:	00bef363          	bgeu	t4,a1,7374 <__muldf3+0x2ba>
    7372:	9e52                	add	t3,t3,s4
    7374:	67c1                	lui	a5,0x10
    7376:	fff78593          	addi	a1,a5,-1 # ffff <_data_lma+0x78bb>
    737a:	00bef633          	and	a2,t4,a1
    737e:	8c6d                	and	s0,s0,a1
    7380:	0642                	slli	a2,a2,0x10
    7382:	9622                	add	a2,a2,s0
    7384:	010ede93          	srli	t4,t4,0x10
    7388:	02d505b3          	mul	a1,a0,a3
    738c:	9e76                	add	t3,t3,t4
    738e:	02af8533          	mul	a0,t6,a0
    7392:	0105d413          	srli	s0,a1,0x10
    7396:	02d386b3          	mul	a3,t2,a3
    739a:	96aa                	add	a3,a3,a0
    739c:	96a2                	add	a3,a3,s0
    739e:	03f38fb3          	mul	t6,t2,t6
    73a2:	00a6f363          	bgeu	a3,a0,73a8 <__muldf3+0x2ee>
    73a6:	9fbe                	add	t6,t6,a5
    73a8:	6541                	lui	a0,0x10
    73aa:	157d                	addi	a0,a0,-1
    73ac:	00a6f7b3          	and	a5,a3,a0
    73b0:	07c2                	slli	a5,a5,0x10
    73b2:	8d6d                	and	a0,a0,a1
    73b4:	97aa                	add	a5,a5,a0
    73b6:	005885b3          	add	a1,a7,t0
    73ba:	0135b9b3          	sltu	s3,a1,s3
    73be:	97fa                	add	a5,a5,t5
    73c0:	95b2                	add	a1,a1,a2
    73c2:	01378433          	add	s0,a5,s3
    73c6:	00c5b633          	sltu	a2,a1,a2
    73ca:	01c40eb3          	add	t4,s0,t3
    73ce:	00ce8533          	add	a0,t4,a2
    73d2:	01343433          	sltu	s0,s0,s3
    73d6:	01e7b7b3          	sltu	a5,a5,t5
    73da:	8fc1                	or	a5,a5,s0
    73dc:	01cebe33          	sltu	t3,t4,t3
    73e0:	0106d413          	srli	s0,a3,0x10
    73e4:	00c53633          	sltu	a2,a0,a2
    73e8:	943e                	add	s0,s0,a5
    73ea:	00ce6633          	or	a2,t3,a2
    73ee:	00959493          	slli	s1,a1,0x9
    73f2:	9432                	add	s0,s0,a2
    73f4:	947e                	add	s0,s0,t6
    73f6:	0064e4b3          	or	s1,s1,t1
    73fa:	0426                	slli	s0,s0,0x9
    73fc:	01755693          	srli	a3,a0,0x17
    7400:	009034b3          	snez	s1,s1
    7404:	81dd                	srli	a1,a1,0x17
    7406:	00951793          	slli	a5,a0,0x9
    740a:	8ccd                	or	s1,s1,a1
    740c:	8c55                	or	s0,s0,a3
    740e:	8cdd                	or	s1,s1,a5
    7410:	00741793          	slli	a5,s0,0x7
    7414:	0007db63          	bgez	a5,742a <__muldf3+0x370>
    7418:	0014d793          	srli	a5,s1,0x1
    741c:	8885                	andi	s1,s1,1
    741e:	01f41693          	slli	a3,s0,0x1f
    7422:	8cdd                	or	s1,s1,a5
    7424:	8cd5                	or	s1,s1,a3
    7426:	8005                	srli	s0,s0,0x1
    7428:	8942                	mv	s2,a6
    742a:	3ff90793          	addi	a5,s2,1023
    742e:	08f05963          	blez	a5,74c0 <__muldf3+0x406>
    7432:	0074f693          	andi	a3,s1,7
    7436:	ce81                	beqz	a3,744e <__muldf3+0x394>
    7438:	00f4f693          	andi	a3,s1,15
    743c:	4611                	li	a2,4
    743e:	00c68863          	beq	a3,a2,744e <__muldf3+0x394>
    7442:	00448693          	addi	a3,s1,4
    7446:	0096b4b3          	sltu	s1,a3,s1
    744a:	9426                	add	s0,s0,s1
    744c:	84b6                	mv	s1,a3
    744e:	00741693          	slli	a3,s0,0x7
    7452:	0006d863          	bgez	a3,7462 <__muldf3+0x3a8>
    7456:	ff0007b7          	lui	a5,0xff000
    745a:	17fd                	addi	a5,a5,-1
    745c:	8c7d                	and	s0,s0,a5
    745e:	40090793          	addi	a5,s2,1024
    7462:	7fe00693          	li	a3,2046
    7466:	0ef6cf63          	blt	a3,a5,7564 <__muldf3+0x4aa>
    746a:	0034d693          	srli	a3,s1,0x3
    746e:	01d41493          	slli	s1,s0,0x1d
    7472:	0426                	slli	s0,s0,0x9
    7474:	8cd5                	or	s1,s1,a3
    7476:	8031                	srli	s0,s0,0xc
    7478:	7ff7f793          	andi	a5,a5,2047
    747c:	bb21                	j	7194 <__muldf3+0xda>
    747e:	8532                	mv	a0,a2
    7480:	c432                	sw	a2,8(sp)
    7482:	3c5000ef          	jal	ra,8046 <__clzsi2>
    7486:	01550693          	addi	a3,a0,21 # 10015 <_data_lma+0x78d1>
    748a:	47f1                	li	a5,28
    748c:	02050713          	addi	a4,a0,32
    7490:	4622                	lw	a2,8(sp)
    7492:	dcd7d1e3          	bge	a5,a3,7254 <__muldf3+0x19a>
    7496:	1561                	addi	a0,a0,-8
    7498:	00a617b3          	sll	a5,a2,a0
    749c:	4581                	li	a1,0
    749e:	b3f9                	j	726c <__muldf3+0x1b2>
    74a0:	3a7000ef          	jal	ra,8046 <__clzsi2>
    74a4:	01550713          	addi	a4,a0,21
    74a8:	45f1                	li	a1,28
    74aa:	02050793          	addi	a5,a0,32
    74ae:	4622                	lw	a2,8(sp)
    74b0:	46b2                	lw	a3,12(sp)
    74b2:	d4e5d5e3          	bge	a1,a4,71fc <__muldf3+0x142>
    74b6:	1561                	addi	a0,a0,-8
    74b8:	00aa1433          	sll	s0,s4,a0
    74bc:	4481                	li	s1,0
    74be:	bb99                	j	7214 <__muldf3+0x15a>
    74c0:	4685                	li	a3,1
    74c2:	8e9d                	sub	a3,a3,a5
    74c4:	e7b1                	bnez	a5,7510 <__muldf3+0x456>
    74c6:	41e90913          	addi	s2,s2,1054
    74ca:	012497b3          	sll	a5,s1,s2
    74ce:	00d4d4b3          	srl	s1,s1,a3
    74d2:	01241933          	sll	s2,s0,s2
    74d6:	00f037b3          	snez	a5,a5
    74da:	009964b3          	or	s1,s2,s1
    74de:	8cdd                	or	s1,s1,a5
    74e0:	0074f793          	andi	a5,s1,7
    74e4:	00d456b3          	srl	a3,s0,a3
    74e8:	cf81                	beqz	a5,7500 <__muldf3+0x446>
    74ea:	00f4f793          	andi	a5,s1,15
    74ee:	4611                	li	a2,4
    74f0:	00c78863          	beq	a5,a2,7500 <__muldf3+0x446>
    74f4:	00448793          	addi	a5,s1,4
    74f8:	0097b4b3          	sltu	s1,a5,s1
    74fc:	96a6                	add	a3,a3,s1
    74fe:	84be                	mv	s1,a5
    7500:	00869793          	slli	a5,a3,0x8
    7504:	0407d863          	bgez	a5,7554 <__muldf3+0x49a>
    7508:	4785                	li	a5,1
    750a:	4401                	li	s0,0
    750c:	4481                	li	s1,0
    750e:	b159                	j	7194 <__muldf3+0xda>
    7510:	03800613          	li	a2,56
    7514:	ccd641e3          	blt	a2,a3,71d6 <__muldf3+0x11c>
    7518:	467d                	li	a2,31
    751a:	fad656e3          	bge	a2,a3,74c6 <__muldf3+0x40c>
    751e:	5605                	li	a2,-31
    7520:	40f607b3          	sub	a5,a2,a5
    7524:	02000593          	li	a1,32
    7528:	00f45633          	srl	a2,s0,a5
    752c:	00b68763          	beq	a3,a1,753a <__muldf3+0x480>
    7530:	43e90913          	addi	s2,s2,1086
    7534:	012417b3          	sll	a5,s0,s2
    7538:	8cdd                	or	s1,s1,a5
    753a:	009034b3          	snez	s1,s1
    753e:	8cd1                	or	s1,s1,a2
    7540:	0074f693          	andi	a3,s1,7
    7544:	4401                	li	s0,0
    7546:	ca99                	beqz	a3,755c <__muldf3+0x4a2>
    7548:	00f4f793          	andi	a5,s1,15
    754c:	4611                	li	a2,4
    754e:	4681                	li	a3,0
    7550:	fac792e3          	bne	a5,a2,74f4 <__muldf3+0x43a>
    7554:	00969413          	slli	s0,a3,0x9
    7558:	8031                	srli	s0,s0,0xc
    755a:	06f6                	slli	a3,a3,0x1d
    755c:	808d                	srli	s1,s1,0x3
    755e:	8cd5                	or	s1,s1,a3
    7560:	4781                	li	a5,0
    7562:	b90d                	j	7194 <__muldf3+0xda>
    7564:	7ff00793          	li	a5,2047
    7568:	4401                	li	s0,0
    756a:	4481                	li	s1,0
    756c:	b125                	j	7194 <__muldf3+0xda>
    756e:	8942                	mv	s2,a6
    7570:	bd6d                	j	742a <__muldf3+0x370>

00007572 <__subdf3>:
    7572:	00100737          	lui	a4,0x100
    7576:	177d                	addi	a4,a4,-1
    7578:	1101                	addi	sp,sp,-32
    757a:	00b77333          	and	t1,a4,a1
    757e:	0146d893          	srli	a7,a3,0x14
    7582:	8f75                	and	a4,a4,a3
    7584:	01d65e93          	srli	t4,a2,0x1d
    7588:	cc22                	sw	s0,24(sp)
    758a:	ca26                	sw	s1,20(sp)
    758c:	030e                	slli	t1,t1,0x3
    758e:	0145d493          	srli	s1,a1,0x14
    7592:	01d55793          	srli	a5,a0,0x1d
    7596:	070e                	slli	a4,a4,0x3
    7598:	ce06                	sw	ra,28(sp)
    759a:	c84a                	sw	s2,16(sp)
    759c:	c64e                	sw	s3,12(sp)
    759e:	7ff8f893          	andi	a7,a7,2047
    75a2:	7ff00e13          	li	t3,2047
    75a6:	00eee733          	or	a4,t4,a4
    75aa:	7ff4f493          	andi	s1,s1,2047
    75ae:	01f5d413          	srli	s0,a1,0x1f
    75b2:	0067e333          	or	t1,a5,t1
    75b6:	00351f13          	slli	t5,a0,0x3
    75ba:	82fd                	srli	a3,a3,0x1f
    75bc:	00361e93          	slli	t4,a2,0x3
    75c0:	19c88063          	beq	a7,t3,7740 <__subdf3+0x1ce>
    75c4:	0016c693          	xori	a3,a3,1
    75c8:	411485b3          	sub	a1,s1,a7
    75cc:	12d40563          	beq	s0,a3,76f6 <__subdf3+0x184>
    75d0:	18b05163          	blez	a1,7752 <__subdf3+0x1e0>
    75d4:	1a088b63          	beqz	a7,778a <__subdf3+0x218>
    75d8:	008007b7          	lui	a5,0x800
    75dc:	8f5d                	or	a4,a4,a5
    75de:	59c48063          	beq	s1,t3,7b5e <__subdf3+0x5ec>
    75e2:	03800793          	li	a5,56
    75e6:	34b7c363          	blt	a5,a1,792c <__subdf3+0x3ba>
    75ea:	47fd                	li	a5,31
    75ec:	48b7c463          	blt	a5,a1,7a74 <__subdf3+0x502>
    75f0:	02000793          	li	a5,32
    75f4:	8f8d                	sub	a5,a5,a1
    75f6:	00bed9b3          	srl	s3,t4,a1
    75fa:	00f71833          	sll	a6,a4,a5
    75fe:	00fe9eb3          	sll	t4,t4,a5
    7602:	01386833          	or	a6,a6,s3
    7606:	00b75733          	srl	a4,a4,a1
    760a:	01d039b3          	snez	s3,t4
    760e:	01386833          	or	a6,a6,s3
    7612:	40e30333          	sub	t1,t1,a4
    7616:	410f09b3          	sub	s3,t5,a6
    761a:	013f37b3          	sltu	a5,t5,s3
    761e:	40f30633          	sub	a2,t1,a5
    7622:	00861793          	slli	a5,a2,0x8
    7626:	2407d363          	bgez	a5,786c <__subdf3+0x2fa>
    762a:	00800937          	lui	s2,0x800
    762e:	197d                	addi	s2,s2,-1
    7630:	01267933          	and	s2,a2,s2
    7634:	2c090f63          	beqz	s2,7912 <__subdf3+0x3a0>
    7638:	854a                	mv	a0,s2
    763a:	20d000ef          	jal	ra,8046 <__clzsi2>
    763e:	ff850713          	addi	a4,a0,-8
    7642:	02000793          	li	a5,32
    7646:	8f99                	sub	a5,a5,a4
    7648:	00f9d7b3          	srl	a5,s3,a5
    764c:	00e91633          	sll	a2,s2,a4
    7650:	8fd1                	or	a5,a5,a2
    7652:	00e999b3          	sll	s3,s3,a4
    7656:	2a974463          	blt	a4,s1,78fe <__subdf3+0x38c>
    765a:	8f05                	sub	a4,a4,s1
    765c:	00170613          	addi	a2,a4,1 # 100001 <_data_lma+0xf78bd>
    7660:	46fd                	li	a3,31
    7662:	3ac6c463          	blt	a3,a2,7a0a <__subdf3+0x498>
    7666:	02000713          	li	a4,32
    766a:	8f11                	sub	a4,a4,a2
    766c:	00c9d6b3          	srl	a3,s3,a2
    7670:	00e99833          	sll	a6,s3,a4
    7674:	00e79733          	sll	a4,a5,a4
    7678:	8f55                	or	a4,a4,a3
    767a:	01003833          	snez	a6,a6
    767e:	010769b3          	or	s3,a4,a6
    7682:	00c7d633          	srl	a2,a5,a2
    7686:	4481                	li	s1,0
    7688:	0079f793          	andi	a5,s3,7
    768c:	cf81                	beqz	a5,76a4 <__subdf3+0x132>
    768e:	00f9f693          	andi	a3,s3,15
    7692:	4791                	li	a5,4
    7694:	00f68863          	beq	a3,a5,76a4 <__subdf3+0x132>
    7698:	00498693          	addi	a3,s3,4
    769c:	0136b833          	sltu	a6,a3,s3
    76a0:	9642                	add	a2,a2,a6
    76a2:	89b6                	mv	s3,a3
    76a4:	00861793          	slli	a5,a2,0x8
    76a8:	1c07d663          	bgez	a5,7874 <__subdf3+0x302>
    76ac:	00148713          	addi	a4,s1,1
    76b0:	7ff00793          	li	a5,2047
    76b4:	8805                	andi	s0,s0,1
    76b6:	20f70663          	beq	a4,a5,78c2 <__subdf3+0x350>
    76ba:	ff8007b7          	lui	a5,0xff800
    76be:	17fd                	addi	a5,a5,-1
    76c0:	8ff1                	and	a5,a5,a2
    76c2:	01d79813          	slli	a6,a5,0x1d
    76c6:	0039d993          	srli	s3,s3,0x3
    76ca:	07a6                	slli	a5,a5,0x9
    76cc:	01386833          	or	a6,a6,s3
    76d0:	83b1                	srli	a5,a5,0xc
    76d2:	7ff77713          	andi	a4,a4,2047
    76d6:	00c79693          	slli	a3,a5,0xc
    76da:	0752                	slli	a4,a4,0x14
    76dc:	82b1                	srli	a3,a3,0xc
    76de:	047e                	slli	s0,s0,0x1f
    76e0:	8ed9                	or	a3,a3,a4
    76e2:	8ec1                	or	a3,a3,s0
    76e4:	40f2                	lw	ra,28(sp)
    76e6:	4462                	lw	s0,24(sp)
    76e8:	44d2                	lw	s1,20(sp)
    76ea:	4942                	lw	s2,16(sp)
    76ec:	49b2                	lw	s3,12(sp)
    76ee:	8542                	mv	a0,a6
    76f0:	85b6                	mv	a1,a3
    76f2:	6105                	addi	sp,sp,32
    76f4:	8082                	ret
    76f6:	0ab05663          	blez	a1,77a2 <__subdf3+0x230>
    76fa:	12088a63          	beqz	a7,782e <__subdf3+0x2bc>
    76fe:	008007b7          	lui	a5,0x800
    7702:	8f5d                	or	a4,a4,a5
    7704:	2dc48663          	beq	s1,t3,79d0 <__subdf3+0x45e>
    7708:	03800793          	li	a5,56
    770c:	18b7c763          	blt	a5,a1,789a <__subdf3+0x328>
    7710:	47fd                	li	a5,31
    7712:	3cb7d163          	bge	a5,a1,7ad4 <__subdf3+0x562>
    7716:	fe058813          	addi	a6,a1,-32 # ffe0 <_data_lma+0x789c>
    771a:	02000793          	li	a5,32
    771e:	010759b3          	srl	s3,a4,a6
    7722:	00f58a63          	beq	a1,a5,7736 <__subdf3+0x1c4>
    7726:	04000793          	li	a5,64
    772a:	40b785b3          	sub	a1,a5,a1
    772e:	00b71733          	sll	a4,a4,a1
    7732:	00eeeeb3          	or	t4,t4,a4
    7736:	01d03833          	snez	a6,t4
    773a:	01386833          	or	a6,a6,s3
    773e:	a295                	j	78a2 <__subdf3+0x330>
    7740:	01d767b3          	or	a5,a4,t4
    7744:	80148593          	addi	a1,s1,-2047
    7748:	e399                	bnez	a5,774e <__subdf3+0x1dc>
    774a:	0016c693          	xori	a3,a3,1
    774e:	04d40a63          	beq	s0,a3,77a2 <__subdf3+0x230>
    7752:	e1d1                	bnez	a1,77d6 <__subdf3+0x264>
    7754:	00148793          	addi	a5,s1,1
    7758:	7fe7f793          	andi	a5,a5,2046
    775c:	1e079863          	bnez	a5,794c <__subdf3+0x3da>
    7760:	01e367b3          	or	a5,t1,t5
    7764:	01d76833          	or	a6,a4,t4
    7768:	16049263          	bnez	s1,78cc <__subdf3+0x35a>
    776c:	3c078163          	beqz	a5,7b2e <__subdf3+0x5bc>
    7770:	42081563          	bnez	a6,7b9a <__subdf3+0x628>
    7774:	00351813          	slli	a6,a0,0x3
    7778:	01d31693          	slli	a3,t1,0x1d
    777c:	00385813          	srli	a6,a6,0x3
    7780:	0106e833          	or	a6,a3,a6
    7784:	00335793          	srli	a5,t1,0x3
    7788:	a219                	j	788e <__subdf3+0x31c>
    778a:	01d767b3          	or	a5,a4,t4
    778e:	1a078463          	beqz	a5,7936 <__subdf3+0x3c4>
    7792:	fff58793          	addi	a5,a1,-1
    7796:	3a078a63          	beqz	a5,7b4a <__subdf3+0x5d8>
    779a:	23c58b63          	beq	a1,t3,79d0 <__subdf3+0x45e>
    779e:	85be                	mv	a1,a5
    77a0:	b589                	j	75e2 <__subdf3+0x70>
    77a2:	1c059863          	bnez	a1,7972 <__subdf3+0x400>
    77a6:	00148693          	addi	a3,s1,1
    77aa:	7fe6f793          	andi	a5,a3,2046
    77ae:	efc1                	bnez	a5,7846 <__subdf3+0x2d4>
    77b0:	01e367b3          	or	a5,t1,t5
    77b4:	34049f63          	bnez	s1,7b12 <__subdf3+0x5a0>
    77b8:	44078c63          	beqz	a5,7c10 <__subdf3+0x69e>
    77bc:	01d767b3          	or	a5,a4,t4
    77c0:	46079363          	bnez	a5,7c26 <__subdf3+0x6b4>
    77c4:	050e                	slli	a0,a0,0x3
    77c6:	01d31813          	slli	a6,t1,0x1d
    77ca:	810d                	srli	a0,a0,0x3
    77cc:	00a86833          	or	a6,a6,a0
    77d0:	00335793          	srli	a5,t1,0x3
    77d4:	a86d                	j	788e <__subdf3+0x31c>
    77d6:	409885b3          	sub	a1,a7,s1
    77da:	20049663          	bnez	s1,79e6 <__subdf3+0x474>
    77de:	01e367b3          	or	a5,t1,t5
    77e2:	30078c63          	beqz	a5,7afa <__subdf3+0x588>
    77e6:	fff58793          	addi	a5,a1,-1
    77ea:	40078863          	beqz	a5,7bfa <__subdf3+0x688>
    77ee:	7ff00513          	li	a0,2047
    77f2:	20a58263          	beq	a1,a0,79f6 <__subdf3+0x484>
    77f6:	85be                	mv	a1,a5
    77f8:	03800793          	li	a5,56
    77fc:	2ab7c163          	blt	a5,a1,7a9e <__subdf3+0x52c>
    7800:	47fd                	li	a5,31
    7802:	3cb7c763          	blt	a5,a1,7bd0 <__subdf3+0x65e>
    7806:	02000793          	li	a5,32
    780a:	8f8d                	sub	a5,a5,a1
    780c:	00f31833          	sll	a6,t1,a5
    7810:	00bf5633          	srl	a2,t5,a1
    7814:	00ff17b3          	sll	a5,t5,a5
    7818:	00c86833          	or	a6,a6,a2
    781c:	00f039b3          	snez	s3,a5
    7820:	00b35333          	srl	t1,t1,a1
    7824:	01386833          	or	a6,a6,s3
    7828:	40670733          	sub	a4,a4,t1
    782c:	acad                	j	7aa6 <__subdf3+0x534>
    782e:	01d767b3          	or	a5,a4,t4
    7832:	10078263          	beqz	a5,7936 <__subdf3+0x3c4>
    7836:	fff58793          	addi	a5,a1,-1
    783a:	1e078e63          	beqz	a5,7a36 <__subdf3+0x4c4>
    783e:	2dc58f63          	beq	a1,t3,7b1c <__subdf3+0x5aa>
    7842:	85be                	mv	a1,a5
    7844:	b5d1                	j	7708 <__subdf3+0x196>
    7846:	7ff00793          	li	a5,2047
    784a:	06f68b63          	beq	a3,a5,78c0 <__subdf3+0x34e>
    784e:	9efa                	add	t4,t4,t5
    7850:	01eeb633          	sltu	a2,t4,t5
    7854:	00e307b3          	add	a5,t1,a4
    7858:	97b2                	add	a5,a5,a2
    785a:	01f79813          	slli	a6,a5,0x1f
    785e:	001ede93          	srli	t4,t4,0x1
    7862:	01d869b3          	or	s3,a6,t4
    7866:	0017d613          	srli	a2,a5,0x1
    786a:	84b6                	mv	s1,a3
    786c:	0079f793          	andi	a5,s3,7
    7870:	e0079fe3          	bnez	a5,768e <__subdf3+0x11c>
    7874:	01d61793          	slli	a5,a2,0x1d
    7878:	0039d813          	srli	a6,s3,0x3
    787c:	00f86833          	or	a6,a6,a5
    7880:	85a6                	mv	a1,s1
    7882:	00365793          	srli	a5,a2,0x3
    7886:	7ff00713          	li	a4,2047
    788a:	06e58063          	beq	a1,a4,78ea <__subdf3+0x378>
    788e:	07b2                	slli	a5,a5,0xc
    7890:	83b1                	srli	a5,a5,0xc
    7892:	7ff5f713          	andi	a4,a1,2047
    7896:	8805                	andi	s0,s0,1
    7898:	bd3d                	j	76d6 <__subdf3+0x164>
    789a:	01d76733          	or	a4,a4,t4
    789e:	00e03833          	snez	a6,a4
    78a2:	01e809b3          	add	s3,a6,t5
    78a6:	01e9b7b3          	sltu	a5,s3,t5
    78aa:	00678633          	add	a2,a5,t1
    78ae:	00861793          	slli	a5,a2,0x8
    78b2:	fa07dde3          	bgez	a5,786c <__subdf3+0x2fa>
    78b6:	0485                	addi	s1,s1,1
    78b8:	7ff00793          	li	a5,2047
    78bc:	18f49b63          	bne	s1,a5,7a52 <__subdf3+0x4e0>
    78c0:	8805                	andi	s0,s0,1
    78c2:	7ff00713          	li	a4,2047
    78c6:	4781                	li	a5,0
    78c8:	4801                	li	a6,0
    78ca:	b531                	j	76d6 <__subdf3+0x164>
    78cc:	10079063          	bnez	a5,79cc <__subdf3+0x45a>
    78d0:	3c080063          	beqz	a6,7c90 <__subdf3+0x71e>
    78d4:	00361813          	slli	a6,a2,0x3
    78d8:	01d71793          	slli	a5,a4,0x1d
    78dc:	00385813          	srli	a6,a6,0x3
    78e0:	00f86833          	or	a6,a6,a5
    78e4:	8436                	mv	s0,a3
    78e6:	00375793          	srli	a5,a4,0x3
    78ea:	00f867b3          	or	a5,a6,a5
    78ee:	dbe9                	beqz	a5,78c0 <__subdf3+0x34e>
    78f0:	4401                	li	s0,0
    78f2:	7ff00713          	li	a4,2047
    78f6:	000807b7          	lui	a5,0x80
    78fa:	4801                	li	a6,0
    78fc:	bbe9                	j	76d6 <__subdf3+0x164>
    78fe:	ff800637          	lui	a2,0xff800
    7902:	167d                	addi	a2,a2,-1
    7904:	8e7d                	and	a2,a2,a5
    7906:	0079f793          	andi	a5,s3,7
    790a:	8c99                	sub	s1,s1,a4
    790c:	d80791e3          	bnez	a5,768e <__subdf3+0x11c>
    7910:	b795                	j	7874 <__subdf3+0x302>
    7912:	854e                	mv	a0,s3
    7914:	2f0d                	jal	8046 <__clzsi2>
    7916:	01850713          	addi	a4,a0,24
    791a:	47fd                	li	a5,31
    791c:	d2e7d3e3          	bge	a5,a4,7642 <__subdf3+0xd0>
    7920:	ff850613          	addi	a2,a0,-8
    7924:	00c997b3          	sll	a5,s3,a2
    7928:	4981                	li	s3,0
    792a:	b335                	j	7656 <__subdf3+0xe4>
    792c:	01d76833          	or	a6,a4,t4
    7930:	01003833          	snez	a6,a6
    7934:	b1cd                	j	7616 <__subdf3+0xa4>
    7936:	00351813          	slli	a6,a0,0x3
    793a:	01d31793          	slli	a5,t1,0x1d
    793e:	00385813          	srli	a6,a6,0x3
    7942:	00f86833          	or	a6,a6,a5
    7946:	00335793          	srli	a5,t1,0x3
    794a:	bf35                	j	7886 <__subdf3+0x314>
    794c:	41df09b3          	sub	s3,t5,t4
    7950:	40e30933          	sub	s2,t1,a4
    7954:	013f3633          	sltu	a2,t5,s3
    7958:	40c90933          	sub	s2,s2,a2
    795c:	00891793          	slli	a5,s2,0x8
    7960:	2007ca63          	bltz	a5,7b74 <__subdf3+0x602>
    7964:	0129e833          	or	a6,s3,s2
    7968:	cc0816e3          	bnez	a6,7634 <__subdf3+0xc2>
    796c:	4781                	li	a5,0
    796e:	4401                	li	s0,0
    7970:	bf39                	j	788e <__subdf3+0x31c>
    7972:	409885b3          	sub	a1,a7,s1
    7976:	14048163          	beqz	s1,7ab8 <__subdf3+0x546>
    797a:	008006b7          	lui	a3,0x800
    797e:	7ff00793          	li	a5,2047
    7982:	00d36333          	or	t1,t1,a3
    7986:	20f88163          	beq	a7,a5,7b88 <__subdf3+0x616>
    798a:	03800793          	li	a5,56
    798e:	22b7cc63          	blt	a5,a1,7bc6 <__subdf3+0x654>
    7992:	47fd                	li	a5,31
    7994:	2cb7c963          	blt	a5,a1,7c66 <__subdf3+0x6f4>
    7998:	02000793          	li	a5,32
    799c:	8f8d                	sub	a5,a5,a1
    799e:	00f31833          	sll	a6,t1,a5
    79a2:	00bf56b3          	srl	a3,t5,a1
    79a6:	00ff17b3          	sll	a5,t5,a5
    79aa:	00d86833          	or	a6,a6,a3
    79ae:	00f039b3          	snez	s3,a5
    79b2:	00b35333          	srl	t1,t1,a1
    79b6:	01386833          	or	a6,a6,s3
    79ba:	971a                	add	a4,a4,t1
    79bc:	01d809b3          	add	s3,a6,t4
    79c0:	01d9b7b3          	sltu	a5,s3,t4
    79c4:	00e78633          	add	a2,a5,a4
    79c8:	84c6                	mv	s1,a7
    79ca:	b5d5                	j	78ae <__subdf3+0x33c>
    79cc:	f20812e3          	bnez	a6,78f0 <__subdf3+0x37e>
    79d0:	00351813          	slli	a6,a0,0x3
    79d4:	01d31793          	slli	a5,t1,0x1d
    79d8:	00385813          	srli	a6,a6,0x3
    79dc:	00f86833          	or	a6,a6,a5
    79e0:	00335793          	srli	a5,t1,0x3
    79e4:	b719                	j	78ea <__subdf3+0x378>
    79e6:	00800537          	lui	a0,0x800
    79ea:	7ff00793          	li	a5,2047
    79ee:	00a36333          	or	t1,t1,a0
    79f2:	e0f893e3          	bne	a7,a5,77f8 <__subdf3+0x286>
    79f6:	060e                	slli	a2,a2,0x3
    79f8:	01d71813          	slli	a6,a4,0x1d
    79fc:	820d                	srli	a2,a2,0x3
    79fe:	00c86833          	or	a6,a6,a2
    7a02:	00375793          	srli	a5,a4,0x3
    7a06:	8436                	mv	s0,a3
    7a08:	b5cd                	j	78ea <__subdf3+0x378>
    7a0a:	1705                	addi	a4,a4,-31
    7a0c:	02000693          	li	a3,32
    7a10:	00e7d733          	srl	a4,a5,a4
    7a14:	00d60a63          	beq	a2,a3,7a28 <__subdf3+0x4b6>
    7a18:	04000693          	li	a3,64
    7a1c:	40c68633          	sub	a2,a3,a2
    7a20:	00c79633          	sll	a2,a5,a2
    7a24:	00c9e9b3          	or	s3,s3,a2
    7a28:	01303833          	snez	a6,s3
    7a2c:	00e869b3          	or	s3,a6,a4
    7a30:	4601                	li	a2,0
    7a32:	4481                	li	s1,0
    7a34:	bd25                	j	786c <__subdf3+0x2fa>
    7a36:	01df09b3          	add	s3,t5,t4
    7a3a:	00e307b3          	add	a5,t1,a4
    7a3e:	01e9bf33          	sltu	t5,s3,t5
    7a42:	01e78633          	add	a2,a5,t5
    7a46:	00861793          	slli	a5,a2,0x8
    7a4a:	4485                	li	s1,1
    7a4c:	e207d0e3          	bgez	a5,786c <__subdf3+0x2fa>
    7a50:	4489                	li	s1,2
    7a52:	ff8007b7          	lui	a5,0xff800
    7a56:	17fd                	addi	a5,a5,-1
    7a58:	8ff1                	and	a5,a5,a2
    7a5a:	0019d713          	srli	a4,s3,0x1
    7a5e:	0019f813          	andi	a6,s3,1
    7a62:	01076833          	or	a6,a4,a6
    7a66:	01f79993          	slli	s3,a5,0x1f
    7a6a:	0109e9b3          	or	s3,s3,a6
    7a6e:	0017d613          	srli	a2,a5,0x1
    7a72:	b919                	j	7688 <__subdf3+0x116>
    7a74:	fe058813          	addi	a6,a1,-32
    7a78:	02000793          	li	a5,32
    7a7c:	010759b3          	srl	s3,a4,a6
    7a80:	00f58a63          	beq	a1,a5,7a94 <__subdf3+0x522>
    7a84:	04000793          	li	a5,64
    7a88:	40b785b3          	sub	a1,a5,a1
    7a8c:	00b71733          	sll	a4,a4,a1
    7a90:	00eeeeb3          	or	t4,t4,a4
    7a94:	01d03833          	snez	a6,t4
    7a98:	01386833          	or	a6,a6,s3
    7a9c:	bead                	j	7616 <__subdf3+0xa4>
    7a9e:	01e36333          	or	t1,t1,t5
    7aa2:	00603833          	snez	a6,t1
    7aa6:	410e89b3          	sub	s3,t4,a6
    7aaa:	013eb7b3          	sltu	a5,t4,s3
    7aae:	40f70633          	sub	a2,a4,a5
    7ab2:	84c6                	mv	s1,a7
    7ab4:	8436                	mv	s0,a3
    7ab6:	b6b5                	j	7622 <__subdf3+0xb0>
    7ab8:	01e367b3          	or	a5,t1,t5
    7abc:	18078763          	beqz	a5,7c4a <__subdf3+0x6d8>
    7ac0:	fff58793          	addi	a5,a1,-1
    7ac4:	1c078c63          	beqz	a5,7c9c <__subdf3+0x72a>
    7ac8:	7ff00693          	li	a3,2047
    7acc:	0ad58e63          	beq	a1,a3,7b88 <__subdf3+0x616>
    7ad0:	85be                	mv	a1,a5
    7ad2:	bd65                	j	798a <__subdf3+0x418>
    7ad4:	02000793          	li	a5,32
    7ad8:	8f8d                	sub	a5,a5,a1
    7ada:	00bed9b3          	srl	s3,t4,a1
    7ade:	00f71833          	sll	a6,a4,a5
    7ae2:	00fe9eb3          	sll	t4,t4,a5
    7ae6:	01386833          	or	a6,a6,s3
    7aea:	00b75733          	srl	a4,a4,a1
    7aee:	01d039b3          	snez	s3,t4
    7af2:	01386833          	or	a6,a6,s3
    7af6:	933a                	add	t1,t1,a4
    7af8:	b36d                	j	78a2 <__subdf3+0x330>
    7afa:	00361813          	slli	a6,a2,0x3
    7afe:	01d71793          	slli	a5,a4,0x1d
    7b02:	00385813          	srli	a6,a6,0x3
    7b06:	0107e833          	or	a6,a5,a6
    7b0a:	8436                	mv	s0,a3
    7b0c:	00375793          	srli	a5,a4,0x3
    7b10:	bb9d                	j	7886 <__subdf3+0x314>
    7b12:	cbbd                	beqz	a5,7b88 <__subdf3+0x616>
    7b14:	01d76733          	or	a4,a4,t4
    7b18:	dc071ce3          	bnez	a4,78f0 <__subdf3+0x37e>
    7b1c:	050e                	slli	a0,a0,0x3
    7b1e:	01d31813          	slli	a6,t1,0x1d
    7b22:	810d                	srli	a0,a0,0x3
    7b24:	00a86833          	or	a6,a6,a0
    7b28:	00335793          	srli	a5,t1,0x3
    7b2c:	bb7d                	j	78ea <__subdf3+0x378>
    7b2e:	e2080fe3          	beqz	a6,796c <__subdf3+0x3fa>
    7b32:	00361813          	slli	a6,a2,0x3
    7b36:	01d71793          	slli	a5,a4,0x1d
    7b3a:	00385813          	srli	a6,a6,0x3
    7b3e:	00f86833          	or	a6,a6,a5
    7b42:	8436                	mv	s0,a3
    7b44:	00375793          	srli	a5,a4,0x3
    7b48:	b399                	j	788e <__subdf3+0x31c>
    7b4a:	41df09b3          	sub	s3,t5,t4
    7b4e:	40e307b3          	sub	a5,t1,a4
    7b52:	013f3f33          	sltu	t5,t5,s3
    7b56:	41e78633          	sub	a2,a5,t5
    7b5a:	4485                	li	s1,1
    7b5c:	b4d9                	j	7622 <__subdf3+0xb0>
    7b5e:	00351813          	slli	a6,a0,0x3
    7b62:	01d31693          	slli	a3,t1,0x1d
    7b66:	00385813          	srli	a6,a6,0x3
    7b6a:	0106e833          	or	a6,a3,a6
    7b6e:	00335793          	srli	a5,t1,0x3
    7b72:	bba5                	j	78ea <__subdf3+0x378>
    7b74:	41ee89b3          	sub	s3,t4,t5
    7b78:	40670633          	sub	a2,a4,t1
    7b7c:	013eb933          	sltu	s2,t4,s3
    7b80:	41260933          	sub	s2,a2,s2
    7b84:	8436                	mv	s0,a3
    7b86:	b47d                	j	7634 <__subdf3+0xc2>
    7b88:	060e                	slli	a2,a2,0x3
    7b8a:	01d71813          	slli	a6,a4,0x1d
    7b8e:	820d                	srli	a2,a2,0x3
    7b90:	00c86833          	or	a6,a6,a2
    7b94:	00375793          	srli	a5,a4,0x3
    7b98:	bb89                	j	78ea <__subdf3+0x378>
    7b9a:	41df09b3          	sub	s3,t5,t4
    7b9e:	40e307b3          	sub	a5,t1,a4
    7ba2:	013f3633          	sltu	a2,t5,s3
    7ba6:	40c78633          	sub	a2,a5,a2
    7baa:	00861793          	slli	a5,a2,0x8
    7bae:	0a07d763          	bgez	a5,7c5c <__subdf3+0x6ea>
    7bb2:	41ee89b3          	sub	s3,t4,t5
    7bb6:	406707b3          	sub	a5,a4,t1
    7bba:	013ebeb3          	sltu	t4,t4,s3
    7bbe:	41d78633          	sub	a2,a5,t4
    7bc2:	8436                	mv	s0,a3
    7bc4:	b4d1                	j	7688 <__subdf3+0x116>
    7bc6:	01e36333          	or	t1,t1,t5
    7bca:	00603833          	snez	a6,t1
    7bce:	b3fd                	j	79bc <__subdf3+0x44a>
    7bd0:	fe058813          	addi	a6,a1,-32
    7bd4:	02000793          	li	a5,32
    7bd8:	010359b3          	srl	s3,t1,a6
    7bdc:	00f58a63          	beq	a1,a5,7bf0 <__subdf3+0x67e>
    7be0:	04000793          	li	a5,64
    7be4:	40b785b3          	sub	a1,a5,a1
    7be8:	00b31333          	sll	t1,t1,a1
    7bec:	006f6f33          	or	t5,t5,t1
    7bf0:	01e03833          	snez	a6,t5
    7bf4:	01386833          	or	a6,a6,s3
    7bf8:	b57d                	j	7aa6 <__subdf3+0x534>
    7bfa:	41ee89b3          	sub	s3,t4,t5
    7bfe:	406707b3          	sub	a5,a4,t1
    7c02:	013ebeb3          	sltu	t4,t4,s3
    7c06:	41d78633          	sub	a2,a5,t4
    7c0a:	8436                	mv	s0,a3
    7c0c:	4485                	li	s1,1
    7c0e:	bc11                	j	7622 <__subdf3+0xb0>
    7c10:	00361813          	slli	a6,a2,0x3
    7c14:	01d71793          	slli	a5,a4,0x1d
    7c18:	00385813          	srli	a6,a6,0x3
    7c1c:	00f86833          	or	a6,a6,a5
    7c20:	00375793          	srli	a5,a4,0x3
    7c24:	b1ad                	j	788e <__subdf3+0x31c>
    7c26:	01df09b3          	add	s3,t5,t4
    7c2a:	00e307b3          	add	a5,t1,a4
    7c2e:	01e9bf33          	sltu	t5,s3,t5
    7c32:	01e78633          	add	a2,a5,t5
    7c36:	00861793          	slli	a5,a2,0x8
    7c3a:	c207d9e3          	bgez	a5,786c <__subdf3+0x2fa>
    7c3e:	ff8007b7          	lui	a5,0xff800
    7c42:	17fd                	addi	a5,a5,-1
    7c44:	8e7d                	and	a2,a2,a5
    7c46:	4485                	li	s1,1
    7c48:	b115                	j	786c <__subdf3+0x2fa>
    7c4a:	060e                	slli	a2,a2,0x3
    7c4c:	01d71813          	slli	a6,a4,0x1d
    7c50:	820d                	srli	a2,a2,0x3
    7c52:	00c86833          	or	a6,a6,a2
    7c56:	00375793          	srli	a5,a4,0x3
    7c5a:	b135                	j	7886 <__subdf3+0x314>
    7c5c:	00c9e833          	or	a6,s3,a2
    7c60:	d00806e3          	beqz	a6,796c <__subdf3+0x3fa>
    7c64:	b121                	j	786c <__subdf3+0x2fa>
    7c66:	fe058813          	addi	a6,a1,-32
    7c6a:	02000793          	li	a5,32
    7c6e:	010359b3          	srl	s3,t1,a6
    7c72:	00f58a63          	beq	a1,a5,7c86 <__subdf3+0x714>
    7c76:	04000793          	li	a5,64
    7c7a:	40b785b3          	sub	a1,a5,a1
    7c7e:	00b31333          	sll	t1,t1,a1
    7c82:	006f6f33          	or	t5,t5,t1
    7c86:	01e03833          	snez	a6,t5
    7c8a:	01386833          	or	a6,a6,s3
    7c8e:	b33d                	j	79bc <__subdf3+0x44a>
    7c90:	4401                	li	s0,0
    7c92:	7ff00713          	li	a4,2047
    7c96:	000807b7          	lui	a5,0x80
    7c9a:	bc35                	j	76d6 <__subdf3+0x164>
    7c9c:	01df09b3          	add	s3,t5,t4
    7ca0:	00e307b3          	add	a5,t1,a4
    7ca4:	01d9beb3          	sltu	t4,s3,t4
    7ca8:	01d78633          	add	a2,a5,t4
    7cac:	bb69                	j	7a46 <__subdf3+0x4d4>

00007cae <__unorddf2>:
    7cae:	0145d713          	srli	a4,a1,0x14
    7cb2:	001007b7          	lui	a5,0x100
    7cb6:	17fd                	addi	a5,a5,-1
    7cb8:	fff74713          	not	a4,a4
    7cbc:	0146d813          	srli	a6,a3,0x14
    7cc0:	8dfd                	and	a1,a1,a5
    7cc2:	8ff5                	and	a5,a5,a3
    7cc4:	01571693          	slli	a3,a4,0x15
    7cc8:	7ff87813          	andi	a6,a6,2047
    7ccc:	ca99                	beqz	a3,7ce2 <__unorddf2+0x34>
    7cce:	7ff00713          	li	a4,2047
    7cd2:	4501                	li	a0,0
    7cd4:	00e80363          	beq	a6,a4,7cda <__unorddf2+0x2c>
    7cd8:	8082                	ret
    7cda:	8fd1                	or	a5,a5,a2
    7cdc:	00f03533          	snez	a0,a5
    7ce0:	8082                	ret
    7ce2:	8dc9                	or	a1,a1,a0
    7ce4:	4505                	li	a0,1
    7ce6:	d5e5                	beqz	a1,7cce <__unorddf2+0x20>
    7ce8:	8082                	ret

00007cea <__fixdfsi>:
    7cea:	0145d793          	srli	a5,a1,0x14
    7cee:	001006b7          	lui	a3,0x100
    7cf2:	fff68713          	addi	a4,a3,-1 # fffff <_data_lma+0xf78bb>
    7cf6:	7ff7f793          	andi	a5,a5,2047
    7cfa:	3fe00613          	li	a2,1022
    7cfe:	8f6d                	and	a4,a4,a1
    7d00:	81fd                	srli	a1,a1,0x1f
    7d02:	00f65c63          	bge	a2,a5,7d1a <__fixdfsi+0x30>
    7d06:	41d00613          	li	a2,1053
    7d0a:	00f65a63          	bge	a2,a5,7d1e <__fixdfsi+0x34>
    7d0e:	80000537          	lui	a0,0x80000
    7d12:	fff54513          	not	a0,a0
    7d16:	952e                	add	a0,a0,a1
    7d18:	8082                	ret
    7d1a:	4501                	li	a0,0
    7d1c:	8082                	ret
    7d1e:	43300613          	li	a2,1075
    7d22:	8e1d                	sub	a2,a2,a5
    7d24:	487d                	li	a6,31
    7d26:	8f55                	or	a4,a4,a3
    7d28:	00c85d63          	bge	a6,a2,7d42 <__fixdfsi+0x58>
    7d2c:	41300693          	li	a3,1043
    7d30:	40f687b3          	sub	a5,a3,a5
    7d34:	00f757b3          	srl	a5,a4,a5
    7d38:	40f00533          	neg	a0,a5
    7d3c:	f1e5                	bnez	a1,7d1c <__fixdfsi+0x32>
    7d3e:	853e                	mv	a0,a5
    7d40:	8082                	ret
    7d42:	bed78793          	addi	a5,a5,-1043 # ffbed <_data_lma+0xf74a9>
    7d46:	00f717b3          	sll	a5,a4,a5
    7d4a:	00c55533          	srl	a0,a0,a2
    7d4e:	8fc9                	or	a5,a5,a0
    7d50:	b7e5                	j	7d38 <__fixdfsi+0x4e>

00007d52 <__floatsidf>:
    7d52:	1141                	addi	sp,sp,-16
    7d54:	c606                	sw	ra,12(sp)
    7d56:	c422                	sw	s0,8(sp)
    7d58:	c226                	sw	s1,4(sp)
    7d5a:	cd05                	beqz	a0,7d92 <__floatsidf+0x40>
    7d5c:	41f55793          	srai	a5,a0,0x1f
    7d60:	00a7c4b3          	xor	s1,a5,a0
    7d64:	8c9d                	sub	s1,s1,a5
    7d66:	842a                	mv	s0,a0
    7d68:	8526                	mv	a0,s1
    7d6a:	2cf1                	jal	8046 <__clzsi2>
    7d6c:	41e00693          	li	a3,1054
    7d70:	8e89                	sub	a3,a3,a0
    7d72:	47a9                	li	a5,10
    7d74:	807d                	srli	s0,s0,0x1f
    7d76:	7ff6f693          	andi	a3,a3,2047
    7d7a:	02a7cd63          	blt	a5,a0,7db4 <__floatsidf+0x62>
    7d7e:	472d                	li	a4,11
    7d80:	8f09                	sub	a4,a4,a0
    7d82:	00e4d7b3          	srl	a5,s1,a4
    7d86:	0555                	addi	a0,a0,21
    7d88:	07b2                	slli	a5,a5,0xc
    7d8a:	00a494b3          	sll	s1,s1,a0
    7d8e:	83b1                	srli	a5,a5,0xc
    7d90:	a029                	j	7d9a <__floatsidf+0x48>
    7d92:	4401                	li	s0,0
    7d94:	4681                	li	a3,0
    7d96:	4781                	li	a5,0
    7d98:	4481                	li	s1,0
    7d9a:	07b2                	slli	a5,a5,0xc
    7d9c:	06d2                	slli	a3,a3,0x14
    7d9e:	83b1                	srli	a5,a5,0xc
    7da0:	047e                	slli	s0,s0,0x1f
    7da2:	8fd5                	or	a5,a5,a3
    7da4:	8fc1                	or	a5,a5,s0
    7da6:	40b2                	lw	ra,12(sp)
    7da8:	4422                	lw	s0,8(sp)
    7daa:	8526                	mv	a0,s1
    7dac:	85be                	mv	a1,a5
    7dae:	4492                	lw	s1,4(sp)
    7db0:	0141                	addi	sp,sp,16
    7db2:	8082                	ret
    7db4:	1555                	addi	a0,a0,-11
    7db6:	00a497b3          	sll	a5,s1,a0
    7dba:	07b2                	slli	a5,a5,0xc
    7dbc:	83b1                	srli	a5,a5,0xc
    7dbe:	4481                	li	s1,0
    7dc0:	bfe9                	j	7d9a <__floatsidf+0x48>

00007dc2 <__floatunsidf>:
    7dc2:	cd15                	beqz	a0,7dfe <__floatunsidf+0x3c>
    7dc4:	1141                	addi	sp,sp,-16
    7dc6:	c422                	sw	s0,8(sp)
    7dc8:	c606                	sw	ra,12(sp)
    7dca:	842a                	mv	s0,a0
    7dcc:	2cad                	jal	8046 <__clzsi2>
    7dce:	41e00693          	li	a3,1054
    7dd2:	8e89                	sub	a3,a3,a0
    7dd4:	47a9                	li	a5,10
    7dd6:	7ff6f693          	andi	a3,a3,2047
    7dda:	02a7dc63          	bge	a5,a0,7e12 <__floatunsidf+0x50>
    7dde:	1555                	addi	a0,a0,-11
    7de0:	00a417b3          	sll	a5,s0,a0
    7de4:	07b2                	slli	a5,a5,0xc
    7de6:	83b1                	srli	a5,a5,0xc
    7de8:	4701                	li	a4,0
    7dea:	40b2                	lw	ra,12(sp)
    7dec:	4422                	lw	s0,8(sp)
    7dee:	07b2                	slli	a5,a5,0xc
    7df0:	06d2                	slli	a3,a3,0x14
    7df2:	83b1                	srli	a5,a5,0xc
    7df4:	8fd5                	or	a5,a5,a3
    7df6:	853a                	mv	a0,a4
    7df8:	85be                	mv	a1,a5
    7dfa:	0141                	addi	sp,sp,16
    7dfc:	8082                	ret
    7dfe:	4781                	li	a5,0
    7e00:	4681                	li	a3,0
    7e02:	07b2                	slli	a5,a5,0xc
    7e04:	06d2                	slli	a3,a3,0x14
    7e06:	83b1                	srli	a5,a5,0xc
    7e08:	4701                	li	a4,0
    7e0a:	8fd5                	or	a5,a5,a3
    7e0c:	853a                	mv	a0,a4
    7e0e:	85be                	mv	a1,a5
    7e10:	8082                	ret
    7e12:	472d                	li	a4,11
    7e14:	8f09                	sub	a4,a4,a0
    7e16:	00e457b3          	srl	a5,s0,a4
    7e1a:	07b2                	slli	a5,a5,0xc
    7e1c:	01550713          	addi	a4,a0,21 # 80000015 <__freertos_irq_stack_top+0x5fffb015>
    7e20:	00e41733          	sll	a4,s0,a4
    7e24:	83b1                	srli	a5,a5,0xc
    7e26:	b7d1                	j	7dea <__floatunsidf+0x28>

00007e28 <__trunctfdf2>:
    7e28:	00c52803          	lw	a6,12(a0)
    7e2c:	4118                	lw	a4,0(a0)
    7e2e:	4154                	lw	a3,4(a0)
    7e30:	450c                	lw	a1,8(a0)
    7e32:	6521                	lui	a0,0x8
    7e34:	fff50793          	addi	a5,a0,-1 # 7fff <__trunctfdf2+0x1d7>
    7e38:	01085613          	srli	a2,a6,0x10
    7e3c:	00359e13          	slli	t3,a1,0x3
    7e40:	8e7d                	and	a2,a2,a5
    7e42:	01d75893          	srli	a7,a4,0x1d
    7e46:	01d6d793          	srli	a5,a3,0x1d
    7e4a:	01081313          	slli	t1,a6,0x10
    7e4e:	068e                	slli	a3,a3,0x3
    7e50:	1141                	addi	sp,sp,-16
    7e52:	01c7e7b3          	or	a5,a5,t3
    7e56:	0116e6b3          	or	a3,a3,a7
    7e5a:	01035313          	srli	t1,t1,0x10
    7e5e:	00371e13          	slli	t3,a4,0x3
    7e62:	00160893          	addi	a7,a2,1 # ff800001 <__freertos_irq_stack_top+0xdf7fb001>
    7e66:	1579                	addi	a0,a0,-2
    7e68:	81f5                	srli	a1,a1,0x1d
    7e6a:	030e                	slli	t1,t1,0x3
    7e6c:	c43e                	sw	a5,8(sp)
    7e6e:	c236                	sw	a3,4(sp)
    7e70:	c072                	sw	t3,0(sp)
    7e72:	00a8f533          	and	a0,a7,a0
    7e76:	01f85813          	srli	a6,a6,0x1f
    7e7a:	0065e5b3          	or	a1,a1,t1
    7e7e:	c905                	beqz	a0,7eae <__trunctfdf2+0x86>
    7e80:	7771                	lui	a4,0xffffc
    7e82:	40070713          	addi	a4,a4,1024 # ffffc400 <__freertos_irq_stack_top+0xdfff7400>
    7e86:	963a                	add	a2,a2,a4
    7e88:	7fe00713          	li	a4,2046
    7e8c:	04c75d63          	bge	a4,a2,7ee6 <__trunctfdf2+0xbe>
    7e90:	7ff00613          	li	a2,2047
    7e94:	4701                	li	a4,0
    7e96:	4781                	li	a5,0
    7e98:	0732                	slli	a4,a4,0xc
    7e9a:	0652                	slli	a2,a2,0x14
    7e9c:	8331                	srli	a4,a4,0xc
    7e9e:	087e                	slli	a6,a6,0x1f
    7ea0:	8f51                	or	a4,a4,a2
    7ea2:	01076733          	or	a4,a4,a6
    7ea6:	853e                	mv	a0,a5
    7ea8:	85ba                	mv	a1,a4
    7eaa:	0141                	addi	sp,sp,16
    7eac:	8082                	ret
    7eae:	8fd5                	or	a5,a5,a3
    7eb0:	8fcd                	or	a5,a5,a1
    7eb2:	01c7e7b3          	or	a5,a5,t3
    7eb6:	e205                	bnez	a2,7ed6 <__trunctfdf2+0xae>
    7eb8:	cbf1                	beqz	a5,7f8c <__trunctfdf2+0x164>
    7eba:	4781                	li	a5,0
    7ebc:	4695                	li	a3,5
    7ebe:	0036d593          	srli	a1,a3,0x3
    7ec2:	00979713          	slli	a4,a5,0x9
    7ec6:	01d79693          	slli	a3,a5,0x1d
    7eca:	00b6e7b3          	or	a5,a3,a1
    7ece:	8331                	srli	a4,a4,0xc
    7ed0:	7ff67613          	andi	a2,a2,2047
    7ed4:	b7d1                	j	7e98 <__trunctfdf2+0x70>
    7ed6:	dfcd                	beqz	a5,7e90 <__trunctfdf2+0x68>
    7ed8:	4801                	li	a6,0
    7eda:	7ff00613          	li	a2,2047
    7ede:	00080737          	lui	a4,0x80
    7ee2:	4781                	li	a5,0
    7ee4:	bf55                	j	7e98 <__trunctfdf2+0x70>
    7ee6:	0ac04663          	bgtz	a2,7f92 <__trunctfdf2+0x16a>
    7eea:	fcc00793          	li	a5,-52
    7eee:	0ef64f63          	blt	a2,a5,7fec <__trunctfdf2+0x1c4>
    7ef2:	03d00793          	li	a5,61
    7ef6:	40c78633          	sub	a2,a5,a2
    7efa:	40565793          	srai	a5,a2,0x5
    7efe:	00080737          	lui	a4,0x80
    7f02:	8dd9                	or	a1,a1,a4
    7f04:	00279513          	slli	a0,a5,0x2
    7f08:	870a                	mv	a4,sp
    7f0a:	4681                	li	a3,0
    7f0c:	c62e                	sw	a1,12(sp)
    7f0e:	00a108b3          	add	a7,sp,a0
    7f12:	0711                	addi	a4,a4,4
    7f14:	8a7d                	andi	a2,a2,31
    7f16:	01c6e6b3          	or	a3,a3,t3
    7f1a:	01170963          	beq	a4,a7,7f2c <__trunctfdf2+0x104>
    7f1e:	00072e03          	lw	t3,0(a4) # 80000 <_data_lma+0x778bc>
    7f22:	0711                	addi	a4,a4,4
    7f24:	01c6e6b3          	or	a3,a3,t3
    7f28:	ff171be3          	bne	a4,a7,7f1e <__trunctfdf2+0xf6>
    7f2c:	470d                	li	a4,3
    7f2e:	8f1d                	sub	a4,a4,a5
    7f30:	ca79                	beqz	a2,8006 <__trunctfdf2+0x1de>
    7f32:	01010893          	addi	a7,sp,16
    7f36:	98aa                	add	a7,a7,a0
    7f38:	ff08a883          	lw	a7,-16(a7)
    7f3c:	02000e13          	li	t3,32
    7f40:	40ce0e33          	sub	t3,t3,a2
    7f44:	01c898b3          	sll	a7,a7,t3
    7f48:	0116e6b3          	or	a3,a3,a7
    7f4c:	cb75                	beqz	a4,8040 <__trunctfdf2+0x218>
    7f4e:	070a                	slli	a4,a4,0x2
    7f50:	950a                	add	a0,a0,sp
    7f52:	00e10eb3          	add	t4,sp,a4
    7f56:	888a                	mv	a7,sp
    7f58:	410c                	lw	a1,0(a0)
    7f5a:	00452303          	lw	t1,4(a0)
    7f5e:	0891                	addi	a7,a7,4
    7f60:	00c5d5b3          	srl	a1,a1,a2
    7f64:	01c31333          	sll	t1,t1,t3
    7f68:	0065e5b3          	or	a1,a1,t1
    7f6c:	feb8ae23          	sw	a1,-4(a7)
    7f70:	0511                	addi	a0,a0,4
    7f72:	ff1e93e3          	bne	t4,a7,7f58 <__trunctfdf2+0x130>
    7f76:	4591                	li	a1,4
    7f78:	40f587b3          	sub	a5,a1,a5
    7f7c:	45b2                	lw	a1,12(sp)
    7f7e:	0808                	addi	a0,sp,16
    7f80:	972a                	add	a4,a4,a0
    7f82:	00c5d5b3          	srl	a1,a1,a2
    7f86:	feb72823          	sw	a1,-16(a4)
    7f8a:	a861                	j	8022 <__trunctfdf2+0x1fa>
    7f8c:	4601                	li	a2,0
    7f8e:	4701                	li	a4,0
    7f90:	b721                	j	7e98 <__trunctfdf2+0x70>
    7f92:	00469713          	slli	a4,a3,0x4
    7f96:	00479513          	slli	a0,a5,0x4
    7f9a:	01c76733          	or	a4,a4,t3
    7f9e:	82f1                	srli	a3,a3,0x1c
    7fa0:	83f1                	srli	a5,a5,0x1c
    7fa2:	0592                	slli	a1,a1,0x4
    7fa4:	00e03733          	snez	a4,a4
    7fa8:	8ec9                	or	a3,a3,a0
    7faa:	8fcd                	or	a5,a5,a1
    7fac:	8ed9                	or	a3,a3,a4
    7fae:	0076f713          	andi	a4,a3,7
    7fb2:	c711                	beqz	a4,7fbe <__trunctfdf2+0x196>
    7fb4:	00f6f713          	andi	a4,a3,15
    7fb8:	4591                	li	a1,4
    7fba:	02b71c63          	bne	a4,a1,7ff2 <__trunctfdf2+0x1ca>
    7fbe:	00800737          	lui	a4,0x800
    7fc2:	8f7d                	and	a4,a4,a5
    7fc4:	ee070de3          	beqz	a4,7ebe <__trunctfdf2+0x96>
    7fc8:	0605                	addi	a2,a2,1
    7fca:	7ff00713          	li	a4,2047
    7fce:	ece601e3          	beq	a2,a4,7e90 <__trunctfdf2+0x68>
    7fd2:	ff800737          	lui	a4,0xff800
    7fd6:	177d                	addi	a4,a4,-1
    7fd8:	8f7d                	and	a4,a4,a5
    7fda:	01d71793          	slli	a5,a4,0x1d
    7fde:	828d                	srli	a3,a3,0x3
    7fe0:	0726                	slli	a4,a4,0x9
    7fe2:	7ff67613          	andi	a2,a2,2047
    7fe6:	8fd5                	or	a5,a5,a3
    7fe8:	8331                	srli	a4,a4,0xc
    7fea:	b57d                	j	7e98 <__trunctfdf2+0x70>
    7fec:	4685                	li	a3,1
    7fee:	4781                	li	a5,0
    7ff0:	4601                	li	a2,0
    7ff2:	ffc6b713          	sltiu	a4,a3,-4
    7ff6:	00174713          	xori	a4,a4,1
    7ffa:	97ba                	add	a5,a5,a4
    7ffc:	00800737          	lui	a4,0x800
    8000:	0691                	addi	a3,a3,4
    8002:	8f7d                	and	a4,a4,a5
    8004:	b7c1                	j	7fc4 <__trunctfdf2+0x19c>
    8006:	858a                	mv	a1,sp
    8008:	00a588b3          	add	a7,a1,a0
    800c:	0008a883          	lw	a7,0(a7)
    8010:	0591                	addi	a1,a1,4
    8012:	0605                	addi	a2,a2,1
    8014:	ff15ae23          	sw	a7,-4(a1)
    8018:	fec758e3          	bge	a4,a2,8008 <__trunctfdf2+0x1e0>
    801c:	4711                	li	a4,4
    801e:	40f707b3          	sub	a5,a4,a5
    8022:	078a                	slli	a5,a5,0x2
    8024:	978a                	add	a5,a5,sp
    8026:	0818                	addi	a4,sp,16
    8028:	0007a023          	sw	zero,0(a5)
    802c:	0791                	addi	a5,a5,4
    802e:	fee79de3          	bne	a5,a4,8028 <__trunctfdf2+0x200>
    8032:	4702                	lw	a4,0(sp)
    8034:	00d036b3          	snez	a3,a3
    8038:	4792                	lw	a5,4(sp)
    803a:	8ed9                	or	a3,a3,a4
    803c:	4601                	li	a2,0
    803e:	bf85                	j	7fae <__trunctfdf2+0x186>
    8040:	4785                	li	a5,1
    8042:	4701                	li	a4,0
    8044:	bf2d                	j	7f7e <__trunctfdf2+0x156>

00008046 <__clzsi2>:
    8046:	67c1                	lui	a5,0x10
    8048:	02f57e63          	bgeu	a0,a5,8084 <__clzsi2+0x3e>
    804c:	0ff00793          	li	a5,255
    8050:	02000713          	li	a4,32
    8054:	00a7ec63          	bltu	a5,a0,806c <__clzsi2+0x26>
    8058:	00000797          	auipc	a5,0x0
    805c:	5ec78793          	addi	a5,a5,1516 # 8644 <__clz_tab>
    8060:	97aa                	add	a5,a5,a0
    8062:	0007c503          	lbu	a0,0(a5)
    8066:	40a70533          	sub	a0,a4,a0
    806a:	8082                	ret
    806c:	8121                	srli	a0,a0,0x8
    806e:	00000797          	auipc	a5,0x0
    8072:	5d678793          	addi	a5,a5,1494 # 8644 <__clz_tab>
    8076:	97aa                	add	a5,a5,a0
    8078:	0007c503          	lbu	a0,0(a5)
    807c:	4761                	li	a4,24
    807e:	40a70533          	sub	a0,a4,a0
    8082:	8082                	ret
    8084:	010007b7          	lui	a5,0x1000
    8088:	00f56e63          	bltu	a0,a5,80a4 <__clzsi2+0x5e>
    808c:	8161                	srli	a0,a0,0x18
    808e:	00000797          	auipc	a5,0x0
    8092:	5b678793          	addi	a5,a5,1462 # 8644 <__clz_tab>
    8096:	97aa                	add	a5,a5,a0
    8098:	0007c503          	lbu	a0,0(a5)
    809c:	4721                	li	a4,8
    809e:	40a70533          	sub	a0,a4,a0
    80a2:	8082                	ret
    80a4:	8141                	srli	a0,a0,0x10
    80a6:	00000797          	auipc	a5,0x0
    80aa:	59e78793          	addi	a5,a5,1438 # 8644 <__clz_tab>
    80ae:	97aa                	add	a5,a5,a0
    80b0:	0007c503          	lbu	a0,0(a5)
    80b4:	4741                	li	a4,16
    80b6:	40a70533          	sub	a0,a4,a0
    80ba:	8082                	ret

000080bc <_close>:
    80bc:	05800793          	li	a5,88
    80c0:	1fffb717          	auipc	a4,0x1fffb
    80c4:	36f72823          	sw	a5,880(a4) # 20003430 <errno>
    80c8:	557d                	li	a0,-1
    80ca:	8082                	ret

000080cc <_fstat>:
    80cc:	05800793          	li	a5,88
    80d0:	1fffb717          	auipc	a4,0x1fffb
    80d4:	36f72023          	sw	a5,864(a4) # 20003430 <errno>
    80d8:	557d                	li	a0,-1
    80da:	8082                	ret

000080dc <_isatty>:
    80dc:	05800793          	li	a5,88
    80e0:	1fffb717          	auipc	a4,0x1fffb
    80e4:	34f72823          	sw	a5,848(a4) # 20003430 <errno>
    80e8:	4501                	li	a0,0
    80ea:	8082                	ret

000080ec <_lseek>:
    80ec:	05800793          	li	a5,88
    80f0:	1fffb717          	auipc	a4,0x1fffb
    80f4:	34f72023          	sw	a5,832(a4) # 20003430 <errno>
    80f8:	557d                	li	a0,-1
    80fa:	8082                	ret

000080fc <_read>:
    80fc:	05800793          	li	a5,88
    8100:	1fffb717          	auipc	a4,0x1fffb
    8104:	32f72823          	sw	a5,816(a4) # 20003430 <errno>
    8108:	557d                	li	a0,-1
    810a:	8082                	ret
    810c:	2e2e                	fld	ft8,200(sp)
    810e:	646f432f          	0x646f432f
    8112:	2f65                	jal	88ca <_data_lma+0x186>
    8114:	76726553          	0x76726553
    8118:	6369                	lui	t1,0x1a
    811a:	2f65                	jal	88d2 <_data_lma+0x18e>
    811c:	7246                	flw	ft4,112(sp)
    811e:	6565                	lui	a0,0x19
    8120:	5452                	lw	s0,52(sp)
    8122:	702f534f          	fnmadd.s	ft6,ft10,ft2,fa4,unknown
    8126:	6174726f          	jal	tp,4ff3c <_data_lma+0x477f8>
    812a:	6c62                	flw	fs8,24(sp)
    812c:	2f65                	jal	88e4 <_data_lma+0x1a0>
    812e:	654d                	lui	a0,0x13
    8130:	4d6d                	li	s10,27
    8132:	6e61                	lui	t3,0x18
    8134:	65682f67          	0x65682f67
    8138:	7061                	c.lui	zero,0xffff8
    813a:	345f 632e 0000      	0x632e345f
    8140:	7265                	lui	tp,0xffff9
    8142:	2072                	fld	ft0,280(sp)
    8144:	7461                	lui	s0,0xffff8
    8146:	6c20                	flw	fs0,88(s0)
    8148:	6e69                	lui	t3,0x1a
    814a:	2065                	jal	81f2 <_read+0xf6>
    814c:	6425                	lui	s0,0x9
    814e:	6f20                	flw	fs0,88(a4)
    8150:	2066                	fld	ft0,88(sp)
    8152:	6966                	flw	fs2,88(sp)
    8154:	656c                	flw	fa1,76(a0)
    8156:	2220                	fld	fs0,64(a2)
    8158:	7325                	lui	t1,0xfffe9
    815a:	2e22                	fld	ft8,8(sp)
    815c:	0d20                	addi	s0,sp,664
    815e:	200a                	fld	ft0,128(sp)
    8160:	0000                	unimp
    8162:	0000                	unimp
    8164:	2e2e                	fld	ft8,200(sp)
    8166:	646f432f          	0x646f432f
    816a:	2f65                	jal	8922 <_data_lma+0x1de>
    816c:	76726553          	0x76726553
    8170:	6369                	lui	t1,0x1a
    8172:	2f65                	jal	892a <_data_lma+0x1e6>
    8174:	7246                	flw	ft4,112(sp)
    8176:	6565                	lui	a0,0x19
    8178:	5452                	lw	s0,52(sp)
    817a:	702f534f          	fnmadd.s	ft6,ft10,ft2,fa4,unknown
    817e:	6174726f          	jal	tp,4ff94 <_data_lma+0x47850>
    8182:	6c62                	flw	fs8,24(sp)
    8184:	2f65                	jal	893c <_data_lma+0x1f8>
    8186:	2f434347          	fmsub.q	ft6,ft6,fs4,ft5,rmm
    818a:	4952                	lw	s2,20(sp)
    818c:	562d4353          	0x562d4353
    8190:	726f702f          	0x726f702f
    8194:	2e74                	fld	fa3,216(a2)
    8196:	2e2e0063          	beq	t3,sp,8476 <__mprec_tens+0xae>
    819a:	646f432f          	0x646f432f
    819e:	2f65                	jal	8956 <_data_lma+0x212>
    81a0:	76726553          	0x76726553
    81a4:	6369                	lui	t1,0x1a
    81a6:	2f65                	jal	895e <_data_lma+0x21a>
    81a8:	7246                	flw	ft4,112(sp)
    81aa:	6565                	lui	a0,0x19
    81ac:	5452                	lw	s0,52(sp)
    81ae:	712f534f          	fnmadd.s	ft6,ft10,fs2,fa4,unknown
    81b2:	6575                	lui	a0,0x1d
    81b4:	6575                	lui	a0,0x1d
    81b6:	632e                	flw	ft6,200(sp)
    81b8:	0000                	unimp
    81ba:	0000                	unimp
    81bc:	1e78                	addi	a4,sp,828
    81be:	0000                	unimp
    81c0:	1e6a                	slli	t3,t3,0x3a
    81c2:	0000                	unimp
    81c4:	1e72                	slli	t3,t3,0x3c
    81c6:	0000                	unimp
    81c8:	1e6e                	slli	t3,t3,0x3b
    81ca:	0000                	unimp
    81cc:	1e8e                	slli	t4,t4,0x23
    81ce:	0000                	unimp
    81d0:	2e2e                	fld	ft8,200(sp)
    81d2:	646f432f          	0x646f432f
    81d6:	2f65                	jal	898e <_data_lma+0x24a>
    81d8:	76726553          	0x76726553
    81dc:	6369                	lui	t1,0x1a
    81de:	2f65                	jal	8996 <_data_lma+0x252>
    81e0:	7246                	flw	ft4,112(sp)
    81e2:	6565                	lui	a0,0x19
    81e4:	5452                	lw	s0,52(sp)
    81e6:	742f534f          	0x742f534f
    81ea:	7361                	lui	t1,0xffff8
    81ec:	632e736b          	0x632e736b
    81f0:	0000                	unimp
    81f2:	0000                	unimp
    81f4:	4449                	li	s0,18
    81f6:	454c                	lw	a1,12(a0)
    81f8:	0000                	unimp
    81fa:	0000                	unimp
    81fc:	22f0                	fld	fa2,192(a3)
    81fe:	0000                	unimp
    8200:	22f0                	fld	fa2,192(a3)
    8202:	0000                	unimp
    8204:	2330                	fld	fa2,64(a4)
    8206:	0000                	unimp
    8208:	233c                	fld	fa5,64(a4)
    820a:	0000                	unimp
    820c:	237e                	fld	ft6,472(sp)
    820e:	0000                	unimp
    8210:	22f0                	fld	fa2,192(a3)
    8212:	0000                	unimp
    8214:	22f0                	fld	fa2,192(a3)
    8216:	0000                	unimp
    8218:	2330                	fld	fa2,64(a4)
    821a:	0000                	unimp
    821c:	233c                	fld	fa5,64(a4)
    821e:	0000                	unimp
    8220:	6d54                	flw	fa3,28(a0)
    8222:	5172                	lw	sp,60(sp)
    8224:	0000                	unimp
    8226:	0000                	unimp
    8228:	2e2e                	fld	ft8,200(sp)
    822a:	646f432f          	0x646f432f
    822e:	2f65                	jal	89e6 <_data_lma+0x2a2>
    8230:	76726553          	0x76726553
    8234:	6369                	lui	t1,0x1a
    8236:	2f65                	jal	89ee <_data_lma+0x2aa>
    8238:	7246                	flw	ft4,112(sp)
    823a:	6565                	lui	a0,0x19
    823c:	5452                	lw	s0,52(sp)
    823e:	742f534f          	0x742f534f
    8242:	6d69                	lui	s10,0x1a
    8244:	7265                	lui	tp,0xffff9
    8246:	00632e73          	csrrs	t3,0x6,t1
    824a:	0000                	unimp
    824c:	6d54                	flw	fa3,28(a0)
    824e:	2072                	fld	ft0,280(sp)
    8250:	00637653          	fadd.s	fa2,ft6,ft6
    8254:	4352                	lw	t1,20(sp)
    8256:	4320                	lw	s0,64(a4)
    8258:	756d6d6f          	jal	s10,de9ae <_data_lma+0xd626a>
    825c:	696e                	flw	fs2,216(sp)
    825e:	69746163          	bltu	s0,s7,88e0 <_data_lma+0x19c>
    8262:	00006e6f          	jal	t3,e262 <_data_lma+0x5b1e>
    8266:	0000                	unimp
    8268:	6154                	flw	fa3,4(a0)
    826a:	4120656b          	0x4120656b
    826e:	6f697463          	bgeu	s2,s6,8956 <_data_lma+0x212>
    8272:	006e                	c.slli	zero,0x1b
    8274:	7244                	flw	fs1,36(a2)
    8276:	20656e6f          	jal	t3,5e47c <_data_lma+0x55d38>
    827a:	6d6d6f43          	0x6d6d6f43
    827e:	6e75                	lui	t3,0x1d
    8280:	6369                	lui	t1,0x1a
    8282:	7461                	lui	s0,0xffff8
    8284:	6f69                	lui	t5,0x1a
    8286:	006e                	c.slli	zero,0x1b
    8288:	756f6873          	csrrsi	a6,0x756,30
    828c:	646c                	flw	fa1,76(s0)
    828e:	276e                	fld	fa4,216(sp)
    8290:	2074                	fld	fa3,192(s0)
    8292:	7572                	flw	fa0,60(sp)
    8294:	206e                	fld	ft0,216(sp)
    8296:	7461                	lui	s0,0xffff8
    8298:	6820                	flw	fs0,80(s0)
    829a:	7265                	lui	tp,0xffff9
    829c:	2165                	jal	8744 <_data_lma>
    829e:	0021                	c.nop	8
    82a0:	ffff                	0xffff
    82a2:	ffff                	0xffff
    82a4:	ffff                	0xffff
    82a6:	4e497fef          	jal	t6,9f78a <_data_lma+0x97046>
    82aa:	0046                	c.slli	zero,0x11
    82ac:	6e69                	lui	t3,0x1a
    82ae:	0066                	c.slli	zero,0x19
    82b0:	414e                	lw	sp,208(sp)
    82b2:	004e                	c.slli	zero,0x13
    82b4:	616e                	flw	ft2,216(sp)
    82b6:	006e                	c.slli	zero,0x1b
    82b8:	0030                	addi	a2,sp,8
    82ba:	0000                	unimp
    82bc:	3130                	fld	fa2,96(a0)
    82be:	3332                	fld	ft6,296(sp)
    82c0:	3534                	fld	fa3,104(a0)
    82c2:	3736                	fld	fa4,360(sp)
    82c4:	3938                	fld	fa4,112(a0)
    82c6:	4241                	li	tp,16
    82c8:	46454443          	fmadd.q	fs0,fa0,ft4,fs0,rmm
    82cc:	0000                	unimp
    82ce:	0000                	unimp
    82d0:	3130                	fld	fa2,96(a0)
    82d2:	3332                	fld	ft6,296(sp)
    82d4:	3534                	fld	fa3,104(a0)
    82d6:	3736                	fld	fa4,360(sp)
    82d8:	3938                	fld	fa4,112(a0)
    82da:	6261                	lui	tp,0x18
    82dc:	66656463          	bltu	a0,t1,8944 <_data_lma+0x200>
	...
    82ec:	0000                	unimp
    82ee:	3ff8                	fld	fa4,248(a5)
    82f0:	4361                	li	t1,24
    82f2:	87a7636f          	jal	t1,fff7e36c <__freertos_irq_stack_top+0xdff7936c>
    82f6:	3fd2                	fld	ft11,304(sp)
    82f8:	8b60c8b3          	0x8b60c8b3
    82fc:	8a28                	0x8a28
    82fe:	3fc6                	fld	ft11,112(sp)
    8300:	509f79fb          	0x509f79fb
    8304:	3fd34413          	xori	s0,t1,1021
    8308:	0000                	unimp
    830a:	0000                	unimp
    830c:	0000                	unimp
    830e:	3ff0                	fld	fa2,248(a5)
    8310:	0000                	unimp
    8312:	0000                	unimp
    8314:	0000                	unimp
    8316:	4024                	lw	s1,64(s0)
    8318:	0000                	unimp
    831a:	0000                	unimp
    831c:	0000                	unimp
    831e:	401c                	lw	a5,0(s0)
    8320:	0000                	unimp
    8322:	0000                	unimp
    8324:	0000                	unimp
    8326:	4014                	lw	a3,0(s0)
    8328:	0000                	unimp
    832a:	0000                	unimp
    832c:	0000                	unimp
    832e:	3fe0                	fld	fs0,248(a5)
    8330:	6e49                	lui	t3,0x12
    8332:	6966                	flw	fs2,88(sp)
    8334:	696e                	flw	fs2,216(sp)
    8336:	7974                	flw	fa3,116(a0)
    8338:	0000                	unimp
    833a:	0000                	unimp
    833c:	614e                	flw	ft2,208(sp)
    833e:	004e                	c.slli	zero,0x13

00008340 <__sf_fake_stderr>:
	...

00008360 <__sf_fake_stdin>:
	...

00008380 <__sf_fake_stdout>:
	...

000083a0 <__mprec_bigtens>:
    83a0:	8000 37e0 c379 4341 6e17 b505 b8b5 4693     ...7y.AC.n.....F
    83b0:	f9f5 e93f 4f03 4d38 1d32 f930 7748 5a82     ..?..O8M2.0.Hw.Z
    83c0:	bf3c 7f73 4fdd 7515                         <.s..O.u

000083c8 <__mprec_tens>:
    83c8:	0000 0000 0000 3ff0 0000 0000 0000 4024     .......?......$@
    83d8:	0000 0000 0000 4059 0000 0000 4000 408f     ......Y@.....@.@
    83e8:	0000 0000 8800 40c3 0000 0000 6a00 40f8     .......@.....j.@
    83f8:	0000 0000 8480 412e 0000 0000 12d0 4163     .......A......cA
    8408:	0000 0000 d784 4197 0000 0000 cd65 41cd     .......A....e..A
    8418:	0000 2000 a05f 4202 0000 e800 4876 4237     ... _..B....vH7B
    8428:	0000 a200 1a94 426d 0000 e540 309c 42a2     ......mB..@..0.B
    8438:	0000 1e90 bcc4 42d6 0000 2634 6bf5 430c     .......B..4&.k.C
    8448:	8000 37e0 c379 4341 a000 85d8 3457 4376     ...7y.AC....W4vC
    8458:	c800 674e c16d 43ab 3d00 6091 58e4 43e1     ..Ngm..C.=.`.X.C
    8468:	8c40 78b5 af1d 4415 ef50 d6e2 1ae4 444b     @..x...DP.....KD
    8478:	d592 064d f0cf 4480 4af6 c7e1 2d02 44b5     ..M....D.J...-.D
    8488:	9db4 79d9 7843 44ea                         ...yCx.D

00008490 <p05.3319>:
    8490:	0005 0000 0019 0000 007d 0000 2d23 2b30     ........}...#-0+
    84a0:	0020 0000 6c68 004c 6665 4567 4746 0000      ...hlL.efgEFG..
    84b0:	0043 0000 4f50 4953 0058 0000 002e 0000     C...POSIX.......

000084c0 <_ctype_>:
    84c0:	2000 2020 2020 2020 2020 2828 2828 2028     .         ((((( 
    84d0:	2020 2020 2020 2020 2020 2020 2020 2020                     
    84e0:	8820 1010 1010 1010 1010 1010 1010 1010      ...............
    84f0:	0410 0404 0404 0404 0404 1004 1010 1010     ................
    8500:	1010 4141 4141 4141 0101 0101 0101 0101     ..AAAAAA........
    8510:	0101 0101 0101 0101 0101 0101 1010 1010     ................
    8520:	1010 4242 4242 4242 0202 0202 0202 0202     ..BBBBBB........
    8530:	0202 0202 0202 0202 0202 0202 1010 1010     ................
    8540:	0020 0000 0000 0000 0000 0000 0000 0000      ...............
	...
    85c4:	e5b6 ffff e43a ffff e54a ffff e552 ffff     ....:...J...R...
    85d4:	e54a ffff e46a ffff e54a ffff e552 ffff     J...j...J...R...
    85e4:	e43a ffff e43a ffff e46a ffff e552 ffff     :...:...j...R...
    85f4:	e5ac ffff e5ac ffff e5ac ffff e46a ffff     ............j...
    8604:	ecc6 ffff ebb8 ffff ebb8 ffff ebb6 ffff     ................
    8614:	ebbe ffff ebbe ffff eb84 ffff ebb6 ffff     ................
    8624:	ebbe ffff eb84 ffff ebbe ffff ebb6 ffff     ................
    8634:	ecb2 ffff ecb2 ffff ecb2 ffff eb84 ffff     ................

00008644 <__clz_tab>:
    8644:	0100 0202 0303 0303 0404 0404 0404 0404     ................
    8654:	0505 0505 0505 0505 0505 0505 0505 0505     ................
    8664:	0606 0606 0606 0606 0606 0606 0606 0606     ................
    8674:	0606 0606 0606 0606 0606 0606 0606 0606     ................
    8684:	0707 0707 0707 0707 0707 0707 0707 0707     ................
    8694:	0707 0707 0707 0707 0707 0707 0707 0707     ................
    86a4:	0707 0707 0707 0707 0707 0707 0707 0707     ................
    86b4:	0707 0707 0707 0707 0707 0707 0707 0707     ................
    86c4:	0808 0808 0808 0808 0808 0808 0808 0808     ................
    86d4:	0808 0808 0808 0808 0808 0808 0808 0808     ................
    86e4:	0808 0808 0808 0808 0808 0808 0808 0808     ................
    86f4:	0808 0808 0808 0808 0808 0808 0808 0808     ................
    8704:	0808 0808 0808 0808 0808 0808 0808 0808     ................
    8714:	0808 0808 0808 0808 0808 0808 0808 0808     ................
    8724:	0808 0808 0808 0808 0808 0808 0808 0808     ................
    8734:	0808 0808 0808 0808 0808 0808 0808 0808     ................
